

Microchip MPLAB XC8 Assembler V2.10 build 88905656 
                                                                                               Tue Apr 28 11:09:53 2020

Microchip MPLAB XC8 C Compiler v2.10 (Free license) build 20190730164152 Og1 
     1                           	processor	18F45K22
     2                           	fnconf	rparam,??,?,0
     3                           	opt	pw 120
     4                           	opt	flic
     5                           	psect	idataCOMRAM,global,class=CODE,delta=1,noexec
     6                           	psect	nvCOMRAM,global,class=COMRAM,space=1,delta=1,noexec
     7                           	psect	smallconst,global,reloc=2,class=SMALLCONST,delta=1,noexec
     8                           	psect	cinit,global,reloc=2,class=CODE,delta=1
     9                           	psect	bssCOMRAM,global,class=COMRAM,space=1,delta=1,noexec
    10                           	psect	dataCOMRAM,global,class=COMRAM,space=1,delta=1,noexec
    11                           	psect	cstackCOMRAM,global,class=COMRAM,space=1,delta=1,noexec
    12                           	psect	text0,global,reloc=2,class=CODE,delta=1
    13                           	psect	text1,global,reloc=2,class=CODE,delta=1,group=2
    14                           	psect	text2,global,reloc=2,class=CODE,delta=1,group=2
    15                           	psect	text3,global,reloc=2,class=CODE,delta=1
    16                           	psect	text4,global,reloc=2,class=CODE,delta=1
    17                           	psect	text5,global,reloc=2,class=CODE,delta=1
    18                           	psect	text6,global,reloc=2,class=CODE,delta=1
    19                           	psect	text7,global,reloc=2,class=CODE,delta=1
    20                           	psect	text8,global,reloc=2,class=CODE,delta=1
    21                           	psect	text9,global,reloc=2,class=CODE,delta=1
    22                           	psect	text10,global,reloc=2,class=CODE,delta=1
    23                           	psect	text11,global,reloc=2,class=CODE,delta=1
    24                           	psect	text12,global,reloc=2,class=CODE,delta=1
    25                           	psect	text13,global,reloc=2,class=CODE,delta=1
    26                           	psect	text14,global,reloc=2,class=CODE,delta=1
    27                           	psect	text15,global,reloc=2,class=CODE,delta=1
    28                           	psect	text16,global,reloc=2,class=CODE,delta=1
    29                           	psect	text17,global,reloc=2,class=CODE,delta=1
    30                           	psect	text18,global,reloc=2,class=CODE,delta=1
    31                           	psect	text19,global,reloc=2,class=CODE,delta=1
    32                           	psect	text20,global,reloc=2,class=CODE,delta=1
    33                           	psect	text21,global,reloc=2,class=CODE,delta=1
    34                           	psect	text22,global,reloc=2,class=CODE,delta=1
    35                           	psect	text23,global,reloc=2,class=CODE,delta=1
    36                           	psect	text24,global,reloc=2,class=CODE,delta=1
    37                           	psect	text25,global,reloc=2,class=CODE,delta=1
    38                           	psect	intcodelo,global,reloc=2,class=CODE,delta=1
    39                           	psect	text27,global,reloc=2,class=CODE,delta=1
    40                           	psect	text28,global,reloc=2,class=CODE,delta=1
    41                           	psect	text29,global,reloc=2,class=CODE,delta=1
    42                           	psect	text30,global,reloc=2,class=CODE,delta=1
    43                           	psect	text31,global,reloc=2,class=CODE,delta=1
    44                           	psect	text32,global,reloc=2,class=CODE,delta=1
    45                           	psect	text33,global,reloc=2,class=CODE,delta=1
    46                           	psect	text34,global,reloc=2,class=CODE,delta=1
    47                           	psect	text35,global,reloc=2,class=CODE,delta=1
    48                           	psect	text36,global,reloc=2,class=CODE,delta=1
    49                           	psect	text37,global,reloc=2,class=CODE,delta=1
    50                           	psect	intcode,global,reloc=2,class=CODE,delta=1
    51                           	psect	intcode_body,global,reloc=2,class=CODE,delta=1
    52                           	psect	text39,global,reloc=2,class=CODE,delta=1
    53                           	psect	text40,global,reloc=2,class=CODE,delta=1
    54                           	psect	text41,global,reloc=2,class=CODE,delta=1
    55                           	psect	text42,global,reloc=2,class=CODE,delta=1
    56                           	psect	text43,global,reloc=2,class=CODE,delta=1
    57                           	psect	text44,global,reloc=2,class=CODE,delta=1
    58                           	psect	intsave_regs,global,class=BIGRAM,space=1,delta=1,noexec
    59                           	psect	text45,global,reloc=2,class=CODE,delta=1
    60                           	psect	rparam,global,class=COMRAM,space=1,delta=1,noexec
    61                           	psect	temp,global,ovrld,common,class=COMRAM,space=1,delta=1
    62  0000                     
    63                           ; Version 2.10
    64                           ; Generated 31/07/2019 GMT
    65                           ; 
    66                           ; Copyright © 2019, Microchip Technology Inc. and its subsidiaries ("Microchip")
    67                           ; All rights reserved.
    68                           ; 
    69                           ; This software is developed by Microchip Technology Inc. and its subsidiaries ("Microch
      +                          ip").
    70                           ; 
    71                           ; Redistribution and use in source and binary forms, with or without modification, are
    72                           ; permitted provided that the following conditions are met:
    73                           ; 
    74                           ;     1. Redistributions of source code must retain the above copyright notice, this lis
      +                          t of
    75                           ;        conditions and the following disclaimer.
    76                           ; 
    77                           ;     2. Redistributions in binary form must reproduce the above copyright notice, this 
      +                          list
    78                           ;        of conditions and the following disclaimer in the documentation and/or other
    79                           ;        materials provided with the distribution.
    80                           ; 
    81                           ;     3. Microchip's name may not be used to endorse or promote products derived from th
      +                          is
    82                           ;        software without specific prior written permission.
    83                           ; 
    84                           ; THIS SOFTWARE IS PROVIDED BY MICROCHIP "AS IS" AND ANY EXPRESS OR IMPLIED WARRANTIES,
    85                           ; INCLUDING, BUT NOT LIMITED TO, THE IMPLIED WARRANTIES OF MERCHANTABILITY AND FITNESS F
      +                          OR
    86                           ; PURPOSE ARE DISCLAIMED.  IN NO EVENT SHALL MICROCHIP BE LIABLE FOR ANY DIRECT, INDIREC
      +                          T,
    87                           ; INCIDENTAL, SPECIAL, EXEMPLARY, OR CONSEQUENTIAL DAMAGES (INCLUDING BUT NOT LIMITED TO
    88                           ; PROCUREMENT OF SUBSTITUTE GOODS OR SERVICES; LOSS OF USE, DATA OR PROFITS; OR BUSINESS
    89                           ; INTERRUPTION) HOWSOEVER CAUSED AND ON ANY THEORY OF LIABILITY, WHETHER IN CONTRACT, ST
      +                          RICT
    90                           ; LIABILITY, OR TORT (INCLUDING NEGLIGENCE OR OTHERWISE) ARISING IN ANY WAY OUT OF THE U
      +                          SE OF
    91                           ; THIS SOFTWARE, EVEN IF ADVISED OF THE POSSIBILITY OF SUCH DAMAGE.
    92                           ; 
    93                           ; 
    94                           ; Code-generator required, PIC18F45K22 Definitions
    95                           ; 
    96                           ; SFR Addresses
    97  0000                     
    98                           	psect	idataCOMRAM
    99  00109A                     __pidataCOMRAM:
   100                           	opt callstack 0
   101                           
   102                           ;initializer for _LCD_linha_2
   103  00109A  00C0               	dw	192
   104                           
   105                           ;initializer for _LCD_linha_1
   106  00109C  0080               	dw	128
   107                           
   108                           ;initializer for _contador_colunas_LCD
   109  00109E  00C0               	dw	192
   110                           
   111                           	psect	nvCOMRAM
   112  000029                     __pnvCOMRAM:
   113                           	opt callstack 0
   114  000029                     _ADC_InterruptHandler:
   115                           	opt callstack 0
   116  000029                     	ds	2
   117  00002B                     _INT2_InterruptHandler:
   118                           	opt callstack 0
   119  00002B                     	ds	2
   120  00002D                     _INT1_InterruptHandler:
   121                           	opt callstack 0
   122  00002D                     	ds	2
   123  00002F                     _INT0_InterruptHandler:
   124                           	opt callstack 0
   125  00002F                     	ds	2
   126  000031                     _timer0ReloadVal:
   127                           	opt callstack 0
   128  000031                     	ds	2
   129  000033                     _TMR0_InterruptHandler:
   130                           	opt callstack 0
   131  000033                     	ds	2
   132  0000                     _CCPTMRS0bits	set	3913
   133  0000                     _ANSELA	set	3896
   134  0000                     _ANSELE	set	3900
   135  0000                     _ANSELB	set	3897
   136  0000                     _ANSELC	set	3898
   137  0000                     _ANSELD	set	3899
   138  0000                     _ADCON0bits	set	4034
   139  0000                     _ADRESH	set	4036
   140  0000                     _ADRESL	set	4035
   141  0000                     _ADCON2	set	4032
   142  0000                     _ADCON1	set	4033
   143  0000                     _ADCON0	set	4034
   144  0000                     _PORTBbits	set	3969
   145  0000                     _LATDbits	set	3980
   146  0000                     _TRISDbits	set	3989
   147  0000                     _PORTD	set	3971
   148  0000                     _LATBbits	set	3978
   149  0000                     _CCP1CONbits	set	4029
   150  0000                     _LATAbits	set	3977
   151  0000                     _CCPR1L	set	4030
   152  0000                     _CCPR1H	set	4031
   153  0000                     _PSTR1CON	set	4025
   154  0000                     _PWM1CON	set	4023
   155  0000                     _ECCP1AS	set	4022
   156  0000                     _CCP1CON	set	4029
   157  0000                     _T2CONbits	set	4026
   158  0000                     _T2CON	set	4026
   159  0000                     _TMR2	set	4028
   160  0000                     _PR2	set	4027
   161  0000                     _WPUB	set	3937
   162  0000                     _TRISD	set	3989
   163  0000                     _TRISC	set	3988
   164  0000                     _TRISB	set	3987
   165  0000                     _TRISA	set	3986
   166  0000                     _TRISE	set	3990
   167  0000                     _LATC	set	3979
   168  0000                     _LATB	set	3978
   169  0000                     _LATA	set	3977
   170  0000                     _LATD	set	3980
   171  0000                     _LATE	set	3981
   172  0000                     _OSCTUNE	set	3995
   173  0000                     _OSCCON2	set	4050
   174  0000                     _OSCCON	set	4051
   175  0000                     _PIR1bits	set	3998
   176  0000                     _PIE1bits	set	3997
   177  0000                     _IPR1bits	set	3999
   178  0000                     _RCONbits	set	4048
   179  0000                     _INTCON2bits	set	4081
   180  0000                     _INTCON3bits	set	4080
   181  0000                     _T0CON	set	4053
   182  0000                     _INTCONbits	set	4082
   183  0000                     _TMR0L	set	4054
   184  0000                     _TMR0H	set	4055
   185  0000                     _T0CONbits	set	4053
   186                           
   187                           	psect	smallconst
   188  000600                     __psmallconst:
   189                           	opt callstack 0
   190  000600  00                 	db	0
   191  000601                     STR_1:
   192  000601  20                 	db	32
   193  000602  20                 	db	32
   194  000603  20                 	db	32
   195  000604  20                 	db	32
   196  000605  20                 	db	32
   197  000606  20                 	db	32
   198  000607  20                 	db	32
   199  000608  20                 	db	32
   200  000609  20                 	db	32
   201  00060A  20                 	db	32
   202  00060B  20                 	db	32
   203  00060C  20                 	db	32
   204  00060D  20                 	db	32
   205  00060E  20                 	db	32
   206  00060F  20                 	db	32
   207  000610  20                 	db	32
   208  000611  20                 	db	32
   209  000612  20                 	db	32
   210  000613  20                 	db	32
   211  000614  20                 	db	32
   212  000615  00                 	db	0
   213  000616                     STR_3:
   214  000616  54                 	db	84	;'T'
   215  000617  65                 	db	101	;'e'
   216  000618  73                 	db	115	;'s'
   217  000619  74                 	db	116	;'t'
   218  00061A  65                 	db	101	;'e'
   219  00061B  20                 	db	32
   220  00061C  2D                 	db	45
   221  00061D  20                 	db	32
   222  00061E  54                 	db	84	;'T'
   223  00061F  65                 	db	101	;'e'
   224  000620  63                 	db	99	;'c'
   225  000621  6C                 	db	108	;'l'
   226  000622  61                 	db	97	;'a'
   227  000623  64                 	db	100	;'d'
   228  000624  6F                 	db	111	;'o'
   229  000625  00                 	db	0
   230  000626                     STR_2:
   231  000626  4D                 	db	77	;'M'
   232  000627  61                 	db	97	;'a'
   233  000628  72                 	db	114	;'r'
   234  000629  73                 	db	115	;'s'
   235  00062A  20                 	db	32
   236  00062B  52                 	db	82	;'R'
   237  00062C  4F                 	db	79	;'O'
   238  00062D  43                 	db	67	;'C'
   239  00062E  4B                 	db	75	;'K'
   240  00062F  27                 	db	39
   241  000630  53                 	db	83	;'S'
   242  000631  21                 	db	33
   243  000632  00                 	db	0
   244                           
   245                           ; #config settings
   246  000633  00                 	db	0	; dummy byte at the end
   247  0000                     
   248                           	psect	cinit
   249  000D8E                     __pcinit:
   250                           	opt callstack 0
   251  000D8E                     start_initialization:
   252                           	opt callstack 0
   253  000D8E                     __initialization:
   254                           	opt callstack 0
   255                           
   256                           ; Initialize objects allocated to COMRAM (6 bytes)
   257                           ; load TBLPTR registers with __pidataCOMRAM
   258  000D8E  0E9A               	movlw	low __pidataCOMRAM
   259  000D90  6EF6               	movwf	tblptrl,c
   260  000D92  0E10               	movlw	high __pidataCOMRAM
   261  000D94  6EF7               	movwf	tblptrh,c
   262  000D96  0E00               	movlw	low (__pidataCOMRAM shr (0+16))
   263  000D98  6EF8               	movwf	tblptru,c
   264  000D9A  EE00  F035         	lfsr	0,__pdataCOMRAM
   265  000D9E  EE10 F006          	lfsr	1,6
   266  000DA2                     copy_data0:
   267  000DA2  0009               	tblrd		*+
   268  000DA4  CFF5 FFEE          	movff	tablat,postinc0
   269  000DA8  50E5               	movf	postdec1,w,c
   270  000DAA  50E1               	movf	fsr1l,w,c
   271  000DAC  E1FA               	bnz	copy_data0
   272                           
   273                           ; Clear objects allocated to COMRAM (17 bytes)
   274  000DAE  EE00  F018         	lfsr	0,__pbssCOMRAM
   275  000DB2  0E11               	movlw	17
   276  000DB4                     clear_0:
   277  000DB4  6AEE               	clrf	postinc0,c
   278  000DB6  06E8               	decf	wreg,f,c
   279  000DB8  E1FD               	bnz	clear_0
   280  000DBA                     end_of_initialization:
   281                           	opt callstack 0
   282  000DBA                     __end_of__initialization:
   283                           	opt callstack 0
   284  000DBA  903B               	bcf	int$flags,0,c	;clear compiler interrupt flag (level 1)
   285  000DBC  923B               	bcf	int$flags,1,c	;clear compiler interrupt flag (level 2)
   286  000DBE  0E00               	movlw	low (__Lmediumconst shr (0+16))
   287  000DC0  6EF8               	movwf	tblptru,c
   288  000DC2  0100               	movlb	0
   289  000DC4  EF1A  F003         	goto	_main	;jump to C main() function
   290                           
   291                           	psect	bssCOMRAM
   292  000018                     __pbssCOMRAM:
   293                           	opt callstack 0
   294  000018                     _temp_alar:
   295                           	opt callstack 0
   296  000018                     	ds	2
   297  00001A                     _temp_alar_int:
   298                           	opt callstack 0
   299  00001A                     	ds	2
   300  00001C                     _pin_real:
   301                           	opt callstack 0
   302  00001C                     	ds	2
   303  00001E                     _pin_intr:
   304                           	opt callstack 0
   305  00001E                     	ds	2
   306  000020                     _tecla_limpar:
   307                           	opt callstack 0
   308  000020                     	ds	2
   309  000022                     _tecla_n:
   310                           	opt callstack 0
   311  000022                     	ds	2
   312  000024                     _pin:
   313                           	opt callstack 0
   314  000024                     	ds	4
   315  000028                     _tecla_premida:
   316                           	opt callstack 0
   317  000028                     	ds	1
   318                           
   319                           	psect	dataCOMRAM
   320  000035                     __pdataCOMRAM:
   321                           	opt callstack 0
   322  000035                     _LCD_linha_2:
   323                           	opt callstack 0
   324  000035                     	ds	2
   325  000037                     _LCD_linha_1:
   326                           	opt callstack 0
   327  000037                     	ds	2
   328  000039                     _contador_colunas_LCD:
   329                           	opt callstack 0
   330  000039                     	ds	2
   331                           
   332                           	psect	cstackCOMRAM
   333  000001                     __pcstackCOMRAM:
   334                           	opt callstack 0
   335  000001                     ??_INTERRUPT_InterruptManagerHigh:
   336  000001                     
   337                           ; 1 bytes @ 0x0
   338  000001                     	ds	2
   339  000003                     ??_acende_LED:
   340                           
   341                           ; 1 bytes @ 0x2
   342  000003                     	ds	1
   343  000004                     ??_INTERRUPT_InterruptManagerLow:
   344                           
   345                           ; 1 bytes @ 0x3
   346  000004                     	ds	5
   347  000009                     ??_DelayPORXLCD:
   348  000009                     ??_DelayXLCD:
   349  000009                     ?_strlen:
   350                           	opt callstack 0
   351  000009                     WriteCmdXLCD@cmd:
   352                           	opt callstack 0
   353  000009                     WriteDataXLCD@data:
   354                           	opt callstack 0
   355  000009                     TMR0_SetInterruptHandler@InterruptHandler:
   356                           	opt callstack 0
   357  000009                     INT0_SetInterruptHandler@InterruptHandler:
   358                           	opt callstack 0
   359  000009                     INT1_SetInterruptHandler@InterruptHandler:
   360                           	opt callstack 0
   361  000009                     INT2_SetInterruptHandler@InterruptHandler:
   362                           	opt callstack 0
   363  000009                     ADC_SetInterruptHandler@InterruptHandler:
   364                           	opt callstack 0
   365  000009                     strlen@s:
   366                           	opt callstack 0
   367                           
   368                           ; 2 bytes @ 0x8
   369  000009                     	ds	1
   370  00000A                     putsXLCD@buffer:
   371                           	opt callstack 0
   372                           
   373                           ; 2 bytes @ 0x9
   374  00000A                     	ds	1
   375  00000B                     ??_TMR0_Initialize:
   376  00000B                     strlen@a:
   377                           	opt callstack 0
   378                           
   379                           ; 2 bytes @ 0xA
   380  00000B                     	ds	1
   381  00000C                     ??_LCD_inicio_teste:
   382  00000C                     
   383                           ; 1 bytes @ 0xB
   384  00000C                     	ds	1
   385  00000D                     strncat@d:
   386                           	opt callstack 0
   387                           
   388                           ; 2 bytes @ 0xC
   389  00000D                     	ds	2
   390  00000F                     strncat@s:
   391                           	opt callstack 0
   392                           
   393                           ; 2 bytes @ 0xE
   394  00000F                     	ds	2
   395  000011                     strncat@n:
   396                           	opt callstack 0
   397                           
   398                           ; 2 bytes @ 0x10
   399  000011                     	ds	2
   400  000013                     
   401                           ; 1 bytes @ 0x12
   402  000013                     	ds	2
   403  000015                     ??_main:
   404                           
   405                           ; 1 bytes @ 0x14
   406  000015                     	ds	1
   407  000016                     main@contador_caracteres:
   408                           	opt callstack 0
   409                           
   410                           ; 2 bytes @ 0x15
   411  000016                     	ds	2
   412                           
   413 ;;
   414 ;;Main: autosize = 0, tempsize = 1, incstack = 0, save=0
   415 ;;
   416 ;; *************** function _main *****************
   417 ;; Defined at:
   418 ;;		line 69 in file "main.c"
   419 ;; Parameters:    Size  Location     Type
   420 ;;		None
   421 ;; Auto vars:     Size  Location     Type
   422 ;;  contador_car    2   21[COMRAM] int 
   423 ;; Return value:  Size  Location     Type
   424 ;;                  1    wreg      void 
   425 ;; Registers used:
   426 ;;		wreg, fsr0l, fsr0h, fsr1l, fsr1h, fsr2l, fsr2h, status,2, status,0, tblptrl, tblptrh, tblptru, cstack
   427 ;; Tracked objects:
   428 ;;		On entry : 0/0
   429 ;;		On exit  : 0/0
   430 ;;		Unchanged: 0/0
   431 ;; Data sizes:     COMRAM   BANK0   BANK1   BANK2   BANK3   BANK4   BANK5
   432 ;;      Params:         0       0       0       0       0       0       0
   433 ;;      Locals:         2       0       0       0       0       0       0
   434 ;;      Temps:          1       0       0       0       0       0       0
   435 ;;      Totals:         3       0       0       0       0       0       0
   436 ;;Total ram usage:        3 bytes
   437 ;; Hardware stack levels required when called:   12
   438 ;; This function calls:
   439 ;;		_BusyXLCD
   440 ;;		_INT0_SetInterruptHandler
   441 ;;		_INT1_SetInterruptHandler
   442 ;;		_INT2_SetInterruptHandler
   443 ;;		_LCD_inicio_teste
   444 ;;		_SYSTEM_Initialize
   445 ;;		_TMR0_SetInterruptHandler
   446 ;;		_WriteCmdXLCD
   447 ;;		_putsXLCD
   448 ;;		_strncat
   449 ;; This function is called by:
   450 ;;		Startup code after reset
   451 ;; This function uses a non-reentrant model
   452 ;;
   453                           
   454                           	psect	text0
   455  000634                     __ptext0:
   456                           	opt callstack 0
   457  000634                     _main:
   458                           	opt callstack 19
   459  000634                     
   460                           ;main.c: 72:     SYSTEM_Initialize();
   461  000634  ECD3  F007         	call	_SYSTEM_Initialize	;wreg free
   462  000638                     
   463                           ;main.c: 83:     (INTCONbits.GIEH = 1);
   464  000638  8EF2               	bsf	242,7,c	;volatile
   465  00063A                     
   466                           ;main.c: 115:     int contador_caracteres = 4;
   467  00063A  0E00               	movlw	0
   468  00063C  6E17               	movwf	(main@contador_caracteres+1)^0,c
   469  00063E  0E04               	movlw	4
   470  000640  6E16               	movwf	main@contador_caracteres^0,c
   471  000642                     
   472                           ;main.c: 118:     LCD_inicio_teste();
   473  000642  ECF1  F003         	call	_LCD_inicio_teste	;wreg free
   474  000646                     
   475                           ;main.c: 121:     TMR0_SetInterruptHandler (acende_LED);
   476  000646  0E82               	movlw	low _acende_LED
   477  000648  6E09               	movwf	TMR0_SetInterruptHandler@InterruptHandler^0,c
   478  00064A  0E0F               	movlw	high _acende_LED
   479  00064C  6E0A               	movwf	(TMR0_SetInterruptHandler@InterruptHandler+1)^0,c
   480  00064E  EC28  F008         	call	_TMR0_SetInterruptHandler	;wreg free
   481  000652                     
   482                           ;main.c: 124:     INT0_SetInterruptHandler (teclado_coluna_1);
   483  000652  0ED0               	movlw	low _teclado_coluna_1
   484  000654  6E09               	movwf	INT0_SetInterruptHandler@InterruptHandler^0,c
   485  000656  0E0B               	movlw	high _teclado_coluna_1
   486  000658  6E0A               	movwf	(INT0_SetInterruptHandler@InterruptHandler+1)^0,c
   487  00065A  EC37  F008         	call	_INT0_SetInterruptHandler	;wreg free
   488  00065E                     
   489                           ;main.c: 125:     INT1_SetInterruptHandler (teclado_coluna_2);
   490  00065E  0E72               	movlw	low _teclado_coluna_2
   491  000660  6E09               	movwf	INT1_SetInterruptHandler@InterruptHandler^0,c
   492  000662  0E0B               	movlw	high _teclado_coluna_2
   493  000664  6E0A               	movwf	(INT1_SetInterruptHandler@InterruptHandler+1)^0,c
   494  000666  EC32  F008         	call	_INT1_SetInterruptHandler	;wreg free
   495  00066A                     
   496                           ;main.c: 126:     INT2_SetInterruptHandler (teclado_coluna_3);
   497  00066A  0E8A               	movlw	low _teclado_coluna_3
   498  00066C  6E09               	movwf	INT2_SetInterruptHandler@InterruptHandler^0,c
   499  00066E  0E0A               	movlw	high _teclado_coluna_3
   500  000670  6E0A               	movwf	(INT2_SetInterruptHandler@InterruptHandler+1)^0,c
   501  000672  EC2D  F008         	call	_INT2_SetInterruptHandler	;wreg free
   502  000676                     
   503                           ;main.c: 128:     CCP1CONbits.CCP1M = 0000;
   504  000676  0EF0               	movlw	-16
   505  000678  16BD               	andwf	189,f,c	;volatile
   506  00067A                     l2140:
   507                           
   508                           ;main.c: 131:     {;main.c: 133:         if (tecla_premida == '2'){
   509  00067A  0E32               	movlw	50
   510  00067C  1828               	xorwf	_tecla_premida^0,w,c
   511  00067E  A4D8               	btfss	status,2,c
   512  000680  EF44  F003         	goto	u881
   513  000684  EF46  F003         	goto	u880
   514  000688                     u881:
   515  000688  EF48  F003         	goto	l2144
   516  00068C                     u880:
   517  00068C                     
   518                           ;main.c: 135:             CCP1CONbits.CCP1M = 0000;
   519  00068C  0EF0               	movlw	-16
   520  00068E  16BD               	andwf	189,f,c	;volatile
   521  000690                     l2144:
   522                           
   523                           ;main.c: 138:         if (tecla_premida == '1'){
   524  000690  0E31               	movlw	49
   525  000692  1828               	xorwf	_tecla_premida^0,w,c
   526  000694  A4D8               	btfss	status,2,c
   527  000696  EF4F  F003         	goto	u891
   528  00069A  EF51  F003         	goto	u890
   529  00069E                     u891:
   530  00069E  EF55  F003         	goto	l2148
   531  0006A2                     u890:
   532  0006A2                     
   533                           ;main.c: 140:             CCP1CONbits.CCP1M = 1100;
   534  0006A2  50BD               	movf	189,w,c	;volatile
   535  0006A4  0BF0               	andlw	-16
   536  0006A6  090C               	iorlw	12
   537  0006A8  6EBD               	movwf	189,c	;volatile
   538  0006AA                     l2148:
   539                           
   540                           ;main.c: 144:         if (tecla_n){
   541  0006AA  5022               	movf	_tecla_n^0,w,c
   542  0006AC  1023               	iorwf	(_tecla_n+1)^0,w,c
   543  0006AE  B4D8               	btfsc	status,2,c
   544  0006B0  EF5C  F003         	goto	u901
   545  0006B4  EF5E  F003         	goto	u900
   546  0006B8                     u901:
   547  0006B8  EF93  F003         	goto	l2164
   548  0006BC                     u900:
   549  0006BC                     
   550                           ;main.c: 148:             strncat(pin, &tecla_premida, 1);
   551  0006BC  0E24               	movlw	low _pin
   552  0006BE  6E0D               	movwf	strncat@d^0,c
   553  0006C0  0E00               	movlw	high _pin
   554  0006C2  6E0E               	movwf	(strncat@d+1)^0,c
   555  0006C4  0E28               	movlw	low _tecla_premida
   556  0006C6  6E0F               	movwf	strncat@s^0,c
   557  0006C8  0E00               	movlw	high _tecla_premida
   558  0006CA  6E10               	movwf	(strncat@s+1)^0,c
   559  0006CC  0E00               	movlw	0
   560  0006CE  6E12               	movwf	(strncat@n+1)^0,c
   561  0006D0  0E01               	movlw	1
   562  0006D2  6E11               	movwf	strncat@n^0,c
   563  0006D4  EC0A  F005         	call	_strncat	;wreg free
   564  0006D8  0EC0               	movlw	192
   565  0006DA  ECA8  F006         	call	_WriteCmdXLCD
   566  0006DE                     l2154:
   567  0006DE  EC66  F006         	call	_BusyXLCD	;wreg free
   568  0006E2  0900               	iorlw	0
   569  0006E4  A4D8               	btfss	status,2,c
   570  0006E6  EF77  F003         	goto	u911
   571  0006EA  EF79  F003         	goto	u910
   572  0006EE                     u911:
   573  0006EE  EF6F  F003         	goto	l2154
   574  0006F2                     u910:
   575  0006F2                     
   576                           ;main.c: 160:             putsXLCD(pin);
   577  0006F2  0E24               	movlw	low _pin
   578  0006F4  6E0A               	movwf	putsXLCD@buffer^0,c
   579  0006F6  0E00               	movlw	high _pin
   580  0006F8  6E0B               	movwf	(putsXLCD@buffer+1)^0,c
   581  0006FA  EC80  F005         	call	_putsXLCD	;wreg free
   582  0006FE                     l2158:
   583  0006FE  EC66  F006         	call	_BusyXLCD	;wreg free
   584  000702  0900               	iorlw	0
   585  000704  A4D8               	btfss	status,2,c
   586  000706  EF87  F003         	goto	u921
   587  00070A  EF89  F003         	goto	u920
   588  00070E                     u921:
   589  00070E  EF7F  F003         	goto	l2158
   590  000712                     u920:
   591  000712                     
   592                           ;main.c: 166:             contador_caracteres++;
   593  000712  4A16               	infsnz	main@contador_caracteres^0,f,c
   594  000714  2A17               	incf	(main@contador_caracteres+1)^0,f,c
   595                           
   596                           ;main.c: 167:             contador_colunas_LCD++;
   597  000716  4A39               	infsnz	_contador_colunas_LCD^0,f,c
   598  000718  2A3A               	incf	(_contador_colunas_LCD+1)^0,f,c
   599  00071A                     
   600                           ;main.c: 168:             tecla_n = 0;
   601  00071A  0E00               	movlw	0
   602  00071C  6E23               	movwf	(_tecla_n+1)^0,c
   603  00071E  0E00               	movlw	0
   604  000720  6E22               	movwf	_tecla_n^0,c
   605                           
   606                           ;main.c: 169:         }
   607  000722  EFBD  F003         	goto	l2176
   608  000726                     l2164:
   609  000726  5020               	movf	_tecla_limpar^0,w,c
   610  000728  1021               	iorwf	(_tecla_limpar+1)^0,w,c
   611  00072A  B4D8               	btfsc	status,2,c
   612  00072C  EF9A  F003         	goto	u931
   613  000730  EF9C  F003         	goto	u930
   614  000734                     u931:
   615  000734  EFBD  F003         	goto	l2176
   616  000738                     u930:
   617  000738                     
   618                           ;main.c: 171:             WriteCmdXLCD(contador_colunas_LCD);
   619  000738  5039               	movf	_contador_colunas_LCD^0,w,c
   620  00073A  ECA8  F006         	call	_WriteCmdXLCD
   621  00073E                     l2168:
   622  00073E  EC66  F006         	call	_BusyXLCD	;wreg free
   623  000742  0900               	iorlw	0
   624  000744  A4D8               	btfss	status,2,c
   625  000746  EFA7  F003         	goto	u941
   626  00074A  EFA9  F003         	goto	u940
   627  00074E                     u941:
   628  00074E  EF9F  F003         	goto	l2168
   629  000752                     u940:
   630  000752                     
   631                           ;main.c: 174:             putsXLCD("                    ");
   632  000752  0E01               	movlw	low STR_1
   633  000754  6E0A               	movwf	putsXLCD@buffer^0,c
   634  000756  0E06               	movlw	high STR_1
   635  000758  6E0B               	movwf	(putsXLCD@buffer+1)^0,c
   636  00075A  EC80  F005         	call	_putsXLCD	;wreg free
   637  00075E                     l2172:
   638  00075E  EC66  F006         	call	_BusyXLCD	;wreg free
   639  000762  0900               	iorlw	0
   640  000764  A4D8               	btfss	status,2,c
   641  000766  EFB7  F003         	goto	u951
   642  00076A  EFB9  F003         	goto	u950
   643  00076E                     u951:
   644  00076E  EFAF  F003         	goto	l2172
   645  000772                     u950:
   646  000772                     
   647                           ;main.c: 176:             tecla_limpar = 0;
   648  000772  0E00               	movlw	0
   649  000774  6E21               	movwf	(_tecla_limpar+1)^0,c
   650  000776  0E00               	movlw	0
   651  000778  6E20               	movwf	_tecla_limpar^0,c
   652  00077A                     l2176:
   653                           
   654                           ;main.c: 184:         LATBbits.LATB3 = 0;
   655  00077A  968A               	bcf	138,3,c	;volatile
   656  00077C                     
   657                           ;main.c: 185:         LATBbits.LATB4 = 1;
   658  00077C  888A               	bsf	138,4,c	;volatile
   659  00077E                     
   660                           ;main.c: 186:         LATBbits.LATB5 = 1;
   661  00077E  8A8A               	bsf	138,5,c	;volatile
   662  000780                     
   663                           ;main.c: 187:         LATBbits.LATB6 = 1;
   664  000780  8C8A               	bsf	138,6,c	;volatile
   665  000782                     
   666                           ;main.c: 189:         _delay((unsigned long)((65)*(6000000/4000.0)));
   667  000782  0E7F               	movlw	127
   668  000784  6E15               	movwf	??_main^0,c
   669  000786  0E9E               	movlw	158
   670  000788                     u967:
   671  000788  2EE8               	decfsz	wreg,f,c
   672  00078A  D7FE               	bra	u967
   673  00078C  2E15               	decfsz	??_main^0,f,c
   674  00078E  D7FC               	bra	u967
   675  000790  D000               	nop2	
   676  000792                     
   677                           ;main.c: 192:         LATBbits.LATB3 = 1;
   678  000792  868A               	bsf	138,3,c	;volatile
   679  000794                     
   680                           ;main.c: 193:         LATBbits.LATB4 = 0;
   681  000794  988A               	bcf	138,4,c	;volatile
   682  000796                     
   683                           ;main.c: 194:         LATBbits.LATB5 = 1;
   684  000796  8A8A               	bsf	138,5,c	;volatile
   685  000798                     
   686                           ;main.c: 195:         LATBbits.LATB6 = 1;
   687  000798  8C8A               	bsf	138,6,c	;volatile
   688  00079A                     
   689                           ;main.c: 197:         _delay((unsigned long)((65)*(6000000/4000.0)));
   690  00079A  0E7F               	movlw	127
   691  00079C  6E15               	movwf	??_main^0,c
   692  00079E  0E9E               	movlw	158
   693  0007A0                     u977:
   694  0007A0  2EE8               	decfsz	wreg,f,c
   695  0007A2  D7FE               	bra	u977
   696  0007A4  2E15               	decfsz	??_main^0,f,c
   697  0007A6  D7FC               	bra	u977
   698  0007A8  D000               	nop2	
   699  0007AA                     
   700                           ;main.c: 200:         LATBbits.LATB3 = 1;
   701  0007AA  868A               	bsf	138,3,c	;volatile
   702  0007AC                     
   703                           ;main.c: 201:         LATBbits.LATB4 = 1;
   704  0007AC  888A               	bsf	138,4,c	;volatile
   705  0007AE                     
   706                           ;main.c: 202:         LATBbits.LATB5 = 0;
   707  0007AE  9A8A               	bcf	138,5,c	;volatile
   708  0007B0                     
   709                           ;main.c: 203:         LATBbits.LATB6 = 1;
   710  0007B0  8C8A               	bsf	138,6,c	;volatile
   711  0007B2                     
   712                           ;main.c: 205:         _delay((unsigned long)((65)*(6000000/4000.0)));
   713  0007B2  0E7F               	movlw	127
   714  0007B4  6E15               	movwf	??_main^0,c
   715  0007B6  0E9E               	movlw	158
   716  0007B8                     u987:
   717  0007B8  2EE8               	decfsz	wreg,f,c
   718  0007BA  D7FE               	bra	u987
   719  0007BC  2E15               	decfsz	??_main^0,f,c
   720  0007BE  D7FC               	bra	u987
   721  0007C0  D000               	nop2	
   722  0007C2                     
   723                           ;main.c: 208:         LATBbits.LATB3 = 1;
   724  0007C2  868A               	bsf	138,3,c	;volatile
   725  0007C4                     
   726                           ;main.c: 209:         LATBbits.LATB4 = 1;
   727  0007C4  888A               	bsf	138,4,c	;volatile
   728  0007C6                     
   729                           ;main.c: 210:         LATBbits.LATB5 = 1;
   730  0007C6  8A8A               	bsf	138,5,c	;volatile
   731  0007C8                     
   732                           ;main.c: 211:         LATBbits.LATB6 = 0;
   733  0007C8  9C8A               	bcf	138,6,c	;volatile
   734  0007CA                     
   735                           ;main.c: 213:         _delay((unsigned long)((65)*(6000000/4000.0)));
   736  0007CA  0E7F               	movlw	127
   737  0007CC  6E15               	movwf	??_main^0,c
   738  0007CE  0E9E               	movlw	158
   739  0007D0                     u997:
   740  0007D0  2EE8               	decfsz	wreg,f,c
   741  0007D2  D7FE               	bra	u997
   742  0007D4  2E15               	decfsz	??_main^0,f,c
   743  0007D6  D7FC               	bra	u997
   744  0007D8  D000               	nop2	
   745  0007DA  EF3D  F003         	goto	l2140
   746  0007DE  EF59  F000         	goto	start
   747  0007E2                     __end_of_main:
   748                           	opt callstack 0
   749                           
   750 ;; *************** function _strncat *****************
   751 ;; Defined at:
   752 ;;		line 3 in file "C:\Program Files (x86)\Microchip\xc8\v2.10\pic\sources\c99\common\strncat.c"
   753 ;; Parameters:    Size  Location     Type
   754 ;;  d               2   12[COMRAM] PTR unsigned char 
   755 ;;		 -> pin(4), 
   756 ;;  s               2   14[COMRAM] PTR const unsigned char 
   757 ;;		 -> tecla_premida(1), 
   758 ;;  n               2   16[COMRAM] unsigned int 
   759 ;; Auto vars:     Size  Location     Type
   760 ;;  a               2    0        PTR unsigned char 
   761 ;;		 -> pin(4), 
   762 ;; Return value:  Size  Location     Type
   763 ;;                  2   12[COMRAM] PTR unsigned char 
   764 ;; Registers used:
   765 ;;		wreg, fsr1l, fsr1h, fsr2l, fsr2h, status,2, status,0, cstack
   766 ;; Tracked objects:
   767 ;;		On entry : 0/0
   768 ;;		On exit  : 0/0
   769 ;;		Unchanged: 0/0
   770 ;; Data sizes:     COMRAM   BANK0   BANK1   BANK2   BANK3   BANK4   BANK5
   771 ;;      Params:         6       0       0       0       0       0       0
   772 ;;      Locals:         2       0       0       0       0       0       0
   773 ;;      Temps:          0       0       0       0       0       0       0
   774 ;;      Totals:         8       0       0       0       0       0       0
   775 ;;Total ram usage:        8 bytes
   776 ;; Hardware stack levels used:    1
   777 ;; Hardware stack levels required when called:    9
   778 ;; This function calls:
   779 ;;		_strlen
   780 ;; This function is called by:
   781 ;;		_main
   782 ;; This function uses a non-reentrant model
   783 ;;
   784                           
   785                           	psect	text1
   786  000A14                     __ptext1:
   787                           	opt callstack 0
   788  000A14                     _strncat:
   789                           	opt callstack 21
   790  000A14  C00D  F009         	movff	strncat@d,strlen@s
   791  000A18  C00E  F00A         	movff	strncat@d+1,strlen@s+1
   792  000A1C  EC1C  F007         	call	_strlen	;wreg free
   793  000A20  5009               	movf	?_strlen^0,w,c
   794  000A22  260D               	addwf	strncat@d^0,f,c
   795  000A24  500A               	movf	(?_strlen+1)^0,w,c
   796  000A26  220E               	addwfc	(strncat@d+1)^0,f,c
   797  000A28  EF27  F005         	goto	l2112
   798  000A2C                     l2104:
   799  000A2C  0611               	decf	strncat@n^0,f,c
   800  000A2E  A0D8               	btfss	status,0,c
   801  000A30  0612               	decf	(strncat@n+1)^0,f,c
   802  000A32  C00F  FFD9         	movff	strncat@s,fsr2l
   803  000A36  C010  FFDA         	movff	strncat@s+1,fsr2h
   804  000A3A  C00D  FFE1         	movff	strncat@d,fsr1l
   805  000A3E  C00E  FFE2         	movff	strncat@d+1,fsr1h
   806  000A42  CFDF FFE7          	movff	indf2,indf1
   807  000A46  4A0F               	infsnz	strncat@s^0,f,c
   808  000A48  2A10               	incf	(strncat@s+1)^0,f,c
   809  000A4A  4A0D               	infsnz	strncat@d^0,f,c
   810  000A4C  2A0E               	incf	(strncat@d+1)^0,f,c
   811  000A4E                     l2112:
   812  000A4E  5011               	movf	strncat@n^0,w,c
   813  000A50  1012               	iorwf	(strncat@n+1)^0,w,c
   814  000A52  B4D8               	btfsc	status,2,c
   815  000A54  EF2E  F005         	goto	u861
   816  000A58  EF30  F005         	goto	u860
   817  000A5C                     u861:
   818  000A5C  EF3C  F005         	goto	l2116
   819  000A60                     u860:
   820  000A60  C00F  FFD9         	movff	strncat@s,fsr2l
   821  000A64  C010  FFDA         	movff	strncat@s+1,fsr2h
   822  000A68  50DF               	movf	indf2,w,c
   823  000A6A  A4D8               	btfss	status,2,c
   824  000A6C  EF3A  F005         	goto	u871
   825  000A70  EF3C  F005         	goto	u870
   826  000A74                     u871:
   827  000A74  EF16  F005         	goto	l2104
   828  000A78                     u870:
   829  000A78                     l2116:
   830  000A78  C00D  FFD9         	movff	strncat@d,fsr2l
   831  000A7C  C00E  FFDA         	movff	strncat@d+1,fsr2h
   832  000A80  0E00               	movlw	0
   833  000A82  6EDF               	movwf	indf2,c
   834  000A84  4A0D               	infsnz	strncat@d^0,f,c
   835  000A86  2A0E               	incf	(strncat@d+1)^0,f,c
   836  000A88  0012               	return		;funcret
   837  000A8A                     __end_of_strncat:
   838                           	opt callstack 0
   839                           
   840 ;; *************** function _strlen *****************
   841 ;; Defined at:
   842 ;;		line 5 in file "C:\Program Files (x86)\Microchip\xc8\v2.10\pic\sources\c99\common\strlen.c"
   843 ;; Parameters:    Size  Location     Type
   844 ;;  s               2    8[COMRAM] PTR const unsigned char 
   845 ;;		 -> pin(4), 
   846 ;; Auto vars:     Size  Location     Type
   847 ;;  a               2   10[COMRAM] PTR const unsigned char 
   848 ;;		 -> pin(4), 
   849 ;; Return value:  Size  Location     Type
   850 ;;                  2    8[COMRAM] unsigned int 
   851 ;; Registers used:
   852 ;;		wreg, fsr2l, fsr2h, status,2, status,0
   853 ;; Tracked objects:
   854 ;;		On entry : 0/0
   855 ;;		On exit  : 0/0
   856 ;;		Unchanged: 0/0
   857 ;; Data sizes:     COMRAM   BANK0   BANK1   BANK2   BANK3   BANK4   BANK5
   858 ;;      Params:         2       0       0       0       0       0       0
   859 ;;      Locals:         2       0       0       0       0       0       0
   860 ;;      Temps:          0       0       0       0       0       0       0
   861 ;;      Totals:         4       0       0       0       0       0       0
   862 ;;Total ram usage:        4 bytes
   863 ;; Hardware stack levels used:    1
   864 ;; Hardware stack levels required when called:    8
   865 ;; This function calls:
   866 ;;		Nothing
   867 ;; This function is called by:
   868 ;;		_strncat
   869 ;; This function uses a non-reentrant model
   870 ;;
   871                           
   872                           	psect	text2
   873  000E38                     __ptext2:
   874                           	opt callstack 0
   875  000E38                     _strlen:
   876                           	opt callstack 21
   877  000E38  C009  F00B         	movff	strlen@s,strlen@a
   878  000E3C  C00A  F00C         	movff	strlen@s+1,strlen@a+1
   879  000E40  EF24  F007         	goto	l2036
   880  000E44                     l2034:
   881  000E44  4A09               	infsnz	strlen@s^0,f,c
   882  000E46  2A0A               	incf	(strlen@s+1)^0,f,c
   883  000E48                     l2036:
   884  000E48  C009  FFD9         	movff	strlen@s,fsr2l
   885  000E4C  C00A  FFDA         	movff	strlen@s+1,fsr2h
   886  000E50  50DF               	movf	indf2,w,c
   887  000E52  A4D8               	btfss	status,2,c
   888  000E54  EF2E  F007         	goto	u751
   889  000E58  EF30  F007         	goto	u750
   890  000E5C                     u751:
   891  000E5C  EF22  F007         	goto	l2034
   892  000E60                     u750:
   893  000E60  500B               	movf	strlen@a^0,w,c
   894  000E62  5C09               	subwf	strlen@s^0,w,c
   895  000E64  6E09               	movwf	?_strlen^0,c
   896  000E66  500C               	movf	(strlen@a+1)^0,w,c
   897  000E68  580A               	subwfb	(strlen@s+1)^0,w,c
   898  000E6A  6E0A               	movwf	(?_strlen+1)^0,c
   899  000E6C  0012               	return		;funcret
   900  000E6E                     __end_of_strlen:
   901                           	opt callstack 0
   902                           
   903 ;; *************** function _SYSTEM_Initialize *****************
   904 ;; Defined at:
   905 ;;		line 50 in file "mcc_generated_files/mcc.c"
   906 ;; Parameters:    Size  Location     Type
   907 ;;		None
   908 ;; Auto vars:     Size  Location     Type
   909 ;;		None
   910 ;; Return value:  Size  Location     Type
   911 ;;                  1    wreg      void 
   912 ;; Registers used:
   913 ;;		wreg, status,2, status,0, cstack
   914 ;; Tracked objects:
   915 ;;		On entry : 0/0
   916 ;;		On exit  : 0/0
   917 ;;		Unchanged: 0/0
   918 ;; Data sizes:     COMRAM   BANK0   BANK1   BANK2   BANK3   BANK4   BANK5
   919 ;;      Params:         0       0       0       0       0       0       0
   920 ;;      Locals:         0       0       0       0       0       0       0
   921 ;;      Temps:          0       0       0       0       0       0       0
   922 ;;      Totals:         0       0       0       0       0       0       0
   923 ;;Total ram usage:        0 bytes
   924 ;; Hardware stack levels used:    1
   925 ;; Hardware stack levels required when called:   10
   926 ;; This function calls:
   927 ;;		_ADC_Initialize
   928 ;;		_EPWM1_Initialize
   929 ;;		_EXT_INT_Initialize
   930 ;;		_INTERRUPT_Initialize
   931 ;;		_OSCILLATOR_Initialize
   932 ;;		_PIN_MANAGER_Initialize
   933 ;;		_TMR0_Initialize
   934 ;;		_TMR2_Initialize
   935 ;; This function is called by:
   936 ;;		_main
   937 ;; This function uses a non-reentrant model
   938 ;;
   939                           
   940                           	psect	text3
   941  000FA6                     __ptext3:
   942                           	opt callstack 0
   943  000FA6                     _SYSTEM_Initialize:
   944                           	opt callstack 20
   945  000FA6                     
   946                           ;mcc_generated_files/mcc.c: 53:     INTERRUPT_Initialize();
   947  000FA6  EC22  F008         	call	_INTERRUPT_Initialize	;wreg free
   948  000FAA                     
   949                           ;mcc_generated_files/mcc.c: 54:     PIN_MANAGER_Initialize();
   950  000FAA  EC43  F006         	call	_PIN_MANAGER_Initialize	;wreg free
   951  000FAE                     
   952                           ;mcc_generated_files/mcc.c: 55:     OSCILLATOR_Initialize();
   953  000FAE  EC1B  F008         	call	_OSCILLATOR_Initialize	;wreg free
   954  000FB2                     
   955                           ;mcc_generated_files/mcc.c: 56:     ADC_Initialize();
   956  000FB2  ECAF  F007         	call	_ADC_Initialize	;wreg free
   957  000FB6                     
   958                           ;mcc_generated_files/mcc.c: 57:     EPWM1_Initialize();
   959  000FB6  ECE4  F007         	call	_EPWM1_Initialize	;wreg free
   960  000FBA                     
   961                           ;mcc_generated_files/mcc.c: 58:     TMR2_Initialize();
   962  000FBA  EC03  F008         	call	_TMR2_Initialize	;wreg free
   963  000FBE                     
   964                           ;mcc_generated_files/mcc.c: 59:     EXT_INT_Initialize();
   965  000FBE  ECE4  F006         	call	_EXT_INT_Initialize	;wreg free
   966  000FC2                     
   967                           ;mcc_generated_files/mcc.c: 60:     TMR0_Initialize();
   968  000FC2  EC37  F007         	call	_TMR0_Initialize	;wreg free
   969  000FC6  0012               	return		;funcret
   970  000FC8                     __end_of_SYSTEM_Initialize:
   971                           	opt callstack 0
   972                           
   973 ;; *************** function _TMR2_Initialize *****************
   974 ;; Defined at:
   975 ;;		line 62 in file "mcc_generated_files/tmr2.c"
   976 ;; Parameters:    Size  Location     Type
   977 ;;		None
   978 ;; Auto vars:     Size  Location     Type
   979 ;;		None
   980 ;; Return value:  Size  Location     Type
   981 ;;                  1    wreg      void 
   982 ;; Registers used:
   983 ;;		wreg, status,2
   984 ;; Tracked objects:
   985 ;;		On entry : 0/0
   986 ;;		On exit  : 0/0
   987 ;;		Unchanged: 0/0
   988 ;; Data sizes:     COMRAM   BANK0   BANK1   BANK2   BANK3   BANK4   BANK5
   989 ;;      Params:         0       0       0       0       0       0       0
   990 ;;      Locals:         0       0       0       0       0       0       0
   991 ;;      Temps:          0       0       0       0       0       0       0
   992 ;;      Totals:         0       0       0       0       0       0       0
   993 ;;Total ram usage:        0 bytes
   994 ;; Hardware stack levels used:    1
   995 ;; Hardware stack levels required when called:    8
   996 ;; This function calls:
   997 ;;		Nothing
   998 ;; This function is called by:
   999 ;;		_SYSTEM_Initialize
  1000 ;; This function uses a non-reentrant model
  1001 ;;
  1002                           
  1003                           	psect	text4
  1004  001006                     __ptext4:
  1005                           	opt callstack 0
  1006  001006                     _TMR2_Initialize:
  1007                           	opt callstack 21
  1008  001006                     
  1009                           ;mcc_generated_files/tmr2.c: 67:     PR2 = 0x4A;
  1010  001006  0E4A               	movlw	74
  1011  001008  6EBB               	movwf	187,c	;volatile
  1012                           
  1013                           ;mcc_generated_files/tmr2.c: 70:     TMR2 = 0x00;
  1014  00100A  0E00               	movlw	0
  1015  00100C  6EBC               	movwf	188,c	;volatile
  1016  00100E                     
  1017                           ;mcc_generated_files/tmr2.c: 73:     PIR1bits.TMR2IF = 0;
  1018  00100E  929E               	bcf	158,1,c	;volatile
  1019                           
  1020                           ;mcc_generated_files/tmr2.c: 76:     T2CON = 0x05;
  1021  001010  0E05               	movlw	5
  1022  001012  6EBA               	movwf	186,c	;volatile
  1023  001014  0012               	return		;funcret
  1024  001016                     __end_of_TMR2_Initialize:
  1025                           	opt callstack 0
  1026                           
  1027 ;; *************** function _TMR0_Initialize *****************
  1028 ;; Defined at:
  1029 ;;		line 67 in file "mcc_generated_files/tmr0.c"
  1030 ;; Parameters:    Size  Location     Type
  1031 ;;		None
  1032 ;; Auto vars:     Size  Location     Type
  1033 ;;		None
  1034 ;; Return value:  Size  Location     Type
  1035 ;;                  1    wreg      void 
  1036 ;; Registers used:
  1037 ;;		wreg, status,2, status,0, cstack
  1038 ;; Tracked objects:
  1039 ;;		On entry : 0/0
  1040 ;;		On exit  : 0/0
  1041 ;;		Unchanged: 0/0
  1042 ;; Data sizes:     COMRAM   BANK0   BANK1   BANK2   BANK3   BANK4   BANK5
  1043 ;;      Params:         0       0       0       0       0       0       0
  1044 ;;      Locals:         0       0       0       0       0       0       0
  1045 ;;      Temps:          2       0       0       0       0       0       0
  1046 ;;      Totals:         2       0       0       0       0       0       0
  1047 ;;Total ram usage:        2 bytes
  1048 ;; Hardware stack levels used:    1
  1049 ;; Hardware stack levels required when called:    9
  1050 ;; This function calls:
  1051 ;;		_TMR0_SetInterruptHandler
  1052 ;; This function is called by:
  1053 ;;		_SYSTEM_Initialize
  1054 ;; This function uses a non-reentrant model
  1055 ;;
  1056                           
  1057                           	psect	text5
  1058  000E6E                     __ptext5:
  1059                           	opt callstack 0
  1060  000E6E                     _TMR0_Initialize:
  1061                           	opt callstack 20
  1062  000E6E                     
  1063                           ;mcc_generated_files/tmr0.c: 72:     T0CONbits.T08BIT = 0;
  1064  000E6E  9CD5               	bcf	213,6,c	;volatile
  1065  000E70                     
  1066                           ;mcc_generated_files/tmr0.c: 75:     TMR0H = 0x48;
  1067  000E70  0E48               	movlw	72
  1068  000E72  6ED7               	movwf	215,c	;volatile
  1069                           
  1070                           ;mcc_generated_files/tmr0.c: 78:     TMR0L = 0xE4;
  1071  000E74  0EE4               	movlw	228
  1072  000E76  6ED6               	movwf	214,c	;volatile
  1073  000E78                     
  1074                           ;mcc_generated_files/tmr0.c: 82:     timer0ReloadVal = (uint16_t)((TMR0H << 8) | TMR0L);
  1075  000E78  50D6               	movf	214,w,c	;volatile
  1076  000E7A  CFD7 F00B          	movff	4055,??_TMR0_Initialize	;volatile
  1077  000E7E  6A0C               	clrf	(??_TMR0_Initialize+1)^0,c
  1078  000E80  C00B  F00C         	movff	??_TMR0_Initialize,??_TMR0_Initialize+1
  1079  000E84  6A0B               	clrf	??_TMR0_Initialize^0,c
  1080  000E86  100B               	iorwf	??_TMR0_Initialize^0,w,c
  1081  000E88  6E31               	movwf	_timer0ReloadVal^0,c	;volatile
  1082  000E8A  500C               	movf	(??_TMR0_Initialize+1)^0,w,c
  1083  000E8C  6E32               	movwf	(_timer0ReloadVal+1)^0,c	;volatile
  1084  000E8E                     
  1085                           ;mcc_generated_files/tmr0.c: 85:     INTCONbits.TMR0IF = 0;
  1086  000E8E  94F2               	bcf	242,2,c	;volatile
  1087  000E90                     
  1088                           ;mcc_generated_files/tmr0.c: 88:     INTCONbits.TMR0IE = 1;
  1089  000E90  8AF2               	bsf	242,5,c	;volatile
  1090  000E92                     
  1091                           ;mcc_generated_files/tmr0.c: 91:     TMR0_SetInterruptHandler(TMR0_DefaultInterruptHandl
      +                          er);
  1092  000E92  0EA0               	movlw	low _TMR0_DefaultInterruptHandler
  1093  000E94  6E09               	movwf	TMR0_SetInterruptHandler@InterruptHandler^0,c
  1094  000E96  0E10               	movlw	high _TMR0_DefaultInterruptHandler
  1095  000E98  6E0A               	movwf	(TMR0_SetInterruptHandler@InterruptHandler+1)^0,c
  1096  000E9A  EC28  F008         	call	_TMR0_SetInterruptHandler	;wreg free
  1097  000E9E                     
  1098                           ;mcc_generated_files/tmr0.c: 94:     T0CON = 0x93;
  1099  000E9E  0E93               	movlw	147
  1100  000EA0  6ED5               	movwf	213,c	;volatile
  1101  000EA2  0012               	return		;funcret
  1102  000EA4                     __end_of_TMR0_Initialize:
  1103                           	opt callstack 0
  1104                           
  1105 ;; *************** function _TMR0_SetInterruptHandler *****************
  1106 ;; Defined at:
  1107 ;;		line 156 in file "mcc_generated_files/tmr0.c"
  1108 ;; Parameters:    Size  Location     Type
  1109 ;;  InterruptHan    2    8[COMRAM] PTR FTN()void 
  1110 ;;		 -> acende_LED(1), TMR0_DefaultInterruptHandler(1), 
  1111 ;; Auto vars:     Size  Location     Type
  1112 ;;		None
  1113 ;; Return value:  Size  Location     Type
  1114 ;;                  1    wreg      void 
  1115 ;; Registers used:
  1116 ;;		wreg, status,2, status,0
  1117 ;; Tracked objects:
  1118 ;;		On entry : 0/0
  1119 ;;		On exit  : 0/0
  1120 ;;		Unchanged: 0/0
  1121 ;; Data sizes:     COMRAM   BANK0   BANK1   BANK2   BANK3   BANK4   BANK5
  1122 ;;      Params:         2       0       0       0       0       0       0
  1123 ;;      Locals:         0       0       0       0       0       0       0
  1124 ;;      Temps:          0       0       0       0       0       0       0
  1125 ;;      Totals:         2       0       0       0       0       0       0
  1126 ;;Total ram usage:        2 bytes
  1127 ;; Hardware stack levels used:    1
  1128 ;; Hardware stack levels required when called:    8
  1129 ;; This function calls:
  1130 ;;		Nothing
  1131 ;; This function is called by:
  1132 ;;		_TMR0_Initialize
  1133 ;;		_main
  1134 ;; This function uses a non-reentrant model
  1135 ;;
  1136                           
  1137                           	psect	text6
  1138  001050                     __ptext6:
  1139                           	opt callstack 0
  1140  001050                     _TMR0_SetInterruptHandler:
  1141                           	opt callstack 22
  1142  001050                     
  1143                           ;mcc_generated_files/tmr0.c: 157:     TMR0_InterruptHandler = InterruptHandler;
  1144  001050  C009  F033         	movff	TMR0_SetInterruptHandler@InterruptHandler,_TMR0_InterruptHandler
  1145  001054  C00A  F034         	movff	TMR0_SetInterruptHandler@InterruptHandler+1,_TMR0_InterruptHandler+1
  1146  001058  0012               	return		;funcret
  1147  00105A                     __end_of_TMR0_SetInterruptHandler:
  1148                           	opt callstack 0
  1149                           
  1150 ;; *************** function _PIN_MANAGER_Initialize *****************
  1151 ;; Defined at:
  1152 ;;		line 55 in file "mcc_generated_files/pin_manager.c"
  1153 ;; Parameters:    Size  Location     Type
  1154 ;;		None
  1155 ;; Auto vars:     Size  Location     Type
  1156 ;;		None
  1157 ;; Return value:  Size  Location     Type
  1158 ;;                  1    wreg      void 
  1159 ;; Registers used:
  1160 ;;		wreg, status,2
  1161 ;; Tracked objects:
  1162 ;;		On entry : 0/0
  1163 ;;		On exit  : 0/0
  1164 ;;		Unchanged: 0/0
  1165 ;; Data sizes:     COMRAM   BANK0   BANK1   BANK2   BANK3   BANK4   BANK5
  1166 ;;      Params:         0       0       0       0       0       0       0
  1167 ;;      Locals:         0       0       0       0       0       0       0
  1168 ;;      Temps:          0       0       0       0       0       0       0
  1169 ;;      Totals:         0       0       0       0       0       0       0
  1170 ;;Total ram usage:        0 bytes
  1171 ;; Hardware stack levels used:    1
  1172 ;; Hardware stack levels required when called:    8
  1173 ;; This function calls:
  1174 ;;		Nothing
  1175 ;; This function is called by:
  1176 ;;		_SYSTEM_Initialize
  1177 ;; This function uses a non-reentrant model
  1178 ;;
  1179                           
  1180                           	psect	text7
  1181  000C86                     __ptext7:
  1182                           	opt callstack 0
  1183  000C86                     _PIN_MANAGER_Initialize:
  1184                           	opt callstack 21
  1185  000C86                     
  1186                           ;mcc_generated_files/pin_manager.c: 60:     LATE = 0x00;
  1187  000C86  0E00               	movlw	0
  1188  000C88  6E8D               	movwf	141,c	;volatile
  1189                           
  1190                           ;mcc_generated_files/pin_manager.c: 61:     LATD = 0x00;
  1191  000C8A  0E00               	movlw	0
  1192  000C8C  6E8C               	movwf	140,c	;volatile
  1193                           
  1194                           ;mcc_generated_files/pin_manager.c: 62:     LATA = 0x00;
  1195  000C8E  0E00               	movlw	0
  1196  000C90  6E89               	movwf	137,c	;volatile
  1197                           
  1198                           ;mcc_generated_files/pin_manager.c: 63:     LATB = 0x00;
  1199  000C92  0E00               	movlw	0
  1200  000C94  6E8A               	movwf	138,c	;volatile
  1201                           
  1202                           ;mcc_generated_files/pin_manager.c: 64:     LATC = 0x00;
  1203  000C96  0E00               	movlw	0
  1204  000C98  6E8B               	movwf	139,c	;volatile
  1205                           
  1206                           ;mcc_generated_files/pin_manager.c: 69:     TRISE = 0x07;
  1207  000C9A  0E07               	movlw	7
  1208  000C9C  6E96               	movwf	150,c	;volatile
  1209                           
  1210                           ;mcc_generated_files/pin_manager.c: 70:     TRISA = 0xFD;
  1211  000C9E  0EFD               	movlw	253
  1212  000CA0  6E92               	movwf	146,c	;volatile
  1213                           
  1214                           ;mcc_generated_files/pin_manager.c: 71:     TRISB = 0x87;
  1215  000CA2  0E87               	movlw	135
  1216  000CA4  6E93               	movwf	147,c	;volatile
  1217                           
  1218                           ;mcc_generated_files/pin_manager.c: 72:     TRISC = 0xBB;
  1219  000CA6  0EBB               	movlw	187
  1220  000CA8  6E94               	movwf	148,c	;volatile
  1221                           
  1222                           ;mcc_generated_files/pin_manager.c: 73:     TRISD = 0x00;
  1223  000CAA  0E00               	movlw	0
  1224  000CAC  6E95               	movwf	149,c	;volatile
  1225                           
  1226                           ;mcc_generated_files/pin_manager.c: 78:     ANSELD = 0x00;
  1227  000CAE  0E00               	movlw	0
  1228  000CB0  010F               	movlb	15	; () banked
  1229  000CB2  6F3B               	movwf	59,b	;volatile
  1230                           
  1231                           ;mcc_generated_files/pin_manager.c: 79:     ANSELC = 0x38;
  1232  000CB4  0E38               	movlw	56
  1233  000CB6  6F3A               	movwf	58,b	;volatile
  1234                           
  1235                           ;mcc_generated_files/pin_manager.c: 80:     ANSELB = 0x00;
  1236  000CB8  0E00               	movlw	0
  1237  000CBA  6F39               	movwf	57,b	;volatile
  1238                           
  1239                           ;mcc_generated_files/pin_manager.c: 81:     ANSELE = 0x07;
  1240  000CBC  0E07               	movlw	7
  1241  000CBE  6F3C               	movwf	60,b	;volatile
  1242                           
  1243                           ;mcc_generated_files/pin_manager.c: 82:     ANSELA = 0x2D;
  1244  000CC0  0E2D               	movlw	45
  1245  000CC2  6F38               	movwf	56,b	;volatile
  1246                           
  1247                           ;mcc_generated_files/pin_manager.c: 87:     WPUB = 0x07;
  1248  000CC4  0E07               	movlw	7
  1249  000CC6  6E61               	movwf	97,c	;volatile
  1250  000CC8                     
  1251                           ; BSR set to: 15
  1252                           ;mcc_generated_files/pin_manager.c: 88:     INTCON2bits.nRBPU = 0;
  1253  000CC8  9EF1               	bcf	241,7,c	;volatile
  1254  000CCA                     
  1255                           ; BSR set to: 15
  1256  000CCA  0012               	return		;funcret
  1257  000CCC                     __end_of_PIN_MANAGER_Initialize:
  1258                           	opt callstack 0
  1259                           
  1260 ;; *************** function _OSCILLATOR_Initialize *****************
  1261 ;; Defined at:
  1262 ;;		line 63 in file "mcc_generated_files/mcc.c"
  1263 ;; Parameters:    Size  Location     Type
  1264 ;;		None
  1265 ;; Auto vars:     Size  Location     Type
  1266 ;;		None
  1267 ;; Return value:  Size  Location     Type
  1268 ;;                  1    wreg      void 
  1269 ;; Registers used:
  1270 ;;		wreg, status,2
  1271 ;; Tracked objects:
  1272 ;;		On entry : 0/0
  1273 ;;		On exit  : 0/0
  1274 ;;		Unchanged: 0/0
  1275 ;; Data sizes:     COMRAM   BANK0   BANK1   BANK2   BANK3   BANK4   BANK5
  1276 ;;      Params:         0       0       0       0       0       0       0
  1277 ;;      Locals:         0       0       0       0       0       0       0
  1278 ;;      Temps:          0       0       0       0       0       0       0
  1279 ;;      Totals:         0       0       0       0       0       0       0
  1280 ;;Total ram usage:        0 bytes
  1281 ;; Hardware stack levels used:    1
  1282 ;; Hardware stack levels required when called:    8
  1283 ;; This function calls:
  1284 ;;		Nothing
  1285 ;; This function is called by:
  1286 ;;		_SYSTEM_Initialize
  1287 ;; This function uses a non-reentrant model
  1288 ;;
  1289                           
  1290                           	psect	text8
  1291  001036                     __ptext8:
  1292                           	opt callstack 0
  1293  001036                     _OSCILLATOR_Initialize:
  1294                           	opt callstack 21
  1295  001036                     
  1296                           ;mcc_generated_files/mcc.c: 66:     OSCCON = 0x30;
  1297  001036  0E30               	movlw	48
  1298  001038  6ED3               	movwf	211,c	;volatile
  1299                           
  1300                           ;mcc_generated_files/mcc.c: 68:     OSCCON2 = 0x04;
  1301  00103A  0E04               	movlw	4
  1302  00103C  6ED2               	movwf	210,c	;volatile
  1303                           
  1304                           ;mcc_generated_files/mcc.c: 70:     OSCTUNE = 0x00;
  1305  00103E  0E00               	movlw	0
  1306  001040  6E9B               	movwf	155,c	;volatile
  1307  001042  0012               	return		;funcret
  1308  001044                     __end_of_OSCILLATOR_Initialize:
  1309                           	opt callstack 0
  1310                           
  1311 ;; *************** function _INTERRUPT_Initialize *****************
  1312 ;; Defined at:
  1313 ;;		line 52 in file "mcc_generated_files/interrupt_manager.c"
  1314 ;; Parameters:    Size  Location     Type
  1315 ;;		None
  1316 ;; Auto vars:     Size  Location     Type
  1317 ;;		None
  1318 ;; Return value:  Size  Location     Type
  1319 ;;                  1    wreg      void 
  1320 ;; Registers used:
  1321 ;;		None
  1322 ;; Tracked objects:
  1323 ;;		On entry : 0/0
  1324 ;;		On exit  : 0/0
  1325 ;;		Unchanged: 0/0
  1326 ;; Data sizes:     COMRAM   BANK0   BANK1   BANK2   BANK3   BANK4   BANK5
  1327 ;;      Params:         0       0       0       0       0       0       0
  1328 ;;      Locals:         0       0       0       0       0       0       0
  1329 ;;      Temps:          0       0       0       0       0       0       0
  1330 ;;      Totals:         0       0       0       0       0       0       0
  1331 ;;Total ram usage:        0 bytes
  1332 ;; Hardware stack levels used:    1
  1333 ;; Hardware stack levels required when called:    8
  1334 ;; This function calls:
  1335 ;;		Nothing
  1336 ;; This function is called by:
  1337 ;;		_SYSTEM_Initialize
  1338 ;; This function uses a non-reentrant model
  1339 ;;
  1340                           
  1341                           	psect	text9
  1342  001044                     __ptext9:
  1343                           	opt callstack 0
  1344  001044                     _INTERRUPT_Initialize:
  1345                           	opt callstack 21
  1346  001044                     
  1347                           ;mcc_generated_files/interrupt_manager.c: 55:     RCONbits.IPEN = 1;
  1348  001044  8ED0               	bsf	208,7,c	;volatile
  1349                           
  1350                           ;mcc_generated_files/interrupt_manager.c: 60:     IPR1bits.ADIP = 1;
  1351  001046  8C9F               	bsf	159,6,c	;volatile
  1352                           
  1353                           ;mcc_generated_files/interrupt_manager.c: 66:     INTCON2bits.TMR0IP = 0;
  1354  001048  94F1               	bcf	241,2,c	;volatile
  1355                           
  1356                           ;mcc_generated_files/interrupt_manager.c: 69:     INTCON3bits.INT1IP = 0;
  1357  00104A  9CF0               	bcf	240,6,c	;volatile
  1358                           
  1359                           ;mcc_generated_files/interrupt_manager.c: 72:     INTCON3bits.INT2IP = 0;
  1360  00104C  9EF0               	bcf	240,7,c	;volatile
  1361  00104E  0012               	return		;funcret
  1362  001050                     __end_of_INTERRUPT_Initialize:
  1363                           	opt callstack 0
  1364                           
  1365 ;; *************** function _EXT_INT_Initialize *****************
  1366 ;; Defined at:
  1367 ;;		line 113 in file "mcc_generated_files/ext_int.c"
  1368 ;; Parameters:    Size  Location     Type
  1369 ;;		None
  1370 ;; Auto vars:     Size  Location     Type
  1371 ;;		None
  1372 ;; Return value:  Size  Location     Type
  1373 ;;                  1    wreg      void 
  1374 ;; Registers used:
  1375 ;;		wreg, status,2, status,0, cstack
  1376 ;; Tracked objects:
  1377 ;;		On entry : 0/0
  1378 ;;		On exit  : 0/0
  1379 ;;		Unchanged: 0/0
  1380 ;; Data sizes:     COMRAM   BANK0   BANK1   BANK2   BANK3   BANK4   BANK5
  1381 ;;      Params:         0       0       0       0       0       0       0
  1382 ;;      Locals:         0       0       0       0       0       0       0
  1383 ;;      Temps:          0       0       0       0       0       0       0
  1384 ;;      Totals:         0       0       0       0       0       0       0
  1385 ;;Total ram usage:        0 bytes
  1386 ;; Hardware stack levels used:    1
  1387 ;; Hardware stack levels required when called:    9
  1388 ;; This function calls:
  1389 ;;		_INT0_SetInterruptHandler
  1390 ;;		_INT1_SetInterruptHandler
  1391 ;;		_INT2_SetInterruptHandler
  1392 ;; This function is called by:
  1393 ;;		_SYSTEM_Initialize
  1394 ;; This function uses a non-reentrant model
  1395 ;;
  1396                           
  1397                           	psect	text10
  1398  000DC8                     __ptext10:
  1399                           	opt callstack 0
  1400  000DC8                     _EXT_INT_Initialize:
  1401                           	opt callstack 20
  1402  000DC8                     
  1403                           ;mcc_generated_files/ext_int.c: 118:     (INTCONbits.INT0IF = 0);
  1404  000DC8  92F2               	bcf	242,1,c	;volatile
  1405                           
  1406                           ;mcc_generated_files/ext_int.c: 119:     (INTCON2bits.INTEDG0 = 0);
  1407  000DCA  9CF1               	bcf	241,6,c	;volatile
  1408  000DCC                     
  1409                           ;mcc_generated_files/ext_int.c: 121:     INT0_SetInterruptHandler(INT0_DefaultInterruptH
      +                          andler);
  1410  000DCC  0EA6               	movlw	low _INT0_DefaultInterruptHandler
  1411  000DCE  6E09               	movwf	INT0_SetInterruptHandler@InterruptHandler^0,c
  1412  000DD0  0E10               	movlw	high _INT0_DefaultInterruptHandler
  1413  000DD2  6E0A               	movwf	(INT0_SetInterruptHandler@InterruptHandler+1)^0,c
  1414  000DD4  EC37  F008         	call	_INT0_SetInterruptHandler	;wreg free
  1415  000DD8                     
  1416                           ;mcc_generated_files/ext_int.c: 122:     (INTCONbits.INT0IE = 1);
  1417  000DD8  88F2               	bsf	242,4,c	;volatile
  1418  000DDA                     
  1419                           ;mcc_generated_files/ext_int.c: 127:     (INTCON3bits.INT1IF = 0);
  1420  000DDA  90F0               	bcf	240,0,c	;volatile
  1421  000DDC                     
  1422                           ;mcc_generated_files/ext_int.c: 128:     (INTCON2bits.INTEDG1 = 0);
  1423  000DDC  9AF1               	bcf	241,5,c	;volatile
  1424                           
  1425                           ;mcc_generated_files/ext_int.c: 130:     INT1_SetInterruptHandler(INT1_DefaultInterruptH
      +                          andler);
  1426  000DDE  0EA4               	movlw	low _INT1_DefaultInterruptHandler
  1427  000DE0  6E09               	movwf	INT1_SetInterruptHandler@InterruptHandler^0,c
  1428  000DE2  0E10               	movlw	high _INT1_DefaultInterruptHandler
  1429  000DE4  6E0A               	movwf	(INT1_SetInterruptHandler@InterruptHandler+1)^0,c
  1430  000DE6  EC32  F008         	call	_INT1_SetInterruptHandler	;wreg free
  1431  000DEA                     
  1432                           ;mcc_generated_files/ext_int.c: 131:     (INTCON3bits.INT1IE = 1);
  1433  000DEA  86F0               	bsf	240,3,c	;volatile
  1434  000DEC                     
  1435                           ;mcc_generated_files/ext_int.c: 136:     (INTCON3bits.INT2IF = 0);
  1436  000DEC  92F0               	bcf	240,1,c	;volatile
  1437  000DEE                     
  1438                           ;mcc_generated_files/ext_int.c: 137:     (INTCON2bits.INTEDG2 = 0);
  1439  000DEE  98F1               	bcf	241,4,c	;volatile
  1440                           
  1441                           ;mcc_generated_files/ext_int.c: 139:     INT2_SetInterruptHandler(INT2_DefaultInterruptH
      +                          andler);
  1442  000DF0  0EA2               	movlw	low _INT2_DefaultInterruptHandler
  1443  000DF2  6E09               	movwf	INT2_SetInterruptHandler@InterruptHandler^0,c
  1444  000DF4  0E10               	movlw	high _INT2_DefaultInterruptHandler
  1445  000DF6  6E0A               	movwf	(INT2_SetInterruptHandler@InterruptHandler+1)^0,c
  1446  000DF8  EC2D  F008         	call	_INT2_SetInterruptHandler	;wreg free
  1447  000DFC                     
  1448                           ;mcc_generated_files/ext_int.c: 140:     (INTCON3bits.INT2IE = 1);
  1449  000DFC  88F0               	bsf	240,4,c	;volatile
  1450  000DFE  0012               	return		;funcret
  1451  000E00                     __end_of_EXT_INT_Initialize:
  1452                           	opt callstack 0
  1453                           
  1454 ;; *************** function _INT2_SetInterruptHandler *****************
  1455 ;; Defined at:
  1456 ;;		line 104 in file "mcc_generated_files/ext_int.c"
  1457 ;; Parameters:    Size  Location     Type
  1458 ;;  InterruptHan    2    8[COMRAM] PTR FTN()void 
  1459 ;;		 -> teclado_coluna_3(1), INT2_DefaultInterruptHandler(1), 
  1460 ;; Auto vars:     Size  Location     Type
  1461 ;;		None
  1462 ;; Return value:  Size  Location     Type
  1463 ;;                  1    wreg      void 
  1464 ;; Registers used:
  1465 ;;		wreg, status,2, status,0
  1466 ;; Tracked objects:
  1467 ;;		On entry : 0/0
  1468 ;;		On exit  : 0/0
  1469 ;;		Unchanged: 0/0
  1470 ;; Data sizes:     COMRAM   BANK0   BANK1   BANK2   BANK3   BANK4   BANK5
  1471 ;;      Params:         2       0       0       0       0       0       0
  1472 ;;      Locals:         0       0       0       0       0       0       0
  1473 ;;      Temps:          0       0       0       0       0       0       0
  1474 ;;      Totals:         2       0       0       0       0       0       0
  1475 ;;Total ram usage:        2 bytes
  1476 ;; Hardware stack levels used:    1
  1477 ;; Hardware stack levels required when called:    8
  1478 ;; This function calls:
  1479 ;;		Nothing
  1480 ;; This function is called by:
  1481 ;;		_EXT_INT_Initialize
  1482 ;;		_main
  1483 ;; This function uses a non-reentrant model
  1484 ;;
  1485                           
  1486                           	psect	text11
  1487  00105A                     __ptext11:
  1488                           	opt callstack 0
  1489  00105A                     _INT2_SetInterruptHandler:
  1490                           	opt callstack 20
  1491  00105A                     
  1492                           ;mcc_generated_files/ext_int.c: 105:     INT2_InterruptHandler = InterruptHandler;
  1493  00105A  C009  F02B         	movff	INT2_SetInterruptHandler@InterruptHandler,_INT2_InterruptHandler
  1494  00105E  C00A  F02C         	movff	INT2_SetInterruptHandler@InterruptHandler+1,_INT2_InterruptHandler+1
  1495  001062  0012               	return		;funcret
  1496  001064                     __end_of_INT2_SetInterruptHandler:
  1497                           	opt callstack 0
  1498                           
  1499 ;; *************** function _INT1_SetInterruptHandler *****************
  1500 ;; Defined at:
  1501 ;;		line 78 in file "mcc_generated_files/ext_int.c"
  1502 ;; Parameters:    Size  Location     Type
  1503 ;;  InterruptHan    2    8[COMRAM] PTR FTN()void 
  1504 ;;		 -> teclado_coluna_2(1), INT1_DefaultInterruptHandler(1), 
  1505 ;; Auto vars:     Size  Location     Type
  1506 ;;		None
  1507 ;; Return value:  Size  Location     Type
  1508 ;;                  1    wreg      void 
  1509 ;; Registers used:
  1510 ;;		wreg, status,2, status,0
  1511 ;; Tracked objects:
  1512 ;;		On entry : 0/0
  1513 ;;		On exit  : 0/0
  1514 ;;		Unchanged: 0/0
  1515 ;; Data sizes:     COMRAM   BANK0   BANK1   BANK2   BANK3   BANK4   BANK5
  1516 ;;      Params:         2       0       0       0       0       0       0
  1517 ;;      Locals:         0       0       0       0       0       0       0
  1518 ;;      Temps:          0       0       0       0       0       0       0
  1519 ;;      Totals:         2       0       0       0       0       0       0
  1520 ;;Total ram usage:        2 bytes
  1521 ;; Hardware stack levels used:    1
  1522 ;; Hardware stack levels required when called:    8
  1523 ;; This function calls:
  1524 ;;		Nothing
  1525 ;; This function is called by:
  1526 ;;		_EXT_INT_Initialize
  1527 ;;		_main
  1528 ;; This function uses a non-reentrant model
  1529 ;;
  1530                           
  1531                           	psect	text12
  1532  001064                     __ptext12:
  1533                           	opt callstack 0
  1534  001064                     _INT1_SetInterruptHandler:
  1535                           	opt callstack 20
  1536  001064                     
  1537                           ;mcc_generated_files/ext_int.c: 79:     INT1_InterruptHandler = InterruptHandler;
  1538  001064  C009  F02D         	movff	INT1_SetInterruptHandler@InterruptHandler,_INT1_InterruptHandler
  1539  001068  C00A  F02E         	movff	INT1_SetInterruptHandler@InterruptHandler+1,_INT1_InterruptHandler+1
  1540  00106C  0012               	return		;funcret
  1541  00106E                     __end_of_INT1_SetInterruptHandler:
  1542                           	opt callstack 0
  1543                           
  1544 ;; *************** function _INT0_SetInterruptHandler *****************
  1545 ;; Defined at:
  1546 ;;		line 52 in file "mcc_generated_files/ext_int.c"
  1547 ;; Parameters:    Size  Location     Type
  1548 ;;  InterruptHan    2    8[COMRAM] PTR FTN()void 
  1549 ;;		 -> teclado_coluna_1(1), INT0_DefaultInterruptHandler(1), 
  1550 ;; Auto vars:     Size  Location     Type
  1551 ;;		None
  1552 ;; Return value:  Size  Location     Type
  1553 ;;                  1    wreg      void 
  1554 ;; Registers used:
  1555 ;;		wreg, status,2, status,0
  1556 ;; Tracked objects:
  1557 ;;		On entry : 0/0
  1558 ;;		On exit  : 0/0
  1559 ;;		Unchanged: 0/0
  1560 ;; Data sizes:     COMRAM   BANK0   BANK1   BANK2   BANK3   BANK4   BANK5
  1561 ;;      Params:         2       0       0       0       0       0       0
  1562 ;;      Locals:         0       0       0       0       0       0       0
  1563 ;;      Temps:          0       0       0       0       0       0       0
  1564 ;;      Totals:         2       0       0       0       0       0       0
  1565 ;;Total ram usage:        2 bytes
  1566 ;; Hardware stack levels used:    1
  1567 ;; Hardware stack levels required when called:    8
  1568 ;; This function calls:
  1569 ;;		Nothing
  1570 ;; This function is called by:
  1571 ;;		_EXT_INT_Initialize
  1572 ;;		_main
  1573 ;; This function uses a non-reentrant model
  1574 ;;
  1575                           
  1576                           	psect	text13
  1577  00106E                     __ptext13:
  1578                           	opt callstack 0
  1579  00106E                     _INT0_SetInterruptHandler:
  1580                           	opt callstack 20
  1581  00106E                     
  1582                           ;mcc_generated_files/ext_int.c: 53:     INT0_InterruptHandler = InterruptHandler;
  1583  00106E  C009  F02F         	movff	INT0_SetInterruptHandler@InterruptHandler,_INT0_InterruptHandler
  1584  001072  C00A  F030         	movff	INT0_SetInterruptHandler@InterruptHandler+1,_INT0_InterruptHandler+1
  1585  001076  0012               	return		;funcret
  1586  001078                     __end_of_INT0_SetInterruptHandler:
  1587                           	opt callstack 0
  1588                           
  1589 ;; *************** function _EPWM1_Initialize *****************
  1590 ;; Defined at:
  1591 ;;		line 64 in file "mcc_generated_files/epwm1.c"
  1592 ;; Parameters:    Size  Location     Type
  1593 ;;		None
  1594 ;; Auto vars:     Size  Location     Type
  1595 ;;		None
  1596 ;; Return value:  Size  Location     Type
  1597 ;;                  1    wreg      void 
  1598 ;; Registers used:
  1599 ;;		wreg, status,2
  1600 ;; Tracked objects:
  1601 ;;		On entry : 0/0
  1602 ;;		On exit  : 0/0
  1603 ;;		Unchanged: 0/0
  1604 ;; Data sizes:     COMRAM   BANK0   BANK1   BANK2   BANK3   BANK4   BANK5
  1605 ;;      Params:         0       0       0       0       0       0       0
  1606 ;;      Locals:         0       0       0       0       0       0       0
  1607 ;;      Temps:          0       0       0       0       0       0       0
  1608 ;;      Totals:         0       0       0       0       0       0       0
  1609 ;;Total ram usage:        0 bytes
  1610 ;; Hardware stack levels used:    1
  1611 ;; Hardware stack levels required when called:    8
  1612 ;; This function calls:
  1613 ;;		Nothing
  1614 ;; This function is called by:
  1615 ;;		_SYSTEM_Initialize
  1616 ;; This function uses a non-reentrant model
  1617 ;;
  1618                           
  1619                           	psect	text14
  1620  000FC8                     __ptext14:
  1621                           	opt callstack 0
  1622  000FC8                     _EPWM1_Initialize:
  1623                           	opt callstack 21
  1624  000FC8                     
  1625                           ;mcc_generated_files/epwm1.c: 69:  CCP1CON = 0x1C;
  1626  000FC8  0E1C               	movlw	28
  1627  000FCA  6EBD               	movwf	189,c	;volatile
  1628                           
  1629                           ;mcc_generated_files/epwm1.c: 72:  ECCP1AS = 0x00;
  1630  000FCC  0E00               	movlw	0
  1631  000FCE  6EB6               	movwf	182,c	;volatile
  1632                           
  1633                           ;mcc_generated_files/epwm1.c: 75:  PWM1CON = 0x80;
  1634  000FD0  0E80               	movlw	128
  1635  000FD2  6EB7               	movwf	183,c	;volatile
  1636                           
  1637                           ;mcc_generated_files/epwm1.c: 78:  PSTR1CON = 0x01;
  1638  000FD4  0E01               	movlw	1
  1639  000FD6  6EB9               	movwf	185,c	;volatile
  1640                           
  1641                           ;mcc_generated_files/epwm1.c: 81:  CCPR1H = 0x00;
  1642  000FD8  0E00               	movlw	0
  1643  000FDA  6EBF               	movwf	191,c	;volatile
  1644                           
  1645                           ;mcc_generated_files/epwm1.c: 84:  CCPR1L = 0x00;
  1646  000FDC  0E00               	movlw	0
  1647  000FDE  6EBE               	movwf	190,c	;volatile
  1648                           
  1649                           ;mcc_generated_files/epwm1.c: 87:  CCPTMRS0bits.C1TSEL = 0x0;
  1650  000FE0  0EFC               	movlw	-4
  1651  000FE2  010F               	movlb	15	; () banked
  1652  000FE4  1749               	andwf	73,f,b	;volatile
  1653  000FE6                     
  1654                           ; BSR set to: 15
  1655  000FE6  0012               	return		;funcret
  1656  000FE8                     __end_of_EPWM1_Initialize:
  1657                           	opt callstack 0
  1658                           
  1659 ;; *************** function _ADC_Initialize *****************
  1660 ;; Defined at:
  1661 ;;		line 66 in file "mcc_generated_files/adc.c"
  1662 ;; Parameters:    Size  Location     Type
  1663 ;;		None
  1664 ;; Auto vars:     Size  Location     Type
  1665 ;;		None
  1666 ;; Return value:  Size  Location     Type
  1667 ;;                  1    wreg      void 
  1668 ;; Registers used:
  1669 ;;		wreg, status,2, status,0, cstack
  1670 ;; Tracked objects:
  1671 ;;		On entry : 0/0
  1672 ;;		On exit  : 0/0
  1673 ;;		Unchanged: 0/0
  1674 ;; Data sizes:     COMRAM   BANK0   BANK1   BANK2   BANK3   BANK4   BANK5
  1675 ;;      Params:         0       0       0       0       0       0       0
  1676 ;;      Locals:         0       0       0       0       0       0       0
  1677 ;;      Temps:          0       0       0       0       0       0       0
  1678 ;;      Totals:         0       0       0       0       0       0       0
  1679 ;;Total ram usage:        0 bytes
  1680 ;; Hardware stack levels used:    1
  1681 ;; Hardware stack levels required when called:    9
  1682 ;; This function calls:
  1683 ;;		_ADC_SetInterruptHandler
  1684 ;; This function is called by:
  1685 ;;		_SYSTEM_Initialize
  1686 ;; This function uses a non-reentrant model
  1687 ;;
  1688                           
  1689                           	psect	text15
  1690  000F5E                     __ptext15:
  1691                           	opt callstack 0
  1692  000F5E                     _ADC_Initialize:
  1693                           	opt callstack 20
  1694  000F5E                     
  1695                           ;mcc_generated_files/adc.c: 71:     ADCON0 = 0x03;
  1696  000F5E  0E03               	movlw	3
  1697  000F60  6EC2               	movwf	194,c	;volatile
  1698                           
  1699                           ;mcc_generated_files/adc.c: 74:     ADCON1 = 0x05;
  1700  000F62  0E05               	movlw	5
  1701  000F64  6EC1               	movwf	193,c	;volatile
  1702                           
  1703                           ;mcc_generated_files/adc.c: 77:     ADCON2 = 0x89;
  1704  000F66  0E89               	movlw	137
  1705  000F68  6EC0               	movwf	192,c	;volatile
  1706                           
  1707                           ;mcc_generated_files/adc.c: 80:     ADRESL = 0x00;
  1708  000F6A  0E00               	movlw	0
  1709  000F6C  6EC3               	movwf	195,c	;volatile
  1710                           
  1711                           ;mcc_generated_files/adc.c: 83:     ADRESH = 0x00;
  1712  000F6E  0E00               	movlw	0
  1713  000F70  6EC4               	movwf	196,c	;volatile
  1714  000F72                     
  1715                           ;mcc_generated_files/adc.c: 86:     PIE1bits.ADIE = 1;
  1716  000F72  8C9D               	bsf	157,6,c	;volatile
  1717  000F74                     
  1718                           ;mcc_generated_files/adc.c: 89:     ADC_SetInterruptHandler(ADC_DefaultInterruptHandler)
      +                          ;
  1719  000F74  0EA8               	movlw	low _ADC_DefaultInterruptHandler
  1720  000F76  6E09               	movwf	ADC_SetInterruptHandler@InterruptHandler^0,c
  1721  000F78  0E10               	movlw	high _ADC_DefaultInterruptHandler
  1722  000F7A  6E0A               	movwf	(ADC_SetInterruptHandler@InterruptHandler+1)^0,c
  1723  000F7C  EC3C  F008         	call	_ADC_SetInterruptHandler	;wreg free
  1724  000F80  0012               	return		;funcret
  1725  000F82                     __end_of_ADC_Initialize:
  1726                           	opt callstack 0
  1727                           
  1728 ;; *************** function _ADC_SetInterruptHandler *****************
  1729 ;; Defined at:
  1730 ;;		line 153 in file "mcc_generated_files/adc.c"
  1731 ;; Parameters:    Size  Location     Type
  1732 ;;  InterruptHan    2    8[COMRAM] PTR FTN()void 
  1733 ;;		 -> ADC_DefaultInterruptHandler(1), 
  1734 ;; Auto vars:     Size  Location     Type
  1735 ;;		None
  1736 ;; Return value:  Size  Location     Type
  1737 ;;                  1    wreg      void 
  1738 ;; Registers used:
  1739 ;;		wreg, status,2, status,0
  1740 ;; Tracked objects:
  1741 ;;		On entry : 0/0
  1742 ;;		On exit  : 0/0
  1743 ;;		Unchanged: 0/0
  1744 ;; Data sizes:     COMRAM   BANK0   BANK1   BANK2   BANK3   BANK4   BANK5
  1745 ;;      Params:         2       0       0       0       0       0       0
  1746 ;;      Locals:         0       0       0       0       0       0       0
  1747 ;;      Temps:          0       0       0       0       0       0       0
  1748 ;;      Totals:         2       0       0       0       0       0       0
  1749 ;;Total ram usage:        2 bytes
  1750 ;; Hardware stack levels used:    1
  1751 ;; Hardware stack levels required when called:    8
  1752 ;; This function calls:
  1753 ;;		Nothing
  1754 ;; This function is called by:
  1755 ;;		_ADC_Initialize
  1756 ;; This function uses a non-reentrant model
  1757 ;;
  1758                           
  1759                           	psect	text16
  1760  001078                     __ptext16:
  1761                           	opt callstack 0
  1762  001078                     _ADC_SetInterruptHandler:
  1763                           	opt callstack 20
  1764  001078                     
  1765                           ;mcc_generated_files/adc.c: 154:     ADC_InterruptHandler = InterruptHandler;
  1766  001078  C009  F029         	movff	ADC_SetInterruptHandler@InterruptHandler,_ADC_InterruptHandler
  1767  00107C  C00A  F02A         	movff	ADC_SetInterruptHandler@InterruptHandler+1,_ADC_InterruptHandler+1
  1768  001080  0012               	return		;funcret
  1769  001082                     __end_of_ADC_SetInterruptHandler:
  1770                           	opt callstack 0
  1771                           
  1772 ;; *************** function _LCD_inicio_teste *****************
  1773 ;; Defined at:
  1774 ;;		line 23 in file "LCD.c"
  1775 ;; Parameters:    Size  Location     Type
  1776 ;;		None
  1777 ;; Auto vars:     Size  Location     Type
  1778 ;;		None
  1779 ;; Return value:  Size  Location     Type
  1780 ;;                  1    wreg      void 
  1781 ;; Registers used:
  1782 ;;		wreg, fsr0l, fsr0h, status,2, status,0, tblptrl, tblptrh, tblptru, cstack
  1783 ;; Tracked objects:
  1784 ;;		On entry : 0/0
  1785 ;;		On exit  : 0/0
  1786 ;;		Unchanged: 0/0
  1787 ;; Data sizes:     COMRAM   BANK0   BANK1   BANK2   BANK3   BANK4   BANK5
  1788 ;;      Params:         0       0       0       0       0       0       0
  1789 ;;      Locals:         0       0       0       0       0       0       0
  1790 ;;      Temps:          2       0       0       0       0       0       0
  1791 ;;      Totals:         2       0       0       0       0       0       0
  1792 ;;Total ram usage:        2 bytes
  1793 ;; Hardware stack levels used:    1
  1794 ;; Hardware stack levels required when called:   11
  1795 ;; This function calls:
  1796 ;;		_BusyXLCD
  1797 ;;		_OpenXLCD
  1798 ;;		_WriteCmdXLCD
  1799 ;;		_putsXLCD
  1800 ;; This function is called by:
  1801 ;;		_main
  1802 ;; This function uses a non-reentrant model
  1803 ;;
  1804                           
  1805                           	psect	text17
  1806  0007E2                     __ptext17:
  1807                           	opt callstack 0
  1808  0007E2                     _LCD_inicio_teste:
  1809                           	opt callstack 19
  1810  0007E2                     
  1811                           ;LCD.c: 36:  OpenXLCD(0b00101011);
  1812  0007E2  0E2B               	movlw	43
  1813  0007E4  EC85  F004         	call	_OpenXLCD
  1814  0007E8                     l2060:
  1815  0007E8  EC66  F006         	call	_BusyXLCD	;wreg free
  1816  0007EC  0900               	iorlw	0
  1817  0007EE  A4D8               	btfss	status,2,c
  1818  0007F0  EFFC  F003         	goto	u761
  1819  0007F4  EFFE  F003         	goto	u760
  1820  0007F8                     u761:
  1821  0007F8  EFF4  F003         	goto	l2060
  1822  0007FC                     u760:
  1823  0007FC                     
  1824                           ;LCD.c: 46:  WriteCmdXLCD(0b00001100);
  1825  0007FC  0E0C               	movlw	12
  1826  0007FE  ECA8  F006         	call	_WriteCmdXLCD
  1827  000802                     l2064:
  1828  000802  EC66  F006         	call	_BusyXLCD	;wreg free
  1829  000806  0900               	iorlw	0
  1830  000808  A4D8               	btfss	status,2,c
  1831  00080A  EF09  F004         	goto	u771
  1832  00080E  EF0B  F004         	goto	u770
  1833  000812                     u771:
  1834  000812  EF01  F004         	goto	l2064
  1835  000816                     u770:
  1836  000816                     
  1837                           ;LCD.c: 54:  WriteCmdXLCD(0b00010111);
  1838  000816  0E17               	movlw	23
  1839  000818  ECA8  F006         	call	_WriteCmdXLCD
  1840  00081C                     l2068:
  1841  00081C  EC66  F006         	call	_BusyXLCD	;wreg free
  1842  000820  0900               	iorlw	0
  1843  000822  A4D8               	btfss	status,2,c
  1844  000824  EF16  F004         	goto	u781
  1845  000828  EF18  F004         	goto	u780
  1846  00082C                     u781:
  1847  00082C  EF0E  F004         	goto	l2068
  1848  000830                     u780:
  1849  000830                     
  1850                           ;LCD.c: 60:  WriteCmdXLCD(0b00000001);
  1851  000830  0E01               	movlw	1
  1852  000832  ECA8  F006         	call	_WriteCmdXLCD
  1853  000836                     l2072:
  1854  000836  EC66  F006         	call	_BusyXLCD	;wreg free
  1855  00083A  0900               	iorlw	0
  1856  00083C  A4D8               	btfss	status,2,c
  1857  00083E  EF23  F004         	goto	u791
  1858  000842  EF25  F004         	goto	u790
  1859  000846                     u791:
  1860  000846  EF1B  F004         	goto	l2072
  1861  00084A                     u790:
  1862  00084A                     
  1863                           ;LCD.c: 76:  WriteCmdXLCD(0b10000000);
  1864  00084A  0E80               	movlw	128
  1865  00084C  ECA8  F006         	call	_WriteCmdXLCD
  1866  000850                     l2076:
  1867  000850  EC66  F006         	call	_BusyXLCD	;wreg free
  1868  000854  0900               	iorlw	0
  1869  000856  A4D8               	btfss	status,2,c
  1870  000858  EF30  F004         	goto	u801
  1871  00085C  EF32  F004         	goto	u800
  1872  000860                     u801:
  1873  000860  EF28  F004         	goto	l2076
  1874  000864                     u800:
  1875  000864                     
  1876                           ;LCD.c: 83:     putsXLCD("Mars ROCK'S!");
  1877  000864  0E26               	movlw	low STR_2
  1878  000866  6E0A               	movwf	putsXLCD@buffer^0,c
  1879  000868  0E06               	movlw	high STR_2
  1880  00086A  6E0B               	movwf	(putsXLCD@buffer+1)^0,c
  1881  00086C  EC80  F005         	call	_putsXLCD	;wreg free
  1882  000870                     l2080:
  1883  000870  EC66  F006         	call	_BusyXLCD	;wreg free
  1884  000874  0900               	iorlw	0
  1885  000876  A4D8               	btfss	status,2,c
  1886  000878  EF40  F004         	goto	u811
  1887  00087C  EF42  F004         	goto	u810
  1888  000880                     u811:
  1889  000880  EF38  F004         	goto	l2080
  1890  000884                     u810:
  1891  000884                     
  1892                           ;LCD.c: 86:     _delay((unsigned long)((1000)*(6000000/4000.0)));
  1893  000884  0E08               	movlw	8
  1894  000886  6E0D               	movwf	(??_LCD_inicio_teste+1)^0,c
  1895  000888  0E9D               	movlw	157
  1896  00088A  6E0C               	movwf	??_LCD_inicio_teste^0,c
  1897  00088C  0E06               	movlw	6
  1898  00088E                     u1007:
  1899  00088E  2EE8               	decfsz	wreg,f,c
  1900  000890  D7FE               	bra	u1007
  1901  000892  2E0C               	decfsz	??_LCD_inicio_teste^0,f,c
  1902  000894  D7FC               	bra	u1007
  1903  000896  2E0D               	decfsz	(??_LCD_inicio_teste+1)^0,f,c
  1904  000898  D7FA               	bra	u1007
  1905  00089A                     
  1906                           ;LCD.c: 88:      WriteCmdXLCD(0b00010111);
  1907  00089A  0E17               	movlw	23
  1908  00089C  ECA8  F006         	call	_WriteCmdXLCD
  1909  0008A0                     l2086:
  1910  0008A0  EC66  F006         	call	_BusyXLCD	;wreg free
  1911  0008A4  0900               	iorlw	0
  1912  0008A6  A4D8               	btfss	status,2,c
  1913  0008A8  EF58  F004         	goto	u821
  1914  0008AC  EF5A  F004         	goto	u820
  1915  0008B0                     u821:
  1916  0008B0  EF50  F004         	goto	l2086
  1917  0008B4                     u820:
  1918  0008B4                     
  1919                           ;LCD.c: 94:  WriteCmdXLCD(0b00000001);
  1920  0008B4  0E01               	movlw	1
  1921  0008B6  ECA8  F006         	call	_WriteCmdXLCD
  1922  0008BA                     l2090:
  1923  0008BA  EC66  F006         	call	_BusyXLCD	;wreg free
  1924  0008BE  0900               	iorlw	0
  1925  0008C0  A4D8               	btfss	status,2,c
  1926  0008C2  EF65  F004         	goto	u831
  1927  0008C6  EF67  F004         	goto	u830
  1928  0008CA                     u831:
  1929  0008CA  EF5D  F004         	goto	l2090
  1930  0008CE                     u830:
  1931  0008CE                     
  1932                           ;LCD.c: 101:  WriteCmdXLCD(0b10000000);
  1933  0008CE  0E80               	movlw	128
  1934  0008D0  ECA8  F006         	call	_WriteCmdXLCD
  1935  0008D4                     l2094:
  1936  0008D4  EC66  F006         	call	_BusyXLCD	;wreg free
  1937  0008D8  0900               	iorlw	0
  1938  0008DA  A4D8               	btfss	status,2,c
  1939  0008DC  EF72  F004         	goto	u841
  1940  0008E0  EF74  F004         	goto	u840
  1941  0008E4                     u841:
  1942  0008E4  EF6A  F004         	goto	l2094
  1943  0008E8                     u840:
  1944  0008E8                     
  1945                           ;LCD.c: 108:     putsXLCD("Teste - Teclado");
  1946  0008E8  0E16               	movlw	low STR_3
  1947  0008EA  6E0A               	movwf	putsXLCD@buffer^0,c
  1948  0008EC  0E06               	movlw	high STR_3
  1949  0008EE  6E0B               	movwf	(putsXLCD@buffer+1)^0,c
  1950  0008F0  EC80  F005         	call	_putsXLCD	;wreg free
  1951  0008F4                     l2098:
  1952  0008F4  EC66  F006         	call	_BusyXLCD	;wreg free
  1953  0008F8  0900               	iorlw	0
  1954  0008FA  A4D8               	btfss	status,2,c
  1955  0008FC  EF82  F004         	goto	u851
  1956  000900  EF84  F004         	goto	u850
  1957  000904                     u851:
  1958  000904  EF7A  F004         	goto	l2098
  1959  000908                     u850:
  1960  000908  0012               	return		;funcret
  1961  00090A                     __end_of_LCD_inicio_teste:
  1962                           	opt callstack 0
  1963                           
  1964 ;; *************** function _putsXLCD *****************
  1965 ;; Defined at:
  1966 ;;		line 302 in file "xlcd.c"
  1967 ;; Parameters:    Size  Location     Type
  1968 ;;  buffer          2    9[COMRAM] PTR unsigned char 
  1969 ;;		 -> STR_3(16), STR_2(13), STR_1(21), pin(4), 
  1970 ;; Auto vars:     Size  Location     Type
  1971 ;;		None
  1972 ;; Return value:  Size  Location     Type
  1973 ;;                  1    wreg      void 
  1974 ;; Registers used:
  1975 ;;		wreg, fsr0l, fsr0h, status,2, status,0, tblptrl, tblptrh, tblptru, cstack
  1976 ;; Tracked objects:
  1977 ;;		On entry : 0/0
  1978 ;;		On exit  : 0/0
  1979 ;;		Unchanged: 0/0
  1980 ;; Data sizes:     COMRAM   BANK0   BANK1   BANK2   BANK3   BANK4   BANK5
  1981 ;;      Params:         2       0       0       0       0       0       0
  1982 ;;      Locals:         0       0       0       0       0       0       0
  1983 ;;      Temps:          0       0       0       0       0       0       0
  1984 ;;      Totals:         2       0       0       0       0       0       0
  1985 ;;Total ram usage:        2 bytes
  1986 ;; Hardware stack levels used:    1
  1987 ;; Hardware stack levels required when called:   10
  1988 ;; This function calls:
  1989 ;;		_BusyXLCD
  1990 ;;		_WriteDataXLCD
  1991 ;; This function is called by:
  1992 ;;		_main
  1993 ;;		_LCD_inicio_teste
  1994 ;; This function uses a non-reentrant model
  1995 ;;
  1996                           
  1997                           	psect	text18
  1998  000B00                     __ptext18:
  1999                           	opt callstack 0
  2000  000B00                     _putsXLCD:
  2001                           	opt callstack 20
  2002  000B00                     
  2003                           ;xlcd.c: 303:     while (*buffer)
  2004  000B00  EFA0  F005         	goto	l2030
  2005  000B04                     l2024:
  2006  000B04  EC66  F006         	call	_BusyXLCD	;wreg free
  2007  000B08  0900               	iorlw	0
  2008  000B0A  A4D8               	btfss	status,2,c
  2009  000B0C  EF8A  F005         	goto	u711
  2010  000B10  EF8C  F005         	goto	u710
  2011  000B14                     u711:
  2012  000B14  EF82  F005         	goto	l2024
  2013  000B18                     u710:
  2014  000B18                     
  2015                           ;xlcd.c: 306:         WriteDataXLCD(*buffer);
  2016  000B18  C00A  FFF6         	movff	putsXLCD@buffer,tblptrl
  2017  000B1C  C00B  FFF7         	movff	putsXLCD@buffer+1,tblptrh
  2018  000B20  6AF8               	clrf	tblptru,c
  2019  000B22  0E05               	movlw	(high __ramtop+-1)
  2020  000B24  64F7               	cpfsgt	tblptrh,c
  2021  000B26  D003               	bra	u727
  2022  000B28  0008               	tblrd		*
  2023  000B2A  50F5               	movf	tablat,w,c
  2024  000B2C  D005               	bra	u720
  2025  000B2E                     u727:
  2026  000B2E  CFF6 FFE9          	movff	tblptrl,fsr0l
  2027  000B32  CFF7 FFEA          	movff	tblptrh,fsr0h
  2028  000B36  50EF               	movf	indf0,w,c
  2029  000B38                     u720:
  2030  000B38  EC89  F006         	call	_WriteDataXLCD
  2031  000B3C                     
  2032                           ;xlcd.c: 307:         buffer++;
  2033  000B3C  4A0A               	infsnz	putsXLCD@buffer^0,f,c
  2034  000B3E  2A0B               	incf	(putsXLCD@buffer+1)^0,f,c
  2035  000B40                     l2030:
  2036                           
  2037                           ;xlcd.c: 303:     while (*buffer)
  2038  000B40  C00A  FFF6         	movff	putsXLCD@buffer,tblptrl
  2039  000B44  C00B  FFF7         	movff	putsXLCD@buffer+1,tblptrh
  2040  000B48  6AF8               	clrf	tblptru,c
  2041  000B4A  0E05               	movlw	(high __ramtop+-1)
  2042  000B4C  64F7               	cpfsgt	tblptrh,c
  2043  000B4E  D003               	bra	u737
  2044  000B50  0008               	tblrd		*
  2045  000B52  50F5               	movf	tablat,w,c
  2046  000B54  D005               	bra	u730
  2047  000B56                     u737:
  2048  000B56  CFF6 FFE9          	movff	tblptrl,fsr0l
  2049  000B5A  CFF7 FFEA          	movff	tblptrh,fsr0h
  2050  000B5E  50EF               	movf	indf0,w,c
  2051  000B60                     u730:
  2052  000B60  0900               	iorlw	0
  2053  000B62  A4D8               	btfss	status,2,c
  2054  000B64  EFB6  F005         	goto	u741
  2055  000B68  EFB8  F005         	goto	u740
  2056  000B6C                     u741:
  2057  000B6C  EF82  F005         	goto	l2024
  2058  000B70                     u740:
  2059  000B70  0012               	return		;funcret
  2060  000B72                     __end_of_putsXLCD:
  2061                           	opt callstack 0
  2062                           
  2063 ;; *************** function _WriteDataXLCD *****************
  2064 ;; Defined at:
  2065 ;;		line 598 in file "xlcd.c"
  2066 ;; Parameters:    Size  Location     Type
  2067 ;;  data            1    wreg     unsigned char 
  2068 ;; Auto vars:     Size  Location     Type
  2069 ;;  data            1    8[COMRAM] unsigned char 
  2070 ;; Return value:  Size  Location     Type
  2071 ;;                  1    wreg      void 
  2072 ;; Registers used:
  2073 ;;		wreg, status,2, status,0, cstack
  2074 ;; Tracked objects:
  2075 ;;		On entry : 0/0
  2076 ;;		On exit  : 0/0
  2077 ;;		Unchanged: 0/0
  2078 ;; Data sizes:     COMRAM   BANK0   BANK1   BANK2   BANK3   BANK4   BANK5
  2079 ;;      Params:         0       0       0       0       0       0       0
  2080 ;;      Locals:         1       0       0       0       0       0       0
  2081 ;;      Temps:          0       0       0       0       0       0       0
  2082 ;;      Totals:         1       0       0       0       0       0       0
  2083 ;;Total ram usage:        1 bytes
  2084 ;; Hardware stack levels used:    1
  2085 ;; Hardware stack levels required when called:    9
  2086 ;; This function calls:
  2087 ;;		_DelayFor18TCY
  2088 ;; This function is called by:
  2089 ;;		_putsXLCD
  2090 ;; This function uses a non-reentrant model
  2091 ;;
  2092                           
  2093                           	psect	text19
  2094  000D12                     __ptext19:
  2095                           	opt callstack 0
  2096  000D12                     _WriteDataXLCD:
  2097                           	opt callstack 20
  2098                           
  2099                           ;incstack = 0
  2100                           ;WriteDataXLCD@data stored from wreg
  2101  000D12  6E09               	movwf	WriteDataXLCD@data^0,c
  2102  000D14                     
  2103                           ;xlcd.c: 616:     TRISD &= 0xf0;
  2104  000D14  0EF0               	movlw	240
  2105  000D16  1695               	andwf	149,f,c	;volatile
  2106                           
  2107                           ;xlcd.c: 617:     PORTD &= 0xf0;
  2108  000D18  0EF0               	movlw	240
  2109  000D1A  1683               	andwf	131,f,c	;volatile
  2110                           
  2111                           ;xlcd.c: 618:     PORTD |= ((data >> 4)&0x0f);
  2112  000D1C  3809               	swapf	WriteDataXLCD@data^0,w,c
  2113  000D1E  0B0F               	andlw	15
  2114  000D20  0B0F               	andlw	15
  2115  000D22  1283               	iorwf	131,f,c	;volatile
  2116  000D24                     
  2117                           ;xlcd.c: 620:     LATDbits.LATD4 = 1;
  2118  000D24  888C               	bsf	140,4,c	;volatile
  2119  000D26                     
  2120                           ;xlcd.c: 621:     LATDbits.LATD5 = 0;
  2121  000D26  9A8C               	bcf	140,5,c	;volatile
  2122  000D28                     
  2123                           ;xlcd.c: 622:     DelayFor18TCY();
  2124  000D28  EC13  F008         	call	_DelayFor18TCY	;wreg free
  2125  000D2C                     
  2126                           ;xlcd.c: 623:     LATDbits.LATD6 = 1;
  2127  000D2C  8C8C               	bsf	140,6,c	;volatile
  2128  000D2E                     
  2129                           ;xlcd.c: 624:     DelayFor18TCY();
  2130  000D2E  EC13  F008         	call	_DelayFor18TCY	;wreg free
  2131  000D32                     
  2132                           ;xlcd.c: 625:     LATDbits.LATD6 = 0;
  2133  000D32  9C8C               	bcf	140,6,c	;volatile
  2134                           
  2135                           ;xlcd.c: 630:     PORTD &= 0xf0;
  2136  000D34  0EF0               	movlw	240
  2137  000D36  1683               	andwf	131,f,c	;volatile
  2138                           
  2139                           ;xlcd.c: 631:     PORTD |= (data & 0x0f);
  2140  000D38  5009               	movf	WriteDataXLCD@data^0,w,c
  2141  000D3A  0B0F               	andlw	15
  2142  000D3C  1283               	iorwf	131,f,c	;volatile
  2143  000D3E                     
  2144                           ;xlcd.c: 633:     DelayFor18TCY();
  2145  000D3E  EC13  F008         	call	_DelayFor18TCY	;wreg free
  2146  000D42                     
  2147                           ;xlcd.c: 634:     LATDbits.LATD6 = 1;
  2148  000D42  8C8C               	bsf	140,6,c	;volatile
  2149  000D44                     
  2150                           ;xlcd.c: 635:     DelayFor18TCY();
  2151  000D44  EC13  F008         	call	_DelayFor18TCY	;wreg free
  2152  000D48                     
  2153                           ;xlcd.c: 636:     LATDbits.LATD6 = 0;
  2154  000D48  9C8C               	bcf	140,6,c	;volatile
  2155                           
  2156                           ;xlcd.c: 640:     TRISD |= 0x0f;
  2157  000D4A  0E0F               	movlw	15
  2158  000D4C  1295               	iorwf	149,f,c	;volatile
  2159  000D4E  0012               	return		;funcret
  2160  000D50                     __end_of_WriteDataXLCD:
  2161                           	opt callstack 0
  2162                           
  2163 ;; *************** function _OpenXLCD *****************
  2164 ;; Defined at:
  2165 ;;		line 56 in file "xlcd.c"
  2166 ;; Parameters:    Size  Location     Type
  2167 ;;  lcdtype         1    wreg     unsigned char 
  2168 ;; Auto vars:     Size  Location     Type
  2169 ;;  lcdtype         1    0[COMRAM] unsigned char 
  2170 ;; Return value:  Size  Location     Type
  2171 ;;                  1    wreg      void 
  2172 ;; Registers used:
  2173 ;;		wreg, status,2, status,0, cstack
  2174 ;; Tracked objects:
  2175 ;;		On entry : 0/0
  2176 ;;		On exit  : 0/0
  2177 ;;		Unchanged: 0/0
  2178 ;; Data sizes:     COMRAM   BANK0   BANK1   BANK2   BANK3   BANK4   BANK5
  2179 ;;      Params:         0       0       0       0       0       0       0
  2180 ;;      Locals:         0       0       0       0       0       0       0
  2181 ;;      Temps:          0       0       0       0       0       0       0
  2182 ;;      Totals:         0       0       0       0       0       0       0
  2183 ;;Total ram usage:        0 bytes
  2184 ;; Hardware stack levels used:    1
  2185 ;; Hardware stack levels required when called:   10
  2186 ;; This function calls:
  2187 ;;		_BusyXLCD
  2188 ;;		_DelayFor18TCY
  2189 ;;		_DelayPORXLCD
  2190 ;;		_DelayXLCD
  2191 ;;		_WriteCmdXLCD
  2192 ;; This function is called by:
  2193 ;;		_LCD_inicio_teste
  2194 ;; This function uses a non-reentrant model
  2195 ;;
  2196                           
  2197                           	psect	text20
  2198  00090A                     __ptext20:
  2199                           	opt callstack 0
  2200  00090A                     _OpenXLCD:
  2201                           	opt callstack 19
  2202  00090A                     
  2203                           ;xlcd.c: 60:     DelayPORXLCD();
  2204  00090A  ECF4  F007         	call	_DelayPORXLCD	;wreg free
  2205  00090E                     
  2206                           ;xlcd.c: 72:     PORTD &= 0xf0;
  2207  00090E  0EF0               	movlw	240
  2208  000910  1683               	andwf	131,f,c	;volatile
  2209  000912                     
  2210                           ;xlcd.c: 73:     TRISD |= 0x0f;
  2211  000912  0E0F               	movlw	15
  2212  000914  1295               	iorwf	149,f,c	;volatile
  2213  000916                     
  2214                           ;xlcd.c: 76:     TRISDbits.TRISD5 = 0;
  2215  000916  9A95               	bcf	149,5,c	;volatile
  2216  000918                     
  2217                           ;xlcd.c: 77:     TRISDbits.TRISD4 = 0;
  2218  000918  9895               	bcf	149,4,c	;volatile
  2219  00091A                     
  2220                           ;xlcd.c: 78:     TRISDbits.TRISD6 = 0;
  2221  00091A  9C95               	bcf	149,6,c	;volatile
  2222  00091C                     
  2223                           ;xlcd.c: 79:     LATDbits.LATD5 = 0;
  2224  00091C  9A8C               	bcf	140,5,c	;volatile
  2225  00091E                     
  2226                           ;xlcd.c: 80:     LATDbits.LATD4 = 0;
  2227  00091E  988C               	bcf	140,4,c	;volatile
  2228  000920                     
  2229                           ;xlcd.c: 81:     LATDbits.LATD6 = 0;
  2230  000920  9C8C               	bcf	140,6,c	;volatile
  2231                           
  2232                           ;xlcd.c: 84:     DelayPORXLCD();
  2233  000922  ECF4  F007         	call	_DelayPORXLCD	;wreg free
  2234  000926                     
  2235                           ;xlcd.c: 97:     TRISD &= 0xf0;
  2236  000926  0EF0               	movlw	240
  2237  000928  1695               	andwf	149,f,c	;volatile
  2238  00092A                     
  2239                           ;xlcd.c: 98:     PORTD &= 0xf0;
  2240  00092A  0EF0               	movlw	240
  2241  00092C  1683               	andwf	131,f,c	;volatile
  2242  00092E                     
  2243                           ;xlcd.c: 99:     PORTD |= 0b00000011;
  2244  00092E  0E03               	movlw	3
  2245  000930  1283               	iorwf	131,f,c	;volatile
  2246  000932                     
  2247                           ;xlcd.c: 102:     LATDbits.LATD6 = 1;
  2248  000932  8C8C               	bsf	140,6,c	;volatile
  2249  000934                     
  2250                           ;xlcd.c: 103:     DelayFor18TCY();
  2251  000934  EC13  F008         	call	_DelayFor18TCY	;wreg free
  2252  000938                     
  2253                           ;xlcd.c: 104:     LATDbits.LATD6 = 0;
  2254  000938  9C8C               	bcf	140,6,c	;volatile
  2255  00093A                     
  2256                           ;xlcd.c: 107:     DelayXLCD();
  2257  00093A  EC0B  F008         	call	_DelayXLCD	;wreg free
  2258  00093E                     
  2259                           ;xlcd.c: 118:     TRISD &= 0xf0;
  2260  00093E  0EF0               	movlw	240
  2261  000940  1695               	andwf	149,f,c	;volatile
  2262  000942                     
  2263                           ;xlcd.c: 119:     PORTD &= 0xf0;
  2264  000942  0EF0               	movlw	240
  2265  000944  1683               	andwf	131,f,c	;volatile
  2266  000946                     
  2267                           ;xlcd.c: 120:     PORTD |= 0b00000011;
  2268  000946  0E03               	movlw	3
  2269  000948  1283               	iorwf	131,f,c	;volatile
  2270  00094A                     
  2271                           ;xlcd.c: 123:     LATDbits.LATD6 = 1;
  2272  00094A  8C8C               	bsf	140,6,c	;volatile
  2273                           
  2274                           ;xlcd.c: 124:     DelayFor18TCY();
  2275  00094C  EC13  F008         	call	_DelayFor18TCY	;wreg free
  2276  000950                     
  2277                           ;xlcd.c: 125:     LATDbits.LATD6 = 0;
  2278  000950  9C8C               	bcf	140,6,c	;volatile
  2279                           
  2280                           ;xlcd.c: 128:     DelayXLCD();
  2281  000952  EC0B  F008         	call	_DelayXLCD	;wreg free
  2282  000956                     
  2283                           ;xlcd.c: 138:     PORTD &= 0xf0;
  2284  000956  0EF0               	movlw	240
  2285  000958  1683               	andwf	131,f,c	;volatile
  2286  00095A                     
  2287                           ;xlcd.c: 139:     PORTD |= 0b00000011;
  2288  00095A  0E03               	movlw	3
  2289  00095C  1283               	iorwf	131,f,c	;volatile
  2290  00095E                     
  2291                           ;xlcd.c: 142:     LATDbits.LATD6 = 1;
  2292  00095E  8C8C               	bsf	140,6,c	;volatile
  2293                           
  2294                           ;xlcd.c: 143:     DelayFor18TCY();
  2295  000960  EC13  F008         	call	_DelayFor18TCY	;wreg free
  2296  000964                     
  2297                           ;xlcd.c: 144:     LATDbits.LATD6 = 0;
  2298  000964  9C8C               	bcf	140,6,c	;volatile
  2299                           
  2300                           ;xlcd.c: 147:     DelayXLCD();
  2301  000966  EC0B  F008         	call	_DelayXLCD	;wreg free
  2302  00096A                     
  2303                           ;xlcd.c: 159:     PORTD &= 0xf0;
  2304  00096A  0EF0               	movlw	240
  2305  00096C  1683               	andwf	131,f,c	;volatile
  2306  00096E                     
  2307                           ;xlcd.c: 160:     PORTD |= 0b00000010;
  2308  00096E  8283               	bsf	131,1,c	;volatile
  2309  000970                     
  2310                           ;xlcd.c: 163:     LATDbits.LATD6 = 1;
  2311  000970  8C8C               	bsf	140,6,c	;volatile
  2312  000972                     
  2313                           ;xlcd.c: 164:     DelayFor18TCY();
  2314  000972  EC13  F008         	call	_DelayFor18TCY	;wreg free
  2315  000976                     
  2316                           ;xlcd.c: 165:     LATDbits.LATD6 = 0;
  2317  000976  9C8C               	bcf	140,6,c	;volatile
  2318  000978                     
  2319                           ;xlcd.c: 174:     TRISD |= 0x0f;
  2320  000978  0E0F               	movlw	15
  2321  00097A  1295               	iorwf	149,f,c	;volatile
  2322  00097C                     l1554:
  2323  00097C  EC66  F006         	call	_BusyXLCD	;wreg free
  2324  000980  0900               	iorlw	0
  2325  000982  A4D8               	btfss	status,2,c
  2326  000984  EFC6  F004         	goto	u251
  2327  000988  EFC8  F004         	goto	u250
  2328  00098C                     u251:
  2329  00098C  EFBE  F004         	goto	l1554
  2330  000990                     u250:
  2331  000990                     
  2332                           ;xlcd.c: 182:     WriteCmdXLCD(0x28);
  2333  000990  0E28               	movlw	40
  2334  000992  ECA8  F006         	call	_WriteCmdXLCD
  2335  000996                     l1558:
  2336  000996  EC66  F006         	call	_BusyXLCD	;wreg free
  2337  00099A  0900               	iorlw	0
  2338  00099C  A4D8               	btfss	status,2,c
  2339  00099E  EFD3  F004         	goto	u261
  2340  0009A2  EFD5  F004         	goto	u260
  2341  0009A6                     u261:
  2342  0009A6  EFCB  F004         	goto	l1558
  2343  0009AA                     u260:
  2344  0009AA                     
  2345                           ;xlcd.c: 188:     WriteCmdXLCD(0x0D);
  2346  0009AA  0E0D               	movlw	13
  2347  0009AC  ECA8  F006         	call	_WriteCmdXLCD
  2348  0009B0                     l1562:
  2349  0009B0  EC66  F006         	call	_BusyXLCD	;wreg free
  2350  0009B4  0900               	iorlw	0
  2351  0009B6  A4D8               	btfss	status,2,c
  2352  0009B8  EFE0  F004         	goto	u271
  2353  0009BC  EFE2  F004         	goto	u270
  2354  0009C0                     u271:
  2355  0009C0  EFD8  F004         	goto	l1562
  2356  0009C4                     u270:
  2357  0009C4                     l1564:
  2358  0009C4  EC66  F006         	call	_BusyXLCD	;wreg free
  2359  0009C8  0900               	iorlw	0
  2360  0009CA  A4D8               	btfss	status,2,c
  2361  0009CC  EFEA  F004         	goto	u281
  2362  0009D0  EFEC  F004         	goto	u280
  2363  0009D4                     u281:
  2364  0009D4  EFE2  F004         	goto	l1564
  2365  0009D8                     u280:
  2366  0009D8                     
  2367                           ;xlcd.c: 196:     WriteCmdXLCD(0x01);
  2368  0009D8  0E01               	movlw	1
  2369  0009DA  ECA8  F006         	call	_WriteCmdXLCD
  2370  0009DE                     l1568:
  2371  0009DE  EC66  F006         	call	_BusyXLCD	;wreg free
  2372  0009E2  0900               	iorlw	0
  2373  0009E4  A4D8               	btfss	status,2,c
  2374  0009E6  EFF7  F004         	goto	u291
  2375  0009EA  EFF9  F004         	goto	u290
  2376  0009EE                     u291:
  2377  0009EE  EFEF  F004         	goto	l1568
  2378  0009F2                     u290:
  2379  0009F2                     
  2380                           ;xlcd.c: 201:     WriteCmdXLCD(0x06);
  2381  0009F2  0E06               	movlw	6
  2382  0009F4  ECA8  F006         	call	_WriteCmdXLCD
  2383  0009F8                     l1572:
  2384  0009F8  EC66  F006         	call	_BusyXLCD	;wreg free
  2385  0009FC  0900               	iorlw	0
  2386  0009FE  A4D8               	btfss	status,2,c
  2387  000A00  EF04  F005         	goto	u301
  2388  000A04  EF06  F005         	goto	u300
  2389  000A08                     u301:
  2390  000A08  EFFC  F004         	goto	l1572
  2391  000A0C                     u300:
  2392  000A0C                     
  2393                           ;xlcd.c: 207:     WriteCmdXLCD(0x80);
  2394  000A0C  0E80               	movlw	128
  2395  000A0E  ECA8  F006         	call	_WriteCmdXLCD
  2396  000A12  0012               	return		;funcret
  2397  000A14                     __end_of_OpenXLCD:
  2398                           	opt callstack 0
  2399                           
  2400 ;; *************** function _WriteCmdXLCD *****************
  2401 ;; Defined at:
  2402 ;;		line 538 in file "xlcd.c"
  2403 ;; Parameters:    Size  Location     Type
  2404 ;;  cmd             1    wreg     unsigned char 
  2405 ;; Auto vars:     Size  Location     Type
  2406 ;;  cmd             1    8[COMRAM] unsigned char 
  2407 ;; Return value:  Size  Location     Type
  2408 ;;                  1    wreg      void 
  2409 ;; Registers used:
  2410 ;;		wreg, status,2, status,0, cstack
  2411 ;; Tracked objects:
  2412 ;;		On entry : 0/0
  2413 ;;		On exit  : 0/0
  2414 ;;		Unchanged: 0/0
  2415 ;; Data sizes:     COMRAM   BANK0   BANK1   BANK2   BANK3   BANK4   BANK5
  2416 ;;      Params:         0       0       0       0       0       0       0
  2417 ;;      Locals:         1       0       0       0       0       0       0
  2418 ;;      Temps:          0       0       0       0       0       0       0
  2419 ;;      Totals:         1       0       0       0       0       0       0
  2420 ;;Total ram usage:        1 bytes
  2421 ;; Hardware stack levels used:    1
  2422 ;; Hardware stack levels required when called:    9
  2423 ;; This function calls:
  2424 ;;		_DelayFor18TCY
  2425 ;; This function is called by:
  2426 ;;		_main
  2427 ;;		_OpenXLCD
  2428 ;;		_LCD_inicio_teste
  2429 ;; This function uses a non-reentrant model
  2430 ;;
  2431                           
  2432                           	psect	text21
  2433  000D50                     __ptext21:
  2434                           	opt callstack 0
  2435  000D50                     _WriteCmdXLCD:
  2436                           	opt callstack 21
  2437                           
  2438                           ;incstack = 0
  2439                           ;WriteCmdXLCD@cmd stored from wreg
  2440  000D50  6E09               	movwf	WriteCmdXLCD@cmd^0,c
  2441  000D52                     
  2442                           ;xlcd.c: 556:     TRISD &= 0xf0;
  2443  000D52  0EF0               	movlw	240
  2444  000D54  1695               	andwf	149,f,c	;volatile
  2445                           
  2446                           ;xlcd.c: 557:     PORTD &= 0xf0;
  2447  000D56  0EF0               	movlw	240
  2448  000D58  1683               	andwf	131,f,c	;volatile
  2449                           
  2450                           ;xlcd.c: 558:     PORTD |= (cmd >> 4)&0x0f;
  2451  000D5A  3809               	swapf	WriteCmdXLCD@cmd^0,w,c
  2452  000D5C  0B0F               	andlw	15
  2453  000D5E  0B0F               	andlw	15
  2454  000D60  1283               	iorwf	131,f,c	;volatile
  2455  000D62                     
  2456                           ;xlcd.c: 560:     LATDbits.LATD5 = 0;
  2457  000D62  9A8C               	bcf	140,5,c	;volatile
  2458  000D64                     
  2459                           ;xlcd.c: 561:     LATDbits.LATD4 = 0;
  2460  000D64  988C               	bcf	140,4,c	;volatile
  2461  000D66                     
  2462                           ;xlcd.c: 562:     DelayFor18TCY();
  2463  000D66  EC13  F008         	call	_DelayFor18TCY	;wreg free
  2464  000D6A                     
  2465                           ;xlcd.c: 563:     LATDbits.LATD6 = 1;
  2466  000D6A  8C8C               	bsf	140,6,c	;volatile
  2467  000D6C                     
  2468                           ;xlcd.c: 564:     DelayFor18TCY();
  2469  000D6C  EC13  F008         	call	_DelayFor18TCY	;wreg free
  2470  000D70                     
  2471                           ;xlcd.c: 565:     LATDbits.LATD6 = 0;
  2472  000D70  9C8C               	bcf	140,6,c	;volatile
  2473                           
  2474                           ;xlcd.c: 570:     PORTD &= 0xf0;
  2475  000D72  0EF0               	movlw	240
  2476  000D74  1683               	andwf	131,f,c	;volatile
  2477                           
  2478                           ;xlcd.c: 571:     PORTD |= cmd & 0x0f;
  2479  000D76  5009               	movf	WriteCmdXLCD@cmd^0,w,c
  2480  000D78  0B0F               	andlw	15
  2481  000D7A  1283               	iorwf	131,f,c	;volatile
  2482  000D7C                     
  2483                           ;xlcd.c: 573:     DelayFor18TCY();
  2484  000D7C  EC13  F008         	call	_DelayFor18TCY	;wreg free
  2485  000D80                     
  2486                           ;xlcd.c: 574:     LATDbits.LATD6 = 1;
  2487  000D80  8C8C               	bsf	140,6,c	;volatile
  2488  000D82                     
  2489                           ;xlcd.c: 575:     DelayFor18TCY();
  2490  000D82  EC13  F008         	call	_DelayFor18TCY	;wreg free
  2491  000D86                     
  2492                           ;xlcd.c: 576:     LATDbits.LATD6 = 0;
  2493  000D86  9C8C               	bcf	140,6,c	;volatile
  2494                           
  2495                           ;xlcd.c: 580:     TRISD |= 0x0f;
  2496  000D88  0E0F               	movlw	15
  2497  000D8A  1295               	iorwf	149,f,c	;volatile
  2498  000D8C  0012               	return		;funcret
  2499  000D8E                     __end_of_WriteCmdXLCD:
  2500                           	opt callstack 0
  2501                           
  2502 ;; *************** function _DelayXLCD *****************
  2503 ;; Defined at:
  2504 ;;		line 33 in file "xlcd.c"
  2505 ;; Parameters:    Size  Location     Type
  2506 ;;		None
  2507 ;; Auto vars:     Size  Location     Type
  2508 ;;		None
  2509 ;; Return value:  Size  Location     Type
  2510 ;;                  1    wreg      void 
  2511 ;; Registers used:
  2512 ;;		wreg
  2513 ;; Tracked objects:
  2514 ;;		On entry : 0/0
  2515 ;;		On exit  : 0/0
  2516 ;;		Unchanged: 0/0
  2517 ;; Data sizes:     COMRAM   BANK0   BANK1   BANK2   BANK3   BANK4   BANK5
  2518 ;;      Params:         0       0       0       0       0       0       0
  2519 ;;      Locals:         0       0       0       0       0       0       0
  2520 ;;      Temps:          1       0       0       0       0       0       0
  2521 ;;      Totals:         1       0       0       0       0       0       0
  2522 ;;Total ram usage:        1 bytes
  2523 ;; Hardware stack levels used:    1
  2524 ;; Hardware stack levels required when called:    8
  2525 ;; This function calls:
  2526 ;;		Nothing
  2527 ;; This function is called by:
  2528 ;;		_OpenXLCD
  2529 ;; This function uses a non-reentrant model
  2530 ;;
  2531                           
  2532                           	psect	text22
  2533  001016                     __ptext22:
  2534                           	opt callstack 0
  2535  001016                     _DelayXLCD:
  2536                           	opt callstack 20
  2537  001016                     
  2538                           ;xlcd.c: 36:     _delay((unsigned long)((15)*(4000000/4000.0)));
  2539  001016  0E14               	movlw	20
  2540  001018  6E09               	movwf	??_DelayXLCD^0,c
  2541  00101A  0E7A               	movlw	122
  2542  00101C                     u1017:
  2543  00101C  2EE8               	decfsz	wreg,f,c
  2544  00101E  D7FE               	bra	u1017
  2545  001020  2E09               	decfsz	??_DelayXLCD^0,f,c
  2546  001022  D7FC               	bra	u1017
  2547  001024  0012               	return		;funcret
  2548  001026                     __end_of_DelayXLCD:
  2549                           	opt callstack 0
  2550                           
  2551 ;; *************** function _DelayPORXLCD *****************
  2552 ;; Defined at:
  2553 ;;		line 25 in file "xlcd.c"
  2554 ;; Parameters:    Size  Location     Type
  2555 ;;		None
  2556 ;; Auto vars:     Size  Location     Type
  2557 ;;		None
  2558 ;; Return value:  Size  Location     Type
  2559 ;;                  1    wreg      void 
  2560 ;; Registers used:
  2561 ;;		wreg
  2562 ;; Tracked objects:
  2563 ;;		On entry : 0/0
  2564 ;;		On exit  : 0/0
  2565 ;;		Unchanged: 0/0
  2566 ;; Data sizes:     COMRAM   BANK0   BANK1   BANK2   BANK3   BANK4   BANK5
  2567 ;;      Params:         0       0       0       0       0       0       0
  2568 ;;      Locals:         0       0       0       0       0       0       0
  2569 ;;      Temps:          1       0       0       0       0       0       0
  2570 ;;      Totals:         1       0       0       0       0       0       0
  2571 ;;Total ram usage:        1 bytes
  2572 ;; Hardware stack levels used:    1
  2573 ;; Hardware stack levels required when called:    8
  2574 ;; This function calls:
  2575 ;;		Nothing
  2576 ;; This function is called by:
  2577 ;;		_OpenXLCD
  2578 ;; This function uses a non-reentrant model
  2579 ;;
  2580                           
  2581                           	psect	text23
  2582  000FE8                     __ptext23:
  2583                           	opt callstack 0
  2584  000FE8                     _DelayPORXLCD:
  2585                           	opt callstack 20
  2586  000FE8                     
  2587                           ;xlcd.c: 28:     _delay((unsigned long)((15)*(4000000/4000.0)));
  2588  000FE8  0E14               	movlw	20
  2589  000FEA  6E09               	movwf	??_DelayPORXLCD^0,c
  2590  000FEC  0E7A               	movlw	122
  2591  000FEE                     u1027:
  2592  000FEE  2EE8               	decfsz	wreg,f,c
  2593  000FF0  D7FE               	bra	u1027
  2594  000FF2  2E09               	decfsz	??_DelayPORXLCD^0,f,c
  2595  000FF4  D7FC               	bra	u1027
  2596                           
  2597                           ;xlcd.c: 29:     _delay((unsigned long)((15)*(4000000/4000.0)));
  2598  000FF6  0E14               	movlw	20
  2599  000FF8  6E09               	movwf	??_DelayPORXLCD^0,c
  2600  000FFA  0E7A               	movlw	122
  2601  000FFC                     u1037:
  2602  000FFC  2EE8               	decfsz	wreg,f,c
  2603  000FFE  D7FE               	bra	u1037
  2604  001000  2E09               	decfsz	??_DelayPORXLCD^0,f,c
  2605  001002  D7FC               	bra	u1037
  2606  001004  0012               	return		;funcret
  2607  001006                     __end_of_DelayPORXLCD:
  2608                           	opt callstack 0
  2609                           
  2610 ;; *************** function _BusyXLCD *****************
  2611 ;; Defined at:
  2612 ;;		line 218 in file "xlcd.c"
  2613 ;; Parameters:    Size  Location     Type
  2614 ;;		None
  2615 ;; Auto vars:     Size  Location     Type
  2616 ;;		None
  2617 ;; Return value:  Size  Location     Type
  2618 ;;                  1    wreg      unsigned char 
  2619 ;; Registers used:
  2620 ;;		wreg, cstack
  2621 ;; Tracked objects:
  2622 ;;		On entry : 0/0
  2623 ;;		On exit  : 0/0
  2624 ;;		Unchanged: 0/0
  2625 ;; Data sizes:     COMRAM   BANK0   BANK1   BANK2   BANK3   BANK4   BANK5
  2626 ;;      Params:         0       0       0       0       0       0       0
  2627 ;;      Locals:         0       0       0       0       0       0       0
  2628 ;;      Temps:          0       0       0       0       0       0       0
  2629 ;;      Totals:         0       0       0       0       0       0       0
  2630 ;;Total ram usage:        0 bytes
  2631 ;; Hardware stack levels used:    1
  2632 ;; Hardware stack levels required when called:    9
  2633 ;; This function calls:
  2634 ;;		_DelayFor18TCY
  2635 ;; This function is called by:
  2636 ;;		_main
  2637 ;;		_OpenXLCD
  2638 ;;		_putsXLCD
  2639 ;;		_LCD_inicio_teste
  2640 ;; This function uses a non-reentrant model
  2641 ;;
  2642                           
  2643                           	psect	text24
  2644  000CCC                     __ptext24:
  2645                           	opt callstack 0
  2646  000CCC                     _BusyXLCD:
  2647                           	opt callstack 20
  2648  000CCC                     
  2649                           ;xlcd.c: 219:     LATDbits.LATD5 = 1;
  2650  000CCC  8A8C               	bsf	140,5,c	;volatile
  2651                           
  2652                           ;xlcd.c: 220:     LATDbits.LATD4 = 0;
  2653  000CCE  988C               	bcf	140,4,c	;volatile
  2654  000CD0                     
  2655                           ;xlcd.c: 221:     DelayFor18TCY();
  2656  000CD0  EC13  F008         	call	_DelayFor18TCY	;wreg free
  2657  000CD4                     
  2658                           ;xlcd.c: 222:     LATDbits.LATD6 = 1;
  2659  000CD4  8C8C               	bsf	140,6,c	;volatile
  2660                           
  2661                           ;xlcd.c: 223:     DelayFor18TCY();
  2662  000CD6  EC13  F008         	call	_DelayFor18TCY	;wreg free
  2663  000CDA                     
  2664                           ;xlcd.c: 240:     if (PORTD & 0x08)
  2665  000CDA  A683               	btfss	131,3,c	;volatile
  2666  000CDC  EF72  F006         	goto	u11
  2667  000CE0  EF74  F006         	goto	u10
  2668  000CE4                     u11:
  2669  000CE4  EF7F  F006         	goto	l412
  2670  000CE8                     u10:
  2671  000CE8                     
  2672                           ;xlcd.c: 242:     {;xlcd.c: 243:         LATDbits.LATD6 = 0;
  2673  000CE8  9C8C               	bcf	140,6,c	;volatile
  2674  000CEA                     
  2675                           ;xlcd.c: 244:         DelayFor18TCY();
  2676  000CEA  EC13  F008         	call	_DelayFor18TCY	;wreg free
  2677  000CEE                     
  2678                           ;xlcd.c: 245:         LATDbits.LATD6 = 1;
  2679  000CEE  8C8C               	bsf	140,6,c	;volatile
  2680                           
  2681                           ;xlcd.c: 246:         DelayFor18TCY();
  2682  000CF0  EC13  F008         	call	_DelayFor18TCY	;wreg free
  2683  000CF4                     
  2684                           ;xlcd.c: 247:         LATDbits.LATD6 = 0;
  2685  000CF4  9C8C               	bcf	140,6,c	;volatile
  2686  000CF6                     
  2687                           ;xlcd.c: 248:         LATDbits.LATD5 = 0;
  2688  000CF6  9A8C               	bcf	140,5,c	;volatile
  2689  000CF8                     
  2690                           ;xlcd.c: 249:         return 1;
  2691  000CF8  0E01               	movlw	1
  2692  000CFA  EF88  F006         	goto	l413
  2693  000CFE                     l412:
  2694                           
  2695                           ;xlcd.c: 251:     {;xlcd.c: 252:         LATDbits.LATD6 = 0;
  2696  000CFE  9C8C               	bcf	140,6,c	;volatile
  2697  000D00                     
  2698                           ;xlcd.c: 253:         DelayFor18TCY();
  2699  000D00  EC13  F008         	call	_DelayFor18TCY	;wreg free
  2700  000D04                     
  2701                           ;xlcd.c: 254:         LATDbits.LATD6 = 1;
  2702  000D04  8C8C               	bsf	140,6,c	;volatile
  2703                           
  2704                           ;xlcd.c: 255:         DelayFor18TCY();
  2705  000D06  EC13  F008         	call	_DelayFor18TCY	;wreg free
  2706  000D0A                     
  2707                           ;xlcd.c: 256:         LATDbits.LATD6 = 0;
  2708  000D0A  9C8C               	bcf	140,6,c	;volatile
  2709  000D0C                     
  2710                           ;xlcd.c: 257:         LATDbits.LATD5 = 0;
  2711  000D0C  9A8C               	bcf	140,5,c	;volatile
  2712  000D0E                     
  2713                           ;xlcd.c: 258:         return 0;
  2714  000D0E  0E00               	movlw	0
  2715  000D10                     l413:
  2716  000D10  0012               	return		;funcret
  2717  000D12                     __end_of_BusyXLCD:
  2718                           	opt callstack 0
  2719                           
  2720 ;; *************** function _DelayFor18TCY *****************
  2721 ;; Defined at:
  2722 ;;		line 18 in file "xlcd.c"
  2723 ;; Parameters:    Size  Location     Type
  2724 ;;		None
  2725 ;; Auto vars:     Size  Location     Type
  2726 ;;		None
  2727 ;; Return value:  Size  Location     Type
  2728 ;;                  1    wreg      void 
  2729 ;; Registers used:
  2730 ;;		wreg
  2731 ;; Tracked objects:
  2732 ;;		On entry : 0/0
  2733 ;;		On exit  : 0/0
  2734 ;;		Unchanged: 0/0
  2735 ;; Data sizes:     COMRAM   BANK0   BANK1   BANK2   BANK3   BANK4   BANK5
  2736 ;;      Params:         0       0       0       0       0       0       0
  2737 ;;      Locals:         0       0       0       0       0       0       0
  2738 ;;      Temps:          0       0       0       0       0       0       0
  2739 ;;      Totals:         0       0       0       0       0       0       0
  2740 ;;Total ram usage:        0 bytes
  2741 ;; Hardware stack levels used:    1
  2742 ;; Hardware stack levels required when called:    8
  2743 ;; This function calls:
  2744 ;;		Nothing
  2745 ;; This function is called by:
  2746 ;;		_OpenXLCD
  2747 ;;		_BusyXLCD
  2748 ;;		_WriteCmdXLCD
  2749 ;;		_WriteDataXLCD
  2750 ;;		_ReadAddrXLCD
  2751 ;;		_ReadDataXLCD
  2752 ;;		_SetCGRamAddr
  2753 ;;		_SetDDRamAddr
  2754 ;; This function uses a non-reentrant model
  2755 ;;
  2756                           
  2757                           	psect	text25
  2758  001026                     __ptext25:
  2759                           	opt callstack 0
  2760  001026                     _DelayFor18TCY:
  2761                           	opt callstack 20
  2762  001026                     
  2763                           ;xlcd.c: 20:     _delay((unsigned long)((18)*(4000000/4000000.0)));
  2764  001026  0E06               	movlw	6
  2765  001028                     u1047:
  2766  001028  2EE8               	decfsz	wreg,f,c
  2767  00102A  D7FE               	bra	u1047
  2768                           
  2769                           ;xlcd.c: 21:     _delay((unsigned long)((1)*(4000000/4000.0)));
  2770  00102C  0EC8               	movlw	200
  2771  00102E                     u1057:
  2772  00102E  D000               	nop2	
  2773  001030  2EE8               	decfsz	wreg,f,c
  2774  001032  D7FD               	bra	u1057
  2775  001034  0012               	return		;funcret
  2776  001036                     __end_of_DelayFor18TCY:
  2777                           	opt callstack 0
  2778                           
  2779 ;; *************** function _INTERRUPT_InterruptManagerLow *****************
  2780 ;; Defined at:
  2781 ;;		line 93 in file "mcc_generated_files/interrupt_manager.c"
  2782 ;; Parameters:    Size  Location     Type
  2783 ;;		None
  2784 ;; Auto vars:     Size  Location     Type
  2785 ;;		None
  2786 ;; Return value:  Size  Location     Type
  2787 ;;                  1    wreg      void 
  2788 ;; Registers used:
  2789 ;;		wreg, status,2, status,0, pclath, tosl, cstack
  2790 ;; Tracked objects:
  2791 ;;		On entry : 0/0
  2792 ;;		On exit  : 0/0
  2793 ;;		Unchanged: 0/0
  2794 ;; Data sizes:     COMRAM   BANK0   BANK1   BANK2   BANK3   BANK4   BANK5
  2795 ;;      Params:         0       0       0       0       0       0       0
  2796 ;;      Locals:         0       0       0       0       0       0       0
  2797 ;;      Temps:          5       0       0       0       0       0       0
  2798 ;;      Totals:         5       0       0       0       0       0       0
  2799 ;;Total ram usage:        5 bytes
  2800 ;; Hardware stack levels used:    1
  2801 ;; Hardware stack levels required when called:    7
  2802 ;; This function calls:
  2803 ;;		_INT1_ISR
  2804 ;;		_INT2_ISR
  2805 ;;		_TMR0_ISR
  2806 ;; This function is called by:
  2807 ;;		Interrupt level 1
  2808 ;; This function uses a non-reentrant model
  2809 ;;
  2810                           
  2811                           	psect	intcodelo
  2812  000018                     __pintcodelo:
  2813                           	opt callstack 0
  2814  000018                     _INTERRUPT_InterruptManagerLow:
  2815                           	opt callstack 19
  2816                           
  2817                           ;incstack = 0
  2818  000018  803B               	bsf	int$flags,0,c	;set compiler interrupt flag (level 1)
  2819  00001A  CFD8 F004          	movff	status,??_INTERRUPT_InterruptManagerLow
  2820  00001E  CFE8 F005          	movff	wreg,??_INTERRUPT_InterruptManagerLow+1
  2821  000022  CFE0 F006          	movff	bsr,??_INTERRUPT_InterruptManagerLow+2
  2822  000026  CFFA F007          	movff	pclath,??_INTERRUPT_InterruptManagerLow+3
  2823  00002A  CFFB F008          	movff	pclatu,??_INTERRUPT_InterruptManagerLow+4
  2824  00002E                     
  2825                           ;mcc_generated_files/interrupt_manager.c: 96:     if(INTCONbits.TMR0IE == 1 && INTCONbit
      +                          s.TMR0IF == 1)
  2826  00002E  AAF2               	btfss	242,5,c	;volatile
  2827  000030  EF1C  F000         	goto	i1u52_21
  2828  000034  EF1E  F000         	goto	i1u52_20
  2829  000038                     i1u52_21:
  2830  000038  EF29  F000         	goto	i1l147
  2831  00003C                     i1u52_20:
  2832  00003C  A4F2               	btfss	242,2,c	;volatile
  2833  00003E  EF23  F000         	goto	i1u53_21
  2834  000042  EF25  F000         	goto	i1u53_20
  2835  000046                     i1u53_21:
  2836  000046  EF29  F000         	goto	i1l147
  2837  00004A                     i1u53_20:
  2838  00004A                     
  2839                           ;mcc_generated_files/interrupt_manager.c: 97:     {;mcc_generated_files/interrupt_manage
      +                          r.c: 98:         TMR0_ISR();
  2840  00004A  EC00  F007         	call	_TMR0_ISR	;wreg free
  2841                           
  2842                           ;mcc_generated_files/interrupt_manager.c: 99:     }
  2843  00004E  EF4D  F000         	goto	i1l153
  2844  000052                     i1l147:
  2845  000052  A6F0               	btfss	240,3,c	;volatile
  2846  000054  EF2E  F000         	goto	i1u54_21
  2847  000058  EF30  F000         	goto	i1u54_20
  2848  00005C                     i1u54_21:
  2849  00005C  EF3B  F000         	goto	i1l149
  2850  000060                     i1u54_20:
  2851  000060  A0F0               	btfss	240,0,c	;volatile
  2852  000062  EF35  F000         	goto	i1u55_21
  2853  000066  EF37  F000         	goto	i1u55_20
  2854  00006A                     i1u55_21:
  2855  00006A  EF3B  F000         	goto	i1l149
  2856  00006E                     i1u55_20:
  2857  00006E                     
  2858                           ;mcc_generated_files/interrupt_manager.c: 101:     {;mcc_generated_files/interrupt_manag
      +                          er.c: 102:         INT1_ISR();
  2859  00006E  EC45  F008         	call	_INT1_ISR	;wreg free
  2860                           
  2861                           ;mcc_generated_files/interrupt_manager.c: 103:     }
  2862  000072  EF4D  F000         	goto	i1l153
  2863  000076                     i1l149:
  2864  000076  A8F0               	btfss	240,4,c	;volatile
  2865  000078  EF40  F000         	goto	i1u56_21
  2866  00007C  EF42  F000         	goto	i1u56_20
  2867  000080                     i1u56_21:
  2868  000080  EF4D  F000         	goto	i1l150
  2869  000084                     i1u56_20:
  2870  000084  A2F0               	btfss	240,1,c	;volatile
  2871  000086  EF47  F000         	goto	i1u57_21
  2872  00008A  EF49  F000         	goto	i1u57_20
  2873  00008E                     i1u57_21:
  2874  00008E  EF4D  F000         	goto	i1l150
  2875  000092                     i1u57_20:
  2876  000092                     
  2877                           ;mcc_generated_files/interrupt_manager.c: 105:     {;mcc_generated_files/interrupt_manag
      +                          er.c: 106:         INT2_ISR();
  2878  000092  EC41  F008         	call	_INT2_ISR	;wreg free
  2879                           
  2880                           ;mcc_generated_files/interrupt_manager.c: 107:     }
  2881  000096  EF4D  F000         	goto	i1l153
  2882  00009A                     i1l150:
  2883  00009A                     i1l153:
  2884  00009A  C008  FFFB         	movff	??_INTERRUPT_InterruptManagerLow+4,pclatu
  2885  00009E  C007  FFFA         	movff	??_INTERRUPT_InterruptManagerLow+3,pclath
  2886  0000A2  C006  FFE0         	movff	??_INTERRUPT_InterruptManagerLow+2,bsr
  2887  0000A6  C005  FFE8         	movff	??_INTERRUPT_InterruptManagerLow+1,wreg
  2888  0000AA  C004  FFD8         	movff	??_INTERRUPT_InterruptManagerLow,status
  2889  0000AE  903B               	bcf	int$flags,0,c	;clear compiler interrupt flag (level 1)
  2890  0000B0  0010               	retfie	
  2891  0000B2                     __end_of_INTERRUPT_InterruptManagerLow:
  2892                           	opt callstack 0
  2893                           
  2894 ;; *************** function _TMR0_ISR *****************
  2895 ;; Defined at:
  2896 ;;		line 136 in file "mcc_generated_files/tmr0.c"
  2897 ;; Parameters:    Size  Location     Type
  2898 ;;		None
  2899 ;; Auto vars:     Size  Location     Type
  2900 ;;		None
  2901 ;; Return value:  Size  Location     Type
  2902 ;;                  1    wreg      void 
  2903 ;; Registers used:
  2904 ;;		wreg, status,2, status,0, pclath, tosl, cstack
  2905 ;; Tracked objects:
  2906 ;;		On entry : 0/0
  2907 ;;		On exit  : 0/0
  2908 ;;		Unchanged: 0/0
  2909 ;; Data sizes:     COMRAM   BANK0   BANK1   BANK2   BANK3   BANK4   BANK5
  2910 ;;      Params:         0       0       0       0       0       0       0
  2911 ;;      Locals:         0       0       0       0       0       0       0
  2912 ;;      Temps:          0       0       0       0       0       0       0
  2913 ;;      Totals:         0       0       0       0       0       0       0
  2914 ;;Total ram usage:        0 bytes
  2915 ;; Hardware stack levels used:    1
  2916 ;; Hardware stack levels required when called:    5
  2917 ;; This function calls:
  2918 ;;		Absolute function
  2919 ;;		_TMR0_DefaultInterruptHandler
  2920 ;;		_acende_LED
  2921 ;; This function is called by:
  2922 ;;		_INTERRUPT_InterruptManagerLow
  2923 ;; This function uses a non-reentrant model
  2924 ;;
  2925                           
  2926                           	psect	text27
  2927  000E00                     __ptext27:
  2928                           	opt callstack 0
  2929  000E00                     _TMR0_ISR:
  2930                           	opt callstack 20
  2931  000E00                     
  2932                           ;mcc_generated_files/tmr0.c: 140:     INTCONbits.TMR0IF = 0;
  2933  000E00  94F2               	bcf	242,2,c	;volatile
  2934  000E02                     
  2935                           ;mcc_generated_files/tmr0.c: 144:     TMR0H = timer0ReloadVal >> 8;
  2936  000E02  5032               	movf	(_timer0ReloadVal+1)^0,w,c	;volatile
  2937  000E04  6ED7               	movwf	215,c	;volatile
  2938  000E06                     
  2939                           ;mcc_generated_files/tmr0.c: 145:     TMR0L = (uint8_t) timer0ReloadVal;
  2940  000E06  C031  FFD6         	movff	_timer0ReloadVal,4054	;volatile
  2941  000E0A                     
  2942                           ;mcc_generated_files/tmr0.c: 147:     if(TMR0_InterruptHandler)
  2943  000E0A  5033               	movf	_TMR0_InterruptHandler^0,w,c
  2944  000E0C  1034               	iorwf	(_TMR0_InterruptHandler+1)^0,w,c
  2945  000E0E  B4D8               	btfsc	status,2,c
  2946  000E10  EF0C  F007         	goto	i1u32_21
  2947  000E14  EF0E  F007         	goto	i1u32_20
  2948  000E18                     i1u32_21:
  2949  000E18  EF1B  F007         	goto	i1l40
  2950  000E1C                     i1u32_20:
  2951  000E1C                     
  2952                           ;mcc_generated_files/tmr0.c: 148:     {;mcc_generated_files/tmr0.c: 149:         TMR0_In
      +                          terruptHandler();
  2953  000E1C  D802               	call	i1u33_28
  2954  000E1E  EF1B  F007         	goto	i1u33_29
  2955  000E22                     i1u33_28:
  2956  000E22  0005               	push	
  2957  000E24  6EFA               	movwf	pclath,c
  2958  000E26  5033               	movf	_TMR0_InterruptHandler^0,w,c
  2959  000E28  6EFD               	movwf	tosl,c
  2960  000E2A  5034               	movf	(_TMR0_InterruptHandler+1)^0,w,c
  2961  000E2C  6EFE               	movwf	tosh,c
  2962  000E2E  50F8               	movf	tblptru,w,c
  2963  000E30  6EFF               	movwf	tosu,c
  2964  000E32  50FA               	movf	pclath,w,c
  2965  000E34  0012               	return		;indir
  2966  000E36                     i1u33_29:
  2967  000E36                     i1l40:
  2968  000E36  0012               	return		;funcret
  2969  000E38                     __end_of_TMR0_ISR:
  2970                           	opt callstack 0
  2971                           
  2972 ;; *************** function _TMR0_DefaultInterruptHandler *****************
  2973 ;; Defined at:
  2974 ;;		line 160 in file "mcc_generated_files/tmr0.c"
  2975 ;; Parameters:    Size  Location     Type
  2976 ;;		None
  2977 ;; Auto vars:     Size  Location     Type
  2978 ;;		None
  2979 ;; Return value:  Size  Location     Type
  2980 ;;                  1    wreg      void 
  2981 ;; Registers used:
  2982 ;;		None
  2983 ;; Tracked objects:
  2984 ;;		On entry : 0/0
  2985 ;;		On exit  : 0/0
  2986 ;;		Unchanged: 0/0
  2987 ;; Data sizes:     COMRAM   BANK0   BANK1   BANK2   BANK3   BANK4   BANK5
  2988 ;;      Params:         0       0       0       0       0       0       0
  2989 ;;      Locals:         0       0       0       0       0       0       0
  2990 ;;      Temps:          0       0       0       0       0       0       0
  2991 ;;      Totals:         0       0       0       0       0       0       0
  2992 ;;Total ram usage:        0 bytes
  2993 ;; Hardware stack levels used:    1
  2994 ;; Hardware stack levels required when called:    4
  2995 ;; This function calls:
  2996 ;;		Nothing
  2997 ;; This function is called by:
  2998 ;;		_TMR0_Initialize
  2999 ;;		_TMR0_ISR
  3000 ;; This function uses a non-reentrant model
  3001 ;;
  3002                           
  3003                           	psect	text28
  3004  0010A0                     __ptext28:
  3005                           	opt callstack 0
  3006  0010A0                     _TMR0_DefaultInterruptHandler:
  3007                           	opt callstack 20
  3008  0010A0  0012               	return		;funcret
  3009  0010A2                     __end_of_TMR0_DefaultInterruptHandler:
  3010                           	opt callstack 0
  3011                           
  3012 ;; *************** function _acende_LED *****************
  3013 ;; Defined at:
  3014 ;;		line 60 in file "main.c"
  3015 ;; Parameters:    Size  Location     Type
  3016 ;;		None
  3017 ;; Auto vars:     Size  Location     Type
  3018 ;;		None
  3019 ;; Return value:  Size  Location     Type
  3020 ;;                  1    wreg      void 
  3021 ;; Registers used:
  3022 ;;		wreg, status,2, status,0
  3023 ;; Tracked objects:
  3024 ;;		On entry : 0/0
  3025 ;;		On exit  : 0/0
  3026 ;;		Unchanged: 0/0
  3027 ;; Data sizes:     COMRAM   BANK0   BANK1   BANK2   BANK3   BANK4   BANK5
  3028 ;;      Params:         0       0       0       0       0       0       0
  3029 ;;      Locals:         0       0       0       0       0       0       0
  3030 ;;      Temps:          1       0       0       0       0       0       0
  3031 ;;      Totals:         1       0       0       0       0       0       0
  3032 ;;Total ram usage:        1 bytes
  3033 ;; Hardware stack levels used:    1
  3034 ;; Hardware stack levels required when called:    4
  3035 ;; This function calls:
  3036 ;;		Nothing
  3037 ;; This function is called by:
  3038 ;;		_main
  3039 ;;		_TMR0_ISR
  3040 ;; This function uses a non-reentrant model
  3041 ;;
  3042                           
  3043                           	psect	text29
  3044  000F82                     __ptext29:
  3045                           	opt callstack 0
  3046  000F82                     _acende_LED:
  3047                           	opt callstack 20
  3048  000F82  B289               	btfsc	137,1,c	;volatile
  3049  000F84  EFC6  F007         	goto	i1u20_21
  3050  000F88  EFC9  F007         	goto	i1u20_20
  3051  000F8C                     i1u20_21:
  3052  000F8C  0E01               	movlw	1
  3053  000F8E  EFCA  F007         	goto	i1u20_26
  3054  000F92                     i1u20_20:
  3055  000F92  0E00               	movlw	0
  3056  000F94                     i1u20_26:
  3057  000F94  0AFF               	xorlw	255
  3058  000F96  6E03               	movwf	??_acende_LED^0,c
  3059  000F98  4603               	rlncf	??_acende_LED^0,f,c
  3060  000F9A  5089               	movf	137,w,c	;volatile
  3061  000F9C  1803               	xorwf	??_acende_LED^0,w,c
  3062  000F9E  0BFD               	andlw	-3
  3063  000FA0  1803               	xorwf	??_acende_LED^0,w,c
  3064  000FA2  6E89               	movwf	137,c	;volatile
  3065  000FA4  0012               	return		;funcret
  3066  000FA6                     __end_of_acende_LED:
  3067                           	opt callstack 0
  3068                           
  3069 ;; *************** function _INT2_ISR *****************
  3070 ;; Defined at:
  3071 ;;		line 86 in file "mcc_generated_files/ext_int.c"
  3072 ;; Parameters:    Size  Location     Type
  3073 ;;		None
  3074 ;; Auto vars:     Size  Location     Type
  3075 ;;		None
  3076 ;; Return value:  Size  Location     Type
  3077 ;;                  1    wreg      void 
  3078 ;; Registers used:
  3079 ;;		wreg, status,2, status,0, pclath, tosl, cstack
  3080 ;; Tracked objects:
  3081 ;;		On entry : 0/0
  3082 ;;		On exit  : 0/0
  3083 ;;		Unchanged: 0/0
  3084 ;; Data sizes:     COMRAM   BANK0   BANK1   BANK2   BANK3   BANK4   BANK5
  3085 ;;      Params:         0       0       0       0       0       0       0
  3086 ;;      Locals:         0       0       0       0       0       0       0
  3087 ;;      Temps:          0       0       0       0       0       0       0
  3088 ;;      Totals:         0       0       0       0       0       0       0
  3089 ;;Total ram usage:        0 bytes
  3090 ;; Hardware stack levels used:    1
  3091 ;; Hardware stack levels required when called:    6
  3092 ;; This function calls:
  3093 ;;		_INT2_CallBack
  3094 ;; This function is called by:
  3095 ;;		_INTERRUPT_InterruptManagerLow
  3096 ;; This function uses a non-reentrant model
  3097 ;;
  3098                           
  3099                           	psect	text30
  3100  001082                     __ptext30:
  3101                           	opt callstack 0
  3102  001082                     _INT2_ISR:
  3103                           	opt callstack 19
  3104  001082                     
  3105                           ;mcc_generated_files/ext_int.c: 88:     (INTCON3bits.INT2IF = 0);
  3106  001082  92F0               	bcf	240,1,c	;volatile
  3107  001084                     
  3108                           ;mcc_generated_files/ext_int.c: 91:     INT2_CallBack();
  3109  001084  EC6A  F007         	call	_INT2_CallBack	;wreg free
  3110  001088  0012               	return		;funcret
  3111  00108A                     __end_of_INT2_ISR:
  3112                           	opt callstack 0
  3113                           
  3114 ;; *************** function _INT2_CallBack *****************
  3115 ;; Defined at:
  3116 ;;		line 95 in file "mcc_generated_files/ext_int.c"
  3117 ;; Parameters:    Size  Location     Type
  3118 ;;		None
  3119 ;; Auto vars:     Size  Location     Type
  3120 ;;		None
  3121 ;; Return value:  Size  Location     Type
  3122 ;;                  1    wreg      void 
  3123 ;; Registers used:
  3124 ;;		wreg, status,2, status,0, pclath, tosl, cstack
  3125 ;; Tracked objects:
  3126 ;;		On entry : 0/0
  3127 ;;		On exit  : 0/0
  3128 ;;		Unchanged: 0/0
  3129 ;; Data sizes:     COMRAM   BANK0   BANK1   BANK2   BANK3   BANK4   BANK5
  3130 ;;      Params:         0       0       0       0       0       0       0
  3131 ;;      Locals:         0       0       0       0       0       0       0
  3132 ;;      Temps:          0       0       0       0       0       0       0
  3133 ;;      Totals:         0       0       0       0       0       0       0
  3134 ;;Total ram usage:        0 bytes
  3135 ;; Hardware stack levels used:    1
  3136 ;; Hardware stack levels required when called:    5
  3137 ;; This function calls:
  3138 ;;		Absolute function
  3139 ;;		_INT2_DefaultInterruptHandler
  3140 ;;		_teclado_coluna_3
  3141 ;; This function is called by:
  3142 ;;		_INT2_ISR
  3143 ;; This function uses a non-reentrant model
  3144 ;;
  3145                           
  3146                           	psect	text31
  3147  000ED4                     __ptext31:
  3148                           	opt callstack 0
  3149  000ED4                     _INT2_CallBack:
  3150                           	opt callstack 19
  3151  000ED4                     
  3152                           ;mcc_generated_files/ext_int.c: 98:     if(INT2_InterruptHandler)
  3153  000ED4  502B               	movf	_INT2_InterruptHandler^0,w,c
  3154  000ED6  102C               	iorwf	(_INT2_InterruptHandler+1)^0,w,c
  3155  000ED8  B4D8               	btfsc	status,2,c
  3156  000EDA  EF71  F007         	goto	i1u18_21
  3157  000EDE  EF73  F007         	goto	i1u18_20
  3158  000EE2                     i1u18_21:
  3159  000EE2  EF80  F007         	goto	i1l97
  3160  000EE6                     i1u18_20:
  3161  000EE6                     
  3162                           ;mcc_generated_files/ext_int.c: 99:     {;mcc_generated_files/ext_int.c: 100:         IN
      +                          T2_InterruptHandler();
  3163  000EE6  D802               	call	i1u19_28
  3164  000EE8  EF80  F007         	goto	i1u19_29
  3165  000EEC                     i1u19_28:
  3166  000EEC  0005               	push	
  3167  000EEE  6EFA               	movwf	pclath,c
  3168  000EF0  502B               	movf	_INT2_InterruptHandler^0,w,c
  3169  000EF2  6EFD               	movwf	tosl,c
  3170  000EF4  502C               	movf	(_INT2_InterruptHandler+1)^0,w,c
  3171  000EF6  6EFE               	movwf	tosh,c
  3172  000EF8  50F8               	movf	tblptru,w,c
  3173  000EFA  6EFF               	movwf	tosu,c
  3174  000EFC  50FA               	movf	pclath,w,c
  3175  000EFE  0012               	return		;indir
  3176  000F00                     i1u19_29:
  3177  000F00                     i1l97:
  3178  000F00  0012               	return		;funcret
  3179  000F02                     __end_of_INT2_CallBack:
  3180                           	opt callstack 0
  3181                           
  3182 ;; *************** function _INT2_DefaultInterruptHandler *****************
  3183 ;; Defined at:
  3184 ;;		line 108 in file "mcc_generated_files/ext_int.c"
  3185 ;; Parameters:    Size  Location     Type
  3186 ;;		None
  3187 ;; Auto vars:     Size  Location     Type
  3188 ;;		None
  3189 ;; Return value:  Size  Location     Type
  3190 ;;                  1    wreg      void 
  3191 ;; Registers used:
  3192 ;;		None
  3193 ;; Tracked objects:
  3194 ;;		On entry : 0/0
  3195 ;;		On exit  : 0/0
  3196 ;;		Unchanged: 0/0
  3197 ;; Data sizes:     COMRAM   BANK0   BANK1   BANK2   BANK3   BANK4   BANK5
  3198 ;;      Params:         0       0       0       0       0       0       0
  3199 ;;      Locals:         0       0       0       0       0       0       0
  3200 ;;      Temps:          0       0       0       0       0       0       0
  3201 ;;      Totals:         0       0       0       0       0       0       0
  3202 ;;Total ram usage:        0 bytes
  3203 ;; Hardware stack levels used:    1
  3204 ;; Hardware stack levels required when called:    4
  3205 ;; This function calls:
  3206 ;;		Nothing
  3207 ;; This function is called by:
  3208 ;;		_EXT_INT_Initialize
  3209 ;;		_INT2_CallBack
  3210 ;; This function uses a non-reentrant model
  3211 ;;
  3212                           
  3213                           	psect	text32
  3214  0010A2                     __ptext32:
  3215                           	opt callstack 0
  3216  0010A2                     _INT2_DefaultInterruptHandler:
  3217                           	opt callstack 19
  3218  0010A2  0012               	return		;funcret
  3219  0010A4                     __end_of_INT2_DefaultInterruptHandler:
  3220                           	opt callstack 0
  3221                           
  3222 ;; *************** function _teclado_coluna_3 *****************
  3223 ;; Defined at:
  3224 ;;		line 54 in file "Teclado.c"
  3225 ;; Parameters:    Size  Location     Type
  3226 ;;		None
  3227 ;; Auto vars:     Size  Location     Type
  3228 ;;		None
  3229 ;; Return value:  Size  Location     Type
  3230 ;;                  1    wreg      void 
  3231 ;; Registers used:
  3232 ;;		wreg, status,2
  3233 ;; Tracked objects:
  3234 ;;		On entry : 0/0
  3235 ;;		On exit  : 0/0
  3236 ;;		Unchanged: 0/0
  3237 ;; Data sizes:     COMRAM   BANK0   BANK1   BANK2   BANK3   BANK4   BANK5
  3238 ;;      Params:         0       0       0       0       0       0       0
  3239 ;;      Locals:         0       0       0       0       0       0       0
  3240 ;;      Temps:          0       0       0       0       0       0       0
  3241 ;;      Totals:         0       0       0       0       0       0       0
  3242 ;;Total ram usage:        0 bytes
  3243 ;; Hardware stack levels used:    1
  3244 ;; Hardware stack levels required when called:    4
  3245 ;; This function calls:
  3246 ;;		Nothing
  3247 ;; This function is called by:
  3248 ;;		_main
  3249 ;;		_INT2_CallBack
  3250 ;; This function uses a non-reentrant model
  3251 ;;
  3252                           
  3253                           	psect	text33
  3254  000A8A                     __ptext33:
  3255                           	opt callstack 0
  3256  000A8A                     _teclado_coluna_3:
  3257                           	opt callstack 19
  3258  000A8A                     
  3259                           ;Teclado.c: 55:     tecla_n = 1;
  3260  000A8A  0E00               	movlw	0
  3261  000A8C  6E23               	movwf	(_tecla_n+1)^0,c
  3262  000A8E  0E01               	movlw	1
  3263  000A90  6E22               	movwf	_tecla_n^0,c
  3264  000A92                     
  3265                           ;Teclado.c: 56:     if (PORTBbits.RB3 == 0){
  3266  000A92  B681               	btfsc	129,3,c	;volatile
  3267  000A94  EF4E  F005         	goto	i1u10_21
  3268  000A98  EF50  F005         	goto	i1u10_20
  3269  000A9C                     i1u10_21:
  3270  000A9C  EF54  F005         	goto	i1l474
  3271  000AA0                     i1u10_20:
  3272  000AA0                     
  3273                           ;Teclado.c: 57:             tecla_premida = '3';
  3274  000AA0  0E33               	movlw	51
  3275  000AA2  6E28               	movwf	_tecla_premida^0,c
  3276                           
  3277                           ;Teclado.c: 58:         }
  3278  000AA4  EF7F  F005         	goto	i1l481
  3279  000AA8                     i1l474:
  3280  000AA8  B881               	btfsc	129,4,c	;volatile
  3281  000AAA  EF59  F005         	goto	i1u11_21
  3282  000AAE  EF5B  F005         	goto	i1u11_20
  3283  000AB2                     i1u11_21:
  3284  000AB2  EF5F  F005         	goto	i1l476
  3285  000AB6                     i1u11_20:
  3286  000AB6                     
  3287                           ;Teclado.c: 60:             tecla_premida = '6';
  3288  000AB6  0E36               	movlw	54
  3289  000AB8  6E28               	movwf	_tecla_premida^0,c
  3290                           
  3291                           ;Teclado.c: 61:         }
  3292  000ABA  EF7F  F005         	goto	i1l481
  3293  000ABE                     i1l476:
  3294  000ABE  BA81               	btfsc	129,5,c	;volatile
  3295  000AC0  EF64  F005         	goto	i1u12_21
  3296  000AC4  EF66  F005         	goto	i1u12_20
  3297  000AC8                     i1u12_21:
  3298  000AC8  EF6A  F005         	goto	i1l478
  3299  000ACC                     i1u12_20:
  3300  000ACC                     
  3301                           ;Teclado.c: 63:             tecla_premida = '9';
  3302  000ACC  0E39               	movlw	57
  3303  000ACE  6E28               	movwf	_tecla_premida^0,c
  3304                           
  3305                           ;Teclado.c: 64:         }
  3306  000AD0  EF7F  F005         	goto	i1l481
  3307  000AD4                     i1l478:
  3308  000AD4  BC81               	btfsc	129,6,c	;volatile
  3309  000AD6  EF6F  F005         	goto	i1u13_21
  3310  000ADA  EF71  F005         	goto	i1u13_20
  3311  000ADE                     i1u13_21:
  3312  000ADE  EF7F  F005         	goto	i1l477
  3313  000AE2                     i1u13_20:
  3314  000AE2                     
  3315                           ;Teclado.c: 66:             contador_colunas_LCD = 192;
  3316  000AE2  0E00               	movlw	0
  3317  000AE4  6E3A               	movwf	(_contador_colunas_LCD+1)^0,c
  3318  000AE6  0EC0               	movlw	192
  3319  000AE8  6E39               	movwf	_contador_colunas_LCD^0,c
  3320                           
  3321                           ;Teclado.c: 67:             tecla_n = 0;
  3322  000AEA  0E00               	movlw	0
  3323  000AEC  6E23               	movwf	(_tecla_n+1)^0,c
  3324  000AEE  0E00               	movlw	0
  3325  000AF0  6E22               	movwf	_tecla_n^0,c
  3326                           
  3327                           ;Teclado.c: 68:             tecla_limpar = 1;
  3328  000AF2  0E00               	movlw	0
  3329  000AF4  6E21               	movwf	(_tecla_limpar+1)^0,c
  3330  000AF6  0E01               	movlw	1
  3331  000AF8  6E20               	movwf	_tecla_limpar^0,c
  3332  000AFA  EF7F  F005         	goto	i1l481
  3333  000AFE                     i1l477:
  3334  000AFE                     i1l481:
  3335  000AFE  0012               	return		;funcret
  3336  000B00                     __end_of_teclado_coluna_3:
  3337                           	opt callstack 0
  3338                           
  3339 ;; *************** function _INT1_ISR *****************
  3340 ;; Defined at:
  3341 ;;		line 60 in file "mcc_generated_files/ext_int.c"
  3342 ;; Parameters:    Size  Location     Type
  3343 ;;		None
  3344 ;; Auto vars:     Size  Location     Type
  3345 ;;		None
  3346 ;; Return value:  Size  Location     Type
  3347 ;;                  1    wreg      void 
  3348 ;; Registers used:
  3349 ;;		wreg, status,2, status,0, pclath, tosl, cstack
  3350 ;; Tracked objects:
  3351 ;;		On entry : 0/0
  3352 ;;		On exit  : 0/0
  3353 ;;		Unchanged: 0/0
  3354 ;; Data sizes:     COMRAM   BANK0   BANK1   BANK2   BANK3   BANK4   BANK5
  3355 ;;      Params:         0       0       0       0       0       0       0
  3356 ;;      Locals:         0       0       0       0       0       0       0
  3357 ;;      Temps:          0       0       0       0       0       0       0
  3358 ;;      Totals:         0       0       0       0       0       0       0
  3359 ;;Total ram usage:        0 bytes
  3360 ;; Hardware stack levels used:    1
  3361 ;; Hardware stack levels required when called:    6
  3362 ;; This function calls:
  3363 ;;		_INT1_CallBack
  3364 ;; This function is called by:
  3365 ;;		_INTERRUPT_InterruptManagerLow
  3366 ;; This function uses a non-reentrant model
  3367 ;;
  3368                           
  3369                           	psect	text34
  3370  00108A                     __ptext34:
  3371                           	opt callstack 0
  3372  00108A                     _INT1_ISR:
  3373                           	opt callstack 19
  3374  00108A                     
  3375                           ;mcc_generated_files/ext_int.c: 62:     (INTCON3bits.INT1IF = 0);
  3376  00108A  90F0               	bcf	240,0,c	;volatile
  3377  00108C                     
  3378                           ;mcc_generated_files/ext_int.c: 65:     INT1_CallBack();
  3379  00108C  EC81  F007         	call	_INT1_CallBack	;wreg free
  3380  001090  0012               	return		;funcret
  3381  001092                     __end_of_INT1_ISR:
  3382                           	opt callstack 0
  3383                           
  3384 ;; *************** function _INT1_CallBack *****************
  3385 ;; Defined at:
  3386 ;;		line 69 in file "mcc_generated_files/ext_int.c"
  3387 ;; Parameters:    Size  Location     Type
  3388 ;;		None
  3389 ;; Auto vars:     Size  Location     Type
  3390 ;;		None
  3391 ;; Return value:  Size  Location     Type
  3392 ;;                  1    wreg      void 
  3393 ;; Registers used:
  3394 ;;		wreg, status,2, status,0, pclath, tosl, cstack
  3395 ;; Tracked objects:
  3396 ;;		On entry : 0/0
  3397 ;;		On exit  : 0/0
  3398 ;;		Unchanged: 0/0
  3399 ;; Data sizes:     COMRAM   BANK0   BANK1   BANK2   BANK3   BANK4   BANK5
  3400 ;;      Params:         0       0       0       0       0       0       0
  3401 ;;      Locals:         0       0       0       0       0       0       0
  3402 ;;      Temps:          0       0       0       0       0       0       0
  3403 ;;      Totals:         0       0       0       0       0       0       0
  3404 ;;Total ram usage:        0 bytes
  3405 ;; Hardware stack levels used:    1
  3406 ;; Hardware stack levels required when called:    5
  3407 ;; This function calls:
  3408 ;;		Absolute function
  3409 ;;		_INT1_DefaultInterruptHandler
  3410 ;;		_teclado_coluna_2
  3411 ;; This function is called by:
  3412 ;;		_INT1_ISR
  3413 ;; This function uses a non-reentrant model
  3414 ;;
  3415                           
  3416                           	psect	text35
  3417  000F02                     __ptext35:
  3418                           	opt callstack 0
  3419  000F02                     _INT1_CallBack:
  3420                           	opt callstack 19
  3421  000F02                     
  3422                           ;mcc_generated_files/ext_int.c: 72:     if(INT1_InterruptHandler)
  3423  000F02  502D               	movf	_INT1_InterruptHandler^0,w,c
  3424  000F04  102E               	iorwf	(_INT1_InterruptHandler+1)^0,w,c
  3425  000F06  B4D8               	btfsc	status,2,c
  3426  000F08  EF88  F007         	goto	i1u16_21
  3427  000F0C  EF8A  F007         	goto	i1u16_20
  3428  000F10                     i1u16_21:
  3429  000F10  EF97  F007         	goto	i1l84
  3430  000F14                     i1u16_20:
  3431  000F14                     
  3432                           ;mcc_generated_files/ext_int.c: 73:     {;mcc_generated_files/ext_int.c: 74:         INT
      +                          1_InterruptHandler();
  3433  000F14  D802               	call	i1u17_28
  3434  000F16  EF97  F007         	goto	i1u17_29
  3435  000F1A                     i1u17_28:
  3436  000F1A  0005               	push	
  3437  000F1C  6EFA               	movwf	pclath,c
  3438  000F1E  502D               	movf	_INT1_InterruptHandler^0,w,c
  3439  000F20  6EFD               	movwf	tosl,c
  3440  000F22  502E               	movf	(_INT1_InterruptHandler+1)^0,w,c
  3441  000F24  6EFE               	movwf	tosh,c
  3442  000F26  50F8               	movf	tblptru,w,c
  3443  000F28  6EFF               	movwf	tosu,c
  3444  000F2A  50FA               	movf	pclath,w,c
  3445  000F2C  0012               	return		;indir
  3446  000F2E                     i1u17_29:
  3447  000F2E                     i1l84:
  3448  000F2E  0012               	return		;funcret
  3449  000F30                     __end_of_INT1_CallBack:
  3450                           	opt callstack 0
  3451                           
  3452 ;; *************** function _INT1_DefaultInterruptHandler *****************
  3453 ;; Defined at:
  3454 ;;		line 82 in file "mcc_generated_files/ext_int.c"
  3455 ;; Parameters:    Size  Location     Type
  3456 ;;		None
  3457 ;; Auto vars:     Size  Location     Type
  3458 ;;		None
  3459 ;; Return value:  Size  Location     Type
  3460 ;;                  1    wreg      void 
  3461 ;; Registers used:
  3462 ;;		None
  3463 ;; Tracked objects:
  3464 ;;		On entry : 0/0
  3465 ;;		On exit  : 0/0
  3466 ;;		Unchanged: 0/0
  3467 ;; Data sizes:     COMRAM   BANK0   BANK1   BANK2   BANK3   BANK4   BANK5
  3468 ;;      Params:         0       0       0       0       0       0       0
  3469 ;;      Locals:         0       0       0       0       0       0       0
  3470 ;;      Temps:          0       0       0       0       0       0       0
  3471 ;;      Totals:         0       0       0       0       0       0       0
  3472 ;;Total ram usage:        0 bytes
  3473 ;; Hardware stack levels used:    1
  3474 ;; Hardware stack levels required when called:    4
  3475 ;; This function calls:
  3476 ;;		Nothing
  3477 ;; This function is called by:
  3478 ;;		_EXT_INT_Initialize
  3479 ;;		_INT1_CallBack
  3480 ;; This function uses a non-reentrant model
  3481 ;;
  3482                           
  3483                           	psect	text36
  3484  0010A4                     __ptext36:
  3485                           	opt callstack 0
  3486  0010A4                     _INT1_DefaultInterruptHandler:
  3487                           	opt callstack 19
  3488  0010A4  0012               	return		;funcret
  3489  0010A6                     __end_of_INT1_DefaultInterruptHandler:
  3490                           	opt callstack 0
  3491                           
  3492 ;; *************** function _teclado_coluna_2 *****************
  3493 ;; Defined at:
  3494 ;;		line 37 in file "Teclado.c"
  3495 ;; Parameters:    Size  Location     Type
  3496 ;;		None
  3497 ;; Auto vars:     Size  Location     Type
  3498 ;;		None
  3499 ;; Return value:  Size  Location     Type
  3500 ;;                  1    wreg      void 
  3501 ;; Registers used:
  3502 ;;		wreg, status,2
  3503 ;; Tracked objects:
  3504 ;;		On entry : 0/0
  3505 ;;		On exit  : 0/0
  3506 ;;		Unchanged: 0/0
  3507 ;; Data sizes:     COMRAM   BANK0   BANK1   BANK2   BANK3   BANK4   BANK5
  3508 ;;      Params:         0       0       0       0       0       0       0
  3509 ;;      Locals:         0       0       0       0       0       0       0
  3510 ;;      Temps:          0       0       0       0       0       0       0
  3511 ;;      Totals:         0       0       0       0       0       0       0
  3512 ;;Total ram usage:        0 bytes
  3513 ;; Hardware stack levels used:    1
  3514 ;; Hardware stack levels required when called:    4
  3515 ;; This function calls:
  3516 ;;		Nothing
  3517 ;; This function is called by:
  3518 ;;		_main
  3519 ;;		_INT1_CallBack
  3520 ;; This function uses a non-reentrant model
  3521 ;;
  3522                           
  3523                           	psect	text37
  3524  000B72                     __ptext37:
  3525                           	opt callstack 0
  3526  000B72                     _teclado_coluna_2:
  3527                           	opt callstack 19
  3528  000B72                     
  3529                           ;Teclado.c: 39:     if (PORTBbits.RB3 == 0){
  3530  000B72  B681               	btfsc	129,3,c	;volatile
  3531  000B74  EFBE  F005         	goto	i1u6_21
  3532  000B78  EFC0  F005         	goto	i1u6_20
  3533  000B7C                     i1u6_21:
  3534  000B7C  EFC4  F005         	goto	i1l464
  3535  000B80                     i1u6_20:
  3536  000B80                     
  3537                           ;Teclado.c: 40:             tecla_premida = '2';
  3538  000B80  0E32               	movlw	50
  3539  000B82  6E28               	movwf	_tecla_premida^0,c
  3540                           
  3541                           ;Teclado.c: 41:         }
  3542  000B84  EFE3  F005         	goto	i1l465
  3543  000B88                     i1l464:
  3544  000B88  B881               	btfsc	129,4,c	;volatile
  3545  000B8A  EFC9  F005         	goto	i1u7_21
  3546  000B8E  EFCB  F005         	goto	i1u7_20
  3547  000B92                     i1u7_21:
  3548  000B92  EFCF  F005         	goto	i1l466
  3549  000B96                     i1u7_20:
  3550  000B96                     
  3551                           ;Teclado.c: 43:             tecla_premida = '5';
  3552  000B96  0E35               	movlw	53
  3553  000B98  6E28               	movwf	_tecla_premida^0,c
  3554                           
  3555                           ;Teclado.c: 44:         }
  3556  000B9A  EFE3  F005         	goto	i1l465
  3557  000B9E                     i1l466:
  3558  000B9E  BA81               	btfsc	129,5,c	;volatile
  3559  000BA0  EFD4  F005         	goto	i1u8_21
  3560  000BA4  EFD6  F005         	goto	i1u8_20
  3561  000BA8                     i1u8_21:
  3562  000BA8  EFDA  F005         	goto	i1l468
  3563  000BAC                     i1u8_20:
  3564  000BAC                     
  3565                           ;Teclado.c: 46:             tecla_premida = '8';
  3566  000BAC  0E38               	movlw	56
  3567  000BAE  6E28               	movwf	_tecla_premida^0,c
  3568                           
  3569                           ;Teclado.c: 47:         }
  3570  000BB0  EFE3  F005         	goto	i1l465
  3571  000BB4                     i1l468:
  3572  000BB4  BC81               	btfsc	129,6,c	;volatile
  3573  000BB6  EFDF  F005         	goto	i1u9_21
  3574  000BBA  EFE1  F005         	goto	i1u9_20
  3575  000BBE                     i1u9_21:
  3576  000BBE  EFE3  F005         	goto	i1l465
  3577  000BC2                     i1u9_20:
  3578  000BC2                     
  3579                           ;Teclado.c: 49:             tecla_premida = '0';
  3580  000BC2  0E30               	movlw	48
  3581  000BC4  6E28               	movwf	_tecla_premida^0,c
  3582  000BC6                     i1l465:
  3583                           
  3584                           ;Teclado.c: 51:         tecla_n = 1;
  3585  000BC6  0E00               	movlw	0
  3586  000BC8  6E23               	movwf	(_tecla_n+1)^0,c
  3587  000BCA  0E01               	movlw	1
  3588  000BCC  6E22               	movwf	_tecla_n^0,c
  3589  000BCE  0012               	return		;funcret
  3590  000BD0                     __end_of_teclado_coluna_2:
  3591                           	opt callstack 0
  3592                           
  3593 ;; *************** function _INTERRUPT_InterruptManagerHigh *****************
  3594 ;; Defined at:
  3595 ;;		line 76 in file "mcc_generated_files/interrupt_manager.c"
  3596 ;; Parameters:    Size  Location     Type
  3597 ;;		None
  3598 ;; Auto vars:     Size  Location     Type
  3599 ;;		None
  3600 ;; Return value:  Size  Location     Type
  3601 ;;                  1    wreg      void 
  3602 ;; Registers used:
  3603 ;;		wreg, status,2, status,0, pclath, tosl, cstack
  3604 ;; Tracked objects:
  3605 ;;		On entry : 0/0
  3606 ;;		On exit  : 0/0
  3607 ;;		Unchanged: 0/0
  3608 ;; Data sizes:     COMRAM   BANK0   BANK1   BANK2   BANK3   BANK4   BANK5
  3609 ;;      Params:         0       0       0       0       0       0       0
  3610 ;;      Locals:         0       0       0       0       0       0       0
  3611 ;;      Temps:          2       0       0       0       0       0       0
  3612 ;;      Totals:         2       0       0       0       0       0       0
  3613 ;;Total ram usage:        2 bytes
  3614 ;; Hardware stack levels used:    1
  3615 ;; Hardware stack levels required when called:    3
  3616 ;; This function calls:
  3617 ;;		_ADC_ISR
  3618 ;;		_INT0_ISR
  3619 ;; This function is called by:
  3620 ;;		Interrupt level 2
  3621 ;; This function uses a non-reentrant model
  3622 ;;
  3623                           
  3624                           	psect	intcode
  3625  000008                     __pintcode:
  3626                           	opt callstack 0
  3627  000008                     _INTERRUPT_InterruptManagerHigh:
  3628                           	opt callstack 19
  3629                           
  3630                           ;incstack = 0
  3631  000008  823B               	bsf	int$flags,1,c	;set compiler interrupt flag (level 2)
  3632  00000A  EF17  F006         	goto	int_func
  3633                           
  3634                           	psect	intcode_body
  3635  000C2E                     __pintcode_body:
  3636                           	opt callstack 19
  3637  000C2E                     int_func:
  3638                           	opt callstack 19
  3639  000C2E  CFFA F001          	movff	pclath,??_INTERRUPT_InterruptManagerHigh
  3640  000C32  CFFB F002          	movff	pclatu,??_INTERRUPT_InterruptManagerHigh+1
  3641  000C36                     
  3642                           ;mcc_generated_files/interrupt_manager.c: 79:     if(PIE1bits.ADIE == 1 && PIR1bits.ADIF
      +                           == 1)
  3643  000C36  AC9D               	btfss	157,6,c	;volatile
  3644  000C38  EF20  F006         	goto	i2u48_41
  3645  000C3C  EF22  F006         	goto	i2u48_40
  3646  000C40                     i2u48_41:
  3647  000C40  EF2D  F006         	goto	i2l138
  3648  000C44                     i2u48_40:
  3649  000C44  AC9E               	btfss	158,6,c	;volatile
  3650  000C46  EF27  F006         	goto	i2u49_41
  3651  000C4A  EF29  F006         	goto	i2u49_40
  3652  000C4E                     i2u49_41:
  3653  000C4E  EF2D  F006         	goto	i2l138
  3654  000C52                     i2u49_40:
  3655  000C52                     
  3656                           ;mcc_generated_files/interrupt_manager.c: 80:     {;mcc_generated_files/interrupt_manage
      +                          r.c: 81:         ADC_ISR();
  3657  000C52  EC52  F007         	call	_ADC_ISR	;wreg free
  3658                           
  3659                           ;mcc_generated_files/interrupt_manager.c: 82:     }
  3660  000C56  EF3D  F006         	goto	i2l142
  3661  000C5A                     i2l138:
  3662  000C5A  A8F2               	btfss	242,4,c	;volatile
  3663  000C5C  EF32  F006         	goto	i2u50_41
  3664  000C60  EF34  F006         	goto	i2u50_40
  3665  000C64                     i2u50_41:
  3666  000C64  EF3D  F006         	goto	i2l142
  3667  000C68                     i2u50_40:
  3668  000C68  A2F2               	btfss	242,1,c	;volatile
  3669  000C6A  EF39  F006         	goto	i2u51_41
  3670  000C6E  EF3B  F006         	goto	i2u51_40
  3671  000C72                     i2u51_41:
  3672  000C72  EF3D  F006         	goto	i2l142
  3673  000C76                     i2u51_40:
  3674  000C76                     
  3675                           ;mcc_generated_files/interrupt_manager.c: 84:     {;mcc_generated_files/interrupt_manage
      +                          r.c: 85:         INT0_ISR();
  3676  000C76  EC49  F008         	call	_INT0_ISR	;wreg free
  3677  000C7A                     i2l142:
  3678  000C7A  C002  FFFB         	movff	??_INTERRUPT_InterruptManagerHigh+1,pclatu
  3679  000C7E  C001  FFFA         	movff	??_INTERRUPT_InterruptManagerHigh,pclath
  3680  000C82  923B               	bcf	int$flags,1,c	;clear compiler interrupt flag (level 2)
  3681  000C84  0011               	retfie		f
  3682  000C86                     __end_of_INTERRUPT_InterruptManagerHigh:
  3683                           	opt callstack 0
  3684                           
  3685 ;; *************** function _INT0_ISR *****************
  3686 ;; Defined at:
  3687 ;;		line 34 in file "mcc_generated_files/ext_int.c"
  3688 ;; Parameters:    Size  Location     Type
  3689 ;;		None
  3690 ;; Auto vars:     Size  Location     Type
  3691 ;;		None
  3692 ;; Return value:  Size  Location     Type
  3693 ;;                  1    wreg      void 
  3694 ;; Registers used:
  3695 ;;		wreg, status,2, status,0, pclath, tosl, cstack
  3696 ;; Tracked objects:
  3697 ;;		On entry : 0/0
  3698 ;;		On exit  : 0/0
  3699 ;;		Unchanged: 0/0
  3700 ;; Data sizes:     COMRAM   BANK0   BANK1   BANK2   BANK3   BANK4   BANK5
  3701 ;;      Params:         0       0       0       0       0       0       0
  3702 ;;      Locals:         0       0       0       0       0       0       0
  3703 ;;      Temps:          0       0       0       0       0       0       0
  3704 ;;      Totals:         0       0       0       0       0       0       0
  3705 ;;Total ram usage:        0 bytes
  3706 ;; Hardware stack levels used:    1
  3707 ;; Hardware stack levels required when called:    2
  3708 ;; This function calls:
  3709 ;;		_INT0_CallBack
  3710 ;; This function is called by:
  3711 ;;		_INTERRUPT_InterruptManagerHigh
  3712 ;; This function uses a non-reentrant model
  3713 ;;
  3714                           
  3715                           	psect	text39
  3716  001092                     __ptext39:
  3717                           	opt callstack 0
  3718  001092                     _INT0_ISR:
  3719                           	opt callstack 19
  3720  001092                     
  3721                           ;mcc_generated_files/ext_int.c: 36:     (INTCONbits.INT0IF = 0);
  3722  001092  92F2               	bcf	242,1,c	;volatile
  3723  001094                     
  3724                           ;mcc_generated_files/ext_int.c: 39:     INT0_CallBack();
  3725  001094  EC98  F007         	call	_INT0_CallBack	;wreg free
  3726  001098  0012               	return		;funcret
  3727  00109A                     __end_of_INT0_ISR:
  3728                           	opt callstack 0
  3729                           
  3730 ;; *************** function _INT0_CallBack *****************
  3731 ;; Defined at:
  3732 ;;		line 43 in file "mcc_generated_files/ext_int.c"
  3733 ;; Parameters:    Size  Location     Type
  3734 ;;		None
  3735 ;; Auto vars:     Size  Location     Type
  3736 ;;		None
  3737 ;; Return value:  Size  Location     Type
  3738 ;;                  1    wreg      void 
  3739 ;; Registers used:
  3740 ;;		wreg, status,2, status,0, pclath, tosl, cstack
  3741 ;; Tracked objects:
  3742 ;;		On entry : 0/0
  3743 ;;		On exit  : 0/0
  3744 ;;		Unchanged: 0/0
  3745 ;; Data sizes:     COMRAM   BANK0   BANK1   BANK2   BANK3   BANK4   BANK5
  3746 ;;      Params:         0       0       0       0       0       0       0
  3747 ;;      Locals:         0       0       0       0       0       0       0
  3748 ;;      Temps:          0       0       0       0       0       0       0
  3749 ;;      Totals:         0       0       0       0       0       0       0
  3750 ;;Total ram usage:        0 bytes
  3751 ;; Hardware stack levels used:    1
  3752 ;; Hardware stack levels required when called:    1
  3753 ;; This function calls:
  3754 ;;		Absolute function
  3755 ;;		_INT0_DefaultInterruptHandler
  3756 ;;		_teclado_coluna_1
  3757 ;; This function is called by:
  3758 ;;		_INT0_ISR
  3759 ;; This function uses a non-reentrant model
  3760 ;;
  3761                           
  3762                           	psect	text40
  3763  000F30                     __ptext40:
  3764                           	opt callstack 0
  3765  000F30                     _INT0_CallBack:
  3766                           	opt callstack 19
  3767  000F30                     
  3768                           ;mcc_generated_files/ext_int.c: 46:     if(INT0_InterruptHandler)
  3769  000F30  502F               	movf	_INT0_InterruptHandler^0,w,c
  3770  000F32  1030               	iorwf	(_INT0_InterruptHandler+1)^0,w,c
  3771  000F34  B4D8               	btfsc	status,2,c
  3772  000F36  EF9F  F007         	goto	i2u14_41
  3773  000F3A  EFA1  F007         	goto	i2u14_40
  3774  000F3E                     i2u14_41:
  3775  000F3E  EFAE  F007         	goto	i2l71
  3776  000F42                     i2u14_40:
  3777  000F42                     
  3778                           ;mcc_generated_files/ext_int.c: 47:     {;mcc_generated_files/ext_int.c: 48:         INT
      +                          0_InterruptHandler();
  3779  000F42  D802               	call	i2u15_48
  3780  000F44  EFAE  F007         	goto	i2u15_49
  3781  000F48                     i2u15_48:
  3782  000F48  0005               	push	
  3783  000F4A  6EFA               	movwf	pclath,c
  3784  000F4C  502F               	movf	_INT0_InterruptHandler^0,w,c
  3785  000F4E  6EFD               	movwf	tosl,c
  3786  000F50  5030               	movf	(_INT0_InterruptHandler+1)^0,w,c
  3787  000F52  6EFE               	movwf	tosh,c
  3788  000F54  50F8               	movf	tblptru,w,c
  3789  000F56  6EFF               	movwf	tosu,c
  3790  000F58  50FA               	movf	pclath,w,c
  3791  000F5A  0012               	return		;indir
  3792  000F5C                     i2u15_49:
  3793  000F5C                     i2l71:
  3794  000F5C  0012               	return		;funcret
  3795  000F5E                     __end_of_INT0_CallBack:
  3796                           	opt callstack 0
  3797                           
  3798 ;; *************** function _INT0_DefaultInterruptHandler *****************
  3799 ;; Defined at:
  3800 ;;		line 56 in file "mcc_generated_files/ext_int.c"
  3801 ;; Parameters:    Size  Location     Type
  3802 ;;		None
  3803 ;; Auto vars:     Size  Location     Type
  3804 ;;		None
  3805 ;; Return value:  Size  Location     Type
  3806 ;;                  1    wreg      void 
  3807 ;; Registers used:
  3808 ;;		None
  3809 ;; Tracked objects:
  3810 ;;		On entry : 0/0
  3811 ;;		On exit  : 0/0
  3812 ;;		Unchanged: 0/0
  3813 ;; Data sizes:     COMRAM   BANK0   BANK1   BANK2   BANK3   BANK4   BANK5
  3814 ;;      Params:         0       0       0       0       0       0       0
  3815 ;;      Locals:         0       0       0       0       0       0       0
  3816 ;;      Temps:          0       0       0       0       0       0       0
  3817 ;;      Totals:         0       0       0       0       0       0       0
  3818 ;;Total ram usage:        0 bytes
  3819 ;; Hardware stack levels used:    1
  3820 ;; This function calls:
  3821 ;;		Nothing
  3822 ;; This function is called by:
  3823 ;;		_EXT_INT_Initialize
  3824 ;;		_INT0_CallBack
  3825 ;; This function uses a non-reentrant model
  3826 ;;
  3827                           
  3828                           	psect	text41
  3829  0010A6                     __ptext41:
  3830                           	opt callstack 0
  3831  0010A6                     _INT0_DefaultInterruptHandler:
  3832                           	opt callstack 19
  3833  0010A6  0012               	return		;funcret
  3834  0010A8                     __end_of_INT0_DefaultInterruptHandler:
  3835                           	opt callstack 0
  3836                           
  3837 ;; *************** function _teclado_coluna_1 *****************
  3838 ;; Defined at:
  3839 ;;		line 20 in file "Teclado.c"
  3840 ;; Parameters:    Size  Location     Type
  3841 ;;		None
  3842 ;; Auto vars:     Size  Location     Type
  3843 ;;		None
  3844 ;; Return value:  Size  Location     Type
  3845 ;;                  1    wreg      void 
  3846 ;; Registers used:
  3847 ;;		wreg, status,2
  3848 ;; Tracked objects:
  3849 ;;		On entry : 0/0
  3850 ;;		On exit  : 0/0
  3851 ;;		Unchanged: 0/0
  3852 ;; Data sizes:     COMRAM   BANK0   BANK1   BANK2   BANK3   BANK4   BANK5
  3853 ;;      Params:         0       0       0       0       0       0       0
  3854 ;;      Locals:         0       0       0       0       0       0       0
  3855 ;;      Temps:          0       0       0       0       0       0       0
  3856 ;;      Totals:         0       0       0       0       0       0       0
  3857 ;;Total ram usage:        0 bytes
  3858 ;; Hardware stack levels used:    1
  3859 ;; This function calls:
  3860 ;;		Nothing
  3861 ;; This function is called by:
  3862 ;;		_main
  3863 ;;		_INT0_CallBack
  3864 ;; This function uses a non-reentrant model
  3865 ;;
  3866                           
  3867                           	psect	text42
  3868  000BD0                     __ptext42:
  3869                           	opt callstack 0
  3870  000BD0                     _teclado_coluna_1:
  3871                           	opt callstack 19
  3872  000BD0                     
  3873                           ;Teclado.c: 22:     if (PORTBbits.RB3 == 0){
  3874  000BD0  B681               	btfsc	129,3,c	;volatile
  3875  000BD2  EFED  F005         	goto	i2u2_41
  3876  000BD6  EFEF  F005         	goto	i2u2_40
  3877  000BDA                     i2u2_41:
  3878  000BDA  EFF3  F005         	goto	i2l454
  3879  000BDE                     i2u2_40:
  3880  000BDE                     
  3881                           ;Teclado.c: 23:             tecla_premida = '1';
  3882  000BDE  0E31               	movlw	49
  3883  000BE0  6E28               	movwf	_tecla_premida^0,c
  3884                           
  3885                           ;Teclado.c: 24:         }
  3886  000BE2  EF12  F006         	goto	i2l455
  3887  000BE6                     i2l454:
  3888  000BE6  B881               	btfsc	129,4,c	;volatile
  3889  000BE8  EFF8  F005         	goto	i2u3_41
  3890  000BEC  EFFA  F005         	goto	i2u3_40
  3891  000BF0                     i2u3_41:
  3892  000BF0  EFFE  F005         	goto	i2l456
  3893  000BF4                     i2u3_40:
  3894  000BF4                     
  3895                           ;Teclado.c: 26:             tecla_premida = '4';
  3896  000BF4  0E34               	movlw	52
  3897  000BF6  6E28               	movwf	_tecla_premida^0,c
  3898                           
  3899                           ;Teclado.c: 27:         }
  3900  000BF8  EF12  F006         	goto	i2l455
  3901  000BFC                     i2l456:
  3902  000BFC  BA81               	btfsc	129,5,c	;volatile
  3903  000BFE  EF03  F006         	goto	i2u4_41
  3904  000C02  EF05  F006         	goto	i2u4_40
  3905  000C06                     i2u4_41:
  3906  000C06  EF09  F006         	goto	i2l458
  3907  000C0A                     i2u4_40:
  3908  000C0A                     
  3909                           ;Teclado.c: 29:             tecla_premida = '7';
  3910  000C0A  0E37               	movlw	55
  3911  000C0C  6E28               	movwf	_tecla_premida^0,c
  3912                           
  3913                           ;Teclado.c: 30:         }
  3914  000C0E  EF12  F006         	goto	i2l455
  3915  000C12                     i2l458:
  3916  000C12  BC81               	btfsc	129,6,c	;volatile
  3917  000C14  EF0E  F006         	goto	i2u5_41
  3918  000C18  EF10  F006         	goto	i2u5_40
  3919  000C1C                     i2u5_41:
  3920  000C1C  EF12  F006         	goto	i2l455
  3921  000C20                     i2u5_40:
  3922  000C20                     
  3923                           ;Teclado.c: 32:             tecla_premida = '*';
  3924  000C20  0E2A               	movlw	42
  3925  000C22  6E28               	movwf	_tecla_premida^0,c
  3926  000C24                     i2l455:
  3927                           
  3928                           ;Teclado.c: 34:         tecla_n = 1;
  3929  000C24  0E00               	movlw	0
  3930  000C26  6E23               	movwf	(_tecla_n+1)^0,c
  3931  000C28  0E01               	movlw	1
  3932  000C2A  6E22               	movwf	_tecla_n^0,c
  3933  000C2C  0012               	return		;funcret
  3934  000C2E                     __end_of_teclado_coluna_1:
  3935                           	opt callstack 0
  3936                           
  3937 ;; *************** function _ADC_ISR *****************
  3938 ;; Defined at:
  3939 ;;		line 144 in file "mcc_generated_files/adc.c"
  3940 ;; Parameters:    Size  Location     Type
  3941 ;;		None
  3942 ;; Auto vars:     Size  Location     Type
  3943 ;;		None
  3944 ;; Return value:  Size  Location     Type
  3945 ;;                  1    wreg      void 
  3946 ;; Registers used:
  3947 ;;		wreg, status,2, status,0, pclath, tosl, cstack
  3948 ;; Tracked objects:
  3949 ;;		On entry : 0/0
  3950 ;;		On exit  : 0/0
  3951 ;;		Unchanged: 0/0
  3952 ;; Data sizes:     COMRAM   BANK0   BANK1   BANK2   BANK3   BANK4   BANK5
  3953 ;;      Params:         0       0       0       0       0       0       0
  3954 ;;      Locals:         0       0       0       0       0       0       0
  3955 ;;      Temps:          0       0       0       0       0       0       0
  3956 ;;      Totals:         0       0       0       0       0       0       0
  3957 ;;Total ram usage:        0 bytes
  3958 ;; Hardware stack levels used:    1
  3959 ;; Hardware stack levels required when called:    1
  3960 ;; This function calls:
  3961 ;;		Absolute function
  3962 ;;		_ADC_DefaultInterruptHandler
  3963 ;; This function is called by:
  3964 ;;		_INTERRUPT_InterruptManagerHigh
  3965 ;; This function uses a non-reentrant model
  3966 ;;
  3967                           
  3968                           	psect	text43
  3969  000EA4                     __ptext43:
  3970                           	opt callstack 0
  3971  000EA4                     _ADC_ISR:
  3972                           	opt callstack 20
  3973  000EA4                     
  3974                           ;mcc_generated_files/adc.c: 145:     if(ADC_InterruptHandler)
  3975  000EA4  5029               	movf	_ADC_InterruptHandler^0,w,c
  3976  000EA6  102A               	iorwf	(_ADC_InterruptHandler+1)^0,w,c
  3977  000EA8  B4D8               	btfsc	status,2,c
  3978  000EAA  EF59  F007         	goto	i2u34_41
  3979  000EAE  EF5B  F007         	goto	i2u34_40
  3980  000EB2                     i2u34_41:
  3981  000EB2  EF68  F007         	goto	i2l1614
  3982  000EB6                     i2u34_40:
  3983  000EB6                     
  3984                           ;mcc_generated_files/adc.c: 146:     {;mcc_generated_files/adc.c: 147:         ADC_Inter
      +                          ruptHandler();
  3985  000EB6  D802               	call	i2u35_48
  3986  000EB8  EF68  F007         	goto	i2u35_49
  3987  000EBC                     i2u35_48:
  3988  000EBC  0005               	push	
  3989  000EBE  6EFA               	movwf	pclath,c
  3990  000EC0  5029               	movf	_ADC_InterruptHandler^0,w,c
  3991  000EC2  6EFD               	movwf	tosl,c
  3992  000EC4  502A               	movf	(_ADC_InterruptHandler+1)^0,w,c
  3993  000EC6  6EFE               	movwf	tosh,c
  3994  000EC8  50F8               	movf	tblptru,w,c
  3995  000ECA  6EFF               	movwf	tosu,c
  3996  000ECC  50FA               	movf	pclath,w,c
  3997  000ECE  0012               	return		;indir
  3998  000ED0                     i2u35_49:
  3999  000ED0                     i2l1614:
  4000                           
  4001                           ;mcc_generated_files/adc.c: 149:     PIR1bits.ADIF=0;
  4002  000ED0  9C9E               	bcf	158,6,c	;volatile
  4003  000ED2  0012               	return		;funcret
  4004  000ED4                     __end_of_ADC_ISR:
  4005                           	opt callstack 0
  4006                           
  4007 ;; *************** function _ADC_DefaultInterruptHandler *****************
  4008 ;; Defined at:
  4009 ;;		line 157 in file "mcc_generated_files/adc.c"
  4010 ;; Parameters:    Size  Location     Type
  4011 ;;		None
  4012 ;; Auto vars:     Size  Location     Type
  4013 ;;		None
  4014 ;; Return value:  Size  Location     Type
  4015 ;;                  1    wreg      void 
  4016 ;; Registers used:
  4017 ;;		None
  4018 ;; Tracked objects:
  4019 ;;		On entry : 0/0
  4020 ;;		On exit  : 0/0
  4021 ;;		Unchanged: 0/0
  4022 ;; Data sizes:     COMRAM   BANK0   BANK1   BANK2   BANK3   BANK4   BANK5
  4023 ;;      Params:         0       0       0       0       0       0       0
  4024 ;;      Locals:         0       0       0       0       0       0       0
  4025 ;;      Temps:          0       0       0       0       0       0       0
  4026 ;;      Totals:         0       0       0       0       0       0       0
  4027 ;;Total ram usage:        0 bytes
  4028 ;; Hardware stack levels used:    1
  4029 ;; This function calls:
  4030 ;;		Nothing
  4031 ;; This function is called by:
  4032 ;;		_ADC_Initialize
  4033 ;;		_ADC_ISR
  4034 ;; This function uses a non-reentrant model
  4035 ;;
  4036                           
  4037                           	psect	text44
  4038  0010A8                     __ptext44:
  4039                           	opt callstack 0
  4040  0010A8                     _ADC_DefaultInterruptHandler:
  4041                           	opt callstack 20
  4042  0010A8  0012               	return		;funcret
  4043  0010AA                     __end_of_ADC_DefaultInterruptHandler:
  4044                           	opt callstack 0
  4045                           
  4046                           	psect	text45
  4047  000000                     __ptext45:
  4048                           	opt callstack 0
  4049  000000                     
  4050                           	psect	rparam
  4051  0000                     
  4052                           	psect	temp
  4053  00003B                     btemp:
  4054                           	opt callstack 0
  4055  00003B                     	ds	1
  4056  0000                     int$flags	set	btemp
  4057  0000                     wtemp8	set	btemp+1
  4058  0000                     ttemp5	set	btemp+1
  4059  0000                     ttemp6	set	btemp+4
  4060  0000                     ttemp7	set	btemp+8
  4061                           tosu	equ	0xFFF
  4062                           tosh	equ	0xFFE
  4063                           tosl	equ	0xFFD
  4064                           stkptr	equ	0xFFC
  4065                           pclatu	equ	0xFFB
  4066                           pclath	equ	0xFFA
  4067                           pcl	equ	0xFF9
  4068                           tblptru	equ	0xFF8
  4069                           tblptrh	equ	0xFF7
  4070                           tblptrl	equ	0xFF6
  4071                           tablat	equ	0xFF5
  4072                           prodh	equ	0xFF4
  4073                           prodl	equ	0xFF3
  4074                           indf0	equ	0xFEF
  4075                           postinc0	equ	0xFEE
  4076                           postdec0	equ	0xFED
  4077                           preinc0	equ	0xFEC
  4078                           plusw0	equ	0xFEB
  4079                           fsr0h	equ	0xFEA
  4080                           fsr0l	equ	0xFE9
  4081                           wreg	equ	0xFE8
  4082                           indf1	equ	0xFE7
  4083                           postinc1	equ	0xFE6
  4084                           postdec1	equ	0xFE5
  4085                           preinc1	equ	0xFE4
  4086                           plusw1	equ	0xFE3
  4087                           fsr1h	equ	0xFE2
  4088                           fsr1l	equ	0xFE1
  4089                           bsr	equ	0xFE0
  4090                           indf2	equ	0xFDF
  4091                           postinc2	equ	0xFDE
  4092                           postdec2	equ	0xFDD
  4093                           preinc2	equ	0xFDC
  4094                           plusw2	equ	0xFDB
  4095                           fsr2h	equ	0xFDA
  4096                           fsr2l	equ	0xFD9
  4097                           status	equ	0xFD8


Data Sizes:
    Strings     50
    Constant    0
    Data        6
    BSS         17
    Persistent  12
    Stack       0

Auto Spaces:
    Space          Size  Autos    Used
    COMRAM           94     23      58
    BANK0           160      0       0
    BANK1           256      0       0
    BANK2           256      0       0
    BANK3           256      0       0
    BANK4           256      0       0
    BANK5           256      0       0

Pointer List with Targets:

    strlen@s	PTR const unsigned char  size(2) Largest target is 4
		 -> pin(COMRAM[4]), 

    strlen@a	PTR const unsigned char  size(2) Largest target is 4
		 -> pin(COMRAM[4]), 

    strncat@s	PTR const unsigned char  size(2) Largest target is 1
		 -> tecla_premida(COMRAM[1]), 

    strncat@d	PTR unsigned char  size(2) Largest target is 4
		 -> pin(COMRAM[4]), 

    strncat@a	PTR unsigned char  size(2) Largest target is 4
		 -> pin(COMRAM[4]), 

    ADC_SetInterruptHandler@InterruptHandler	PTR FTN()void  size(2) Largest target is 1
		 -> ADC_DefaultInterruptHandler(), 

    ADC_InterruptHandler	PTR FTN()void  size(2) Largest target is 1
		 -> ADC_DefaultInterruptHandler(), Absolute function(), 

    putsXLCD@buffer	PTR unsigned char  size(2) Largest target is 21
		 -> STR_3(CODE[16]), STR_2(CODE[13]), STR_1(CODE[21]), pin(COMRAM[4]), 

    sp__strncat	PTR unsigned char  size(2) Largest target is 4
		 -> pin(COMRAM[4]), 

    INT2_SetInterruptHandler@InterruptHandler	PTR FTN()void  size(2) Largest target is 1
		 -> teclado_coluna_3(), INT2_DefaultInterruptHandler(), 

    INT2_InterruptHandler	PTR FTN()void  size(2) Largest target is 1
		 -> teclado_coluna_3(), INT2_DefaultInterruptHandler(), Absolute function(), 

    INT1_SetInterruptHandler@InterruptHandler	PTR FTN()void  size(2) Largest target is 1
		 -> teclado_coluna_2(), INT1_DefaultInterruptHandler(), 

    INT1_InterruptHandler	PTR FTN()void  size(2) Largest target is 1
		 -> teclado_coluna_2(), INT1_DefaultInterruptHandler(), Absolute function(), 

    INT0_SetInterruptHandler@InterruptHandler	PTR FTN()void  size(2) Largest target is 1
		 -> teclado_coluna_1(), INT0_DefaultInterruptHandler(), 

    INT0_InterruptHandler	PTR FTN()void  size(2) Largest target is 1
		 -> teclado_coluna_1(), INT0_DefaultInterruptHandler(), Absolute function(), 

    TMR0_SetInterruptHandler@InterruptHandler	PTR FTN()void  size(2) Largest target is 1
		 -> acende_LED(), TMR0_DefaultInterruptHandler(), 

    TMR0_InterruptHandler	PTR FTN()void  size(2) Largest target is 1
		 -> acende_LED(), Absolute function(), TMR0_DefaultInterruptHandler(), 


Critical Paths under _main in COMRAM

    _main->_strncat
    _strncat->_strlen
    _SYSTEM_Initialize->_TMR0_Initialize
    _TMR0_Initialize->_TMR0_SetInterruptHandler
    _EXT_INT_Initialize->_INT0_SetInterruptHandler
    _EXT_INT_Initialize->_INT1_SetInterruptHandler
    _EXT_INT_Initialize->_INT2_SetInterruptHandler
    _ADC_Initialize->_ADC_SetInterruptHandler
    _LCD_inicio_teste->_putsXLCD
    _putsXLCD->_WriteDataXLCD
    _OpenXLCD->_DelayPORXLCD
    _OpenXLCD->_DelayXLCD
    _OpenXLCD->_WriteCmdXLCD

Critical Paths under _INTERRUPT_InterruptManagerLow in COMRAM

    _TMR0_ISR->_acende_LED

Critical Paths under _INTERRUPT_InterruptManagerHigh in COMRAM

    None.

Critical Paths under _main in BANK0

    None.

Critical Paths under _INTERRUPT_InterruptManagerLow in BANK0

    None.

Critical Paths under _INTERRUPT_InterruptManagerHigh in BANK0

    None.

Critical Paths under _main in BANK1

    None.

Critical Paths under _INTERRUPT_InterruptManagerLow in BANK1

    None.

Critical Paths under _INTERRUPT_InterruptManagerHigh in BANK1

    None.

Critical Paths under _main in BANK2

    None.

Critical Paths under _INTERRUPT_InterruptManagerLow in BANK2

    None.

Critical Paths under _INTERRUPT_InterruptManagerHigh in BANK2

    None.

Critical Paths under _main in BANK3

    None.

Critical Paths under _INTERRUPT_InterruptManagerLow in BANK3

    None.

Critical Paths under _INTERRUPT_InterruptManagerHigh in BANK3

    None.

Critical Paths under _main in BANK4

    None.

Critical Paths under _INTERRUPT_InterruptManagerLow in BANK4

    None.

Critical Paths under _INTERRUPT_InterruptManagerHigh in BANK4

    None.

Critical Paths under _main in BANK5

    None.

Critical Paths under _INTERRUPT_InterruptManagerLow in BANK5

    None.

Critical Paths under _INTERRUPT_InterruptManagerHigh in BANK5

    None.

Call Graph Tables:

 ---------------------------------------------------------------------------------
 (Depth) Function   	        Calls       Base Space   Used Autos Params    Refs
 ---------------------------------------------------------------------------------
 (0) _main                                                 3     3      0    2900
                                             20 COMRAM     3     3      0
                           _BusyXLCD
           _INT0_SetInterruptHandler
           _INT1_SetInterruptHandler
           _INT2_SetInterruptHandler
                   _LCD_inicio_teste
                  _SYSTEM_Initialize
           _TMR0_SetInterruptHandler
                       _WriteCmdXLCD
                           _putsXLCD
                            _strncat
 ---------------------------------------------------------------------------------
 (1) _strncat                                              8     2      6     560
                                             12 COMRAM     8     2      6
                             _strlen
 ---------------------------------------------------------------------------------
 (2) _strlen                                               4     2      2     166
                                              8 COMRAM     4     2      2
 ---------------------------------------------------------------------------------
 (1) _SYSTEM_Initialize                                    0     0      0     794
                     _ADC_Initialize
                   _EPWM1_Initialize
                 _EXT_INT_Initialize
               _INTERRUPT_Initialize
              _OSCILLATOR_Initialize
             _PIN_MANAGER_Initialize
                    _TMR0_Initialize
                    _TMR2_Initialize
 ---------------------------------------------------------------------------------
 (2) _TMR2_Initialize                                      0     0      0       0
 ---------------------------------------------------------------------------------
 (2) _TMR0_Initialize                                      2     2      0     174
                                             10 COMRAM     2     2      0
           _TMR0_SetInterruptHandler
 ---------------------------------------------------------------------------------
 (1) _TMR0_SetInterruptHandler                             2     0      2     174
                                              8 COMRAM     2     0      2
 ---------------------------------------------------------------------------------
 (2) _PIN_MANAGER_Initialize                               0     0      0       0
 ---------------------------------------------------------------------------------
 (2) _OSCILLATOR_Initialize                                0     0      0       0
 ---------------------------------------------------------------------------------
 (2) _INTERRUPT_Initialize                                 0     0      0       0
 ---------------------------------------------------------------------------------
 (2) _EXT_INT_Initialize                                   0     0      0     522
           _INT0_SetInterruptHandler
           _INT1_SetInterruptHandler
           _INT2_SetInterruptHandler
 ---------------------------------------------------------------------------------
 (3) _INT2_SetInterruptHandler                             2     0      2     174
                                              8 COMRAM     2     0      2
 ---------------------------------------------------------------------------------
 (3) _INT1_SetInterruptHandler                             2     0      2     174
                                              8 COMRAM     2     0      2
 ---------------------------------------------------------------------------------
 (3) _INT0_SetInterruptHandler                             2     0      2     174
                                              8 COMRAM     2     0      2
 ---------------------------------------------------------------------------------
 (2) _EPWM1_Initialize                                     0     0      0       0
 ---------------------------------------------------------------------------------
 (2) _ADC_Initialize                                       0     0      0      98
            _ADC_SetInterruptHandler
 ---------------------------------------------------------------------------------
 (3) _ADC_SetInterruptHandler                              2     0      2      98
                                              8 COMRAM     2     0      2
 ---------------------------------------------------------------------------------
 (1) _LCD_inicio_teste                                     2     2      0     439
                                             11 COMRAM     2     2      0
                           _BusyXLCD
                           _OpenXLCD
                       _WriteCmdXLCD
                           _putsXLCD
 ---------------------------------------------------------------------------------
 (1) _putsXLCD                                             2     0      2     379
                                              9 COMRAM     2     0      2
                           _BusyXLCD
                      _WriteDataXLCD
 ---------------------------------------------------------------------------------
 (2) _WriteDataXLCD                                        1     1      0      30
                                              8 COMRAM     1     1      0
                      _DelayFor18TCY
 ---------------------------------------------------------------------------------
 (2) _OpenXLCD                                             1     1      0      30
                           _BusyXLCD
                      _DelayFor18TCY
                       _DelayPORXLCD
                          _DelayXLCD
                       _WriteCmdXLCD
 ---------------------------------------------------------------------------------
 (1) _WriteCmdXLCD                                         1     1      0      30
                                              8 COMRAM     1     1      0
                      _DelayFor18TCY
 ---------------------------------------------------------------------------------
 (3) _DelayXLCD                                            1     1      0       0
                                              8 COMRAM     1     1      0
 ---------------------------------------------------------------------------------
 (3) _DelayPORXLCD                                         1     1      0       0
                                              8 COMRAM     1     1      0
 ---------------------------------------------------------------------------------
 (2) _BusyXLCD                                             0     0      0       0
                      _DelayFor18TCY
 ---------------------------------------------------------------------------------
 (3) _DelayFor18TCY                                        0     0      0       0
 ---------------------------------------------------------------------------------
 Estimated maximum stack depth 3
 ---------------------------------------------------------------------------------
 (Depth) Function   	        Calls       Base Space   Used Autos Params    Refs
 ---------------------------------------------------------------------------------
 (5) _INTERRUPT_InterruptManagerLow                        5     5      0       0
                                              3 COMRAM     5     5      0
                           _INT1_ISR
                           _INT2_ISR
                           _TMR0_ISR
 ---------------------------------------------------------------------------------
 (6) _TMR0_ISR                                             0     0      0       0
                   Absolute function *
       _TMR0_DefaultInterruptHandler *
                         _acende_LED *
 ---------------------------------------------------------------------------------
 (7) _acende_LED                                           1     1      0       0
                                              2 COMRAM     1     1      0
 ---------------------------------------------------------------------------------
 (7) _TMR0_DefaultInterruptHandler                         0     0      0       0
 ---------------------------------------------------------------------------------
 (6) _INT2_ISR                                             0     0      0       0
                      _INT2_CallBack
 ---------------------------------------------------------------------------------
 (7) _INT2_CallBack                                        0     0      0       0
                   Absolute function *
       _INT2_DefaultInterruptHandler *
                   _teclado_coluna_3 *
 ---------------------------------------------------------------------------------
 (8) _teclado_coluna_3                                     0     0      0       0
 ---------------------------------------------------------------------------------
 (8) _INT2_DefaultInterruptHandler                         0     0      0       0
 ---------------------------------------------------------------------------------
 (6) _INT1_ISR                                             0     0      0       0
                      _INT1_CallBack
 ---------------------------------------------------------------------------------
 (7) _INT1_CallBack                                        0     0      0       0
                   Absolute function *
       _INT1_DefaultInterruptHandler *
                   _teclado_coluna_2 *
 ---------------------------------------------------------------------------------
 (8) _teclado_coluna_2                                     0     0      0       0
 ---------------------------------------------------------------------------------
 (8) _INT1_DefaultInterruptHandler                         0     0      0       0
 ---------------------------------------------------------------------------------
 (12) Absolute function(Fake)                              0     0      0       0
 ---------------------------------------------------------------------------------
 Estimated maximum stack depth 12
 ---------------------------------------------------------------------------------
 (Depth) Function   	        Calls       Base Space   Used Autos Params    Refs
 ---------------------------------------------------------------------------------
 (9) _INTERRUPT_InterruptManagerHigh                       2     2      0       0
                                              0 COMRAM     2     2      0
                            _ADC_ISR
                           _INT0_ISR
 ---------------------------------------------------------------------------------
 (10) _INT0_ISR                                            0     0      0       0
                      _INT0_CallBack
 ---------------------------------------------------------------------------------
 (11) _INT0_CallBack                                       0     0      0       0
                   Absolute function *
       _INT0_DefaultInterruptHandler *
                   _teclado_coluna_1 *
 ---------------------------------------------------------------------------------
 (12) _teclado_coluna_1                                    0     0      0       0
 ---------------------------------------------------------------------------------
 (12) _INT0_DefaultInterruptHandler                        0     0      0       0
 ---------------------------------------------------------------------------------
 (10) _ADC_ISR                                             0     0      0       0
                   Absolute function *
        _ADC_DefaultInterruptHandler *
 ---------------------------------------------------------------------------------
 (11) _ADC_DefaultInterruptHandler                         0     0      0       0
 ---------------------------------------------------------------------------------
 (12) Absolute function(Fake)                              0     0      0       0
 ---------------------------------------------------------------------------------
 Estimated maximum stack depth 12
 ---------------------------------------------------------------------------------

 Call Graph Graphs:

 _main (ROOT)
   _BusyXLCD
     _DelayFor18TCY
   _INT0_SetInterruptHandler
   _INT1_SetInterruptHandler
   _INT2_SetInterruptHandler
   _LCD_inicio_teste
     _BusyXLCD
       _DelayFor18TCY
     _OpenXLCD
       _BusyXLCD
         _DelayFor18TCY
       _DelayFor18TCY
       _DelayPORXLCD
       _DelayXLCD
       _WriteCmdXLCD
         _DelayFor18TCY
     _WriteCmdXLCD
       _DelayFor18TCY
     _putsXLCD
       _BusyXLCD
         _DelayFor18TCY
       _WriteDataXLCD
         _DelayFor18TCY
   _SYSTEM_Initialize
     _ADC_Initialize
       _ADC_SetInterruptHandler
     _EPWM1_Initialize
     _EXT_INT_Initialize
       _INT0_SetInterruptHandler
       _INT1_SetInterruptHandler
       _INT2_SetInterruptHandler
     _INTERRUPT_Initialize
     _OSCILLATOR_Initialize
     _PIN_MANAGER_Initialize
     _TMR0_Initialize
       _TMR0_SetInterruptHandler
     _TMR2_Initialize
   _TMR0_SetInterruptHandler
   _WriteCmdXLCD
     _DelayFor18TCY
   _putsXLCD
     _BusyXLCD
       _DelayFor18TCY
     _WriteDataXLCD
       _DelayFor18TCY
   _strncat
     _strlen

 _INTERRUPT_InterruptManagerLow (ROOT)
   _INT1_ISR
     _INT1_CallBack
       Absolute function(Fake) *
       _INT1_DefaultInterruptHandler *
       _teclado_coluna_2 *
   _INT2_ISR
     _INT2_CallBack
       Absolute function(Fake) *
       _INT2_DefaultInterruptHandler *
       _teclado_coluna_3 *
   _TMR0_ISR
     Absolute function(Fake) *
     _TMR0_DefaultInterruptHandler *
     _acende_LED *

 _INTERRUPT_InterruptManagerHigh (ROOT)
   _ADC_ISR
     Absolute function(Fake) *
     _ADC_DefaultInterruptHandler *
   _INT0_ISR
     _INT0_CallBack
       Absolute function(Fake) *
       _INT0_DefaultInterruptHandler *
       _teclado_coluna_1 *

 Address spaces:
Name               Size   Autos  Total    Cost      Usage
BIGRAM             5FF      0       0      16        0.0%
EEDATA             100      0       0       0        0.0%
BITBANK5           100      0       0      14        0.0%
BANK5              100      0       0      15        0.0%
BITBANK4           100      0       0      12        0.0%
BANK4              100      0       0      13        0.0%
BITBANK3           100      0       0      10        0.0%
BANK3              100      0       0      11        0.0%
BITBANK2           100      0       0       7        0.0%
BANK2              100      0       0       8        0.0%
BITBANK1           100      0       0       5        0.0%
BANK1              100      0       0       6        0.0%
BITBANK0            A0      0       0       3        0.0%
BANK0               A0      0       0       4        0.0%
BITCOMRAM           5E      0       0       0        0.0%
COMRAM              5E     17      3A       1       61.7%
BITSFR_1             0      0       0     200        0.0%
SFR_1                0      0       0     200        0.0%
BITSFR               0      0       0     200        0.0%
SFR                  0      0       0     200        0.0%
STACK                0      0       0       2        0.0%
NULL                 0      0       0       0        0.0%
ABS                  0      0      3A       9        0.0%
DATA                 0      0      3A      17        0.0%
CODE                 0      0       0       0        0.0%


Microchip Technology PIC18 Macro Assembler V2.10 build 88905656 
Symbol Table                                                                                   Tue Apr 28 11:09:53 2020

                                      l21 0EA2                                        l43 1058  
                                      l74 1076                                        l87 106C  
                                      u10 0CE8                                        u11 0CE4  
                                      bsr 000FE0                           _timer0ReloadVal 0031  
                            __CFG_CP0$OFF 000000                              __CFG_CP1$OFF 000000  
                            __CFG_CP2$OFF 000000                              __CFG_CP3$OFF 000000  
                             __CFG_LVP$ON 000000                                       l100 1062  
                                     l106 0DFE                                       l220 0CCA  
                                     l133 104E                                       l412 0CFE  
                                     l236 1014                                       l413 0D10  
                                     l181 1042                                       l423 0B70  
                                     l272 0FE6                                       l409 0A12  
                                     l441 0D4E                                       l178 0FC6  
                                     l382 1034                                       l438 0D8C  
                                     l528 0908                                       l385 1004  
                                     l555 0F80                                       l388 1024  
                                     l583 1080                              __CFG_CPB$OFF 000000  
                                     u300 0A0C                                       u301 0A08  
                                     u250 0990                                       u251 098C  
                                     u260 09AA                                       u261 09A6  
                                     u270 09C4                                       _PR2 000FBB  
                                     u271 09C0                                       u280 09D8  
                                     u281 09D4                                       u290 09F2  
                            __CFG_CPD$OFF 000000                                       u291 09EE  
                                     u710 0B18                                       u711 0B14  
                                     u720 0B38                                       u800 0864  
                                     u801 0860                                       u730 0B60  
                                     u810 0884                                       u811 0880  
                                     u740 0B70                                       u820 08B4  
                                     u900 06BC                                       u741 0B6C  
                                     u821 08B0                                       u901 06B8  
                                     u830 08CE                                       u750 0E60  
                                     u910 06F2                                       u727 0B2E  
                                     u831 08CA                                       u751 0E5C  
                                     u911 06EE                                       u840 08E8  
                                     u760 07FC                                       u920 0712  
                                     u737 0B56                                       u841 08E4  
                                     u761 07F8                                       u921 070E  
                                     u850 0908                                       u770 0816  
                                     u930 0738                                       u851 0904  
                                     u771 0812                                       u931 0734  
                                     u780 0830                                       u860 0A60  
                                     u940 0752                                       u781 082C  
                                     u861 0A5C                                       u941 074E  
                                     u790 084A                                       u870 0A78  
                                     u950 0772                                       u791 0846  
                                     u871 0A74                                       u951 076E  
                                     u880 068C                                       u881 0688  
                                     u890 06A2                                       u891 069E  
                                     u967 0788                                       u977 07A0  
                                     u987 07B8                                       u997 07D0  
              ??_INT0_SetInterruptHandler 000B                           __end_of_ADC_ISR 0ED4  
                                     _pin 0024           __end_of_ADC_SetInterruptHandler 1082  
                   __size_of_WriteCmdXLCD 003E                           _TMR2_Initialize 1006  
                                     tosl 000FFD                                       wreg 000FE8  
                           _INT0_CallBack 0F30              ?_ADC_DefaultInterruptHandler 0001  
                           _INT1_CallBack 0F02                                      l2000 0DCC  
                                    l2010 0DEC                                      l2002 0DD8  
                                    l1300 0D6C                                      l2020 0F74  
                                    l2012 0DEE                                      l2004 0DDA  
                                    l2100 0A14                                      l1310 0D86  
                                    l1302 0D70                                      l2030 0B40  
                                    l2022 0B00                                      l2014 0DFC  
                                    l2006 0DDC                                      l2110 0A4A  
                                    l2102 0A14                                      l1320 0CDA  
                                    l1304 0D7C                                      l2024 0B04  
                                    l2016 0F5E                                      l2008 0DEA  
                                    l2032 0E38                                      l2104 0A2C  
                                    l2112 0A4E                                      l2200 07AE  
                                    l1330 0CF6                                      l1322 0CE8  
                                    l1314 0CCC                                      l1306 0D80  
                                    l2026 0B18                                      l2018 0F72  
                                    l2050 0FB6                                      l2042 0FA6  
                                    l2034 0E44                                      l2114 0A60  
                                    l2106 0A32                                      l2210 07C6  
                                    l2202 07B0                                      l2130 0646  
                                    l2122 0634                                      l1340 0D04  
                                    l1332 0CF8                                      l1324 0CEA  
                                    l1316 0CD0                                      l1308 0D82  
                                    l1500 0918                                      l2028 0B3C  
                                    l2060 07E8                                      l2052 0FBA  
                                    l2044 0FAA                                      l2036 0E48  
                                    l2116 0A78                                      l2108 0A46  
                                    l2212 07C8                                      l2204 07B2  
                                    l2140 067A                                      l2132 0652  
                                    l2124 0638                                      l1342 0D0A  
                                    l1326 0CEE                                      l1318 0CD4  
                                    l1350 0FE8                                      l1510 0926  
                                    l1502 091A                                      l2070 0830  
                                    l2062 07FC                                      l2054 0FBE  
                                    l2046 0FAE                                      l2038 0E60  
                                    l1270 0A88                                      l2118 0A84  
                                    l2214 07CA                                      l2206 07C2  
                                    l2150 06BC                                      l2142 068C  
                                    l2134 065E                                      l2126 063A  
                                    l1344 0D0C                                      l1328 0CF4  
                                    l1520 0938                                      l1512 092A  
                                    l1504 091C                                      l1360 0D24  
                                    l2080 0870                                      l2072 0836  
                                    l2064 0802                                      l2056 0FC2  
                                    l2048 0FB2                                      l2208 07C4  
                                    l2160 0712                                      l2152 06D8  
                                    l2144 0690                                      l2136 066A  
                                    l2128 0642                                      l1346 0D0E  
                                    l1338 0D00                                      l1354 1016  
                                    l1290 0D52                                      l1530 094A  
                                    l1522 093A                                      l1514 092E  
                                    l1506 091E                                      l1370 0D32  
                                    l1362 0D26                                      l2090 08BA  
                                    l2082 0884                                      l2074 084A  
                                    l2066 0816                                      l2058 07E2  
                                    l2170 0752                                      l2162 071A  
                                    l2154 06DE                                      l2146 06A2  
                                    l2138 0676                                      l1292 0D62  
                                    l1540 0964                                      l1532 0950  
                                    l1524 093E                                      l1516 0932  
                                    l1508 0920                                      l1372 0D3E  
                                    l1364 0D28                                      l2092 08CE  
                                    l2084 089A                                      l2076 0850  
                                    l2068 081C                                      l1460 1044  
                                    l1276 0E6C                                      l2180 077E  
                                    l2172 075E                                      l2156 06F2  
                                    l2164 0726                                      l2148 06AA  
                                    l1278 1026                                      l1294 0D64  
                                    l1550 0976                                      l1542 096A  
                                    l1534 0956                                      l1526 0942  
                                    l1518 0934                                      l1374 0D42  
                                    l1366 0D2C                                      l1358 0D14  
                                    l2094 08D4                                      l2086 08A0  
                                    l2078 0864                                      l1462 0C86  
                                    l2190 0796                                      l2182 0780  
                                    l2174 0772                                      l2166 0738  
                                    l2158 06FE                                      l1296 0D66  
                                    l1560 09AA                                      l1552 0978  
                                    l1544 096E                                      l1536 095A  
                                    l1528 0946                                      l1376 0D44  
                                    l1368 0D2E                                      l2096 08E8  
                                    l2088 08B4                                      l1464 0CC8  
                                    l2192 0798                                      l2184 0782  
                                    l2168 073E                                      l2176 077A  
                                    l1298 0D6A                                      l1570 09F2  
                                    l1562 09B0                                      l1554 097C  
                                    l1546 0970                                      l1538 095E  
                                    l1378 0D48                                      l2098 08F4  
                                    l1474 0FC8                                      l1466 1036  
                                    l2194 079A                                      l2186 0792  
                                    l2178 077C                                      l1572 09F8  
                                    l1564 09C4                                      l1556 0990  
                                    l1548 0972                                      l1492 090A  
                                    l1476 1006                                      l2196 07AA  
                                    l2188 0794                                      l1574 0A0C  
                                    l1566 09D8                                      l1558 0996  
                                    l1494 090E                                      l1478 100E  
                                    l2198 07AC                                      l1568 09DE  
                                    l1496 0912                                      l1498 0916  
                                    l1980 105A                                      l1982 1078  
                                    l1974 1050                                      l1990 0E8E  
                                    l1976 106E                                      l1992 0E90  
                                    l1984 0E6E                                      l1978 1064  
                                    l1994 0E92                                      l1986 0E70  
                                    l1996 0E9E                                      l1988 0E78  
                                    l1998 0DC8                                      STR_1 0601  
                                    STR_2 0626                                      STR_3 0616  
                                    u1007 088E                                      u1017 101C  
                                    u1027 0FEE                                      u1037 0FFC  
                                    u1047 1028                                      u1057 102E  
                                    _LATA 000F89                                      _LATB 000F8A  
                                    _LATC 000F8B                                      _LATD 000F8C  
                                    _LATE 000F8D                                      i1l40 0E36  
                                    i1l46 10A0                                      i1l80 1090  
                                    i1l90 10A4                                      i1l84 0F2E  
                                    i1l93 1088                                      i2l71 0F5C  
                                    i1l97 0F00                                      i2l67 1098  
                                    i2l77 10A6                                      _TMR2 000FBC  
                                    _WPUB 000F61                             _INT2_CallBack 0ED4  
                        _LCD_inicio_teste 07E2                                      _main 0634  
                                    fsr0h 000FEA                                      fsr1h 000FE2  
                                    indf0 000FEF                                      fsr2h 000FDA  
                                    fsr0l 000FE9                                      indf1 000FE7  
                                    indf2 000FDF                                      fsr1l 000FE1  
                                    fsr2l 000FD9                                      btemp 003B  
                           __CFG_BORV$190 000000         __size_of_INT2_SetInterruptHandler 000A  
               ?_INT2_SetInterruptHandler 0009                    __size_of_WriteDataXLCD 003E  
                                    start 00B2                             __CFG_IESO$OFF 000000  
                            ___param_bank 000000                              _WriteCmdXLCD 0D50  
                 __end_of_TMR0_Initialize 0EA4                          __end_of_INT0_ISR 109A  
                        __end_of_INT1_ISR 1092                          __end_of_INT2_ISR 108A  
          ??_TMR0_DefaultInterruptHandler 0003            __size_of_OSCILLATOR_Initialize 000E  
           __end_of_OSCILLATOR_Initialize 1044                                     ?_main 0001  
                                   _T0CON 000FD5                                     _T2CON 000FBA  
                          __CFG_DEBUG$OFF 000000                                     i1l103 10A2  
                                   i1l150 009A                                     i1l153 009A  
                                   i1l147 0052                                     i1l149 0076  
                                   i1l336 0F82                                     i1l338 0FA4  
                                   i2l142 0C7A                                     i1l471 0BCE  
                                   i1l464 0B88                                     i1l465 0BC6  
                                   i1l481 0AFE                                     i2l138 0C5A  
                                   i1l466 0B9E                                     i1l474 0AA8  
                                   i1l468 0BB4                                     i1l476 0ABE  
                                   i1l477 0AFE                                     i1l478 0AD4  
                                   i2l461 0C2C                                     i2l454 0BE6  
                                   i2l455 0C24                                     i2l456 0BFC  
                                   i2l458 0C12                                     i2l580 0ED2  
                                   i2l586 10A8                                     _TMR0H 000FD7  
                                   _TMR0L 000FD6                                     _PORTD 000F83  
                       ?_teclado_coluna_1 0001                         ?_teclado_coluna_2 0001  
                       ?_teclado_coluna_3 0001                                     _TRISA 000F92  
                                   _TRISB 000F93                            ?_INT0_CallBack 0001  
                                   _TRISC 000F94                                     _TRISD 000F95  
                                   _TRISE 000F96         __size_of_TMR0_SetInterruptHandler 000A  
                           __CFG_WRT0$OFF 000000                             __CFG_WRT1$OFF 000000  
                           __CFG_WRT2$OFF 000000                 ?_TMR0_SetInterruptHandler 0009  
                           __CFG_WRT3$OFF 000000                            __CFG_EBTR0$OFF 000000  
                          __CFG_FCMEN$OFF 000000                            __CFG_EBTR1$OFF 000000  
                          __CFG_EBTR2$OFF 000000                            __CFG_EBTR3$OFF 000000  
                        __end_of_TMR0_ISR 0E38                        ??_teclado_coluna_1 0001  
                      ??_teclado_coluna_2 0003                        ??_teclado_coluna_3 0003  
                           __CFG_WRTB$OFF 000000                             __CFG_WRTC$OFF 000000  
                           __CFG_WRTD$OFF 000000                            ?_INT1_CallBack 0001  
                          __CFG_EBTRB$OFF 000000            ??_INT1_DefaultInterruptHandler 0003  
                      __CFG_MCLRE$EXTMCLR 000000                            ?_INT2_CallBack 0001  
                _INT1_SetInterruptHandler 1064                                     pclath 000FFA  
                                   tablat 000FF5                                     ttemp5 003C  
                                   ttemp6 003F                                     ttemp7 0043  
                                   status 000FD8                                     wtemp8 003C  
                          __CFG_HFOFST$ON 000000                           __end_of_strncat 0A8A  
          ?_INTERRUPT_InterruptManagerLow 0001                            __CFG_PBADEN$ON 000000  
                         __initialization 0D8E                              __end_of_main 07E2  
                        __end_of_BusyXLCD 0D12                        __size_of_DelayXLCD 0010  
                   __size_of_DelayPORXLCD 001E                   __end_of_TMR2_Initialize 1016  
                               ??_ADC_ISR 0001                          __end_of_OpenXLCD 0A14  
                                  ??_main 0015                             __activetblptr 000002  
                           _WriteDataXLCD 0D12                                    _ADCON0 000FC2  
                                  _ADCON1 000FC1                                    _ADCON2 000FC0  
                                  _ADRESH 000FC4                                    _ADRESL 000FC3  
                                  _CCPR1H 000FBF                                    _CCPR1L 000FBE  
                 main@contador_caracteres 0016                                    _ANSELA 000F38  
                                  _ANSELB 000F39                                    _ANSELC 000F3A  
                                  _ANSELD 000F3B                                    _ANSELE 000F3C  
                                  i1l1400 0BC2                                    i1l1410 0ACC  
                                  i1l1402 0A8A                                    i1l1412 0AE2  
                                  i1l1404 0A92                                    i1l1406 0AA0  
                                  i1l1408 0AB6                                    i1l1440 0EE6  
                                  i1l1434 0F02                                    i1l1602 108A  
                                  i1l1436 0F14                                    i1l1604 108C  
                                  i1l1438 0ED4                                    i1l1606 1082  
                                  i1l1392 0B72                                    i1l1608 1084  
                                  i1l1480 0F82                                    i1l1394 0B80  
                                  i1l1730 0060                                    i1l1396 0B96  
                                  i1l1732 006E                                    i1l1724 002E  
                                  i1l1398 0BAC                                    i1l1590 0E02  
                                  i1l1734 0084                                    i1l1726 003C  
                                  i1l1592 0E06                                    i1l1736 0092  
                                  i1l1728 004A                                    i1l1594 0E0A  
                                  i1l1596 0E1C                                    i1l1588 0E00  
                                  i2l1430 0F30                                    i2l1432 0F42  
                                  i2l1600 1094                                    i2l1610 0EA4  
                                  i2l1612 0EB6                                    i2l1614 0ED0  
                                  i2l1390 0C20                                    i2l1382 0BD0  
                                  i2l1384 0BDE                                    i2l1720 0C68  
                                  i2l1386 0BF4                                    i2l1722 0C76  
                                  i2l1714 0C36                                    i2l1388 0C0A  
                                  i2l1716 0C44                                    i2l1718 0C52  
                          __CFG_WDTEN$OFF 000000                                    i2l1598 1092  
                                  _OSCCON 000FD3                                    i1u6_20 0B80  
                                  i1u6_21 0B7C                                    i2u2_40 0BDE  
                                  i2u2_41 0BDA                                    i1u7_20 0B96  
                                  i1u7_21 0B92                                    i2u3_40 0BF4  
                                  i2u3_41 0BF0                                    i1u8_20 0BAC  
                                  i1u8_21 0BA8                                    i2u4_40 0C0A  
                                  i2u4_41 0C06                                    i1u9_20 0BC2  
                                  i1u9_21 0BBE                                    i2u5_40 0C20  
                                  i2u5_41 0C1C                              _DelayPORXLCD 0FE8  
                          __CFG_XINST$OFF 000000                              _CCPTMRS0bits 000F49  
    __size_of_ADC_DefaultInterruptHandler 0002          __size_of_ADC_SetInterruptHandler 000A  
                          __CFG_STVREN$ON 000000                          ?_TMR0_Initialize 0001  
                                  clear_0 0DB4                           ??_INT0_CallBack 0001  
                          ?_WriteDataXLCD 0001                                    _strlen 0E38  
    __end_of_INT2_DefaultInterruptHandler 10A4     __size_of_INT2_DefaultInterruptHandler 0002  
            _INT2_DefaultInterruptHandler 10A2                              __pdataCOMRAM 0035  
                         ??_INT1_CallBack 0003                              __mediumconst 0000  
                                  tblptrh 000FF7                                    tblptrl 000FF6  
                                  tblptru 000FF8                          __end_of_putsXLCD 0B72  
                         ??_INT2_CallBack 0003   ADC_SetInterruptHandler@InterruptHandler 0009  
INT2_SetInterruptHandler@InterruptHandler 0009  INT1_SetInterruptHandler@InterruptHandler 0009  
INT0_SetInterruptHandler@InterruptHandler 0009  TMR0_SetInterruptHandler@InterruptHandler 0009  
                               ??_strncat 0013             __size_of_INTERRUPT_Initialize 000C  
                       __end_of_DelayXLCD 1026          ??_INTERRUPT_InterruptManagerHigh 0001  
         ?_INTERRUPT_InterruptManagerHigh 0001                         _SYSTEM_Initialize 0FA6  
                              __accesstop 0060                   __end_of__initialization 0DBA  
                               ?_INT0_ISR 0001                                 ?_INT1_ISR 0001  
                               ?_INT2_ISR 0001                        ?_SYSTEM_Initialize 0001  
                           ___rparam_used 000001                         ?_EPWM1_Initialize 0001  
                          __pcstackCOMRAM 0001                       ??_SYSTEM_Initialize 000D  
                               ?_TMR0_ISR 0001                        ??_EPWM1_Initialize 0009  
                              _acende_LED 0F82                          ?_TMR2_Initialize 0001  
                __end_of_LCD_inicio_teste 090A               __size_of_EXT_INT_Initialize 0038  
        __end_of_INT2_SetInterruptHandler 1064           fp__INT2_DefaultInterruptHandler 0000  
           ?_INT2_DefaultInterruptHandler 0001                 __end_of_SYSTEM_Initialize 0FC8  
                  __size_of_DelayFor18TCY 0010                                 ?_BusyXLCD 0001  
                         __CFG_PLLCFG$OFF 000000                           WriteCmdXLCD@cmd 0009  
                   _INT0_InterruptHandler 002F                                ??_INT0_ISR 0001  
                              ??_INT1_ISR 0003                                ??_INT2_ISR 0003  
                              __pnvCOMRAM 0029                                 ?_OpenXLCD 0001  
                      __CFG_CCP2MX$PORTC1 000000                         WriteDataXLCD@data 0009  
        __end_of_TMR0_SetInterruptHandler 105A                                ??_TMR0_ISR 0004  
                      __CFG_CCP3MX$PORTB5 000000                                   _CCP1CON 000FBD  
                         ??_WriteDataXLCD 0009                                   _ECCP1AS 000FB6  
                                 _ADC_ISR 0EA4                   __size_of_ADC_Initialize 0024  
                                 ?_strlen 0009                ??_INT1_SetInterruptHandler 000B  
                                 _OSCCON2 000FD2                                   i1u10_20 0AA0  
                                 i1u10_21 0A9C                                   i1u11_20 0AB6  
                                 i1u11_21 0AB2                                   i1u12_20 0ACC  
                                 i1u20_20 0F92                                   i1u12_21 0AC8  
                                 i1u20_21 0F8C                                   i1u20_26 0F94  
                                 i1u13_20 0AE2                                   i1u13_21 0ADE  
                                 i1u16_20 0F14                                   i1u32_20 0E1C  
                                 i1u16_21 0F10                                   i1u32_21 0E18  
                                 i1u17_28 0F1A                                   i1u18_20 0EE6  
                                 i1u33_28 0E22                                   i1u17_29 0F2E  
                                 i1u18_21 0EE2                                   i1u33_29 0E36  
                                 i1u19_28 0EEC                                   i1u52_20 003C  
                                 i1u19_29 0F00                                   i1u52_21 0038  
                                 i1u53_20 004A                                   i1u53_21 0046  
                                 i1u54_20 0060                                   i1u54_21 005C  
                                 i2u14_40 0F42                                   i2u14_41 0F3E  
                                 i1u55_20 006E                                   i1u55_21 006A  
                                 i1u56_20 0084                                   i1u56_21 0080  
                                 i2u15_48 0F48                                   i2u15_49 0F5C  
                                 i1u57_20 0092                                   i1u57_21 008E  
                                 i2u34_40 0EB6                                   i2u50_40 0C68  
                                 i2u34_41 0EB2                                   i2u50_41 0C64  
                                 i2u51_40 0C76                                   i2u51_41 0C72  
                                 i2u35_48 0EBC                                   i2u35_49 0ED0  
                                 _OSCTUNE 000F9B                                   _PWM1CON 000FB7  
                                 i2u48_40 0C44                                   i2u48_41 0C40  
                                 i2u49_40 0C52                                   i2u49_41 0C4E  
                              ??_BusyXLCD 0009         __size_of_INT0_SetInterruptHandler 000A  
               __size_of_teclado_coluna_1 005E                 __size_of_teclado_coluna_2 005E  
               __size_of_teclado_coluna_3 0076                 ?_INT0_SetInterruptHandler 0009  
                              ??_OpenXLCD 000A                           __CFG_PWRTEN$OFF 000000  
                    _ADC_InterruptHandler 0029                                   __Hparam 0000  
                 _ADC_SetInterruptHandler 1078                                   __Lparam 0000  
                           _DelayFor18TCY 1026                                 ?_putsXLCD 000A  
                            __psmallconst 0600                               ?_acende_LED 0001  
                                 __pcinit 0D8E                                   __ramtop 0600  
                                 __ptext0 0634                                   __ptext1 0A14  
                                 __ptext2 0E38                                   __ptext3 0FA6  
                                 __ptext4 1006                                   __ptext5 0E6E  
                                 __ptext6 1050                                   __ptext7 0C86  
                                 __ptext8 1036                                   __ptext9 1044  
                               _T0CONbits 000FD5                           __size_of_strlen 0036  
                   _OSCILLATOR_Initialize 1036                                 _T2CONbits 000FBA  
                                 _tecla_n 0022                  ??_PIN_MANAGER_Initialize 0009  
              __size_of_SYSTEM_Initialize 0022                                   _strncat 0A14  
                          __pintcode_body 0C2E                      end_of_initialization 0DBA  
                _INT2_SetInterruptHandler 105A            ??_INT2_DefaultInterruptHandler 0003  
                           __Lmediumconst 0000                                   int_func 0C2E  
                          ?_DelayFor18TCY 0001                                   postdec1 000FE5  
                                 postinc0 000FEE                                ??_putsXLCD 000C  
                                 strlen@a 000B                                   strlen@s 0009  
                _TMR0_SetInterruptHandler 1050                     _INT1_InterruptHandler 002D  
                               _PORTBbits 000F81       __end_of_ADC_DefaultInterruptHandler 10AA  
             _ADC_DefaultInterruptHandler 10A8                                 _TRISDbits 000F95  
           ??_ADC_DefaultInterruptHandler 0001                       __size_of_acende_LED 0024  
               ??_ADC_SetInterruptHandler 000B                               _CCP1CONbits 000FBD  
                               _DelayXLCD 1016                         __size_of_INT0_ISR 0008  
                       __size_of_INT1_ISR 0008                         __size_of_INT2_ISR 0008  
            __end_of_INTERRUPT_Initialize 1050      __end_of_INT0_DefaultInterruptHandler 10A8  
   __size_of_INT0_DefaultInterruptHandler 0002              _INT0_DefaultInterruptHandler 10A6  
                           __pidataCOMRAM 109A                         __size_of_TMR0_ISR 0038  
                          _ADC_Initialize 0F5E                         ?_LCD_inicio_teste 0001  
                  ?_OSCILLATOR_Initialize 0001                     __end_of_INT0_CallBack 0F5E  
                      ??_LCD_inicio_teste 000C                            __end_of_strlen 0E6E  
                     start_initialization 0D8E                 __size_of_EPWM1_Initialize 0020  
                __size_of_TMR0_Initialize 0036           __size_of_PIN_MANAGER_Initialize 0046  
                   __end_of_INT1_CallBack 0F30                             _tecla_premida 0028  
                   __end_of_INT2_CallBack 0F02                          _teclado_coluna_1 0BD0  
                        _teclado_coluna_2 0B72                          _teclado_coluna_3 0A8A  
                       __size_of_BusyXLCD 0046                                ?_DelayXLCD 0001  
                         ??_DelayFor18TCY 0009                         __size_of_OpenXLCD 010A  
                           ?_WriteCmdXLCD 0001                    __end_of_ADC_Initialize 0F82  
                                ?_ADC_ISR 0001                __end_of_EXT_INT_Initialize 0E00  
         fp__INT0_DefaultInterruptHandler 0000             ?_INT0_DefaultInterruptHandler 0001  
                                ??_strlen 000B                               __pbssCOMRAM 0018  
        __end_of_INT0_SetInterruptHandler 1078                  __size_of_TMR2_Initialize 0010  
                   _INT2_InterruptHandler 002B                     _TMR0_InterruptHandler 0033  
                          putsXLCD@buffer 000A                    _PIN_MANAGER_Initialize 0C86  
                               __pintcode 0008                            ??_WriteCmdXLCD 0009  
                         ?_ADC_Initialize 0001                              ??_acende_LED 0003  
                             __pintcodelo 0018                          __CFG_PRICLKEN$ON 000000  
                       __size_of_putsXLCD 0072                     __end_of_WriteDataXLCD 0D50  
                             __smallconst 0600                ??_INT2_SetInterruptHandler 000B  
                                ?_strncat 000D                      _INTERRUPT_Initialize 1044  
                       ??_TMR0_Initialize 000B                                  _INT0_ISR 1092  
                                _INT1_ISR 108A                                  _INT2_ISR 1082  
                                _LATAbits 000F89                                  _LATBbits 000F8A  
                                _LATDbits 000F8C                        __end_of_acende_LED 0FA6  
       __size_of_INT1_SetInterruptHandler 000A                 ?_INT1_SetInterruptHandler 0009  
                             ??_DelayXLCD 0009                                  _IPR1bits 000F9F  
                                _PIE1bits 000F9D                             ?_DelayPORXLCD 0001  
              ??_TMR0_SetInterruptHandler 000B                                  _PIR1bits 000F9E  
                         OpenXLCD@lcdtype 0001                                 _temp_alar 0018  
                                _RCONbits 000FD0                          __CFG_WDTPS$32768 000000  
          fp__ADC_DefaultInterruptHandler 0000                                  _TMR0_ISR 0E00  
                                _PSTR1CON 000FB9                          __size_of_ADC_ISR 0030  
                              _ADCON0bits 000FC2                             _temp_alar_int 001A  
                        _EPWM1_Initialize 0FC8            ??_INT0_DefaultInterruptHandler 0001  
                             _INTCON2bits 000FF1                               _INTCON3bits 000FF0  
                               copy_data0 0DA2                     ?_INTERRUPT_Initialize 0001  
                _INT0_SetInterruptHandler 106E                                  _BusyXLCD 0CCC  
                             _LCD_linha_1 0037                               _LCD_linha_2 0035  
                            _tecla_limpar 0020                         ??_TMR2_Initialize 0009  
                          ??_DelayPORXLCD 0009                                  _OpenXLCD 090A  
                                __Hrparam 0000                                  __Lrparam 0000  
                     fp__teclado_coluna_1 0000                       fp__teclado_coluna_2 0000  
                     fp__teclado_coluna_3 0000                        __CFG_BOREN$SBORDIS 000000  
                       __CFG_P2BMX$PORTD2 000000                   ??_OSCILLATOR_Initialize 0009  
                __end_of_teclado_coluna_1 0C2E                  __end_of_teclado_coluna_2 0BD0  
                __end_of_teclado_coluna_3 0B00           ??_INTERRUPT_InterruptManagerLow 0004  
                                __ptext10 0DC8                                  __ptext11 105A  
                                __ptext20 090A                                  __ptext12 1064  
                                __ptext21 0D50                                  __ptext13 106E  
                                __ptext30 1082                                  __ptext22 1016  
                                __ptext14 0FC8                                  __ptext31 0ED4  
                                __ptext23 0FE8                                  __ptext15 0F5E  
                                __ptext40 0F30                                  __ptext32 10A2  
                                __ptext24 0CCC                                  __ptext16 1078  
                                __ptext41 10A6                                  __ptext33 0A8A  
                                __ptext25 1026                                  __ptext17 07E2  
                                __ptext42 0BD0                                  __ptext34 108A  
                                __ptext18 0B00                                  __ptext43 0EA4  
                                __ptext35 0F02                                  __ptext27 0E00  
                                __ptext19 0D12                                  __ptext44 10A8  
                                __ptext36 10A4                                  __ptext28 10A0  
                                __ptext45 0000                                  __ptext37 0B72  
                                __ptext29 0F82                                  __ptext39 1092  
                    __end_of_WriteCmdXLCD 0D8E                          __size_of_strncat 0076  
               __size_of_LCD_inicio_teste 0128                             __size_of_main 01AE  
    __end_of_TMR0_DefaultInterruptHandler 10A2     __size_of_TMR0_DefaultInterruptHandler 0002  
            _TMR0_DefaultInterruptHandler 10A0                                  _pin_real 001C  
                                _pin_intr 001E                                  int$flags 003B  
                                _putsXLCD 0B00      __end_of_INT1_DefaultInterruptHandler 10A6  
   __size_of_INT1_DefaultInterruptHandler 0002              _INT1_DefaultInterruptHandler 10A4  
                           fp__acende_LED 0000                                _INTCONbits 000FF2  
                    _contador_colunas_LCD 0039                    ??_INTERRUPT_Initialize 0009  
                      _EXT_INT_Initialize 0DC8                  ?_ADC_SetInterruptHandler 0009  
                                intlevel1 0000                                  intlevel2 0000  
                 ?_PIN_MANAGER_Initialize 0001                       ?_EXT_INT_Initialize 0001  
                        ??_ADC_Initialize 000B                    __size_of_INT0_CallBack 002E  
         fp__TMR0_DefaultInterruptHandler 0000             ?_TMR0_DefaultInterruptHandler 0001  
                   __end_of_DelayFor18TCY 1036                    __size_of_INT1_CallBack 002E  
                  __size_of_INT2_CallBack 002E    __end_of_INTERRUPT_InterruptManagerHigh 0C86  
 __size_of_INTERRUPT_InterruptManagerHigh 0C7E            _INTERRUPT_InterruptManagerHigh 0008  
                    ??_EXT_INT_Initialize 000B           fp__INT1_DefaultInterruptHandler 0000  
           ?_INT1_DefaultInterruptHandler 0001                      __end_of_DelayPORXLCD 1006  
                         _TMR0_Initialize 0E6E                                  strncat@d 000D  
                                strncat@n 0011                                  strncat@s 000F  
        __end_of_INT1_SetInterruptHandler 106E                         __CFG_T3CMX$PORTC0 000000  
                       __CFG_FOSC$ECMPIO6 000000     __end_of_INTERRUPT_InterruptManagerLow 00B2  
  __size_of_INTERRUPT_InterruptManagerLow 009A             _INTERRUPT_InterruptManagerLow 0018  
          __end_of_PIN_MANAGER_Initialize 0CCC                  __end_of_EPWM1_Initialize 0FE8  
