

Microchip MPLAB XC8 Assembler V2.10 build 88905656 
                                                                                               Tue Apr 28 14:22:14 2020

Microchip MPLAB XC8 C Compiler v2.10 (Free license) build 20190730164152 Og1 
     1                           	processor	18F45K22
     2                           	fnconf	rparam,??,?,0
     3                           	opt	pw 120
     4                           	opt	flic
     5                           	psect	idataBANK0,global,class=CODE,delta=1,noexec
     6                           	psect	nvBANK0,global,class=BANK0,space=1,delta=1,lowdata,noexec
     7                           	psect	smallconst,global,reloc=2,class=SMALLCONST,delta=1,noexec
     8                           	psect	cinit,global,reloc=2,class=CODE,delta=1
     9                           	psect	bssBANK0,global,class=BANK0,space=1,delta=1,lowdata,noexec
    10                           	psect	dataBANK0,global,class=BANK0,space=1,delta=1,lowdata,noexec
    11                           	psect	bssBANK1,global,class=BANK1,space=1,delta=1,lowdata,noexec
    12                           	psect	cstackBANK1,global,class=BANK1,space=1,delta=1,noexec
    13                           	psect	cstackBANK0,global,class=BANK0,space=1,delta=1,noexec
    14                           	psect	cstackCOMRAM,global,class=COMRAM,space=1,delta=1,noexec
    15                           	psect	text0,global,reloc=2,class=CODE,delta=1
    16                           	psect	text1,global,reloc=2,class=CODE,delta=1,group=2
    17                           	psect	text2,global,reloc=2,class=CODE,delta=1,group=2
    18                           	psect	text3,global,reloc=2,class=CODE,delta=1
    19                           	psect	text4,global,reloc=2,class=CODE,delta=1
    20                           	psect	text5,global,reloc=2,class=CODE,delta=1
    21                           	psect	text6,global,reloc=2,class=CODE,delta=1
    22                           	psect	text7,global,reloc=2,class=CODE,delta=1,group=2
    23                           	psect	text8,global,reloc=2,class=CODE,delta=1,group=2
    24                           	psect	text9,global,reloc=2,class=CODE,delta=1,group=2
    25                           	psect	text10,global,reloc=2,class=CODE,delta=1,group=2
    26                           	psect	text11,global,reloc=2,class=CODE,delta=1,group=2
    27                           	psect	text12,global,reloc=2,class=CODE,delta=1,group=1
    28                           	psect	text13,global,reloc=2,class=CODE,delta=1,group=1
    29                           	psect	text14,global,reloc=2,class=CODE,delta=1
    30                           	psect	text15,global,reloc=2,class=CODE,delta=1
    31                           	psect	text16,global,reloc=2,class=CODE,delta=1
    32                           	psect	text17,global,reloc=2,class=CODE,delta=1
    33                           	psect	text18,global,reloc=2,class=CODE,delta=1
    34                           	psect	text19,global,reloc=2,class=CODE,delta=1
    35                           	psect	text20,global,reloc=2,class=CODE,delta=1
    36                           	psect	text21,global,reloc=2,class=CODE,delta=1
    37                           	psect	text22,global,reloc=2,class=CODE,delta=1
    38                           	psect	text23,global,reloc=2,class=CODE,delta=1
    39                           	psect	text24,global,reloc=2,class=CODE,delta=1
    40                           	psect	text25,global,reloc=2,class=CODE,delta=1
    41                           	psect	text26,global,reloc=2,class=CODE,delta=1
    42                           	psect	text27,global,reloc=2,class=CODE,delta=1
    43                           	psect	text28,global,reloc=2,class=CODE,delta=1
    44                           	psect	text29,global,reloc=2,class=CODE,delta=1
    45                           	psect	text30,global,reloc=2,class=CODE,delta=1
    46                           	psect	text31,global,reloc=2,class=CODE,delta=1
    47                           	psect	text32,global,reloc=2,class=CODE,delta=1
    48                           	psect	text33,global,reloc=2,class=CODE,delta=1
    49                           	psect	text34,global,reloc=2,class=CODE,delta=1
    50                           	psect	text35,global,reloc=2,class=CODE,delta=1
    51                           	psect	text36,global,reloc=2,class=CODE,delta=1
    52                           	psect	intcode,global,reloc=2,class=CODE,delta=1
    53                           	psect	text38,global,reloc=2,class=CODE,delta=1
    54                           	psect	text39,global,reloc=2,class=CODE,delta=1
    55                           	psect	text40,global,reloc=2,class=CODE,delta=1
    56                           	psect	text41,global,reloc=2,class=CODE,delta=1
    57                           	psect	text42,global,reloc=2,class=CODE,delta=1
    58                           	psect	text43,global,reloc=2,class=CODE,delta=1
    59                           	psect	text44,global,reloc=2,class=CODE,delta=1
    60                           	psect	text45,global,reloc=2,class=CODE,delta=1
    61                           	psect	text46,global,reloc=2,class=CODE,delta=1
    62                           	psect	text47,global,reloc=2,class=CODE,delta=1
    63                           	psect	text48,global,reloc=2,class=CODE,delta=1
    64                           	psect	text49,global,reloc=2,class=CODE,delta=1
    65                           	psect	text50,global,reloc=2,class=CODE,delta=1
    66                           	psect	text51,global,reloc=2,class=CODE,delta=1
    67                           	psect	text52,global,reloc=2,class=CODE,delta=1
    68                           	psect	text53,global,reloc=2,class=CODE,delta=1
    69                           	psect	text54,global,reloc=2,class=CODE,delta=1
    70                           	psect	text55,global,reloc=2,class=CODE,delta=1
    71                           	psect	text56,global,reloc=2,class=CODE,delta=1
    72                           	psect	text57,global,reloc=2,class=CODE,delta=1,group=1
    73                           	psect	text58,global,reloc=2,class=CODE,delta=1,group=1
    74                           	psect	text59,global,reloc=2,class=CODE,delta=1,group=1
    75                           	psect	text60,global,reloc=2,class=CODE,delta=1,group=1
    76                           	psect	text61,global,reloc=2,class=CODE,delta=1,group=1
    77                           	psect	text62,global,reloc=2,class=CODE,delta=1
    78                           	psect	intsave_regs,global,class=BIGRAM,space=1,delta=1,noexec
    79                           	psect	text63,global,reloc=2,class=CODE,delta=1
    80                           	psect	rparam,global,class=COMRAM,space=1,delta=1,noexec
    81                           	psect	temp,global,ovrld,common,class=COMRAM,space=1,delta=1
    82  0000                     
    83                           ; Version 2.10
    84                           ; Generated 31/07/2019 GMT
    85                           ; 
    86                           ; Copyright © 2019, Microchip Technology Inc. and its subsidiaries ("Microchip")
    87                           ; All rights reserved.
    88                           ; 
    89                           ; This software is developed by Microchip Technology Inc. and its subsidiaries ("Microch
      +                          ip").
    90                           ; 
    91                           ; Redistribution and use in source and binary forms, with or without modification, are
    92                           ; permitted provided that the following conditions are met:
    93                           ; 
    94                           ;     1. Redistributions of source code must retain the above copyright notice, this lis
      +                          t of
    95                           ;        conditions and the following disclaimer.
    96                           ; 
    97                           ;     2. Redistributions in binary form must reproduce the above copyright notice, this 
      +                          list
    98                           ;        of conditions and the following disclaimer in the documentation and/or other
    99                           ;        materials provided with the distribution.
   100                           ; 
   101                           ;     3. Microchip's name may not be used to endorse or promote products derived from th
      +                          is
   102                           ;        software without specific prior written permission.
   103                           ; 
   104                           ; THIS SOFTWARE IS PROVIDED BY MICROCHIP "AS IS" AND ANY EXPRESS OR IMPLIED WARRANTIES,
   105                           ; INCLUDING, BUT NOT LIMITED TO, THE IMPLIED WARRANTIES OF MERCHANTABILITY AND FITNESS F
      +                          OR
   106                           ; PURPOSE ARE DISCLAIMED.  IN NO EVENT SHALL MICROCHIP BE LIABLE FOR ANY DIRECT, INDIREC
      +                          T,
   107                           ; INCIDENTAL, SPECIAL, EXEMPLARY, OR CONSEQUENTIAL DAMAGES (INCLUDING BUT NOT LIMITED TO
   108                           ; PROCUREMENT OF SUBSTITUTE GOODS OR SERVICES; LOSS OF USE, DATA OR PROFITS; OR BUSINESS
   109                           ; INTERRUPTION) HOWSOEVER CAUSED AND ON ANY THEORY OF LIABILITY, WHETHER IN CONTRACT, ST
      +                          RICT
   110                           ; LIABILITY, OR TORT (INCLUDING NEGLIGENCE OR OTHERWISE) ARISING IN ANY WAY OUT OF THE U
      +                          SE OF
   111                           ; THIS SOFTWARE, EVEN IF ADVISED OF THE POSSIBILITY OF SUCH DAMAGE.
   112                           ; 
   113                           ; 
   114                           ; Code-generator required, PIC18F45K22 Definitions
   115                           ; 
   116                           ; SFR Addresses
   117  0000                     
   118                           	psect	idataBANK0
   119  002BC8                     __pidataBANK0:
   120                           	opt callstack 0
   121                           
   122                           ;initializer for _LCD_linha_2
   123  002BC8  00C0               	dw	192
   124                           
   125                           ;initializer for _LCD_linha_1
   126  002BCA  0080               	dw	128
   127                           
   128                           ;initializer for _contador_colunas_LCD
   129  002BCC  00C0               	dw	192
   130                           
   131                           	psect	nvBANK0
   132  0000E9                     __pnvBANK0:
   133                           	opt callstack 0
   134  0000E9                     _ADC_InterruptHandler:
   135                           	opt callstack 0
   136  0000E9                     	ds	2
   137  0000EB                     _INT2_InterruptHandler:
   138                           	opt callstack 0
   139  0000EB                     	ds	2
   140  0000ED                     _INT1_InterruptHandler:
   141                           	opt callstack 0
   142  0000ED                     	ds	2
   143  0000EF                     _INT0_InterruptHandler:
   144                           	opt callstack 0
   145  0000EF                     	ds	2
   146  0000F1                     _timer0ReloadVal:
   147                           	opt callstack 0
   148  0000F1                     	ds	2
   149  0000F3                     _TMR0_InterruptHandler:
   150                           	opt callstack 0
   151  0000F3                     	ds	2
   152  0000                     _CCPTMRS0bits	set	3913
   153  0000                     _ANSELA	set	3896
   154  0000                     _ANSELE	set	3900
   155  0000                     _ANSELB	set	3897
   156  0000                     _ANSELC	set	3898
   157  0000                     _ANSELD	set	3899
   158  0000                     _PORTBbits	set	3969
   159  0000                     _LATDbits	set	3980
   160  0000                     _TRISDbits	set	3989
   161  0000                     _PORTD	set	3971
   162  0000                     _LATBbits	set	3978
   163  0000                     _CCP1CONbits	set	4029
   164  0000                     _LATAbits	set	3977
   165  0000                     _ADCON0bits	set	4034
   166  0000                     _ADRESH	set	4036
   167  0000                     _ADRESL	set	4035
   168  0000                     _ADCON2	set	4032
   169  0000                     _ADCON1	set	4033
   170  0000                     _ADCON0	set	4034
   171  0000                     _CCPR1L	set	4030
   172  0000                     _CCPR1H	set	4031
   173  0000                     _PSTR1CON	set	4025
   174  0000                     _PWM1CON	set	4023
   175  0000                     _ECCP1AS	set	4022
   176  0000                     _CCP1CON	set	4029
   177  0000                     _T2CONbits	set	4026
   178  0000                     _T2CON	set	4026
   179  0000                     _TMR2	set	4028
   180  0000                     _PR2	set	4027
   181  0000                     _WPUB	set	3937
   182  0000                     _TRISD	set	3989
   183  0000                     _TRISC	set	3988
   184  0000                     _TRISB	set	3987
   185  0000                     _TRISA	set	3986
   186  0000                     _TRISE	set	3990
   187  0000                     _LATC	set	3979
   188  0000                     _LATB	set	3978
   189  0000                     _LATA	set	3977
   190  0000                     _LATD	set	3980
   191  0000                     _LATE	set	3981
   192  0000                     _OSCTUNE	set	3995
   193  0000                     _OSCCON2	set	4050
   194  0000                     _OSCCON	set	4051
   195  0000                     _PIR1bits	set	3998
   196  0000                     _PIE1bits	set	3997
   197  0000                     _IPR1bits	set	3999
   198  0000                     _RCONbits	set	4048
   199  0000                     _INTCON2bits	set	4081
   200  0000                     _INTCON3bits	set	4080
   201  0000                     _T0CON	set	4053
   202  0000                     _INTCONbits	set	4082
   203  0000                     _TMR0L	set	4054
   204  0000                     _TMR0H	set	4055
   205  0000                     _T0CONbits	set	4053
   206                           
   207                           	psect	smallconst
   208  000600                     __psmallconst:
   209                           	opt callstack 0
   210  000600  00                 	db	0
   211  000601                     STR_2:
   212  000601  20                 	db	32
   213  000602  20                 	db	32
   214  000603  20                 	db	32
   215  000604  20                 	db	32
   216  000605  20                 	db	32
   217  000606  20                 	db	32
   218  000607  20                 	db	32
   219  000608  20                 	db	32
   220  000609  20                 	db	32
   221  00060A  20                 	db	32
   222  00060B  20                 	db	32
   223  00060C  20                 	db	32
   224  00060D  20                 	db	32
   225  00060E  20                 	db	32
   226  00060F  20                 	db	32
   227  000610  20                 	db	32
   228  000611  20                 	db	32
   229  000612  20                 	db	32
   230  000613  20                 	db	32
   231  000614  20                 	db	32
   232  000615  00                 	db	0
   233  000616                     STR_4:
   234  000616  54                 	db	84	;'T'
   235  000617  65                 	db	101	;'e'
   236  000618  73                 	db	115	;'s'
   237  000619  74                 	db	116	;'t'
   238  00061A  65                 	db	101	;'e'
   239  00061B  20                 	db	32
   240  00061C  2D                 	db	45
   241  00061D  20                 	db	32
   242  00061E  54                 	db	84	;'T'
   243  00061F  65                 	db	101	;'e'
   244  000620  63                 	db	99	;'c'
   245  000621  6C                 	db	108	;'l'
   246  000622  61                 	db	97	;'a'
   247  000623  64                 	db	100	;'d'
   248  000624  6F                 	db	111	;'o'
   249  000625  00                 	db	0
   250  000626                     STR_3:
   251  000626  4D                 	db	77	;'M'
   252  000627  61                 	db	97	;'a'
   253  000628  72                 	db	114	;'r'
   254  000629  73                 	db	115	;'s'
   255  00062A  20                 	db	32
   256  00062B  52                 	db	82	;'R'
   257  00062C  4F                 	db	79	;'O'
   258  00062D  43                 	db	67	;'C'
   259  00062E  4B                 	db	75	;'K'
   260  00062F  27                 	db	39
   261  000630  53                 	db	83	;'S'
   262  000631  21                 	db	33
   263  000632  00                 	db	0
   264  000633                     STR_1:
   265  000633  74                 	db	116	;'t'
   266  000634  65                 	db	101	;'e'
   267  000635  6D                 	db	109	;'m'
   268  000636  70                 	db	112	;'p'
   269  000637  20                 	db	32
   270  000638  3D                 	db	61	;'='
   271  000639  20                 	db	32
   272  00063A  25                 	db	37
   273  00063B  64                 	db	100	;'d'
   274  00063C  00                 	db	0
   275                           
   276                           ; #config settings
   277  00063D  00                 	db	0	; dummy byte at the end
   278  0000                     
   279                           	psect	cinit
   280  00271E                     __pcinit:
   281                           	opt callstack 0
   282  00271E                     start_initialization:
   283                           	opt callstack 0
   284  00271E                     __initialization:
   285                           	opt callstack 0
   286                           
   287                           ; Initialize objects allocated to BANK0 (6 bytes)
   288                           ; load TBLPTR registers with __pidataBANK0
   289  00271E  0EC8               	movlw	low __pidataBANK0
   290  002720  6EF6               	movwf	tblptrl,c
   291  002722  0E2B               	movlw	high __pidataBANK0
   292  002724  6EF7               	movwf	tblptrh,c
   293  002726  0E00               	movlw	low (__pidataBANK0 shr (0+16))
   294  002728  6EF8               	movwf	tblptru,c
   295  00272A  EE00  F0F5         	lfsr	0,__pdataBANK0
   296  00272E  EE10 F006          	lfsr	1,6
   297  002732                     copy_data0:
   298  002732  0009               	tblrd		*+
   299  002734  CFF5 FFEE          	movff	tablat,postinc0
   300  002738  50E5               	movf	postdec1,w,c
   301  00273A  50E1               	movf	fsr1l,w,c
   302  00273C  E1FA               	bnz	copy_data0
   303                           
   304                           ; Clear objects allocated to BANK1 (36 bytes)
   305  00273E  EE01  F000         	lfsr	0,__pbssBANK1
   306  002742  0E24               	movlw	36
   307  002744                     clear_0:
   308  002744  6AEE               	clrf	postinc0,c
   309  002746  06E8               	decf	wreg,f,c
   310  002748  E1FD               	bnz	clear_0
   311                           
   312                           ; Clear objects allocated to BANK0 (29 bytes)
   313  00274A  EE00  F0CC         	lfsr	0,__pbssBANK0
   314  00274E  0E1D               	movlw	29
   315  002750                     clear_1:
   316  002750  6AEE               	clrf	postinc0,c
   317  002752  06E8               	decf	wreg,f,c
   318  002754  E1FD               	bnz	clear_1
   319  002756                     end_of_initialization:
   320                           	opt callstack 0
   321  002756                     __end_of__initialization:
   322                           	opt callstack 0
   323  002756  905F               	bcf	int$flags,0,c	;clear compiler interrupt flag (level 1)
   324  002758  925F               	bcf	int$flags,1,c	;clear compiler interrupt flag (level 2)
   325  00275A  0E00               	movlw	low (__Lmediumconst shr (0+16))
   326  00275C  6EF8               	movwf	tblptru,c
   327  00275E  0100               	movlb	0
   328  002760  EFD3  F00A         	goto	_main	;jump to C main() function
   329                           
   330                           	psect	bssBANK0
   331  0000CC                     __pbssBANK0:
   332                           	opt callstack 0
   333  0000CC                     _nout:
   334                           	opt callstack 0
   335  0000CC                     	ds	2
   336  0000CE                     _width:
   337                           	opt callstack 0
   338  0000CE                     	ds	2
   339  0000D0                     _prec:
   340                           	opt callstack 0
   341  0000D0                     	ds	2
   342  0000D2                     _flags:
   343                           	opt callstack 0
   344  0000D2                     	ds	2
   345  0000D4                     _temp_ambiente:
   346                           	opt callstack 0
   347  0000D4                     	ds	2
   348  0000D6                     _codigo_digital:
   349                           	opt callstack 0
   350  0000D6                     	ds	2
   351  0000D8                     _temp_alar:
   352                           	opt callstack 0
   353  0000D8                     	ds	2
   354  0000DA                     _temp_alar_int:
   355                           	opt callstack 0
   356  0000DA                     	ds	2
   357  0000DC                     _pin_real:
   358                           	opt callstack 0
   359  0000DC                     	ds	2
   360  0000DE                     _pin_intr:
   361                           	opt callstack 0
   362  0000DE                     	ds	2
   363  0000E0                     _tecla_limpar:
   364                           	opt callstack 0
   365  0000E0                     	ds	2
   366  0000E2                     _tecla_n:
   367                           	opt callstack 0
   368  0000E2                     	ds	2
   369  0000E4                     _pin:
   370                           	opt callstack 0
   371  0000E4                     	ds	4
   372  0000E8                     _tecla_premida:
   373                           	opt callstack 0
   374  0000E8                     	ds	1
   375                           
   376                           	psect	dataBANK0
   377  0000F5                     __pdataBANK0:
   378                           	opt callstack 0
   379  0000F5                     _LCD_linha_2:
   380                           	opt callstack 0
   381  0000F5                     	ds	2
   382  0000F7                     _LCD_linha_1:
   383                           	opt callstack 0
   384  0000F7                     	ds	2
   385  0000F9                     _contador_colunas_LCD:
   386                           	opt callstack 0
   387  0000F9                     	ds	2
   388                           
   389                           	psect	bssBANK1
   390  000100                     __pbssBANK1:
   391                           	opt callstack 0
   392  000100                     _dbuf:
   393                           	opt callstack 0
   394  000100                     	ds	32
   395  000120                     _temp_ambiente_LCD:
   396                           	opt callstack 0
   397  000120                     	ds	4
   398                           
   399                           	psect	cstackBANK1
   400  000124                     __pcstackBANK1:
   401                           	opt callstack 0
   402  000124                     main@contador_caracteres:
   403                           	opt callstack 0
   404                           
   405                           ; 2 bytes @ 0x0
   406  000124                     	ds	2
   407                           
   408                           	psect	cstackBANK0
   409  000060                     __pcstackBANK0:
   410                           	opt callstack 0
   411  000060                     ??_INTERRUPT_InterruptManagerHigh:
   412                           
   413                           ; 1 bytes @ 0x0
   414  000060                     	ds	4
   415  000064                     ??_DelayPORXLCD:
   416  000064                     ??_DelayXLCD:
   417  000064                     ?_strlen:
   418                           	opt callstack 0
   419  000064                     ?___aodiv:
   420                           	opt callstack 0
   421  000064                     ?___aomod:
   422                           	opt callstack 0
   423  000064                     WriteCmdXLCD@cmd:
   424                           	opt callstack 0
   425  000064                     WriteDataXLCD@data:
   426                           	opt callstack 0
   427  000064                     TMR0_SetInterruptHandler@InterruptHandler:
   428                           	opt callstack 0
   429  000064                     INT0_SetInterruptHandler@InterruptHandler:
   430                           	opt callstack 0
   431  000064                     INT1_SetInterruptHandler@InterruptHandler:
   432                           	opt callstack 0
   433  000064                     INT2_SetInterruptHandler@InterruptHandler:
   434                           	opt callstack 0
   435  000064                     ADC_SetInterruptHandler@InterruptHandler:
   436                           	opt callstack 0
   437  000064                     fputc@c:
   438                           	opt callstack 0
   439  000064                     strlen@s:
   440                           	opt callstack 0
   441  000064                     ___aodiv@dividend:
   442                           	opt callstack 0
   443  000064                     ___aomod@dividend:
   444                           	opt callstack 0
   445                           
   446                           ; 8 bytes @ 0x4
   447  000064                     	ds	1
   448  000065                     putsXLCD@buffer:
   449                           	opt callstack 0
   450                           
   451                           ; 2 bytes @ 0x5
   452  000065                     	ds	1
   453  000066                     ??_TMR0_Initialize:
   454  000066                     fputc@fp:
   455                           	opt callstack 0
   456  000066                     strlen@a:
   457                           	opt callstack 0
   458                           
   459                           ; 2 bytes @ 0x6
   460  000066                     	ds	1
   461  000067                     ??_LCD_inicio_teste:
   462  000067                     
   463                           ; 1 bytes @ 0x7
   464  000067                     	ds	1
   465  000068                     ??_fputc:
   466  000068                     strncat@d:
   467                           	opt callstack 0
   468                           
   469                           ; 2 bytes @ 0x8
   470  000068                     	ds	2
   471  00006A                     strncat@s:
   472                           	opt callstack 0
   473                           
   474                           ; 2 bytes @ 0xA
   475  00006A                     	ds	2
   476  00006C                     strncat@n:
   477                           	opt callstack 0
   478  00006C                     ___aodiv@divisor:
   479                           	opt callstack 0
   480  00006C                     ___aomod@divisor:
   481                           	opt callstack 0
   482                           
   483                           ; 8 bytes @ 0xC
   484  00006C                     	ds	1
   485  00006D                     fputs@s:
   486                           	opt callstack 0
   487                           
   488                           ; 2 bytes @ 0xD
   489  00006D                     	ds	1
   490  00006E                     
   491                           ; 1 bytes @ 0xE
   492  00006E                     	ds	1
   493  00006F                     fputs@fp:
   494                           	opt callstack 0
   495                           
   496                           ; 2 bytes @ 0xF
   497  00006F                     	ds	2
   498  000071                     fputs@c:
   499                           	opt callstack 0
   500                           
   501                           ; 1 bytes @ 0x11
   502  000071                     	ds	1
   503  000072                     fputs@i:
   504                           	opt callstack 0
   505                           
   506                           ; 2 bytes @ 0x12
   507  000072                     	ds	2
   508  000074                     ?_pad:
   509                           	opt callstack 0
   510  000074                     ___aodiv@counter:
   511                           	opt callstack 0
   512  000074                     ___aomod@counter:
   513                           	opt callstack 0
   514  000074                     pad@fp:
   515                           	opt callstack 0
   516                           
   517                           ; 2 bytes @ 0x14
   518  000074                     	ds	1
   519  000075                     ___aodiv@sign:
   520                           	opt callstack 0
   521  000075                     ___aomod@sign:
   522                           	opt callstack 0
   523                           
   524                           ; 1 bytes @ 0x15
   525  000075                     	ds	1
   526  000076                     ?_abs:
   527                           	opt callstack 0
   528  000076                     pad@buf:
   529                           	opt callstack 0
   530  000076                     abs@a:
   531                           	opt callstack 0
   532  000076                     ___aodiv@quotient:
   533                           	opt callstack 0
   534                           
   535                           ; 8 bytes @ 0x16
   536  000076                     	ds	2
   537  000078                     ??_abs:
   538  000078                     pad@p:
   539                           	opt callstack 0
   540                           
   541                           ; 2 bytes @ 0x18
   542  000078                     	ds	2
   543  00007A                     ??_pad:
   544                           
   545                           ; 1 bytes @ 0x1A
   546  00007A                     	ds	1
   547  00007B                     pad@i:
   548                           	opt callstack 0
   549                           
   550                           ; 2 bytes @ 0x1B
   551  00007B                     	ds	2
   552  00007D                     pad@w:
   553                           	opt callstack 0
   554                           
   555                           ; 2 bytes @ 0x1D
   556  00007D                     	ds	2
   557  00007F                     ?_dtoa:
   558                           	opt callstack 0
   559  00007F                     dtoa@fp:
   560                           	opt callstack 0
   561                           
   562                           ; 2 bytes @ 0x1F
   563  00007F                     	ds	2
   564  000081                     dtoa@d:
   565                           	opt callstack 0
   566                           
   567                           ; 8 bytes @ 0x21
   568  000081                     	ds	8
   569  000089                     ??_dtoa:
   570                           
   571                           ; 1 bytes @ 0x29
   572  000089                     	ds	8
   573  000091                     _dtoa$1517:
   574                           	opt callstack 0
   575                           
   576                           ; 2 bytes @ 0x31
   577  000091                     	ds	2
   578  000093                     dtoa@p:
   579                           	opt callstack 0
   580                           
   581                           ; 2 bytes @ 0x33
   582  000093                     	ds	2
   583  000095                     dtoa@w:
   584                           	opt callstack 0
   585                           
   586                           ; 2 bytes @ 0x35
   587  000095                     	ds	2
   588  000097                     dtoa@s:
   589                           	opt callstack 0
   590                           
   591                           ; 2 bytes @ 0x37
   592  000097                     	ds	2
   593  000099                     dtoa@n:
   594                           	opt callstack 0
   595                           
   596                           ; 8 bytes @ 0x39
   597  000099                     	ds	8
   598  0000A1                     dtoa@i:
   599                           	opt callstack 0
   600                           
   601                           ; 2 bytes @ 0x41
   602  0000A1                     	ds	2
   603  0000A3                     ?_vfpfcnvrt:
   604                           	opt callstack 0
   605  0000A3                     vfpfcnvrt@fp:
   606                           	opt callstack 0
   607                           
   608                           ; 2 bytes @ 0x43
   609  0000A3                     	ds	2
   610  0000A5                     vfpfcnvrt@fmt:
   611                           	opt callstack 0
   612                           
   613                           ; 2 bytes @ 0x45
   614  0000A5                     	ds	2
   615  0000A7                     vfpfcnvrt@ap:
   616                           	opt callstack 0
   617                           
   618                           ; 2 bytes @ 0x47
   619  0000A7                     	ds	2
   620  0000A9                     ??_vfpfcnvrt:
   621                           
   622                           ; 1 bytes @ 0x49
   623  0000A9                     	ds	2
   624  0000AB                     vfpfcnvrt@ll:
   625                           	opt callstack 0
   626                           
   627                           ; 8 bytes @ 0x4B
   628  0000AB                     	ds	8
   629  0000B3                     ?_vfprintf:
   630                           	opt callstack 0
   631  0000B3                     vfprintf@fp:
   632                           	opt callstack 0
   633                           
   634                           ; 2 bytes @ 0x53
   635  0000B3                     	ds	2
   636  0000B5                     vfprintf@fmt:
   637                           	opt callstack 0
   638                           
   639                           ; 2 bytes @ 0x55
   640  0000B5                     	ds	2
   641  0000B7                     vfprintf@ap:
   642                           	opt callstack 0
   643                           
   644                           ; 2 bytes @ 0x57
   645  0000B7                     	ds	2
   646  0000B9                     vfprintf@cfmt:
   647                           	opt callstack 0
   648                           
   649                           ; 2 bytes @ 0x59
   650  0000B9                     	ds	2
   651  0000BB                     ?_sprintf:
   652                           	opt callstack 0
   653  0000BB                     sprintf@s:
   654                           	opt callstack 0
   655                           
   656                           ; 2 bytes @ 0x5B
   657  0000BB                     	ds	2
   658  0000BD                     sprintf@fmt:
   659                           	opt callstack 0
   660                           
   661                           ; 2 bytes @ 0x5D
   662  0000BD                     	ds	4
   663  0000C1                     
   664                           ; 1 bytes @ 0x61
   665  0000C1                     	ds	2
   666  0000C3                     sprintf@ap:
   667                           	opt callstack 0
   668                           
   669                           ; 2 bytes @ 0x63
   670  0000C3                     	ds	2
   671  0000C5                     sprintf@f:
   672                           	opt callstack 0
   673                           
   674                           ; 6 bytes @ 0x65
   675  0000C5                     	ds	6
   676  0000CB                     ??_main:
   677                           
   678                           ; 1 bytes @ 0x6B
   679  0000CB                     	ds	1
   680                           
   681                           	psect	cstackCOMRAM
   682  000001                     __pcstackCOMRAM:
   683                           	opt callstack 0
   684  000001                     ??_Timer_0:
   685  000001                     ?_ADC_GetConversionResult:
   686                           	opt callstack 0
   687  000001                     ?___xxtofl:
   688                           	opt callstack 0
   689  000001                     ___xxtofl@val:
   690                           	opt callstack 0
   691                           
   692                           ; 4 bytes @ 0x0
   693  000001                     	ds	1
   694  000002                     
   695                           ; 1 bytes @ 0x1
   696  000002                     	ds	1
   697  000003                     ??_ADC_GetConversionResult:
   698                           
   699                           ; 1 bytes @ 0x2
   700  000003                     	ds	2
   701  000005                     ??___xxtofl:
   702                           
   703                           ; 1 bytes @ 0x4
   704  000005                     	ds	4
   705  000009                     ___xxtofl@sign:
   706                           	opt callstack 0
   707                           
   708                           ; 1 bytes @ 0x8
   709  000009                     	ds	1
   710  00000A                     ___xxtofl@exp:
   711                           	opt callstack 0
   712                           
   713                           ; 1 bytes @ 0x9
   714  00000A                     	ds	1
   715  00000B                     ___xxtofl@arg:
   716                           	opt callstack 0
   717                           
   718                           ; 4 bytes @ 0xA
   719  00000B                     	ds	4
   720  00000F                     ?___flmul:
   721                           	opt callstack 0
   722  00000F                     ___flmul@b:
   723                           	opt callstack 0
   724                           
   725                           ; 4 bytes @ 0xE
   726  00000F                     	ds	4
   727  000013                     ___flmul@a:
   728                           	opt callstack 0
   729                           
   730                           ; 4 bytes @ 0x12
   731  000013                     	ds	4
   732  000017                     ??___flmul:
   733                           
   734                           ; 1 bytes @ 0x16
   735  000017                     	ds	4
   736  00001B                     ___flmul@sign:
   737                           	opt callstack 0
   738                           
   739                           ; 1 bytes @ 0x1A
   740  00001B                     	ds	1
   741  00001C                     ___flmul@grs:
   742                           	opt callstack 0
   743                           
   744                           ; 4 bytes @ 0x1B
   745  00001C                     	ds	4
   746  000020                     ___flmul@aexp:
   747                           	opt callstack 0
   748                           
   749                           ; 1 bytes @ 0x1F
   750  000020                     	ds	1
   751  000021                     ___flmul@bexp:
   752                           	opt callstack 0
   753                           
   754                           ; 1 bytes @ 0x20
   755  000021                     	ds	1
   756  000022                     ___flmul@prod:
   757                           	opt callstack 0
   758                           
   759                           ; 4 bytes @ 0x21
   760  000022                     	ds	4
   761  000026                     ___flmul@temp:
   762                           	opt callstack 0
   763                           
   764                           ; 2 bytes @ 0x25
   765  000026                     	ds	2
   766  000028                     ?___fladd:
   767                           	opt callstack 0
   768  000028                     ___fladd@b:
   769                           	opt callstack 0
   770                           
   771                           ; 4 bytes @ 0x27
   772  000028                     	ds	4
   773  00002C                     ___fladd@a:
   774                           	opt callstack 0
   775                           
   776                           ; 4 bytes @ 0x2B
   777  00002C                     	ds	4
   778  000030                     ??___fladd:
   779                           
   780                           ; 1 bytes @ 0x2F
   781  000030                     	ds	4
   782  000034                     ___fladd@signs:
   783                           	opt callstack 0
   784                           
   785                           ; 1 bytes @ 0x33
   786  000034                     	ds	1
   787  000035                     ___fladd@aexp:
   788                           	opt callstack 0
   789                           
   790                           ; 1 bytes @ 0x34
   791  000035                     	ds	1
   792  000036                     ___fladd@bexp:
   793                           	opt callstack 0
   794                           
   795                           ; 1 bytes @ 0x35
   796  000036                     	ds	1
   797  000037                     ___fladd@grs:
   798                           	opt callstack 0
   799                           
   800                           ; 1 bytes @ 0x36
   801  000037                     	ds	1
   802  000038                     ?___fldiv:
   803                           	opt callstack 0
   804  000038                     ___fldiv@b:
   805                           	opt callstack 0
   806                           
   807                           ; 4 bytes @ 0x37
   808  000038                     	ds	4
   809  00003C                     ___fldiv@a:
   810                           	opt callstack 0
   811                           
   812                           ; 4 bytes @ 0x3B
   813  00003C                     	ds	4
   814  000040                     ??___fldiv:
   815                           
   816                           ; 1 bytes @ 0x3F
   817  000040                     	ds	4
   818  000044                     ___fldiv@rem:
   819                           	opt callstack 0
   820                           
   821                           ; 4 bytes @ 0x43
   822  000044                     	ds	4
   823  000048                     ___fldiv@sign:
   824                           	opt callstack 0
   825                           
   826                           ; 1 bytes @ 0x47
   827  000048                     	ds	1
   828  000049                     ___fldiv@new_exp:
   829                           	opt callstack 0
   830                           
   831                           ; 2 bytes @ 0x48
   832  000049                     	ds	2
   833  00004B                     ___fldiv@grs:
   834                           	opt callstack 0
   835                           
   836                           ; 4 bytes @ 0x4A
   837  00004B                     	ds	4
   838  00004F                     ___fldiv@bexp:
   839                           	opt callstack 0
   840                           
   841                           ; 1 bytes @ 0x4E
   842  00004F                     	ds	1
   843  000050                     ___fldiv@aexp:
   844                           	opt callstack 0
   845                           
   846                           ; 1 bytes @ 0x4F
   847  000050                     	ds	1
   848  000051                     ?___fltol:
   849                           	opt callstack 0
   850  000051                     ___fltol@f1:
   851                           	opt callstack 0
   852                           
   853                           ; 4 bytes @ 0x50
   854  000051                     	ds	4
   855  000055                     ??___fltol:
   856                           
   857                           ; 1 bytes @ 0x54
   858  000055                     	ds	4
   859  000059                     ___fltol@sign1:
   860                           	opt callstack 0
   861                           
   862                           ; 1 bytes @ 0x58
   863  000059                     	ds	1
   864  00005A                     ___fltol@exp1:
   865                           	opt callstack 0
   866                           
   867                           ; 1 bytes @ 0x59
   868  00005A                     	ds	1
   869  00005B                     _ADC_temperatura$2330:
   870                           	opt callstack 0
   871                           
   872                           ; 4 bytes @ 0x5A
   873  00005B                     	ds	4
   874  00005F                     
   875                           ; 1 bytes @ 0x5E
   876 ;;
   877 ;;Main: autosize = 0, tempsize = 1, incstack = 0, save=0
   878 ;;
   879 ;; *************** function _main *****************
   880 ;; Defined at:
   881 ;;		line 88 in file "main.c"
   882 ;; Parameters:    Size  Location     Type
   883 ;;		None
   884 ;; Auto vars:     Size  Location     Type
   885 ;;  contador_car    2    0[BANK1 ] int 
   886 ;; Return value:  Size  Location     Type
   887 ;;                  1    wreg      void 
   888 ;; Registers used:
   889 ;;		wreg, fsr1l, fsr1h, fsr2l, fsr2h, status,2, status,0, tblptrl, tblptrh, tblptru, cstack
   890 ;; Tracked objects:
   891 ;;		On entry : 0/0
   892 ;;		On exit  : 0/0
   893 ;;		Unchanged: 0/0
   894 ;; Data sizes:     COMRAM   BANK0   BANK1   BANK2   BANK3   BANK4   BANK5
   895 ;;      Params:         0       0       0       0       0       0       0
   896 ;;      Locals:         0       0       2       0       0       0       0
   897 ;;      Temps:          0       1       0       0       0       0       0
   898 ;;      Totals:         0       1       2       0       0       0       0
   899 ;;Total ram usage:        3 bytes
   900 ;; Hardware stack levels required when called:   12
   901 ;; This function calls:
   902 ;;		_ADC_SetInterruptHandler
   903 ;;		_BusyXLCD
   904 ;;		_INT0_SetInterruptHandler
   905 ;;		_INT1_SetInterruptHandler
   906 ;;		_INT2_SetInterruptHandler
   907 ;;		_LCD_inicio_teste
   908 ;;		_SYSTEM_Initialize
   909 ;;		_TMR0_SetInterruptHandler
   910 ;;		_WriteCmdXLCD
   911 ;;		_putsXLCD
   912 ;;		_sprintf
   913 ;;		_strncat
   914 ;; This function is called by:
   915 ;;		Startup code after reset
   916 ;; This function uses a non-reentrant model
   917 ;;
   918                           
   919                           	psect	text0
   920  0015A6                     __ptext0:
   921                           	opt callstack 0
   922  0015A6                     _main:
   923                           	opt callstack 19
   924  0015A6                     
   925                           ;main.c: 91:     SYSTEM_Initialize();
   926  0015A6  EC6D  F015         	call	_SYSTEM_Initialize	;wreg free
   927  0015AA                     
   928                           ;main.c: 103:     (INTCONbits.GIEH = 1);
   929  0015AA  8EF2               	bsf	242,7,c	;volatile
   930  0015AC                     
   931                           ;main.c: 135:     int contador_caracteres = 4;
   932  0015AC  0E00               	movlw	0
   933  0015AE  0101               	movlb	1	; () banked
   934  0015B0  6F25               	movwf	(main@contador_caracteres+1)& (0+255),b
   935  0015B2  0E04               	movlw	4
   936  0015B4  6F24               	movwf	main@contador_caracteres& (0+255),b
   937  0015B6                     
   938                           ; BSR set to: 1
   939                           ;main.c: 138:     LCD_inicio_teste();
   940  0015B6  EC1B  F00F         	call	_LCD_inicio_teste	;wreg free
   941  0015BA                     
   942                           ;main.c: 141:     TMR0_SetInterruptHandler (Timer_0);
   943  0015BA  0E66               	movlw	low _Timer_0
   944  0015BC  0100               	movlb	0	; () banked
   945  0015BE  6F64               	movwf	TMR0_SetInterruptHandler@InterruptHandler& (0+255),b
   946  0015C0  0E2A               	movlw	high _Timer_0
   947  0015C2  6F65               	movwf	(TMR0_SetInterruptHandler@InterruptHandler+1)& (0+255),b
   948  0015C4  ECBF  F015         	call	_TMR0_SetInterruptHandler	;wreg free
   949  0015C8                     
   950                           ;main.c: 144:     INT0_SetInterruptHandler (teclado_coluna_1);
   951  0015C8  0EBA               	movlw	low _teclado_coluna_1
   952  0015CA  0100               	movlb	0	; () banked
   953  0015CC  6F64               	movwf	INT0_SetInterruptHandler@InterruptHandler& (0+255),b
   954  0015CE  0E25               	movlw	high _teclado_coluna_1
   955  0015D0  6F65               	movwf	(INT0_SetInterruptHandler@InterruptHandler+1)& (0+255),b
   956  0015D2  ECCE  F015         	call	_INT0_SetInterruptHandler	;wreg free
   957  0015D6                     
   958                           ;main.c: 145:     INT1_SetInterruptHandler (teclado_coluna_2);
   959  0015D6  0E52               	movlw	low _teclado_coluna_2
   960  0015D8  0100               	movlb	0	; () banked
   961  0015DA  6F64               	movwf	INT1_SetInterruptHandler@InterruptHandler& (0+255),b
   962  0015DC  0E25               	movlw	high _teclado_coluna_2
   963  0015DE  6F65               	movwf	(INT1_SetInterruptHandler@InterruptHandler+1)& (0+255),b
   964  0015E0  ECC9  F015         	call	_INT1_SetInterruptHandler	;wreg free
   965  0015E4                     
   966                           ;main.c: 146:     INT2_SetInterruptHandler (teclado_coluna_3);
   967  0015E4  0E66               	movlw	low _teclado_coluna_3
   968  0015E6  0100               	movlb	0	; () banked
   969  0015E8  6F64               	movwf	INT2_SetInterruptHandler@InterruptHandler& (0+255),b
   970  0015EA  0E24               	movlw	high _teclado_coluna_3
   971  0015EC  6F65               	movwf	(INT2_SetInterruptHandler@InterruptHandler+1)& (0+255),b
   972  0015EE  ECC4  F015         	call	_INT2_SetInterruptHandler	;wreg free
   973  0015F2                     
   974                           ;main.c: 149:     ADC_SetInterruptHandler(ADC_temperatura);
   975  0015F2  0E76               	movlw	low _ADC_temperatura
   976  0015F4  0100               	movlb	0	; () banked
   977  0015F6  6F64               	movwf	ADC_SetInterruptHandler@InterruptHandler& (0+255),b
   978  0015F8  0E21               	movlw	high _ADC_temperatura
   979  0015FA  6F65               	movwf	(ADC_SetInterruptHandler@InterruptHandler+1)& (0+255),b
   980  0015FC  ECD3  F015         	call	_ADC_SetInterruptHandler	;wreg free
   981  001600                     
   982                           ;main.c: 151:     CCP1CONbits.CCP1M = 0000;
   983  001600  0EF0               	movlw	-16
   984  001602  16BD               	andwf	189,f,c	;volatile
   985  001604                     l5021:
   986                           
   987                           ;main.c: 154:     {;main.c: 156:         sprintf(temp_ambiente_LCD, "temp = %d", temp_am
      +                          biente);
   988  001604  0E20               	movlw	low _temp_ambiente_LCD
   989  001606  0100               	movlb	0	; () banked
   990  001608  6FBB               	movwf	sprintf@s& (0+255),b
   991  00160A  0E01               	movlw	high _temp_ambiente_LCD
   992  00160C  6FBC               	movwf	(sprintf@s+1)& (0+255),b
   993  00160E  0E33               	movlw	low STR_1
   994  001610  6FBD               	movwf	sprintf@fmt& (0+255),b
   995  001612  0E06               	movlw	high STR_1
   996  001614  6FBE               	movwf	(sprintf@fmt+1)& (0+255),b
   997  001616  C0D4  F0BF         	movff	_temp_ambiente,?_sprintf+4
   998  00161A  C0D5  F0C0         	movff	_temp_ambiente+1,?_sprintf+5
   999  00161E  EC42  F013         	call	_sprintf	;wreg free
  1000  001622  0EC0               	movlw	192
  1001  001624  EC1A  F014         	call	_WriteCmdXLCD
  1002  001628                     l5025:
  1003  001628  ECD5  F013         	call	_BusyXLCD	;wreg free
  1004  00162C  0900               	iorlw	0
  1005  00162E  A4D8               	btfss	status,2,c
  1006  001630  EF1C  F00B         	goto	u4911
  1007  001634  EF1E  F00B         	goto	u4910
  1008  001638                     u4911:
  1009  001638  EF14  F00B         	goto	l5025
  1010  00163C                     u4910:
  1011  00163C                     
  1012                           ;main.c: 165:         putsXLCD(temp_ambiente_LCD);
  1013  00163C  0E20               	movlw	low _temp_ambiente_LCD
  1014  00163E  0100               	movlb	0	; () banked
  1015  001640  6F65               	movwf	putsXLCD@buffer& (0+255),b
  1016  001642  0E01               	movlw	high _temp_ambiente_LCD
  1017  001644  6F66               	movwf	(putsXLCD@buffer+1)& (0+255),b
  1018  001646  EC6F  F012         	call	_putsXLCD	;wreg free
  1019  00164A                     l5029:
  1020  00164A  ECD5  F013         	call	_BusyXLCD	;wreg free
  1021  00164E  0900               	iorlw	0
  1022  001650  A4D8               	btfss	status,2,c
  1023  001652  EF2D  F00B         	goto	u4921
  1024  001656  EF2F  F00B         	goto	u4920
  1025  00165A                     u4921:
  1026  00165A  EF25  F00B         	goto	l5029
  1027  00165E                     u4920:
  1028  00165E                     
  1029                           ;main.c: 169:         if (tecla_premida == '2'){
  1030  00165E  0E32               	movlw	50
  1031  001660  0100               	movlb	0	; () banked
  1032  001662  19E8               	xorwf	_tecla_premida& (0+255),w,b
  1033  001664  A4D8               	btfss	status,2,c
  1034  001666  EF37  F00B         	goto	u4931
  1035  00166A  EF39  F00B         	goto	u4930
  1036  00166E                     u4931:
  1037  00166E  EF3B  F00B         	goto	l5035
  1038  001672                     u4930:
  1039  001672                     
  1040                           ; BSR set to: 0
  1041                           ;main.c: 171:             CCP1CONbits.CCP1M = 0000;
  1042  001672  0EF0               	movlw	-16
  1043  001674  16BD               	andwf	189,f,c	;volatile
  1044  001676                     l5035:
  1045                           
  1046                           ; BSR set to: 0
  1047                           ;main.c: 174:         if (tecla_premida == '1'){
  1048  001676  0E31               	movlw	49
  1049  001678  19E8               	xorwf	_tecla_premida& (0+255),w,b
  1050  00167A  A4D8               	btfss	status,2,c
  1051  00167C  EF42  F00B         	goto	u4941
  1052  001680  EF44  F00B         	goto	u4940
  1053  001684                     u4941:
  1054  001684  EF48  F00B         	goto	l5039
  1055  001688                     u4940:
  1056  001688                     
  1057                           ; BSR set to: 0
  1058                           ;main.c: 176:             CCP1CONbits.CCP1M = 1100;
  1059  001688  50BD               	movf	189,w,c	;volatile
  1060  00168A  0BF0               	andlw	-16
  1061  00168C  090C               	iorlw	12
  1062  00168E  6EBD               	movwf	189,c	;volatile
  1063  001690                     l5039:
  1064                           
  1065                           ; BSR set to: 0
  1066                           ;main.c: 180:         if (tecla_n){
  1067  001690  51E2               	movf	_tecla_n& (0+255),w,b
  1068  001692  11E3               	iorwf	(_tecla_n+1)& (0+255),w,b
  1069  001694  B4D8               	btfsc	status,2,c
  1070  001696  EF4F  F00B         	goto	u4951
  1071  00169A  EF51  F00B         	goto	u4950
  1072  00169E                     u4951:
  1073  00169E  EF89  F00B         	goto	l5055
  1074  0016A2                     u4950:
  1075  0016A2                     
  1076                           ; BSR set to: 0
  1077                           ;main.c: 184:             strncat(pin, &tecla_premida, 1);
  1078  0016A2  0EE4               	movlw	low _pin
  1079  0016A4  6F68               	movwf	strncat@d& (0+255),b
  1080  0016A6  0E00               	movlw	high _pin
  1081  0016A8  6F69               	movwf	(strncat@d+1)& (0+255),b
  1082  0016AA  0EE8               	movlw	low _tecla_premida
  1083  0016AC  6F6A               	movwf	strncat@s& (0+255),b
  1084  0016AE  0E00               	movlw	high _tecla_premida
  1085  0016B0  6F6B               	movwf	(strncat@s+1)& (0+255),b
  1086  0016B2  0E00               	movlw	0
  1087  0016B4  6F6D               	movwf	(strncat@n+1)& (0+255),b
  1088  0016B6  0E01               	movlw	1
  1089  0016B8  6F6C               	movwf	strncat@n& (0+255),b
  1090  0016BA  ECF7  F011         	call	_strncat	;wreg free
  1091  0016BE  0EC0               	movlw	192
  1092  0016C0  EC1A  F014         	call	_WriteCmdXLCD
  1093  0016C4                     l5045:
  1094  0016C4  ECD5  F013         	call	_BusyXLCD	;wreg free
  1095  0016C8  0900               	iorlw	0
  1096  0016CA  A4D8               	btfss	status,2,c
  1097  0016CC  EF6A  F00B         	goto	u4961
  1098  0016D0  EF6C  F00B         	goto	u4960
  1099  0016D4                     u4961:
  1100  0016D4  EF62  F00B         	goto	l5045
  1101  0016D8                     u4960:
  1102  0016D8                     
  1103                           ;main.c: 196:             putsXLCD(pin);
  1104  0016D8  0EE4               	movlw	low _pin
  1105  0016DA  0100               	movlb	0	; () banked
  1106  0016DC  6F65               	movwf	putsXLCD@buffer& (0+255),b
  1107  0016DE  0E00               	movlw	high _pin
  1108  0016E0  6F66               	movwf	(putsXLCD@buffer+1)& (0+255),b
  1109  0016E2  EC6F  F012         	call	_putsXLCD	;wreg free
  1110  0016E6                     l5049:
  1111  0016E6  ECD5  F013         	call	_BusyXLCD	;wreg free
  1112  0016EA  0900               	iorlw	0
  1113  0016EC  A4D8               	btfss	status,2,c
  1114  0016EE  EF7B  F00B         	goto	u4971
  1115  0016F2  EF7D  F00B         	goto	u4970
  1116  0016F6                     u4971:
  1117  0016F6  EF73  F00B         	goto	l5049
  1118  0016FA                     u4970:
  1119  0016FA                     
  1120                           ;main.c: 202:             contador_caracteres++;
  1121  0016FA  0101               	movlb	1	; () banked
  1122  0016FC  4B24               	infsnz	main@contador_caracteres& (0+255),f,b
  1123  0016FE  2B25               	incf	(main@contador_caracteres+1)& (0+255),f,b
  1124                           
  1125                           ;main.c: 203:             contador_colunas_LCD++;
  1126  001700  0100               	movlb	0	; () banked
  1127  001702  4BF9               	infsnz	_contador_colunas_LCD& (0+255),f,b
  1128  001704  2BFA               	incf	(_contador_colunas_LCD+1)& (0+255),f,b
  1129  001706                     
  1130                           ; BSR set to: 0
  1131                           ;main.c: 204:             tecla_n = 0;
  1132  001706  0E00               	movlw	0
  1133  001708  6FE3               	movwf	(_tecla_n+1)& (0+255),b
  1134  00170A  0E00               	movlw	0
  1135  00170C  6FE2               	movwf	_tecla_n& (0+255),b
  1136                           
  1137                           ;main.c: 205:         }
  1138  00170E  EFB5  F00B         	goto	l5067
  1139  001712                     l5055:
  1140                           
  1141                           ; BSR set to: 0
  1142  001712  51E0               	movf	_tecla_limpar& (0+255),w,b
  1143  001714  11E1               	iorwf	(_tecla_limpar+1)& (0+255),w,b
  1144  001716  B4D8               	btfsc	status,2,c
  1145  001718  EF90  F00B         	goto	u4981
  1146  00171C  EF92  F00B         	goto	u4980
  1147  001720                     u4981:
  1148  001720  EFB5  F00B         	goto	l5067
  1149  001724                     u4980:
  1150  001724                     
  1151                           ; BSR set to: 0
  1152                           ;main.c: 207:             WriteCmdXLCD(contador_colunas_LCD);
  1153  001724  51F9               	movf	_contador_colunas_LCD& (0+255),w,b
  1154  001726  EC1A  F014         	call	_WriteCmdXLCD
  1155  00172A                     l5059:
  1156  00172A  ECD5  F013         	call	_BusyXLCD	;wreg free
  1157  00172E  0900               	iorlw	0
  1158  001730  A4D8               	btfss	status,2,c
  1159  001732  EF9D  F00B         	goto	u4991
  1160  001736  EF9F  F00B         	goto	u4990
  1161  00173A                     u4991:
  1162  00173A  EF95  F00B         	goto	l5059
  1163  00173E                     u4990:
  1164  00173E                     
  1165                           ;main.c: 210:             putsXLCD("                    ");
  1166  00173E  0E01               	movlw	low STR_2
  1167  001740  0100               	movlb	0	; () banked
  1168  001742  6F65               	movwf	putsXLCD@buffer& (0+255),b
  1169  001744  0E06               	movlw	high STR_2
  1170  001746  6F66               	movwf	(putsXLCD@buffer+1)& (0+255),b
  1171  001748  EC6F  F012         	call	_putsXLCD	;wreg free
  1172  00174C                     l5063:
  1173  00174C  ECD5  F013         	call	_BusyXLCD	;wreg free
  1174  001750  0900               	iorlw	0
  1175  001752  A4D8               	btfss	status,2,c
  1176  001754  EFAE  F00B         	goto	u5001
  1177  001758  EFB0  F00B         	goto	u5000
  1178  00175C                     u5001:
  1179  00175C  EFA6  F00B         	goto	l5063
  1180  001760                     u5000:
  1181  001760                     
  1182                           ;main.c: 212:             tecla_limpar = 0;
  1183  001760  0E00               	movlw	0
  1184  001762  0100               	movlb	0	; () banked
  1185  001764  6FE1               	movwf	(_tecla_limpar+1)& (0+255),b
  1186  001766  0E00               	movlw	0
  1187  001768  6FE0               	movwf	_tecla_limpar& (0+255),b
  1188  00176A                     l5067:
  1189                           
  1190                           ; BSR set to: 0
  1191                           ;main.c: 220:         LATBbits.LATB3 = 0;
  1192  00176A  968A               	bcf	138,3,c	;volatile
  1193  00176C                     
  1194                           ; BSR set to: 0
  1195                           ;main.c: 221:         LATBbits.LATB4 = 1;
  1196  00176C  888A               	bsf	138,4,c	;volatile
  1197  00176E                     
  1198                           ; BSR set to: 0
  1199                           ;main.c: 222:         LATBbits.LATB5 = 1;
  1200  00176E  8A8A               	bsf	138,5,c	;volatile
  1201  001770                     
  1202                           ; BSR set to: 0
  1203                           ;main.c: 223:         LATBbits.LATB6 = 1;
  1204  001770  8C8A               	bsf	138,6,c	;volatile
  1205  001772                     
  1206                           ; BSR set to: 0
  1207                           ;main.c: 225:         _delay((unsigned long)((65)*(6000000/4000.0)));
  1208  001772  0E7F               	movlw	127
  1209  001774  0100               	movlb	0	; () banked
  1210  001776  6FCB               	movwf	??_main& (0+255),b
  1211  001778  0E9E               	movlw	158
  1212  00177A                     u5037:
  1213  00177A  2EE8               	decfsz	wreg,f,c
  1214  00177C  D7FE               	bra	u5037
  1215  00177E  2FCB               	decfsz	??_main& (0+255),f,b
  1216  001780  D7FC               	bra	u5037
  1217  001782  F000               	nop	
  1218  001784                     
  1219                           ;main.c: 228:         LATBbits.LATB3 = 1;
  1220  001784  868A               	bsf	138,3,c	;volatile
  1221  001786                     
  1222                           ;main.c: 229:         LATBbits.LATB4 = 0;
  1223  001786  988A               	bcf	138,4,c	;volatile
  1224  001788                     
  1225                           ;main.c: 230:         LATBbits.LATB5 = 1;
  1226  001788  8A8A               	bsf	138,5,c	;volatile
  1227  00178A                     
  1228                           ;main.c: 231:         LATBbits.LATB6 = 1;
  1229  00178A  8C8A               	bsf	138,6,c	;volatile
  1230  00178C                     
  1231                           ;main.c: 233:         _delay((unsigned long)((65)*(6000000/4000.0)));
  1232  00178C  0E7F               	movlw	127
  1233  00178E  0100               	movlb	0	; () banked
  1234  001790  6FCB               	movwf	??_main& (0+255),b
  1235  001792  0E9E               	movlw	158
  1236  001794                     u5047:
  1237  001794  2EE8               	decfsz	wreg,f,c
  1238  001796  D7FE               	bra	u5047
  1239  001798  2FCB               	decfsz	??_main& (0+255),f,b
  1240  00179A  D7FC               	bra	u5047
  1241  00179C  F000               	nop	
  1242  00179E                     
  1243                           ;main.c: 236:         LATBbits.LATB3 = 1;
  1244  00179E  868A               	bsf	138,3,c	;volatile
  1245  0017A0                     
  1246                           ;main.c: 237:         LATBbits.LATB4 = 1;
  1247  0017A0  888A               	bsf	138,4,c	;volatile
  1248  0017A2                     
  1249                           ;main.c: 238:         LATBbits.LATB5 = 0;
  1250  0017A2  9A8A               	bcf	138,5,c	;volatile
  1251  0017A4                     
  1252                           ;main.c: 239:         LATBbits.LATB6 = 1;
  1253  0017A4  8C8A               	bsf	138,6,c	;volatile
  1254  0017A6                     
  1255                           ;main.c: 241:         _delay((unsigned long)((65)*(6000000/4000.0)));
  1256  0017A6  0E7F               	movlw	127
  1257  0017A8  0100               	movlb	0	; () banked
  1258  0017AA  6FCB               	movwf	??_main& (0+255),b
  1259  0017AC  0E9E               	movlw	158
  1260  0017AE                     u5057:
  1261  0017AE  2EE8               	decfsz	wreg,f,c
  1262  0017B0  D7FE               	bra	u5057
  1263  0017B2  2FCB               	decfsz	??_main& (0+255),f,b
  1264  0017B4  D7FC               	bra	u5057
  1265  0017B6  F000               	nop	
  1266  0017B8                     
  1267                           ;main.c: 244:         LATBbits.LATB3 = 1;
  1268  0017B8  868A               	bsf	138,3,c	;volatile
  1269  0017BA                     
  1270                           ;main.c: 245:         LATBbits.LATB4 = 1;
  1271  0017BA  888A               	bsf	138,4,c	;volatile
  1272  0017BC                     
  1273                           ;main.c: 246:         LATBbits.LATB5 = 1;
  1274  0017BC  8A8A               	bsf	138,5,c	;volatile
  1275  0017BE                     
  1276                           ;main.c: 247:         LATBbits.LATB6 = 0;
  1277  0017BE  9C8A               	bcf	138,6,c	;volatile
  1278  0017C0                     
  1279                           ;main.c: 249:         _delay((unsigned long)((65)*(6000000/4000.0)));
  1280  0017C0  0E7F               	movlw	127
  1281  0017C2  0100               	movlb	0	; () banked
  1282  0017C4  6FCB               	movwf	??_main& (0+255),b
  1283  0017C6  0E9E               	movlw	158
  1284  0017C8                     u5067:
  1285  0017C8  2EE8               	decfsz	wreg,f,c
  1286  0017CA  D7FE               	bra	u5067
  1287  0017CC  2FCB               	decfsz	??_main& (0+255),f,b
  1288  0017CE  D7FC               	bra	u5067
  1289  0017D0  F000               	nop	
  1290  0017D2  EF02  F00B         	goto	l5021
  1291  0017D6  EF71  F000         	goto	start
  1292  0017DA                     __end_of_main:
  1293                           	opt callstack 0
  1294                           
  1295 ;; *************** function _strncat *****************
  1296 ;; Defined at:
  1297 ;;		line 3 in file "C:\Program Files (x86)\Microchip\xc8\v2.10\pic\sources\c99\common\strncat.c"
  1298 ;; Parameters:    Size  Location     Type
  1299 ;;  d               2    8[BANK0 ] PTR unsigned char 
  1300 ;;		 -> pin(4), 
  1301 ;;  s               2   10[BANK0 ] PTR const unsigned char 
  1302 ;;		 -> tecla_premida(1), 
  1303 ;;  n               2   12[BANK0 ] unsigned int 
  1304 ;; Auto vars:     Size  Location     Type
  1305 ;;  a               2    0        PTR unsigned char 
  1306 ;;		 -> pin(4), 
  1307 ;; Return value:  Size  Location     Type
  1308 ;;                  2    8[BANK0 ] PTR unsigned char 
  1309 ;; Registers used:
  1310 ;;		wreg, fsr1l, fsr1h, fsr2l, fsr2h, status,2, status,0, cstack
  1311 ;; Tracked objects:
  1312 ;;		On entry : 0/0
  1313 ;;		On exit  : 0/0
  1314 ;;		Unchanged: 0/0
  1315 ;; Data sizes:     COMRAM   BANK0   BANK1   BANK2   BANK3   BANK4   BANK5
  1316 ;;      Params:         0       6       0       0       0       0       0
  1317 ;;      Locals:         0       2       0       0       0       0       0
  1318 ;;      Temps:          0       0       0       0       0       0       0
  1319 ;;      Totals:         0       8       0       0       0       0       0
  1320 ;;Total ram usage:        8 bytes
  1321 ;; Hardware stack levels used:    1
  1322 ;; Hardware stack levels required when called:    5
  1323 ;; This function calls:
  1324 ;;		_strlen
  1325 ;; This function is called by:
  1326 ;;		_main
  1327 ;; This function uses a non-reentrant model
  1328 ;;
  1329                           
  1330                           	psect	text1
  1331  0023EE                     __ptext1:
  1332                           	opt callstack 0
  1333  0023EE                     _strncat:
  1334                           	opt callstack 25
  1335  0023EE  C068  F064         	movff	strncat@d,strlen@s
  1336  0023F2  C069  F065         	movff	strncat@d+1,strlen@s+1
  1337  0023F6  EC7C  F014         	call	_strlen	;wreg free
  1338  0023FA  0100               	movlb	0	; () banked
  1339  0023FC  5164               	movf	?_strlen& (0+255),w,b
  1340  0023FE  2768               	addwf	strncat@d& (0+255),f,b
  1341  002400  5165               	movf	(?_strlen+1)& (0+255),w,b
  1342  002402  2369               	addwfc	(strncat@d+1)& (0+255),f,b
  1343  002404  EF15  F012         	goto	l4991
  1344  002408                     l4983:
  1345                           
  1346                           ; BSR set to: 0
  1347  002408  076C               	decf	strncat@n& (0+255),f,b
  1348  00240A  A0D8               	btfss	status,0,c
  1349  00240C  076D               	decf	(strncat@n+1)& (0+255),f,b
  1350  00240E                     
  1351                           ; BSR set to: 0
  1352  00240E  C06A  FFD9         	movff	strncat@s,fsr2l
  1353  002412  C06B  FFDA         	movff	strncat@s+1,fsr2h
  1354  002416  C068  FFE1         	movff	strncat@d,fsr1l
  1355  00241A  C069  FFE2         	movff	strncat@d+1,fsr1h
  1356  00241E  CFDF FFE7          	movff	indf2,indf1
  1357  002422                     
  1358                           ; BSR set to: 0
  1359  002422  4B6A               	infsnz	strncat@s& (0+255),f,b
  1360  002424  2B6B               	incf	(strncat@s+1)& (0+255),f,b
  1361  002426                     
  1362                           ; BSR set to: 0
  1363  002426  4B68               	infsnz	strncat@d& (0+255),f,b
  1364  002428  2B69               	incf	(strncat@d+1)& (0+255),f,b
  1365  00242A                     l4991:
  1366                           
  1367                           ; BSR set to: 0
  1368  00242A  516C               	movf	strncat@n& (0+255),w,b
  1369  00242C  116D               	iorwf	(strncat@n+1)& (0+255),w,b
  1370  00242E  B4D8               	btfsc	status,2,c
  1371  002430  EF1C  F012         	goto	u4891
  1372  002434  EF1E  F012         	goto	u4890
  1373  002438                     u4891:
  1374  002438  EF2A  F012         	goto	l4995
  1375  00243C                     u4890:
  1376  00243C                     
  1377                           ; BSR set to: 0
  1378  00243C  C06A  FFD9         	movff	strncat@s,fsr2l
  1379  002440  C06B  FFDA         	movff	strncat@s+1,fsr2h
  1380  002444  50DF               	movf	indf2,w,c
  1381  002446  A4D8               	btfss	status,2,c
  1382  002448  EF28  F012         	goto	u4901
  1383  00244C  EF2A  F012         	goto	u4900
  1384  002450                     u4901:
  1385  002450  EF04  F012         	goto	l4983
  1386  002454                     u4900:
  1387  002454                     l4995:
  1388                           
  1389                           ; BSR set to: 0
  1390  002454  C068  FFD9         	movff	strncat@d,fsr2l
  1391  002458  C069  FFDA         	movff	strncat@d+1,fsr2h
  1392  00245C  0E00               	movlw	0
  1393  00245E  6EDF               	movwf	indf2,c
  1394  002460                     
  1395                           ; BSR set to: 0
  1396  002460  4B68               	infsnz	strncat@d& (0+255),f,b
  1397  002462  2B69               	incf	(strncat@d+1)& (0+255),f,b
  1398  002464                     
  1399                           ; BSR set to: 0
  1400  002464  0012               	return		;funcret
  1401  002466                     __end_of_strncat:
  1402                           	opt callstack 0
  1403                           
  1404 ;; *************** function _sprintf *****************
  1405 ;; Defined at:
  1406 ;;		line 9 in file "C:\Program Files (x86)\Microchip\xc8\v2.10\pic\sources\c99\common\nf_sprintf.c"
  1407 ;; Parameters:    Size  Location     Type
  1408 ;;  s               2   91[BANK0 ] PTR unsigned char 
  1409 ;;		 -> temp_ambiente_LCD(4), 
  1410 ;;  fmt             2   93[BANK0 ] PTR const unsigned char 
  1411 ;;		 -> STR_1(10), 
  1412 ;; Auto vars:     Size  Location     Type
  1413 ;;  f               6  101[BANK0 ] struct _IO_FILE
  1414 ;;  ap              2   99[BANK0 ] PTR void [1]
  1415 ;;		 -> ?_sprintf(2), 
  1416 ;;  ret             2    0        int 
  1417 ;; Return value:  Size  Location     Type
  1418 ;;                  2   91[BANK0 ] int 
  1419 ;; Registers used:
  1420 ;;		wreg, fsr1l, fsr1h, fsr2l, fsr2h, status,2, status,0, tblptrl, tblptrh, tblptru, cstack
  1421 ;; Tracked objects:
  1422 ;;		On entry : 0/0
  1423 ;;		On exit  : 0/0
  1424 ;;		Unchanged: 0/0
  1425 ;; Data sizes:     COMRAM   BANK0   BANK1   BANK2   BANK3   BANK4   BANK5
  1426 ;;      Params:         0       6       0       0       0       0       0
  1427 ;;      Locals:         0      10       0       0       0       0       0
  1428 ;;      Temps:          0       0       0       0       0       0       0
  1429 ;;      Totals:         0      16       0       0       0       0       0
  1430 ;;Total ram usage:       16 bytes
  1431 ;; Hardware stack levels used:    1
  1432 ;; Hardware stack levels required when called:   11
  1433 ;; This function calls:
  1434 ;;		_vfprintf
  1435 ;; This function is called by:
  1436 ;;		_main
  1437 ;; This function uses a non-reentrant model
  1438 ;;
  1439                           
  1440                           	psect	text2
  1441  002684                     __ptext2:
  1442                           	opt callstack 0
  1443  002684                     _sprintf:
  1444                           	opt callstack 19
  1445  002684  0EBF               	movlw	low (?_sprintf+4)
  1446  002686  0100               	movlb	0	; () banked
  1447  002688  6FC3               	movwf	sprintf@ap& (0+255),b
  1448  00268A  0E00               	movlw	high (?_sprintf+4)
  1449  00268C  6FC4               	movwf	(sprintf@ap+1)& (0+255),b
  1450  00268E  C0BB  F0C5         	movff	sprintf@s,sprintf@f
  1451  002692  C0BC  F0C6         	movff	sprintf@s+1,sprintf@f+1
  1452  002696                     
  1453                           ; BSR set to: 0
  1454  002696  0E00               	movlw	0
  1455  002698  6FC8               	movwf	(sprintf@f+3)& (0+255),b
  1456  00269A  0E00               	movlw	0
  1457  00269C  6FC7               	movwf	(sprintf@f+2)& (0+255),b
  1458  00269E                     
  1459                           ; BSR set to: 0
  1460  00269E  0E00               	movlw	0
  1461  0026A0  6FCA               	movwf	(sprintf@f+5)& (0+255),b
  1462  0026A2  0E00               	movlw	0
  1463  0026A4  6FC9               	movwf	(sprintf@f+4)& (0+255),b
  1464  0026A6                     
  1465                           ; BSR set to: 0
  1466  0026A6  0EC5               	movlw	low sprintf@f
  1467  0026A8  6FB3               	movwf	vfprintf@fp& (0+255),b
  1468  0026AA  0E00               	movlw	high sprintf@f
  1469  0026AC  6FB4               	movwf	(vfprintf@fp+1)& (0+255),b
  1470  0026AE  C0BD  F0B5         	movff	sprintf@fmt,vfprintf@fmt
  1471  0026B2  C0BE  F0B6         	movff	sprintf@fmt+1,vfprintf@fmt+1
  1472  0026B6  0EC3               	movlw	low sprintf@ap
  1473  0026B8  6FB7               	movwf	vfprintf@ap& (0+255),b
  1474  0026BA  0E00               	movlw	high sprintf@ap
  1475  0026BC  6FB8               	movwf	(vfprintf@ap+1)& (0+255),b
  1476  0026BE  EC11  F013         	call	_vfprintf	;wreg free
  1477  0026C2  0100               	movlb	0	; () banked
  1478  0026C4  51C7               	movf	(sprintf@f+2)& (0+255),w,b
  1479  0026C6  25BB               	addwf	sprintf@s& (0+255),w,b
  1480  0026C8  6ED9               	movwf	fsr2l,c
  1481  0026CA  51C8               	movf	(sprintf@f+3)& (0+255),w,b
  1482  0026CC  21BC               	addwfc	(sprintf@s+1)& (0+255),w,b
  1483  0026CE  6EDA               	movwf	fsr2h,c
  1484  0026D0  0E00               	movlw	0
  1485  0026D2  6EDF               	movwf	indf2,c
  1486  0026D4                     
  1487                           ; BSR set to: 0
  1488  0026D4  0012               	return		;funcret
  1489  0026D6                     __end_of_sprintf:
  1490                           	opt callstack 0
  1491                           
  1492 ;; *************** function _vfprintf *****************
  1493 ;; Defined at:
  1494 ;;		line 1368 in file "C:\Program Files (x86)\Microchip\xc8\v2.10\pic\sources\c99\common\doprnt.c"
  1495 ;; Parameters:    Size  Location     Type
  1496 ;;  fp              2   83[BANK0 ] PTR struct _IO_FILE
  1497 ;;		 -> sprintf@f(6), 
  1498 ;;  fmt             2   85[BANK0 ] PTR const unsigned char 
  1499 ;;		 -> STR_1(10), 
  1500 ;;  ap              2   87[BANK0 ] PTR PTR void 
  1501 ;;		 -> sprintf@ap(2), 
  1502 ;; Auto vars:     Size  Location     Type
  1503 ;;  cfmt            2   89[BANK0 ] PTR unsigned char 
  1504 ;;		 -> STR_1(10), 
  1505 ;; Return value:  Size  Location     Type
  1506 ;;                  2   83[BANK0 ] int 
  1507 ;; Registers used:
  1508 ;;		wreg, fsr1l, fsr1h, fsr2l, fsr2h, status,2, status,0, tblptrl, tblptrh, tblptru, cstack
  1509 ;; Tracked objects:
  1510 ;;		On entry : 0/0
  1511 ;;		On exit  : 0/0
  1512 ;;		Unchanged: 0/0
  1513 ;; Data sizes:     COMRAM   BANK0   BANK1   BANK2   BANK3   BANK4   BANK5
  1514 ;;      Params:         0       6       0       0       0       0       0
  1515 ;;      Locals:         0       2       0       0       0       0       0
  1516 ;;      Temps:          0       0       0       0       0       0       0
  1517 ;;      Totals:         0       8       0       0       0       0       0
  1518 ;;Total ram usage:        8 bytes
  1519 ;; Hardware stack levels used:    1
  1520 ;; Hardware stack levels required when called:   10
  1521 ;; This function calls:
  1522 ;;		_vfpfcnvrt
  1523 ;; This function is called by:
  1524 ;;		_sprintf
  1525 ;; This function uses a non-reentrant model
  1526 ;;
  1527                           
  1528                           	psect	text3
  1529  002622                     __ptext3:
  1530                           	opt callstack 0
  1531  002622                     _vfprintf:
  1532                           	opt callstack 19
  1533  002622                     
  1534                           ;C:\Program Files (x86)\Microchip\xc8\v2.10\pic\sources\c99\common\doprnt.c: 1368: int v
      +                          fprintf(FILE *fp, const char *fmt, va_list ap);C:\Program Files (x86)\Microchip\xc8\v2.1
      +                          0\pic\sources\c99\common\doprnt.c: 1369: {;C:\Program Files (x86)\Microchip\xc8\v2.10\pi
      +                          c\sources\c99\common\doprnt.c: 1371:     char *cfmt;;C:\Program Files (x86)\Microchip\xc
      +                          8\v2.10\pic\sources\c99\common\doprnt.c: 1373:     cfmt = (char *)fmt;
  1535  002622  C0B5  F0B9         	movff	vfprintf@fmt,vfprintf@cfmt
  1536  002626  C0B6  F0BA         	movff	vfprintf@fmt+1,vfprintf@cfmt+1
  1537  00262A                     
  1538                           ;C:\Program Files (x86)\Microchip\xc8\v2.10\pic\sources\c99\common\doprnt.c: 1374:     n
      +                          out = 0;
  1539  00262A  0E00               	movlw	0
  1540  00262C  0100               	movlb	0	; () banked
  1541  00262E  6FCD               	movwf	(_nout+1)& (0+255),b
  1542  002630  0E00               	movlw	0
  1543  002632  6FCC               	movwf	_nout& (0+255),b
  1544                           
  1545                           ;C:\Program Files (x86)\Microchip\xc8\v2.10\pic\sources\c99\common\doprnt.c: 1375:     w
      +                          hile (*cfmt) {
  1546  002634  EF2F  F013         	goto	l4907
  1547  002638                     l4905:
  1548                           
  1549                           ; BSR set to: 0
  1550                           ;C:\Program Files (x86)\Microchip\xc8\v2.10\pic\sources\c99\common\doprnt.c: 1376:      
      +                             nout += vfpfcnvrt(fp, &cfmt, ap);
  1551  002638  C0B3  F0A3         	movff	vfprintf@fp,vfpfcnvrt@fp
  1552  00263C  C0B4  F0A4         	movff	vfprintf@fp+1,vfpfcnvrt@fp+1
  1553  002640  0EB9               	movlw	low vfprintf@cfmt
  1554  002642  6FA5               	movwf	vfpfcnvrt@fmt& (0+255),b
  1555  002644  0E00               	movlw	high vfprintf@cfmt
  1556  002646  6FA6               	movwf	(vfpfcnvrt@fmt+1)& (0+255),b
  1557  002648  C0B7  F0A7         	movff	vfprintf@ap,vfpfcnvrt@ap
  1558  00264C  C0B8  F0A8         	movff	vfprintf@ap+1,vfpfcnvrt@ap+1
  1559  002650  ECED  F00B         	call	_vfpfcnvrt	;wreg free
  1560  002654  0100               	movlb	0	; () banked
  1561  002656  51A3               	movf	?_vfpfcnvrt& (0+255),w,b
  1562  002658  27CC               	addwf	_nout& (0+255),f,b
  1563  00265A  51A4               	movf	(?_vfpfcnvrt+1)& (0+255),w,b
  1564  00265C  23CD               	addwfc	(_nout+1)& (0+255),f,b
  1565  00265E                     l4907:
  1566                           
  1567                           ; BSR set to: 0
  1568                           ;C:\Program Files (x86)\Microchip\xc8\v2.10\pic\sources\c99\common\doprnt.c: 1375:     w
      +                          hile (*cfmt) {
  1569  00265E  C0B9  FFF6         	movff	vfprintf@cfmt,tblptrl
  1570  002662  C0BA  FFF7         	movff	vfprintf@cfmt+1,tblptrh
  1571  002666                     	if	0	;tblptru may be non-zero
  1572  002666                     	endif
  1573  002666                     	if	0	;tblptru may be non-zero
  1574  002666                     	endif
  1575  002666  0008               	tblrd		*
  1576  002668  50F5               	movf	tablat,w,c
  1577  00266A  0900               	iorlw	0
  1578  00266C  A4D8               	btfss	status,2,c
  1579  00266E  EF3B  F013         	goto	u4781
  1580  002672  EF3D  F013         	goto	u4780
  1581  002676                     u4781:
  1582  002676  EF1C  F013         	goto	l4905
  1583  00267A                     u4780:
  1584  00267A                     
  1585                           ; BSR set to: 0
  1586                           ;C:\Program Files (x86)\Microchip\xc8\v2.10\pic\sources\c99\common\doprnt.c: 1378:     r
      +                          eturn nout;
  1587  00267A  C0CC  F0B3         	movff	_nout,?_vfprintf
  1588  00267E  C0CD  F0B4         	movff	_nout+1,?_vfprintf+1
  1589  002682                     
  1590                           ; BSR set to: 0
  1591  002682  0012               	return		;funcret
  1592  002684                     __end_of_vfprintf:
  1593                           	opt callstack 0
  1594                           
  1595 ;; *************** function _vfpfcnvrt *****************
  1596 ;; Defined at:
  1597 ;;		line 670 in file "C:\Program Files (x86)\Microchip\xc8\v2.10\pic\sources\c99\common\doprnt.c"
  1598 ;; Parameters:    Size  Location     Type
  1599 ;;  fp              2   67[BANK0 ] PTR struct _IO_FILE
  1600 ;;		 -> sprintf@f(6), 
  1601 ;;  fmt             2   69[BANK0 ] PTR PTR unsigned char 
  1602 ;;		 -> vfprintf@cfmt(2), 
  1603 ;;  ap              2   71[BANK0 ] PTR PTR void 
  1604 ;;		 -> sprintf@ap(2), 
  1605 ;; Auto vars:     Size  Location     Type
  1606 ;;  ll              8   75[BANK0 ] long long 
  1607 ;;  llu             8    0        unsigned long long 
  1608 ;;  f               4    0        unsigned long long 
  1609 ;;  vp              3    0        PTR void 
  1610 ;;  ct              3    0        unsigned char [3]
  1611 ;;  cp              3    0        PTR unsigned char 
  1612 ;;  i               2    0        int 
  1613 ;;  done            2    0        int 
  1614 ;;  c               1    0        unsigned char 
  1615 ;; Return value:  Size  Location     Type
  1616 ;;                  2   67[BANK0 ] int 
  1617 ;; Registers used:
  1618 ;;		wreg, fsr1l, fsr1h, fsr2l, fsr2h, status,2, status,0, tblptrl, tblptrh, tblptru, cstack
  1619 ;; Tracked objects:
  1620 ;;		On entry : 0/0
  1621 ;;		On exit  : 0/0
  1622 ;;		Unchanged: 0/0
  1623 ;; Data sizes:     COMRAM   BANK0   BANK1   BANK2   BANK3   BANK4   BANK5
  1624 ;;      Params:         0       6       0       0       0       0       0
  1625 ;;      Locals:         0       8       0       0       0       0       0
  1626 ;;      Temps:          0       2       0       0       0       0       0
  1627 ;;      Totals:         0      16       0       0       0       0       0
  1628 ;;Total ram usage:       16 bytes
  1629 ;; Hardware stack levels used:    1
  1630 ;; Hardware stack levels required when called:    9
  1631 ;; This function calls:
  1632 ;;		_dtoa
  1633 ;;		_fputc
  1634 ;; This function is called by:
  1635 ;;		_vfprintf
  1636 ;; This function uses a non-reentrant model
  1637 ;;
  1638                           
  1639                           	psect	text4
  1640  0017DA                     __ptext4:
  1641                           	opt callstack 0
  1642  0017DA                     _vfpfcnvrt:
  1643                           	opt callstack 19
  1644  0017DA                     
  1645                           ;C:\Program Files (x86)\Microchip\xc8\v2.10\pic\sources\c99\common\doprnt.c: 670: static
      +                           int vfpfcnvrt(FILE *fp, char *fmt[], va_list ap);C:\Program Files (x86)\Microchip\xc8\v
      +                          2.10\pic\sources\c99\common\doprnt.c: 671: {;C:\Program Files (x86)\Microchip\xc8\v2.10\
      +                          pic\sources\c99\common\doprnt.c: 672:     char c, *cp, ct[3];;C:\Program Files (x86)\Mic
      +                          rochip\xc8\v2.10\pic\sources\c99\common\doprnt.c: 673:     int done, i;;C:\Program Files
      +                           (x86)\Microchip\xc8\v2.10\pic\sources\c99\common\doprnt.c: 674:     long long ll;
  1646  0017DA  C0A5  FFD9         	movff	vfpfcnvrt@fmt,fsr2l
  1647  0017DE  C0A6  FFDA         	movff	vfpfcnvrt@fmt+1,fsr2h
  1648  0017E2  CFDE FFF6          	movff	postinc2,tblptrl
  1649  0017E6  CFDD FFF7          	movff	postdec2,tblptrh
  1650  0017EA                     	if	0	;tblptru may be non-zero
  1651  0017EA                     	endif
  1652  0017EA                     	if	0	;tblptru may be non-zero
  1653  0017EA                     	endif
  1654  0017EA  0008               	tblrd		*
  1655  0017EC  50F5               	movf	tablat,w,c
  1656  0017EE  0A25               	xorlw	37
  1657  0017F0  A4D8               	btfss	status,2,c
  1658  0017F2  EFFD  F00B         	goto	u4641
  1659  0017F6  EFFF  F00B         	goto	u4640
  1660  0017FA                     u4641:
  1661  0017FA  EFAC  F00C         	goto	l4745
  1662  0017FE                     u4640:
  1663  0017FE                     
  1664                           ;C:\Program Files (x86)\Microchip\xc8\v2.10\pic\sources\c99\common\doprnt.c: 681:       
      +                            ++*fmt;
  1665  0017FE  C0A5  FFD9         	movff	vfpfcnvrt@fmt,fsr2l
  1666  001802  C0A6  FFDA         	movff	vfpfcnvrt@fmt+1,fsr2h
  1667  001806  2ADE               	incf	postinc2,f,c
  1668  001808  0E00               	movlw	0
  1669  00180A  22DD               	addwfc	postdec2,f,c
  1670  00180C                     
  1671                           ;C:\Program Files (x86)\Microchip\xc8\v2.10\pic\sources\c99\common\doprnt.c: 683:       
      +                            flags = width = 0;
  1672  00180C  0E00               	movlw	0
  1673  00180E  0100               	movlb	0	; () banked
  1674  001810  6FCF               	movwf	(_width+1)& (0+255),b
  1675  001812  0E00               	movlw	0
  1676  001814  6FCE               	movwf	_width& (0+255),b
  1677  001816  C0CE  F0D2         	movff	_width,_flags
  1678  00181A  C0CF  F0D3         	movff	_width+1,_flags+1
  1679  00181E                     
  1680                           ; BSR set to: 0
  1681                           ;C:\Program Files (x86)\Microchip\xc8\v2.10\pic\sources\c99\common\doprnt.c: 684:       
      +                            prec = -1;
  1682  00181E  69D0               	setf	_prec& (0+255),b
  1683  001820  69D1               	setf	(_prec+1)& (0+255),b
  1684  001822                     
  1685                           ; BSR set to: 0
  1686                           ;C:\Program Files (x86)\Microchip\xc8\v2.10\pic\sources\c99\common\doprnt.c: 825:       
      +                            if ((*fmt[0] == 'd') || (*fmt[0] == 'i')) {
  1687  001822  C0A5  FFD9         	movff	vfpfcnvrt@fmt,fsr2l
  1688  001826  C0A6  FFDA         	movff	vfpfcnvrt@fmt+1,fsr2h
  1689  00182A  CFDE FFF6          	movff	postinc2,tblptrl
  1690  00182E  CFDD FFF7          	movff	postdec2,tblptrh
  1691  001832                     	if	0	;tblptru may be non-zero
  1692  001832                     	endif
  1693  001832                     	if	0	;tblptru may be non-zero
  1694  001832                     	endif
  1695  001832  0008               	tblrd		*
  1696  001834  50F5               	movf	tablat,w,c
  1697  001836  0A64               	xorlw	100
  1698  001838  B4D8               	btfsc	status,2,c
  1699  00183A  EF21  F00C         	goto	u4651
  1700  00183E  EF23  F00C         	goto	u4650
  1701  001842                     u4651:
  1702  001842  EF35  F00C         	goto	l4723
  1703  001846                     u4650:
  1704  001846                     
  1705                           ; BSR set to: 0
  1706  001846  C0A5  FFD9         	movff	vfpfcnvrt@fmt,fsr2l
  1707  00184A  C0A6  FFDA         	movff	vfpfcnvrt@fmt+1,fsr2h
  1708  00184E  CFDE FFF6          	movff	postinc2,tblptrl
  1709  001852  CFDD FFF7          	movff	postdec2,tblptrh
  1710  001856                     	if	0	;tblptru may be non-zero
  1711  001856                     	endif
  1712  001856                     	if	0	;tblptru may be non-zero
  1713  001856                     	endif
  1714  001856  0008               	tblrd		*
  1715  001858  50F5               	movf	tablat,w,c
  1716  00185A  0A69               	xorlw	105
  1717  00185C  A4D8               	btfss	status,2,c
  1718  00185E  EF33  F00C         	goto	u4661
  1719  001862  EF35  F00C         	goto	u4660
  1720  001866                     u4661:
  1721  001866  EF75  F00C         	goto	l4729
  1722  00186A                     u4660:
  1723  00186A                     l4723:
  1724                           
  1725                           ; BSR set to: 0
  1726                           ;C:\Program Files (x86)\Microchip\xc8\v2.10\pic\sources\c99\common\doprnt.c: 827:       
      +                                ++*fmt;
  1727  00186A  C0A5  FFD9         	movff	vfpfcnvrt@fmt,fsr2l
  1728  00186E  C0A6  FFDA         	movff	vfpfcnvrt@fmt+1,fsr2h
  1729  001872  2ADE               	incf	postinc2,f,c
  1730  001874  0E00               	movlw	0
  1731  001876  22DD               	addwfc	postdec2,f,c
  1732                           
  1733                           ;C:\Program Files (x86)\Microchip\xc8\v2.10\pic\sources\c99\common\doprnt.c: 828:       
      +                                ll = (long long)(*(int *)__va_arg(*(int **)ap, (int)0));
  1734  001878  C0A7  FFD9         	movff	vfpfcnvrt@ap,fsr2l
  1735  00187C  C0A8  FFDA         	movff	vfpfcnvrt@ap+1,fsr2h
  1736  001880  CFDF F0A9          	movff	indf2,??_vfpfcnvrt
  1737  001884  0E02               	movlw	2
  1738  001886  26DE               	addwf	postinc2,f,c
  1739  001888  CFDF F0AA          	movff	indf2,??_vfpfcnvrt+1
  1740  00188C  0E00               	movlw	0
  1741  00188E  22DD               	addwfc	postdec2,f,c
  1742  001890  C0A9  FFD9         	movff	??_vfpfcnvrt,fsr2l
  1743  001894  C0AA  FFDA         	movff	??_vfpfcnvrt+1,fsr2h
  1744  001898  CFDE F0AB          	movff	postinc2,vfpfcnvrt@ll
  1745  00189C  CFDD F0AC          	movff	postdec2,vfpfcnvrt@ll+1
  1746  0018A0  0E00               	movlw	0
  1747  0018A2  BFAC               	btfsc	(vfpfcnvrt@ll+1)& (0+255),7,b
  1748  0018A4  0EFF               	movlw	-1
  1749  0018A6  6FAD               	movwf	(vfpfcnvrt@ll+2)& (0+255),b
  1750  0018A8  6FAE               	movwf	(vfpfcnvrt@ll+3)& (0+255),b
  1751  0018AA  6FAF               	movwf	(vfpfcnvrt@ll+4)& (0+255),b
  1752  0018AC  6FB0               	movwf	(vfpfcnvrt@ll+5)& (0+255),b
  1753  0018AE  6FB1               	movwf	(vfpfcnvrt@ll+6)& (0+255),b
  1754  0018B0  6FB2               	movwf	(vfpfcnvrt@ll+7)& (0+255),b
  1755  0018B2                     
  1756                           ; BSR set to: 0
  1757                           ;C:\Program Files (x86)\Microchip\xc8\v2.10\pic\sources\c99\common\doprnt.c: 830:       
      +                                return dtoa(fp, ll);
  1758  0018B2  C0A3  F07F         	movff	vfpfcnvrt@fp,dtoa@fp
  1759  0018B6  C0A4  F080         	movff	vfpfcnvrt@fp+1,dtoa@fp+1
  1760  0018BA  C0AB  F081         	movff	vfpfcnvrt@ll,dtoa@d
  1761  0018BE  C0AC  F082         	movff	vfpfcnvrt@ll+1,dtoa@d+1
  1762  0018C2  C0AD  F083         	movff	vfpfcnvrt@ll+2,dtoa@d+2
  1763  0018C6  C0AE  F084         	movff	vfpfcnvrt@ll+3,dtoa@d+3
  1764  0018CA  C0AF  F085         	movff	vfpfcnvrt@ll+4,dtoa@d+4
  1765  0018CE  C0B0  F086         	movff	vfpfcnvrt@ll+5,dtoa@d+5
  1766  0018D2  C0B1  F087         	movff	vfpfcnvrt@ll+6,dtoa@d+6
  1767  0018D6  C0B2  F088         	movff	vfpfcnvrt@ll+7,dtoa@d+7
  1768  0018DA  EC61  F009         	call	_dtoa	;wreg free
  1769  0018DE  C07F  F0A3         	movff	?_dtoa,?_vfpfcnvrt
  1770  0018E2  C080  F0A4         	movff	?_dtoa+1,?_vfpfcnvrt+1
  1771  0018E6  EFC8  F00C         	goto	l669
  1772  0018EA                     l4729:
  1773                           
  1774                           ; BSR set to: 0
  1775                           ;C:\Program Files (x86)\Microchip\xc8\v2.10\pic\sources\c99\common\doprnt.c: 1350:      
      +                             if ((*fmt)[0] == '%') {
  1776  0018EA  C0A5  FFD9         	movff	vfpfcnvrt@fmt,fsr2l
  1777  0018EE  C0A6  FFDA         	movff	vfpfcnvrt@fmt+1,fsr2h
  1778  0018F2  CFDE FFF6          	movff	postinc2,tblptrl
  1779  0018F6  CFDD FFF7          	movff	postdec2,tblptrh
  1780  0018FA                     	if	0	;tblptru may be non-zero
  1781  0018FA                     	endif
  1782  0018FA                     	if	0	;tblptru may be non-zero
  1783  0018FA                     	endif
  1784  0018FA  0008               	tblrd		*
  1785  0018FC  50F5               	movf	tablat,w,c
  1786  0018FE  0A25               	xorlw	37
  1787  001900  A4D8               	btfss	status,2,c
  1788  001902  EF85  F00C         	goto	u4671
  1789  001906  EF87  F00C         	goto	u4670
  1790  00190A                     u4671:
  1791  00190A  EF9F  F00C         	goto	l4739
  1792  00190E                     u4670:
  1793  00190E                     
  1794                           ; BSR set to: 0
  1795                           ;C:\Program Files (x86)\Microchip\xc8\v2.10\pic\sources\c99\common\doprnt.c: 1351:      
      +                                 ++*fmt;
  1796  00190E  C0A5  FFD9         	movff	vfpfcnvrt@fmt,fsr2l
  1797  001912  C0A6  FFDA         	movff	vfpfcnvrt@fmt+1,fsr2h
  1798  001916  2ADE               	incf	postinc2,f,c
  1799  001918  0E00               	movlw	0
  1800  00191A  22DD               	addwfc	postdec2,f,c
  1801  00191C                     
  1802                           ; BSR set to: 0
  1803                           ;C:\Program Files (x86)\Microchip\xc8\v2.10\pic\sources\c99\common\doprnt.c: 1352:      
      +                                 fputc((int)'%', fp);
  1804  00191C  0E00               	movlw	0
  1805  00191E  6F65               	movwf	(fputc@c+1)& (0+255),b
  1806  001920  0E25               	movlw	37
  1807  001922  6F64               	movwf	fputc@c& (0+255),b
  1808  001924  C0A3  F066         	movff	vfpfcnvrt@fp,fputc@fp
  1809  001928  C0A4  F067         	movff	vfpfcnvrt@fp+1,fputc@fp+1
  1810  00192C  EC2C  F011         	call	_fputc	;wreg free
  1811  001930                     l4735:
  1812                           
  1813                           ;C:\Program Files (x86)\Microchip\xc8\v2.10\pic\sources\c99\common\doprnt.c: 1353:      
      +                                 return 1;
  1814  001930  0E00               	movlw	0
  1815  001932  0100               	movlb	0	; () banked
  1816  001934  6FA4               	movwf	(?_vfpfcnvrt+1)& (0+255),b
  1817  001936  0E01               	movlw	1
  1818  001938  6FA3               	movwf	?_vfpfcnvrt& (0+255),b
  1819  00193A  EFC8  F00C         	goto	l669
  1820  00193E                     l4739:
  1821                           
  1822                           ; BSR set to: 0
  1823                           ;C:\Program Files (x86)\Microchip\xc8\v2.10\pic\sources\c99\common\doprnt.c: 1357:      
      +                             ++*fmt;
  1824  00193E  C0A5  FFD9         	movff	vfpfcnvrt@fmt,fsr2l
  1825  001942  C0A6  FFDA         	movff	vfpfcnvrt@fmt+1,fsr2h
  1826  001946  2ADE               	incf	postinc2,f,c
  1827  001948  0E00               	movlw	0
  1828  00194A  22DD               	addwfc	postdec2,f,c
  1829  00194C                     
  1830                           ; BSR set to: 0
  1831                           ;C:\Program Files (x86)\Microchip\xc8\v2.10\pic\sources\c99\common\doprnt.c: 1358:      
      +                             return 0;
  1832  00194C  0E00               	movlw	0
  1833  00194E  6FA4               	movwf	(?_vfpfcnvrt+1)& (0+255),b
  1834  001950  0E00               	movlw	0
  1835  001952  6FA3               	movwf	?_vfpfcnvrt& (0+255),b
  1836  001954  EFC8  F00C         	goto	l669
  1837  001958                     l4745:
  1838                           
  1839                           ;C:\Program Files (x86)\Microchip\xc8\v2.10\pic\sources\c99\common\doprnt.c: 1362:     f
      +                          putc((int)(*fmt)[0], fp);
  1840  001958  C0A5  FFD9         	movff	vfpfcnvrt@fmt,fsr2l
  1841  00195C  C0A6  FFDA         	movff	vfpfcnvrt@fmt+1,fsr2h
  1842  001960  CFDE FFF6          	movff	postinc2,tblptrl
  1843  001964  CFDD FFF7          	movff	postdec2,tblptrh
  1844  001968                     	if	0	;tblptru may be non-zero
  1845  001968                     	endif
  1846  001968                     	if	0	;tblptru may be non-zero
  1847  001968                     	endif
  1848  001968  0008               	tblrd		*
  1849  00196A  50F5               	movf	tablat,w,c
  1850  00196C  0100               	movlb	0	; () banked
  1851  00196E  6F64               	movwf	fputc@c& (0+255),b
  1852  001970  6B65               	clrf	(fputc@c+1)& (0+255),b
  1853  001972  C0A3  F066         	movff	vfpfcnvrt@fp,fputc@fp
  1854  001976  C0A4  F067         	movff	vfpfcnvrt@fp+1,fputc@fp+1
  1855  00197A  EC2C  F011         	call	_fputc	;wreg free
  1856  00197E                     
  1857                           ;C:\Program Files (x86)\Microchip\xc8\v2.10\pic\sources\c99\common\doprnt.c: 1363:     +
      +                          +*fmt;
  1858  00197E  C0A5  FFD9         	movff	vfpfcnvrt@fmt,fsr2l
  1859  001982  C0A6  FFDA         	movff	vfpfcnvrt@fmt+1,fsr2h
  1860  001986  2ADE               	incf	postinc2,f,c
  1861  001988  0E00               	movlw	0
  1862  00198A  22DD               	addwfc	postdec2,f,c
  1863  00198C  EF98  F00C         	goto	l4735
  1864  001990                     l669:
  1865  001990  0012               	return		;funcret
  1866  001992                     __end_of_vfpfcnvrt:
  1867                           	opt callstack 0
  1868                           
  1869 ;; *************** function _dtoa *****************
  1870 ;; Defined at:
  1871 ;;		line 274 in file "C:\Program Files (x86)\Microchip\xc8\v2.10\pic\sources\c99\common\doprnt.c"
  1872 ;; Parameters:    Size  Location     Type
  1873 ;;  fp              2   31[BANK0 ] PTR struct _IO_FILE
  1874 ;;		 -> sprintf@f(6), 
  1875 ;;  d               8   33[BANK0 ] long long 
  1876 ;; Auto vars:     Size  Location     Type
  1877 ;;  n               8   57[BANK0 ] long long 
  1878 ;;  i               2   65[BANK0 ] int 
  1879 ;;  s               2   55[BANK0 ] int 
  1880 ;;  w               2   53[BANK0 ] int 
  1881 ;;  p               2   51[BANK0 ] int 
  1882 ;; Return value:  Size  Location     Type
  1883 ;;                  2   31[BANK0 ] int 
  1884 ;; Registers used:
  1885 ;;		wreg, fsr1l, fsr1h, fsr2l, fsr2h, status,2, status,0, cstack
  1886 ;; Tracked objects:
  1887 ;;		On entry : 0/0
  1888 ;;		On exit  : 0/0
  1889 ;;		Unchanged: 0/0
  1890 ;; Data sizes:     COMRAM   BANK0   BANK1   BANK2   BANK3   BANK4   BANK5
  1891 ;;      Params:         0      10       0       0       0       0       0
  1892 ;;      Locals:         0      18       0       0       0       0       0
  1893 ;;      Temps:          0       8       0       0       0       0       0
  1894 ;;      Totals:         0      36       0       0       0       0       0
  1895 ;;Total ram usage:       36 bytes
  1896 ;; Hardware stack levels used:    1
  1897 ;; Hardware stack levels required when called:    8
  1898 ;; This function calls:
  1899 ;;		___aodiv
  1900 ;;		___aomod
  1901 ;;		_abs
  1902 ;;		_pad
  1903 ;; This function is called by:
  1904 ;;		_vfpfcnvrt
  1905 ;; This function uses a non-reentrant model
  1906 ;;
  1907                           
  1908                           	psect	text5
  1909  0012C2                     __ptext5:
  1910                           	opt callstack 0
  1911  0012C2                     _dtoa:
  1912                           	opt callstack 19
  1913  0012C2                     
  1914                           ;C:\Program Files (x86)\Microchip\xc8\v2.10\pic\sources\c99\common\doprnt.c: 274: static
      +                           int dtoa(FILE *fp, long long d);C:\Program Files (x86)\Microchip\xc8\v2.10\pic\sources\
      +                          c99\common\doprnt.c: 275: {;C:\Program Files (x86)\Microchip\xc8\v2.10\pic\sources\c99\c
      +                          ommon\doprnt.c: 276:     int i, p, s, w;;C:\Program Files (x86)\Microchip\xc8\v2.10\pic\
      +                          sources\c99\common\doprnt.c: 277:     long long n;;C:\Program Files (x86)\Microchip\xc8\
      +                          v2.10\pic\sources\c99\common\doprnt.c: 280:     n = d;
  1915  0012C2  C081  F099         	movff	dtoa@d,dtoa@n
  1916  0012C6  C082  F09A         	movff	dtoa@d+1,dtoa@n+1
  1917  0012CA  C083  F09B         	movff	dtoa@d+2,dtoa@n+2
  1918  0012CE  C084  F09C         	movff	dtoa@d+3,dtoa@n+3
  1919  0012D2  C085  F09D         	movff	dtoa@d+4,dtoa@n+4
  1920  0012D6  C086  F09E         	movff	dtoa@d+5,dtoa@n+5
  1921  0012DA  C087  F09F         	movff	dtoa@d+6,dtoa@n+6
  1922  0012DE  C088  F0A0         	movff	dtoa@d+7,dtoa@n+7
  1923  0012E2                     
  1924                           ;C:\Program Files (x86)\Microchip\xc8\v2.10\pic\sources\c99\common\doprnt.c: 281:     s 
      +                          = n < 0 ? 1 : 0;
  1925  0012E2  0100               	movlb	0	; () banked
  1926  0012E4  BFA0               	btfsc	(dtoa@n+7)& (0+255),7,b
  1927  0012E6  EF77  F009         	goto	u4481
  1928  0012EA  EF7A  F009         	goto	u4480
  1929  0012EE                     u4481:
  1930  0012EE  0E01               	movlw	1
  1931  0012F0  EF7B  F009         	goto	u4490
  1932  0012F4                     u4480:
  1933  0012F4  0E00               	movlw	0
  1934  0012F6                     u4490:
  1935  0012F6  6F97               	movwf	dtoa@s& (0+255),b
  1936  0012F8  6B98               	clrf	(dtoa@s+1)& (0+255),b
  1937                           
  1938                           ;C:\Program Files (x86)\Microchip\xc8\v2.10\pic\sources\c99\common\doprnt.c: 282:     if
      +                           (s) {
  1939  0012FA  5197               	movf	dtoa@s& (0+255),w,b
  1940  0012FC  1198               	iorwf	(dtoa@s+1)& (0+255),w,b
  1941  0012FE  B4D8               	btfsc	status,2,c
  1942  001300  EF84  F009         	goto	u4501
  1943  001304  EF86  F009         	goto	u4500
  1944  001308                     u4501:
  1945  001308  EF96  F009         	goto	l4553
  1946  00130C                     u4500:
  1947  00130C                     
  1948                           ; BSR set to: 0
  1949                           ;C:\Program Files (x86)\Microchip\xc8\v2.10\pic\sources\c99\common\doprnt.c: 283:       
      +                            n = -n;
  1950  00130C  1FA0               	comf	(dtoa@n+7)& (0+255),f,b
  1951  00130E  1F9F               	comf	(dtoa@n+6)& (0+255),f,b
  1952  001310  1F9E               	comf	(dtoa@n+5)& (0+255),f,b
  1953  001312  1F9D               	comf	(dtoa@n+4)& (0+255),f,b
  1954  001314  1F9C               	comf	(dtoa@n+3)& (0+255),f,b
  1955  001316  1F9B               	comf	(dtoa@n+2)& (0+255),f,b
  1956  001318  1F9A               	comf	(dtoa@n+1)& (0+255),f,b
  1957  00131A  6D99               	negf	dtoa@n& (0+255),b
  1958  00131C  0E00               	movlw	0
  1959  00131E  239A               	addwfc	(dtoa@n+1)& (0+255),f,b
  1960  001320  239B               	addwfc	(dtoa@n+2)& (0+255),f,b
  1961  001322  239C               	addwfc	(dtoa@n+3)& (0+255),f,b
  1962  001324  239D               	addwfc	(dtoa@n+4)& (0+255),f,b
  1963  001326  239E               	addwfc	(dtoa@n+5)& (0+255),f,b
  1964  001328  239F               	addwfc	(dtoa@n+6)& (0+255),f,b
  1965  00132A  23A0               	addwfc	(dtoa@n+7)& (0+255),f,b
  1966  00132C                     l4553:
  1967                           
  1968                           ; BSR set to: 0
  1969                           ;C:\Program Files (x86)\Microchip\xc8\v2.10\pic\sources\c99\common\doprnt.c: 287:     if
      +                           (!(prec < 0)) {
  1970  00132C  BFD1               	btfsc	(_prec+1)& (0+255),7,b
  1971  00132E  EF9B  F009         	goto	u4511
  1972  001332  EF9D  F009         	goto	u4510
  1973  001336                     u4511:
  1974  001336  EF9E  F009         	goto	l4557
  1975  00133A                     u4510:
  1976  00133A                     
  1977                           ; BSR set to: 0
  1978                           ;C:\Program Files (x86)\Microchip\xc8\v2.10\pic\sources\c99\common\doprnt.c: 288:       
      +                            flags &= ~(1 << 1);
  1979  00133A  93D2               	bcf	_flags& (0+255),1,b
  1980  00133C                     l4557:
  1981                           
  1982                           ; BSR set to: 0
  1983                           ;C:\Program Files (x86)\Microchip\xc8\v2.10\pic\sources\c99\common\doprnt.c: 290:     p 
      +                          = (0 < prec) ? prec : 1;
  1984  00133C  BFD1               	btfsc	(_prec+1)& (0+255),7,b
  1985  00133E  EFAB  F009         	goto	u4520
  1986  001342  51D1               	movf	(_prec+1)& (0+255),w,b
  1987  001344  E106               	bnz	u4521
  1988  001346  05D0               	decf	_prec& (0+255),w,b
  1989  001348  B0D8               	btfsc	status,0,c
  1990  00134A  EFA9  F009         	goto	u4521
  1991  00134E  EFAB  F009         	goto	u4520
  1992  001352                     u4521:
  1993  001352  EFB1  F009         	goto	l642
  1994  001356                     u4520:
  1995  001356                     
  1996                           ; BSR set to: 0
  1997  001356  0E00               	movlw	0
  1998  001358  6F94               	movwf	(dtoa@p+1)& (0+255),b
  1999  00135A  0E01               	movlw	1
  2000  00135C  6F93               	movwf	dtoa@p& (0+255),b
  2001  00135E  EFB5  F009         	goto	l644
  2002  001362                     l642:
  2003                           
  2004                           ; BSR set to: 0
  2005  001362  C0D0  F093         	movff	_prec,dtoa@p
  2006  001366  C0D1  F094         	movff	_prec+1,dtoa@p+1
  2007  00136A                     l644:
  2008                           
  2009                           ; BSR set to: 0
  2010                           ;C:\Program Files (x86)\Microchip\xc8\v2.10\pic\sources\c99\common\doprnt.c: 291:     w 
      +                          = width;
  2011  00136A  C0CE  F095         	movff	_width,dtoa@w
  2012  00136E  C0CF  F096         	movff	_width+1,dtoa@w+1
  2013  001372                     
  2014                           ; BSR set to: 0
  2015                           ;C:\Program Files (x86)\Microchip\xc8\v2.10\pic\sources\c99\common\doprnt.c: 292:     if
      +                           (s || (flags & (1 << 2))) {
  2016  001372  5197               	movf	dtoa@s& (0+255),w,b
  2017  001374  1198               	iorwf	(dtoa@s+1)& (0+255),w,b
  2018  001376  A4D8               	btfss	status,2,c
  2019  001378  EFC0  F009         	goto	u4531
  2020  00137C  EFC2  F009         	goto	u4530
  2021  001380                     u4531:
  2022  001380  EFC9  F009         	goto	l4565
  2023  001384                     u4530:
  2024  001384                     
  2025                           ; BSR set to: 0
  2026  001384  A5D2               	btfss	_flags& (0+255),2,b
  2027  001386  EFC7  F009         	goto	u4541
  2028  00138A  EFC9  F009         	goto	u4540
  2029  00138E                     u4541:
  2030  00138E  EFCC  F009         	goto	l4567
  2031  001392                     u4540:
  2032  001392                     l4565:
  2033                           
  2034                           ; BSR set to: 0
  2035                           ;C:\Program Files (x86)\Microchip\xc8\v2.10\pic\sources\c99\common\doprnt.c: 293:       
      +                            --w;
  2036  001392  0795               	decf	dtoa@w& (0+255),f,b
  2037  001394  A0D8               	btfss	status,0,c
  2038  001396  0796               	decf	(dtoa@w+1)& (0+255),f,b
  2039  001398                     l4567:
  2040                           
  2041                           ; BSR set to: 0
  2042                           ;C:\Program Files (x86)\Microchip\xc8\v2.10\pic\sources\c99\common\doprnt.c: 297:     i 
      +                          = sizeof(dbuf) - 1;
  2043  001398  0E00               	movlw	0
  2044  00139A  6FA2               	movwf	(dtoa@i+1)& (0+255),b
  2045  00139C  0E1F               	movlw	31
  2046  00139E  6FA1               	movwf	dtoa@i& (0+255),b
  2047  0013A0                     
  2048                           ; BSR set to: 0
  2049                           ;C:\Program Files (x86)\Microchip\xc8\v2.10\pic\sources\c99\common\doprnt.c: 298:     db
      +                          uf[i] = '\0';
  2050  0013A0  0E00               	movlw	0
  2051  0013A2  0101               	movlb	1	; () banked
  2052  0013A4  6F1F               	movwf	(_dbuf+31)& (0+255),b
  2053                           
  2054                           ;C:\Program Files (x86)\Microchip\xc8\v2.10\pic\sources\c99\common\doprnt.c: 299:     wh
      +                          ile (!(i < 1) && (n || (0 < p) || ((0 < w) && (flags & (1 << 1))))) {
  2055  0013A6  EF52  F00A         	goto	l4581
  2056  0013AA                     l4571:
  2057                           
  2058                           ; BSR set to: 0
  2059                           ;C:\Program Files (x86)\Microchip\xc8\v2.10\pic\sources\c99\common\doprnt.c: 300:       
      +                            --i;
  2060  0013AA  07A1               	decf	dtoa@i& (0+255),f,b
  2061  0013AC  A0D8               	btfss	status,0,c
  2062  0013AE  07A2               	decf	(dtoa@i+1)& (0+255),f,b
  2063  0013B0                     
  2064                           ; BSR set to: 0
  2065                           ;C:\Program Files (x86)\Microchip\xc8\v2.10\pic\sources\c99\common\doprnt.c: 301:       
      +                            dbuf[i] = '0' + abs(n % 10);
  2066  0013B0  0E00               	movlw	low _dbuf
  2067  0013B2  25A1               	addwf	dtoa@i& (0+255),w,b
  2068  0013B4  6ED9               	movwf	fsr2l,c
  2069  0013B6  0E01               	movlw	high _dbuf
  2070  0013B8  21A2               	addwfc	(dtoa@i+1)& (0+255),w,b
  2071  0013BA  6EDA               	movwf	fsr2h,c
  2072  0013BC  C099  F064         	movff	dtoa@n,___aomod@dividend
  2073  0013C0  C09A  F065         	movff	dtoa@n+1,___aomod@dividend+1
  2074  0013C4  C09B  F066         	movff	dtoa@n+2,___aomod@dividend+2
  2075  0013C8  C09C  F067         	movff	dtoa@n+3,___aomod@dividend+3
  2076  0013CC  C09D  F068         	movff	dtoa@n+4,___aomod@dividend+4
  2077  0013D0  C09E  F069         	movff	dtoa@n+5,___aomod@dividend+5
  2078  0013D4  C09F  F06A         	movff	dtoa@n+6,___aomod@dividend+6
  2079  0013D8  C0A0  F06B         	movff	dtoa@n+7,___aomod@dividend+7
  2080  0013DC  0E0A               	movlw	10
  2081  0013DE  6F6C               	movwf	___aomod@divisor& (0+255),b
  2082  0013E0  0E00               	movlw	0
  2083  0013E2  6F6D               	movwf	(___aomod@divisor+1)& (0+255),b
  2084  0013E4  0E00               	movlw	0
  2085  0013E6  6F6E               	movwf	(___aomod@divisor+2)& (0+255),b
  2086  0013E8  0E00               	movlw	0
  2087  0013EA  6F6F               	movwf	(___aomod@divisor+3)& (0+255),b
  2088  0013EC  0E00               	movlw	0
  2089  0013EE  6F70               	movwf	(___aomod@divisor+4)& (0+255),b
  2090  0013F0  0E00               	movlw	0
  2091  0013F2  6F71               	movwf	(___aomod@divisor+5)& (0+255),b
  2092  0013F4  0E00               	movlw	0
  2093  0013F6  6F72               	movwf	(___aomod@divisor+6)& (0+255),b
  2094  0013F8  0E00               	movlw	0
  2095  0013FA  6F73               	movwf	(___aomod@divisor+7)& (0+255),b
  2096  0013FC  EC68  F00E         	call	___aomod	;wreg free
  2097  001400  C064  F089         	movff	?___aomod,??_dtoa
  2098  001404  C065  F08A         	movff	?___aomod+1,??_dtoa+1
  2099  001408  C066  F08B         	movff	?___aomod+2,??_dtoa+2
  2100  00140C  C067  F08C         	movff	?___aomod+3,??_dtoa+3
  2101  001410  C068  F08D         	movff	?___aomod+4,??_dtoa+4
  2102  001414  C069  F08E         	movff	?___aomod+5,??_dtoa+5
  2103  001418  C06A  F08F         	movff	?___aomod+6,??_dtoa+6
  2104  00141C  C06B  F090         	movff	?___aomod+7,??_dtoa+7
  2105  001420  C089  F076         	movff	??_dtoa,abs@a
  2106  001424  C08B  F077         	movff	??_dtoa+2,abs@a+1
  2107  001428  EC3C  F014         	call	_abs	;wreg free
  2108  00142C  0100               	movlb	0	; () banked
  2109  00142E  5176               	movf	?_abs& (0+255),w,b
  2110  001430  0F30               	addlw	48
  2111  001432  6EDF               	movwf	indf2,c
  2112  001434                     
  2113                           ; BSR set to: 0
  2114                           ;C:\Program Files (x86)\Microchip\xc8\v2.10\pic\sources\c99\common\doprnt.c: 302:       
      +                            --p;
  2115  001434  0793               	decf	dtoa@p& (0+255),f,b
  2116  001436  A0D8               	btfss	status,0,c
  2117  001438  0794               	decf	(dtoa@p+1)& (0+255),f,b
  2118  00143A                     
  2119                           ; BSR set to: 0
  2120                           ;C:\Program Files (x86)\Microchip\xc8\v2.10\pic\sources\c99\common\doprnt.c: 303:       
      +                            --w;
  2121  00143A  0795               	decf	dtoa@w& (0+255),f,b
  2122  00143C  A0D8               	btfss	status,0,c
  2123  00143E  0796               	decf	(dtoa@w+1)& (0+255),f,b
  2124  001440                     
  2125                           ; BSR set to: 0
  2126                           ;C:\Program Files (x86)\Microchip\xc8\v2.10\pic\sources\c99\common\doprnt.c: 304:       
      +                            n = n / 10;
  2127  001440  C099  F064         	movff	dtoa@n,___aodiv@dividend
  2128  001444  C09A  F065         	movff	dtoa@n+1,___aodiv@dividend+1
  2129  001448  C09B  F066         	movff	dtoa@n+2,___aodiv@dividend+2
  2130  00144C  C09C  F067         	movff	dtoa@n+3,___aodiv@dividend+3
  2131  001450  C09D  F068         	movff	dtoa@n+4,___aodiv@dividend+4
  2132  001454  C09E  F069         	movff	dtoa@n+5,___aodiv@dividend+5
  2133  001458  C09F  F06A         	movff	dtoa@n+6,___aodiv@dividend+6
  2134  00145C  C0A0  F06B         	movff	dtoa@n+7,___aodiv@dividend+7
  2135  001460  0E0A               	movlw	10
  2136  001462  6F6C               	movwf	___aodiv@divisor& (0+255),b
  2137  001464  0E00               	movlw	0
  2138  001466  6F6D               	movwf	(___aodiv@divisor+1)& (0+255),b
  2139  001468  0E00               	movlw	0
  2140  00146A  6F6E               	movwf	(___aodiv@divisor+2)& (0+255),b
  2141  00146C  0E00               	movlw	0
  2142  00146E  6F6F               	movwf	(___aodiv@divisor+3)& (0+255),b
  2143  001470  0E00               	movlw	0
  2144  001472  6F70               	movwf	(___aodiv@divisor+4)& (0+255),b
  2145  001474  0E00               	movlw	0
  2146  001476  6F71               	movwf	(___aodiv@divisor+5)& (0+255),b
  2147  001478  0E00               	movlw	0
  2148  00147A  6F72               	movwf	(___aodiv@divisor+6)& (0+255),b
  2149  00147C  0E00               	movlw	0
  2150  00147E  6F73               	movwf	(___aodiv@divisor+7)& (0+255),b
  2151  001480  ECA3  F00D         	call	___aodiv	;wreg free
  2152  001484  C064  F099         	movff	?___aodiv,dtoa@n
  2153  001488  C065  F09A         	movff	?___aodiv+1,dtoa@n+1
  2154  00148C  C066  F09B         	movff	?___aodiv+2,dtoa@n+2
  2155  001490  C067  F09C         	movff	?___aodiv+3,dtoa@n+3
  2156  001494  C068  F09D         	movff	?___aodiv+4,dtoa@n+4
  2157  001498  C069  F09E         	movff	?___aodiv+5,dtoa@n+5
  2158  00149C  C06A  F09F         	movff	?___aodiv+6,dtoa@n+6
  2159  0014A0  C06B  F0A0         	movff	?___aodiv+7,dtoa@n+7
  2160  0014A4                     l4581:
  2161                           
  2162                           ;C:\Program Files (x86)\Microchip\xc8\v2.10\pic\sources\c99\common\doprnt.c: 299:     wh
      +                          ile (!(i < 1) && (n || (0 < p) || ((0 < w) && (flags & (1 << 1))))) {
  2163  0014A4  0100               	movlb	0	; () banked
  2164  0014A6  BFA2               	btfsc	(dtoa@i+1)& (0+255),7,b
  2165  0014A8  EF5E  F00A         	goto	u4551
  2166  0014AC  51A2               	movf	(dtoa@i+1)& (0+255),w,b
  2167  0014AE  E108               	bnz	u4550
  2168  0014B0  05A1               	decf	dtoa@i& (0+255),w,b
  2169  0014B2  A0D8               	btfss	status,0,c
  2170  0014B4  EF5E  F00A         	goto	u4551
  2171  0014B8  EF60  F00A         	goto	u4550
  2172  0014BC                     u4551:
  2173  0014BC  EF90  F00A         	goto	l4591
  2174  0014C0                     u4550:
  2175  0014C0                     
  2176                           ; BSR set to: 0
  2177  0014C0  5199               	movf	dtoa@n& (0+255),w,b
  2178  0014C2  119A               	iorwf	(dtoa@n+1)& (0+255),w,b
  2179  0014C4  119B               	iorwf	(dtoa@n+2)& (0+255),w,b
  2180  0014C6  119C               	iorwf	(dtoa@n+3)& (0+255),w,b
  2181  0014C8  119D               	iorwf	(dtoa@n+4)& (0+255),w,b
  2182  0014CA  119E               	iorwf	(dtoa@n+5)& (0+255),w,b
  2183  0014CC  119F               	iorwf	(dtoa@n+6)& (0+255),w,b
  2184  0014CE  11A0               	iorwf	(dtoa@n+7)& (0+255),w,b
  2185  0014D0  A4D8               	btfss	status,2,c
  2186  0014D2  EF6D  F00A         	goto	u4561
  2187  0014D6  EF6F  F00A         	goto	u4560
  2188  0014DA                     u4561:
  2189  0014DA  EFD5  F009         	goto	l4571
  2190  0014DE                     u4560:
  2191  0014DE                     
  2192                           ; BSR set to: 0
  2193  0014DE  BF94               	btfsc	(dtoa@p+1)& (0+255),7,b
  2194  0014E0  EF7C  F00A         	goto	u4570
  2195  0014E4  5194               	movf	(dtoa@p+1)& (0+255),w,b
  2196  0014E6  E106               	bnz	u4571
  2197  0014E8  0593               	decf	dtoa@p& (0+255),w,b
  2198  0014EA  B0D8               	btfsc	status,0,c
  2199  0014EC  EF7A  F00A         	goto	u4571
  2200  0014F0  EF7C  F00A         	goto	u4570
  2201  0014F4                     u4571:
  2202  0014F4  EFD5  F009         	goto	l4571
  2203  0014F8                     u4570:
  2204  0014F8                     
  2205                           ; BSR set to: 0
  2206  0014F8  BF96               	btfsc	(dtoa@w+1)& (0+255),7,b
  2207  0014FA  EF87  F00A         	goto	u4581
  2208  0014FE  5196               	movf	(dtoa@w+1)& (0+255),w,b
  2209  001500  E108               	bnz	u4580
  2210  001502  0595               	decf	dtoa@w& (0+255),w,b
  2211  001504  A0D8               	btfss	status,0,c
  2212  001506  EF87  F00A         	goto	u4581
  2213  00150A  EF89  F00A         	goto	u4580
  2214  00150E                     u4581:
  2215  00150E  EF90  F00A         	goto	l4591
  2216  001512                     u4580:
  2217  001512                     
  2218                           ; BSR set to: 0
  2219  001512  B3D2               	btfsc	_flags& (0+255),1,b
  2220  001514  EF8E  F00A         	goto	u4591
  2221  001518  EF90  F00A         	goto	u4590
  2222  00151C                     u4591:
  2223  00151C  EFD5  F009         	goto	l4571
  2224  001520                     u4590:
  2225  001520                     l4591:
  2226                           
  2227                           ; BSR set to: 0
  2228                           ;C:\Program Files (x86)\Microchip\xc8\v2.10\pic\sources\c99\common\doprnt.c: 308:     if
      +                           (s || (flags & (1 << 2))) {
  2229  001520  5197               	movf	dtoa@s& (0+255),w,b
  2230  001522  1198               	iorwf	(dtoa@s+1)& (0+255),w,b
  2231  001524  A4D8               	btfss	status,2,c
  2232  001526  EF97  F00A         	goto	u4601
  2233  00152A  EF99  F00A         	goto	u4600
  2234  00152E                     u4601:
  2235  00152E  EFA0  F00A         	goto	l4595
  2236  001532                     u4600:
  2237  001532                     
  2238                           ; BSR set to: 0
  2239  001532  A5D2               	btfss	_flags& (0+255),2,b
  2240  001534  EF9E  F00A         	goto	u4611
  2241  001538  EFA0  F00A         	goto	u4610
  2242  00153C                     u4611:
  2243  00153C  EFBE  F00A         	goto	l4605
  2244  001540                     u4610:
  2245  001540                     l4595:
  2246                           
  2247                           ; BSR set to: 0
  2248                           ;C:\Program Files (x86)\Microchip\xc8\v2.10\pic\sources\c99\common\doprnt.c: 309:       
      +                            --i;
  2249  001540  07A1               	decf	dtoa@i& (0+255),f,b
  2250  001542  A0D8               	btfss	status,0,c
  2251  001544  07A2               	decf	(dtoa@i+1)& (0+255),f,b
  2252  001546                     
  2253                           ; BSR set to: 0
  2254                           ;C:\Program Files (x86)\Microchip\xc8\v2.10\pic\sources\c99\common\doprnt.c: 310:       
      +                            dbuf[i] = s ? '-' : '+';
  2255  001546  5197               	movf	dtoa@s& (0+255),w,b
  2256  001548  1198               	iorwf	(dtoa@s+1)& (0+255),w,b
  2257  00154A  A4D8               	btfss	status,2,c
  2258  00154C  EFAA  F00A         	goto	u4621
  2259  001550  EFAC  F00A         	goto	u4620
  2260  001554                     u4621:
  2261  001554  EFB2  F00A         	goto	l4601
  2262  001558                     u4620:
  2263  001558                     
  2264                           ; BSR set to: 0
  2265  001558  0E00               	movlw	0
  2266  00155A  6F92               	movwf	(_dtoa$1517+1)& (0+255),b
  2267  00155C  0E2B               	movlw	43
  2268  00155E  6F91               	movwf	_dtoa$1517& (0+255),b
  2269  001560  EFB6  F00A         	goto	l4603
  2270  001564                     l4601:
  2271                           
  2272                           ; BSR set to: 0
  2273  001564  0E00               	movlw	0
  2274  001566  6F92               	movwf	(_dtoa$1517+1)& (0+255),b
  2275  001568  0E2D               	movlw	45
  2276  00156A  6F91               	movwf	_dtoa$1517& (0+255),b
  2277  00156C                     l4603:
  2278                           
  2279                           ; BSR set to: 0
  2280  00156C  0E00               	movlw	low _dbuf
  2281  00156E  25A1               	addwf	dtoa@i& (0+255),w,b
  2282  001570  6ED9               	movwf	fsr2l,c
  2283  001572  0E01               	movlw	high _dbuf
  2284  001574  21A2               	addwfc	(dtoa@i+1)& (0+255),w,b
  2285  001576  6EDA               	movwf	fsr2h,c
  2286  001578  C091  FFDF         	movff	_dtoa$1517,indf2
  2287  00157C                     l4605:
  2288                           
  2289                           ; BSR set to: 0
  2290                           ;C:\Program Files (x86)\Microchip\xc8\v2.10\pic\sources\c99\common\doprnt.c: 314:     re
      +                          turn pad(fp, &dbuf[i], w);
  2291  00157C  C07F  F074         	movff	dtoa@fp,pad@fp
  2292  001580  C080  F075         	movff	dtoa@fp+1,pad@fp+1
  2293  001584  0E00               	movlw	low _dbuf
  2294  001586  25A1               	addwf	dtoa@i& (0+255),w,b
  2295  001588  6F76               	movwf	pad@buf& (0+255),b
  2296  00158A  0E01               	movlw	high _dbuf
  2297  00158C  21A2               	addwfc	(dtoa@i+1)& (0+255),w,b
  2298  00158E  6F77               	movwf	(pad@buf+1)& (0+255),b
  2299  001590  C095  F078         	movff	dtoa@w,pad@p
  2300  001594  C096  F079         	movff	dtoa@w+1,pad@p+1
  2301  001598  EC92  F011         	call	_pad	;wreg free
  2302  00159C  C074  F07F         	movff	?_pad,?_dtoa
  2303  0015A0  C075  F080         	movff	?_pad+1,?_dtoa+1
  2304  0015A4  0012               	return		;funcret
  2305  0015A6                     __end_of_dtoa:
  2306                           	opt callstack 0
  2307                           
  2308 ;; *************** function _pad *****************
  2309 ;; Defined at:
  2310 ;;		line 72 in file "C:\Program Files (x86)\Microchip\xc8\v2.10\pic\sources\c99\common\doprnt.c"
  2311 ;; Parameters:    Size  Location     Type
  2312 ;;  fp              2   20[BANK0 ] PTR struct _IO_FILE
  2313 ;;		 -> sprintf@f(6), 
  2314 ;;  buf             2   22[BANK0 ] PTR unsigned char 
  2315 ;;		 -> dbuf(32), 
  2316 ;;  p               2   24[BANK0 ] int 
  2317 ;; Auto vars:     Size  Location     Type
  2318 ;;  w               2   29[BANK0 ] int 
  2319 ;;  i               2   27[BANK0 ] int 
  2320 ;; Return value:  Size  Location     Type
  2321 ;;                  2   20[BANK0 ] int 
  2322 ;; Registers used:
  2323 ;;		wreg, fsr1l, fsr1h, fsr2l, fsr2h, status,2, status,0, cstack
  2324 ;; Tracked objects:
  2325 ;;		On entry : 0/0
  2326 ;;		On exit  : 0/0
  2327 ;;		Unchanged: 0/0
  2328 ;; Data sizes:     COMRAM   BANK0   BANK1   BANK2   BANK3   BANK4   BANK5
  2329 ;;      Params:         0       6       0       0       0       0       0
  2330 ;;      Locals:         0       4       0       0       0       0       0
  2331 ;;      Temps:          0       1       0       0       0       0       0
  2332 ;;      Totals:         0      11       0       0       0       0       0
  2333 ;;Total ram usage:       11 bytes
  2334 ;; Hardware stack levels used:    1
  2335 ;; Hardware stack levels required when called:    7
  2336 ;; This function calls:
  2337 ;;		_fputc
  2338 ;;		_fputs
  2339 ;;		_strlen
  2340 ;; This function is called by:
  2341 ;;		_dtoa
  2342 ;; This function uses a non-reentrant model
  2343 ;;
  2344                           
  2345                           	psect	text6
  2346  002324                     __ptext6:
  2347                           	opt callstack 0
  2348  002324                     _pad:
  2349                           	opt callstack 19
  2350  002324                     
  2351                           ;C:\Program Files (x86)\Microchip\xc8\v2.10\pic\sources\c99\common\doprnt.c: 72: static 
      +                          int pad(FILE *fp, char *buf, int p);C:\Program Files (x86)\Microchip\xc8\v2.10\pic\sourc
      +                          es\c99\common\doprnt.c: 73: {;C:\Program Files (x86)\Microchip\xc8\v2.10\pic\sources\c99
      +                          \common\doprnt.c: 74:     int i, w;;C:\Program Files (x86)\Microchip\xc8\v2.10\pic\sourc
      +                          es\c99\common\doprnt.c: 77:     if (flags & (1 << 0)) {
  2352  002324  0100               	movlb	0	; () banked
  2353  002326  A1D2               	btfss	_flags& (0+255),0,b
  2354  002328  EF98  F011         	goto	u4301
  2355  00232C  EF9A  F011         	goto	u4300
  2356  002330                     u4301:
  2357  002330  EFA4  F011         	goto	l4441
  2358  002334                     u4300:
  2359  002334                     
  2360                           ; BSR set to: 0
  2361                           ;C:\Program Files (x86)\Microchip\xc8\v2.10\pic\sources\c99\common\doprnt.c: 78:        
      +                           fputs((const char *)buf, fp);
  2362  002334  C076  F06D         	movff	pad@buf,fputs@s
  2363  002338  C077  F06E         	movff	pad@buf+1,fputs@s+1
  2364  00233C  C074  F06F         	movff	pad@fp,fputs@fp
  2365  002340  C075  F070         	movff	pad@fp+1,fputs@fp+1
  2366  002344  EC6B  F013         	call	_fputs	;wreg free
  2367  002348                     l4441:
  2368                           
  2369                           ;C:\Program Files (x86)\Microchip\xc8\v2.10\pic\sources\c99\common\doprnt.c: 82:     w =
      +                           (p < 0) ? 0 : p;
  2370  002348  0100               	movlb	0	; () banked
  2371  00234A  BF79               	btfsc	(pad@p+1)& (0+255),7,b
  2372  00234C  EFAA  F011         	goto	u4311
  2373  002350  EFAC  F011         	goto	u4310
  2374  002354                     u4311:
  2375  002354  EFB2  F011         	goto	l4445
  2376  002358                     u4310:
  2377  002358                     
  2378                           ; BSR set to: 0
  2379  002358  C078  F07D         	movff	pad@p,pad@w
  2380  00235C  C079  F07E         	movff	pad@p+1,pad@w+1
  2381  002360  EFB6  F011         	goto	l631
  2382  002364                     l4445:
  2383                           
  2384                           ; BSR set to: 0
  2385  002364  0E00               	movlw	0
  2386  002366  6F7E               	movwf	(pad@w+1)& (0+255),b
  2387  002368  0E00               	movlw	0
  2388  00236A  6F7D               	movwf	pad@w& (0+255),b
  2389  00236C                     l631:
  2390                           
  2391                           ; BSR set to: 0
  2392                           ;C:\Program Files (x86)\Microchip\xc8\v2.10\pic\sources\c99\common\doprnt.c: 83:     i =
      +                           0;
  2393  00236C  0E00               	movlw	0
  2394  00236E  6F7C               	movwf	(pad@i+1)& (0+255),b
  2395  002370  0E00               	movlw	0
  2396  002372  6F7B               	movwf	pad@i& (0+255),b
  2397                           
  2398                           ;C:\Program Files (x86)\Microchip\xc8\v2.10\pic\sources\c99\common\doprnt.c: 84:     whi
      +                          le (i < w) {
  2399  002374  EFC9  F011         	goto	l4451
  2400  002378                     l4447:
  2401                           
  2402                           ; BSR set to: 0
  2403                           ;C:\Program Files (x86)\Microchip\xc8\v2.10\pic\sources\c99\common\doprnt.c: 85:        
      +                           fputc(' ', fp);
  2404  002378  0E00               	movlw	0
  2405  00237A  6F65               	movwf	(fputc@c+1)& (0+255),b
  2406  00237C  0E20               	movlw	32
  2407  00237E  6F64               	movwf	fputc@c& (0+255),b
  2408  002380  C074  F066         	movff	pad@fp,fputc@fp
  2409  002384  C075  F067         	movff	pad@fp+1,fputc@fp+1
  2410  002388  EC2C  F011         	call	_fputc	;wreg free
  2411  00238C                     
  2412                           ;C:\Program Files (x86)\Microchip\xc8\v2.10\pic\sources\c99\common\doprnt.c: 86:        
      +                           ++i;
  2413  00238C  0100               	movlb	0	; () banked
  2414  00238E  4B7B               	infsnz	pad@i& (0+255),f,b
  2415  002390  2B7C               	incf	(pad@i+1)& (0+255),f,b
  2416  002392                     l4451:
  2417                           
  2418                           ; BSR set to: 0
  2419                           ;C:\Program Files (x86)\Microchip\xc8\v2.10\pic\sources\c99\common\doprnt.c: 84:     whi
      +                          le (i < w) {
  2420  002392  517D               	movf	pad@w& (0+255),w,b
  2421  002394  5D7B               	subwf	pad@i& (0+255),w,b
  2422  002396  517C               	movf	(pad@i+1)& (0+255),w,b
  2423  002398  0A80               	xorlw	128
  2424  00239A  6F7A               	movwf	??_pad& (0+255),b
  2425  00239C  517E               	movf	(pad@w+1)& (0+255),w,b
  2426  00239E  0A80               	xorlw	128
  2427  0023A0  597A               	subwfb	??_pad& (0+255),w,b
  2428  0023A2  A0D8               	btfss	status,0,c
  2429  0023A4  EFD6  F011         	goto	u4321
  2430  0023A8  EFD8  F011         	goto	u4320
  2431  0023AC                     u4321:
  2432  0023AC  EFBC  F011         	goto	l4447
  2433  0023B0                     u4320:
  2434  0023B0                     
  2435                           ; BSR set to: 0
  2436                           ;C:\Program Files (x86)\Microchip\xc8\v2.10\pic\sources\c99\common\doprnt.c: 90:     if 
      +                          (!(flags & (1 << 0))) {
  2437  0023B0  B1D2               	btfsc	_flags& (0+255),0,b
  2438  0023B2  EFDD  F011         	goto	u4331
  2439  0023B6  EFDF  F011         	goto	u4330
  2440  0023BA                     u4331:
  2441  0023BA  EFE9  F011         	goto	l4455
  2442  0023BE                     u4330:
  2443  0023BE                     
  2444                           ; BSR set to: 0
  2445                           ;C:\Program Files (x86)\Microchip\xc8\v2.10\pic\sources\c99\common\doprnt.c: 91:        
      +                           fputs((const char *)buf, fp);
  2446  0023BE  C076  F06D         	movff	pad@buf,fputs@s
  2447  0023C2  C077  F06E         	movff	pad@buf+1,fputs@s+1
  2448  0023C6  C074  F06F         	movff	pad@fp,fputs@fp
  2449  0023CA  C075  F070         	movff	pad@fp+1,fputs@fp+1
  2450  0023CE  EC6B  F013         	call	_fputs	;wreg free
  2451  0023D2                     l4455:
  2452                           
  2453                           ;C:\Program Files (x86)\Microchip\xc8\v2.10\pic\sources\c99\common\doprnt.c: 94:     ret
      +                          urn strlen(buf) + w;
  2454  0023D2  C076  F064         	movff	pad@buf,strlen@s
  2455  0023D6  C077  F065         	movff	pad@buf+1,strlen@s+1
  2456  0023DA  EC7C  F014         	call	_strlen	;wreg free
  2457  0023DE  0100               	movlb	0	; () banked
  2458  0023E0  517D               	movf	pad@w& (0+255),w,b
  2459  0023E2  2564               	addwf	?_strlen& (0+255),w,b
  2460  0023E4  6F74               	movwf	?_pad& (0+255),b
  2461  0023E6  517E               	movf	(pad@w+1)& (0+255),w,b
  2462  0023E8  2165               	addwfc	(?_strlen+1)& (0+255),w,b
  2463  0023EA  6F75               	movwf	(?_pad+1)& (0+255),b
  2464  0023EC                     
  2465                           ; BSR set to: 0
  2466  0023EC  0012               	return		;funcret
  2467  0023EE                     __end_of_pad:
  2468                           	opt callstack 0
  2469                           
  2470 ;; *************** function _strlen *****************
  2471 ;; Defined at:
  2472 ;;		line 5 in file "C:\Program Files (x86)\Microchip\xc8\v2.10\pic\sources\c99\common\strlen.c"
  2473 ;; Parameters:    Size  Location     Type
  2474 ;;  s               2    4[BANK0 ] PTR const unsigned char 
  2475 ;;		 -> dbuf(32), pin(4), 
  2476 ;; Auto vars:     Size  Location     Type
  2477 ;;  a               2    6[BANK0 ] PTR const unsigned char 
  2478 ;;		 -> dbuf(32), pin(4), 
  2479 ;; Return value:  Size  Location     Type
  2480 ;;                  2    4[BANK0 ] unsigned int 
  2481 ;; Registers used:
  2482 ;;		wreg, fsr2l, fsr2h, status,2, status,0
  2483 ;; Tracked objects:
  2484 ;;		On entry : 0/0
  2485 ;;		On exit  : 0/0
  2486 ;;		Unchanged: 0/0
  2487 ;; Data sizes:     COMRAM   BANK0   BANK1   BANK2   BANK3   BANK4   BANK5
  2488 ;;      Params:         0       2       0       0       0       0       0
  2489 ;;      Locals:         0       2       0       0       0       0       0
  2490 ;;      Temps:          0       0       0       0       0       0       0
  2491 ;;      Totals:         0       4       0       0       0       0       0
  2492 ;;Total ram usage:        4 bytes
  2493 ;; Hardware stack levels used:    1
  2494 ;; Hardware stack levels required when called:    4
  2495 ;; This function calls:
  2496 ;;		Nothing
  2497 ;; This function is called by:
  2498 ;;		_pad
  2499 ;;		_strncat
  2500 ;; This function uses a non-reentrant model
  2501 ;;
  2502                           
  2503                           	psect	text7
  2504  0028F8                     __ptext7:
  2505                           	opt callstack 0
  2506  0028F8                     _strlen:
  2507                           	opt callstack 25
  2508  0028F8  C064  F066         	movff	strlen@s,strlen@a
  2509  0028FC  C065  F067         	movff	strlen@s+1,strlen@a+1
  2510  002900  EF85  F014         	goto	l4431
  2511  002904                     l4429:
  2512  002904  0100               	movlb	0	; () banked
  2513  002906  4B64               	infsnz	strlen@s& (0+255),f,b
  2514  002908  2B65               	incf	(strlen@s+1)& (0+255),f,b
  2515  00290A                     l4431:
  2516  00290A  C064  FFD9         	movff	strlen@s,fsr2l
  2517  00290E  C065  FFDA         	movff	strlen@s+1,fsr2h
  2518  002912  50DF               	movf	indf2,w,c
  2519  002914  A4D8               	btfss	status,2,c
  2520  002916  EF8F  F014         	goto	u4291
  2521  00291A  EF91  F014         	goto	u4290
  2522  00291E                     u4291:
  2523  00291E  EF82  F014         	goto	l4429
  2524  002922                     u4290:
  2525  002922  0100               	movlb	0	; () banked
  2526  002924  5166               	movf	strlen@a& (0+255),w,b
  2527  002926  5D64               	subwf	strlen@s& (0+255),w,b
  2528  002928  6F64               	movwf	?_strlen& (0+255),b
  2529  00292A  5167               	movf	(strlen@a+1)& (0+255),w,b
  2530  00292C  5965               	subwfb	(strlen@s+1)& (0+255),w,b
  2531  00292E  6F65               	movwf	(?_strlen+1)& (0+255),b
  2532  002930                     
  2533                           ; BSR set to: 0
  2534  002930  0012               	return		;funcret
  2535  002932                     __end_of_strlen:
  2536                           	opt callstack 0
  2537                           
  2538 ;; *************** function _fputs *****************
  2539 ;; Defined at:
  2540 ;;		line 8 in file "C:\Program Files (x86)\Microchip\xc8\v2.10\pic\sources\c99\common\nf_fputs.c"
  2541 ;; Parameters:    Size  Location     Type
  2542 ;;  s               2   13[BANK0 ] PTR const unsigned char 
  2543 ;;		 -> dbuf(32), 
  2544 ;;  fp              2   15[BANK0 ] PTR struct _IO_FILE
  2545 ;;		 -> sprintf@f(6), 
  2546 ;; Auto vars:     Size  Location     Type
  2547 ;;  i               2   18[BANK0 ] int 
  2548 ;;  c               1   17[BANK0 ] unsigned char 
  2549 ;; Return value:  Size  Location     Type
  2550 ;;                  2   13[BANK0 ] int 
  2551 ;; Registers used:
  2552 ;;		wreg, fsr1l, fsr1h, fsr2l, fsr2h, status,2, status,0, cstack
  2553 ;; Tracked objects:
  2554 ;;		On entry : 0/0
  2555 ;;		On exit  : 0/0
  2556 ;;		Unchanged: 0/0
  2557 ;; Data sizes:     COMRAM   BANK0   BANK1   BANK2   BANK3   BANK4   BANK5
  2558 ;;      Params:         0       4       0       0       0       0       0
  2559 ;;      Locals:         0       3       0       0       0       0       0
  2560 ;;      Temps:          0       0       0       0       0       0       0
  2561 ;;      Totals:         0       7       0       0       0       0       0
  2562 ;;Total ram usage:        7 bytes
  2563 ;; Hardware stack levels used:    1
  2564 ;; Hardware stack levels required when called:    6
  2565 ;; This function calls:
  2566 ;;		_fputc
  2567 ;; This function is called by:
  2568 ;;		_pad
  2569 ;; This function uses a non-reentrant model
  2570 ;;
  2571                           
  2572                           	psect	text8
  2573  0026D6                     __ptext8:
  2574                           	opt callstack 0
  2575  0026D6                     _fputs:
  2576                           	opt callstack 19
  2577  0026D6  0E00               	movlw	0
  2578  0026D8  0100               	movlb	0	; () banked
  2579  0026DA  6F73               	movwf	(fputs@i+1)& (0+255),b
  2580  0026DC  0E00               	movlw	0
  2581  0026DE  6F72               	movwf	fputs@i& (0+255),b
  2582  0026E0  EF7E  F013         	goto	l4425
  2583  0026E4                     l4421:
  2584                           
  2585                           ; BSR set to: 0
  2586  0026E4  C071  F064         	movff	fputs@c,fputc@c
  2587  0026E8  6B65               	clrf	(fputc@c+1)& (0+255),b
  2588  0026EA  C06F  F066         	movff	fputs@fp,fputc@fp
  2589  0026EE  C070  F067         	movff	fputs@fp+1,fputc@fp+1
  2590  0026F2  EC2C  F011         	call	_fputc	;wreg free
  2591  0026F6  0100               	movlb	0	; () banked
  2592  0026F8  4B72               	infsnz	fputs@i& (0+255),f,b
  2593  0026FA  2B73               	incf	(fputs@i+1)& (0+255),f,b
  2594  0026FC                     l4425:
  2595                           
  2596                           ; BSR set to: 0
  2597  0026FC  5172               	movf	fputs@i& (0+255),w,b
  2598  0026FE  256D               	addwf	fputs@s& (0+255),w,b
  2599  002700  6ED9               	movwf	fsr2l,c
  2600  002702  5173               	movf	(fputs@i+1)& (0+255),w,b
  2601  002704  216E               	addwfc	(fputs@s+1)& (0+255),w,b
  2602  002706  6EDA               	movwf	fsr2h,c
  2603  002708  50DF               	movf	indf2,w,c
  2604  00270A  6F71               	movwf	fputs@c& (0+255),b
  2605  00270C  5171               	movf	fputs@c& (0+255),w,b
  2606  00270E  A4D8               	btfss	status,2,c
  2607  002710  EF8C  F013         	goto	u4281
  2608  002714  EF8E  F013         	goto	u4280
  2609  002718                     u4281:
  2610  002718  EF72  F013         	goto	l4421
  2611  00271C                     u4280:
  2612  00271C                     
  2613                           ; BSR set to: 0
  2614  00271C  0012               	return		;funcret
  2615  00271E                     __end_of_fputs:
  2616                           	opt callstack 0
  2617                           
  2618 ;; *************** function _fputc *****************
  2619 ;; Defined at:
  2620 ;;		line 8 in file "C:\Program Files (x86)\Microchip\xc8\v2.10\pic\sources\c99\common\nf_fputc.c"
  2621 ;; Parameters:    Size  Location     Type
  2622 ;;  c               2    4[BANK0 ] int 
  2623 ;;  fp              2    6[BANK0 ] PTR struct _IO_FILE
  2624 ;;		 -> sprintf@f(6), 
  2625 ;; Auto vars:     Size  Location     Type
  2626 ;;		None
  2627 ;; Return value:  Size  Location     Type
  2628 ;;                  2    4[BANK0 ] int 
  2629 ;; Registers used:
  2630 ;;		wreg, fsr1l, fsr1h, fsr2l, fsr2h, status,2, status,0, cstack
  2631 ;; Tracked objects:
  2632 ;;		On entry : 0/0
  2633 ;;		On exit  : 0/0
  2634 ;;		Unchanged: 0/0
  2635 ;; Data sizes:     COMRAM   BANK0   BANK1   BANK2   BANK3   BANK4   BANK5
  2636 ;;      Params:         0       4       0       0       0       0       0
  2637 ;;      Locals:         0       0       0       0       0       0       0
  2638 ;;      Temps:          0       5       0       0       0       0       0
  2639 ;;      Totals:         0       9       0       0       0       0       0
  2640 ;;Total ram usage:        9 bytes
  2641 ;; Hardware stack levels used:    1
  2642 ;; Hardware stack levels required when called:    5
  2643 ;; This function calls:
  2644 ;;		_putch
  2645 ;; This function is called by:
  2646 ;;		_pad
  2647 ;;		_vfpfcnvrt
  2648 ;;		_fputs
  2649 ;; This function uses a non-reentrant model
  2650 ;;
  2651                           
  2652                           	psect	text9
  2653  002258                     __ptext9:
  2654                           	opt callstack 0
  2655  002258                     _fputc:
  2656                           	opt callstack 22
  2657  002258  0100               	movlb	0	; () banked
  2658  00225A  5166               	movf	fputc@fp& (0+255),w,b
  2659  00225C  1167               	iorwf	(fputc@fp+1)& (0+255),w,b
  2660  00225E  B4D8               	btfsc	status,2,c
  2661  002260  EF34  F011         	goto	u4241
  2662  002264  EF36  F011         	goto	u4240
  2663  002268                     u4241:
  2664  002268  EF3F  F011         	goto	l4409
  2665  00226C                     u4240:
  2666  00226C                     
  2667                           ; BSR set to: 0
  2668  00226C  5166               	movf	fputc@fp& (0+255),w,b
  2669  00226E  1167               	iorwf	(fputc@fp+1)& (0+255),w,b
  2670  002270  A4D8               	btfss	status,2,c
  2671  002272  EF3D  F011         	goto	u4251
  2672  002276  EF3F  F011         	goto	u4250
  2673  00227A                     u4251:
  2674  00227A  EF44  F011         	goto	l4411
  2675  00227E                     u4250:
  2676  00227E                     l4409:
  2677                           
  2678                           ; BSR set to: 0
  2679  00227E  5164               	movf	fputc@c& (0+255),w,b
  2680  002280  ECE9  F015         	call	_putch
  2681  002284  EF91  F011         	goto	l1369
  2682  002288                     l4411:
  2683                           
  2684                           ; BSR set to: 0
  2685  002288  EE20 F004          	lfsr	2,4
  2686  00228C  5166               	movf	fputc@fp& (0+255),w,b
  2687  00228E  26D9               	addwf	fsr2l,f,c
  2688  002290  5167               	movf	(fputc@fp+1)& (0+255),w,b
  2689  002292  22DA               	addwfc	fsr2h,f,c
  2690  002294  50DE               	movf	postinc2,w,c
  2691  002296  10DE               	iorwf	postinc2,w,c
  2692  002298  B4D8               	btfsc	status,2,c
  2693  00229A  EF51  F011         	goto	u4261
  2694  00229E  EF53  F011         	goto	u4260
  2695  0022A2                     u4261:
  2696  0022A2  EF6E  F011         	goto	l4415
  2697  0022A6                     u4260:
  2698  0022A6                     
  2699                           ; BSR set to: 0
  2700  0022A6  EE20 F004          	lfsr	2,4
  2701  0022AA  5166               	movf	fputc@fp& (0+255),w,b
  2702  0022AC  26D9               	addwf	fsr2l,f,c
  2703  0022AE  5167               	movf	(fputc@fp+1)& (0+255),w,b
  2704  0022B0  22DA               	addwfc	fsr2h,f,c
  2705  0022B2  EE10 F002          	lfsr	1,2
  2706  0022B6  5166               	movf	fputc@fp& (0+255),w,b
  2707  0022B8  26E1               	addwf	fsr1l,f,c
  2708  0022BA  5167               	movf	(fputc@fp+1)& (0+255),w,b
  2709  0022BC  22E2               	addwfc	fsr1h,f,c
  2710  0022BE  50DE               	movf	postinc2,w,c
  2711  0022C0  5CE6               	subwf	postinc1,w,c
  2712  0022C2  50E6               	movf	postinc1,w,c
  2713  0022C4  0A80               	xorlw	128
  2714  0022C6  6F6C               	movwf	(??_fputc+4)& (0+255),b
  2715  0022C8  50DE               	movf	postinc2,w,c
  2716  0022CA  0A80               	xorlw	128
  2717  0022CC  596C               	subwfb	(??_fputc+4)& (0+255),w,b
  2718  0022CE  B0D8               	btfsc	status,0,c
  2719  0022D0  EF6C  F011         	goto	u4271
  2720  0022D4  EF6E  F011         	goto	u4270
  2721  0022D8                     u4271:
  2722  0022D8  EF91  F011         	goto	l1369
  2723  0022DC                     u4270:
  2724  0022DC                     l4415:
  2725                           
  2726                           ; BSR set to: 0
  2727  0022DC  EE20 F002          	lfsr	2,2
  2728  0022E0  5166               	movf	fputc@fp& (0+255),w,b
  2729  0022E2  26D9               	addwf	fsr2l,f,c
  2730  0022E4  5167               	movf	(fputc@fp+1)& (0+255),w,b
  2731  0022E6  22DA               	addwfc	fsr2h,f,c
  2732  0022E8  CFDE F068          	movff	postinc2,??_fputc
  2733  0022EC  CFDD F069          	movff	postdec2,??_fputc+1
  2734  0022F0  C066  FFD9         	movff	fputc@fp,fsr2l
  2735  0022F4  C067  FFDA         	movff	fputc@fp+1,fsr2h
  2736  0022F8  CFDE F06A          	movff	postinc2,??_fputc+2
  2737  0022FC  CFDD F06B          	movff	postdec2,??_fputc+3
  2738  002300  5168               	movf	??_fputc& (0+255),w,b
  2739  002302  256A               	addwf	(??_fputc+2)& (0+255),w,b
  2740  002304  6ED9               	movwf	fsr2l,c
  2741  002306  5169               	movf	(??_fputc+1)& (0+255),w,b
  2742  002308  216B               	addwfc	(??_fputc+3)& (0+255),w,b
  2743  00230A  6EDA               	movwf	fsr2h,c
  2744  00230C  C064  FFDF         	movff	fputc@c,indf2
  2745  002310  EE20 F002          	lfsr	2,2
  2746  002314  5166               	movf	fputc@fp& (0+255),w,b
  2747  002316  26D9               	addwf	fsr2l,f,c
  2748  002318  5167               	movf	(fputc@fp+1)& (0+255),w,b
  2749  00231A  22DA               	addwfc	fsr2h,f,c
  2750  00231C  2ADE               	incf	postinc2,f,c
  2751  00231E  0E00               	movlw	0
  2752  002320  22DD               	addwfc	postdec2,f,c
  2753  002322                     l1369:
  2754  002322  0012               	return		;funcret
  2755  002324                     __end_of_fputc:
  2756                           	opt callstack 0
  2757                           
  2758 ;; *************** function _putch *****************
  2759 ;; Defined at:
  2760 ;;		line 7 in file "C:\Program Files (x86)\Microchip\xc8\v2.10\pic\sources\c99\common\putch.c"
  2761 ;; Parameters:    Size  Location     Type
  2762 ;;  c               1    wreg     unsigned char 
  2763 ;; Auto vars:     Size  Location     Type
  2764 ;;  c               1    0[COMRAM] unsigned char 
  2765 ;; Return value:  Size  Location     Type
  2766 ;;                  1    wreg      void 
  2767 ;; Registers used:
  2768 ;;		wreg
  2769 ;; Tracked objects:
  2770 ;;		On entry : 0/0
  2771 ;;		On exit  : 0/0
  2772 ;;		Unchanged: 0/0
  2773 ;; Data sizes:     COMRAM   BANK0   BANK1   BANK2   BANK3   BANK4   BANK5
  2774 ;;      Params:         0       0       0       0       0       0       0
  2775 ;;      Locals:         0       0       0       0       0       0       0
  2776 ;;      Temps:          0       0       0       0       0       0       0
  2777 ;;      Totals:         0       0       0       0       0       0       0
  2778 ;;Total ram usage:        0 bytes
  2779 ;; Hardware stack levels used:    1
  2780 ;; Hardware stack levels required when called:    4
  2781 ;; This function calls:
  2782 ;;		Nothing
  2783 ;; This function is called by:
  2784 ;;		_fputc
  2785 ;; This function uses a non-reentrant model
  2786 ;;
  2787                           
  2788                           	psect	text10
  2789  002BD2                     __ptext10:
  2790                           	opt callstack 0
  2791  002BD2                     _putch:
  2792                           	opt callstack 22
  2793  002BD2  0012               	return		;funcret
  2794  002BD4                     __end_of_putch:
  2795                           	opt callstack 0
  2796                           
  2797 ;; *************** function _abs *****************
  2798 ;; Defined at:
  2799 ;;		line 1 in file "C:\Program Files (x86)\Microchip\xc8\v2.10\pic\sources\c99\common\abs.c"
  2800 ;; Parameters:    Size  Location     Type
  2801 ;;  a               2   22[BANK0 ] int 
  2802 ;; Auto vars:     Size  Location     Type
  2803 ;;		None
  2804 ;; Return value:  Size  Location     Type
  2805 ;;                  2   22[BANK0 ] int 
  2806 ;; Registers used:
  2807 ;;		wreg, status,2, status,0
  2808 ;; Tracked objects:
  2809 ;;		On entry : 0/0
  2810 ;;		On exit  : 0/0
  2811 ;;		Unchanged: 0/0
  2812 ;; Data sizes:     COMRAM   BANK0   BANK1   BANK2   BANK3   BANK4   BANK5
  2813 ;;      Params:         0       2       0       0       0       0       0
  2814 ;;      Locals:         0       0       0       0       0       0       0
  2815 ;;      Temps:          0       2       0       0       0       0       0
  2816 ;;      Totals:         0       4       0       0       0       0       0
  2817 ;;Total ram usage:        4 bytes
  2818 ;; Hardware stack levels used:    1
  2819 ;; Hardware stack levels required when called:    4
  2820 ;; This function calls:
  2821 ;;		Nothing
  2822 ;; This function is called by:
  2823 ;;		_dtoa
  2824 ;; This function uses a non-reentrant model
  2825 ;;
  2826                           
  2827                           	psect	text11
  2828  002878                     __ptext11:
  2829                           	opt callstack 0
  2830  002878                     _abs:
  2831                           	opt callstack 22
  2832  002878  0100               	movlb	0	; () banked
  2833  00287A  BF77               	btfsc	(abs@a+1)& (0+255),7,b
  2834  00287C  EF4A  F014         	goto	u4340
  2835  002880  5177               	movf	(abs@a+1)& (0+255),w,b
  2836  002882  E106               	bnz	u4341
  2837  002884  0576               	decf	abs@a& (0+255),w,b
  2838  002886  B0D8               	btfsc	status,0,c
  2839  002888  EF48  F014         	goto	u4341
  2840  00288C  EF4A  F014         	goto	u4340
  2841  002890                     u4341:
  2842  002890  EF58  F014         	goto	l1354
  2843  002894                     u4340:
  2844  002894                     
  2845                           ; BSR set to: 0
  2846  002894  C076  F078         	movff	abs@a,??_abs
  2847  002898  C077  F079         	movff	abs@a+1,??_abs+1
  2848  00289C  1F78               	comf	??_abs& (0+255),f,b
  2849  00289E  1F79               	comf	(??_abs+1)& (0+255),f,b
  2850  0028A0  4B78               	infsnz	??_abs& (0+255),f,b
  2851  0028A2  2B79               	incf	(??_abs+1)& (0+255),f,b
  2852  0028A4  C078  F076         	movff	??_abs,?_abs
  2853  0028A8  C079  F077         	movff	??_abs+1,?_abs+1
  2854  0028AC  EF5C  F014         	goto	l1357
  2855  0028B0                     l1354:
  2856                           
  2857                           ; BSR set to: 0
  2858  0028B0  C076  F076         	movff	abs@a,?_abs
  2859  0028B4  C077  F077         	movff	abs@a+1,?_abs+1
  2860  0028B8                     l1357:
  2861                           
  2862                           ; BSR set to: 0
  2863  0028B8  0012               	return		;funcret
  2864  0028BA                     __end_of_abs:
  2865                           	opt callstack 0
  2866                           
  2867 ;; *************** function ___aomod *****************
  2868 ;; Defined at:
  2869 ;;		line 9 in file "C:\Program Files (x86)\Microchip\xc8\v2.10\pic\sources\c99\common\aomod.c"
  2870 ;; Parameters:    Size  Location     Type
  2871 ;;  dividend        8    4[BANK0 ] long long 
  2872 ;;  divisor         8   12[BANK0 ] long long 
  2873 ;; Auto vars:     Size  Location     Type
  2874 ;;  sign            1   21[BANK0 ] unsigned char 
  2875 ;;  counter         1   20[BANK0 ] unsigned char 
  2876 ;; Return value:  Size  Location     Type
  2877 ;;                  8    4[BANK0 ] long long 
  2878 ;; Registers used:
  2879 ;;		wreg, status,2, status,0
  2880 ;; Tracked objects:
  2881 ;;		On entry : 0/0
  2882 ;;		On exit  : 0/0
  2883 ;;		Unchanged: 0/0
  2884 ;; Data sizes:     COMRAM   BANK0   BANK1   BANK2   BANK3   BANK4   BANK5
  2885 ;;      Params:         0      16       0       0       0       0       0
  2886 ;;      Locals:         0       2       0       0       0       0       0
  2887 ;;      Temps:          0       0       0       0       0       0       0
  2888 ;;      Totals:         0      18       0       0       0       0       0
  2889 ;;Total ram usage:       18 bytes
  2890 ;; Hardware stack levels used:    1
  2891 ;; Hardware stack levels required when called:    4
  2892 ;; This function calls:
  2893 ;;		Nothing
  2894 ;; This function is called by:
  2895 ;;		_dtoa
  2896 ;; This function uses a non-reentrant model
  2897 ;;
  2898                           
  2899                           	psect	text12
  2900  001CD0                     __ptext12:
  2901                           	opt callstack 0
  2902  001CD0                     ___aomod:
  2903                           	opt callstack 22
  2904  001CD0  0E00               	movlw	0
  2905  001CD2  0100               	movlb	0	; () banked
  2906  001CD4  6F75               	movwf	___aomod@sign& (0+255),b
  2907  001CD6                     
  2908                           ; BSR set to: 0
  2909  001CD6  BF6B               	btfsc	(___aomod@dividend+7)& (0+255),7,b
  2910  001CD8  EF72  F00E         	goto	u4420
  2911  001CDC  EF70  F00E         	goto	u4421
  2912  001CE0                     u4421:
  2913  001CE0  EF84  F00E         	goto	l4515
  2914  001CE4                     u4420:
  2915  001CE4                     
  2916                           ; BSR set to: 0
  2917  001CE4  1F6B               	comf	(___aomod@dividend+7)& (0+255),f,b
  2918  001CE6  1F6A               	comf	(___aomod@dividend+6)& (0+255),f,b
  2919  001CE8  1F69               	comf	(___aomod@dividend+5)& (0+255),f,b
  2920  001CEA  1F68               	comf	(___aomod@dividend+4)& (0+255),f,b
  2921  001CEC  1F67               	comf	(___aomod@dividend+3)& (0+255),f,b
  2922  001CEE  1F66               	comf	(___aomod@dividend+2)& (0+255),f,b
  2923  001CF0  1F65               	comf	(___aomod@dividend+1)& (0+255),f,b
  2924  001CF2  6D64               	negf	___aomod@dividend& (0+255),b
  2925  001CF4  0E00               	movlw	0
  2926  001CF6  2365               	addwfc	(___aomod@dividend+1)& (0+255),f,b
  2927  001CF8  2366               	addwfc	(___aomod@dividend+2)& (0+255),f,b
  2928  001CFA  2367               	addwfc	(___aomod@dividend+3)& (0+255),f,b
  2929  001CFC  2368               	addwfc	(___aomod@dividend+4)& (0+255),f,b
  2930  001CFE  2369               	addwfc	(___aomod@dividend+5)& (0+255),f,b
  2931  001D00  236A               	addwfc	(___aomod@dividend+6)& (0+255),f,b
  2932  001D02  236B               	addwfc	(___aomod@dividend+7)& (0+255),f,b
  2933  001D04                     
  2934                           ; BSR set to: 0
  2935  001D04  0E01               	movlw	1
  2936  001D06  6F75               	movwf	___aomod@sign& (0+255),b
  2937  001D08                     l4515:
  2938                           
  2939                           ; BSR set to: 0
  2940  001D08  BF73               	btfsc	(___aomod@divisor+7)& (0+255),7,b
  2941  001D0A  EF8B  F00E         	goto	u4430
  2942  001D0E  EF89  F00E         	goto	u4431
  2943  001D12                     u4431:
  2944  001D12  EF9B  F00E         	goto	l4519
  2945  001D16                     u4430:
  2946  001D16                     
  2947                           ; BSR set to: 0
  2948  001D16  1F73               	comf	(___aomod@divisor+7)& (0+255),f,b
  2949  001D18  1F72               	comf	(___aomod@divisor+6)& (0+255),f,b
  2950  001D1A  1F71               	comf	(___aomod@divisor+5)& (0+255),f,b
  2951  001D1C  1F70               	comf	(___aomod@divisor+4)& (0+255),f,b
  2952  001D1E  1F6F               	comf	(___aomod@divisor+3)& (0+255),f,b
  2953  001D20  1F6E               	comf	(___aomod@divisor+2)& (0+255),f,b
  2954  001D22  1F6D               	comf	(___aomod@divisor+1)& (0+255),f,b
  2955  001D24  6D6C               	negf	___aomod@divisor& (0+255),b
  2956  001D26  0E00               	movlw	0
  2957  001D28  236D               	addwfc	(___aomod@divisor+1)& (0+255),f,b
  2958  001D2A  236E               	addwfc	(___aomod@divisor+2)& (0+255),f,b
  2959  001D2C  236F               	addwfc	(___aomod@divisor+3)& (0+255),f,b
  2960  001D2E  2370               	addwfc	(___aomod@divisor+4)& (0+255),f,b
  2961  001D30  2371               	addwfc	(___aomod@divisor+5)& (0+255),f,b
  2962  001D32  2372               	addwfc	(___aomod@divisor+6)& (0+255),f,b
  2963  001D34  2373               	addwfc	(___aomod@divisor+7)& (0+255),f,b
  2964  001D36                     l4519:
  2965                           
  2966                           ; BSR set to: 0
  2967  001D36  516C               	movf	___aomod@divisor& (0+255),w,b
  2968  001D38  116D               	iorwf	(___aomod@divisor+1)& (0+255),w,b
  2969  001D3A  116E               	iorwf	(___aomod@divisor+2)& (0+255),w,b
  2970  001D3C  116F               	iorwf	(___aomod@divisor+3)& (0+255),w,b
  2971  001D3E  1170               	iorwf	(___aomod@divisor+4)& (0+255),w,b
  2972  001D40  1171               	iorwf	(___aomod@divisor+5)& (0+255),w,b
  2973  001D42  1172               	iorwf	(___aomod@divisor+6)& (0+255),w,b
  2974  001D44  1173               	iorwf	(___aomod@divisor+7)& (0+255),w,b
  2975  001D46  B4D8               	btfsc	status,2,c
  2976  001D48  EFA8  F00E         	goto	u4441
  2977  001D4C  EFAA  F00E         	goto	u4440
  2978  001D50                     u4441:
  2979  001D50  EFF2  F00E         	goto	l4535
  2980  001D54                     u4440:
  2981  001D54                     
  2982                           ; BSR set to: 0
  2983  001D54  0E01               	movlw	1
  2984  001D56  6F74               	movwf	___aomod@counter& (0+255),b
  2985  001D58  EFB8  F00E         	goto	l4525
  2986  001D5C                     l4523:
  2987                           
  2988                           ; BSR set to: 0
  2989  001D5C  90D8               	bcf	status,0,c
  2990  001D5E  376C               	rlcf	___aomod@divisor& (0+255),f,b
  2991  001D60  376D               	rlcf	(___aomod@divisor+1)& (0+255),f,b
  2992  001D62  376E               	rlcf	(___aomod@divisor+2)& (0+255),f,b
  2993  001D64  376F               	rlcf	(___aomod@divisor+3)& (0+255),f,b
  2994  001D66  3770               	rlcf	(___aomod@divisor+4)& (0+255),f,b
  2995  001D68  3771               	rlcf	(___aomod@divisor+5)& (0+255),f,b
  2996  001D6A  3772               	rlcf	(___aomod@divisor+6)& (0+255),f,b
  2997  001D6C  3773               	rlcf	(___aomod@divisor+7)& (0+255),f,b
  2998  001D6E  2B74               	incf	___aomod@counter& (0+255),f,b
  2999  001D70                     l4525:
  3000                           
  3001                           ; BSR set to: 0
  3002  001D70  AF73               	btfss	(___aomod@divisor+7)& (0+255),7,b
  3003  001D72  EFBD  F00E         	goto	u4451
  3004  001D76  EFBF  F00E         	goto	u4450
  3005  001D7A                     u4451:
  3006  001D7A  EFAE  F00E         	goto	l4523
  3007  001D7E                     u4450:
  3008  001D7E                     l4527:
  3009                           
  3010                           ; BSR set to: 0
  3011  001D7E  516C               	movf	___aomod@divisor& (0+255),w,b
  3012  001D80  5D64               	subwf	___aomod@dividend& (0+255),w,b
  3013  001D82  516D               	movf	(___aomod@divisor+1)& (0+255),w,b
  3014  001D84  5965               	subwfb	(___aomod@dividend+1)& (0+255),w,b
  3015  001D86  516E               	movf	(___aomod@divisor+2)& (0+255),w,b
  3016  001D88  5966               	subwfb	(___aomod@dividend+2)& (0+255),w,b
  3017  001D8A  516F               	movf	(___aomod@divisor+3)& (0+255),w,b
  3018  001D8C  5967               	subwfb	(___aomod@dividend+3)& (0+255),w,b
  3019  001D8E  5170               	movf	(___aomod@divisor+4)& (0+255),w,b
  3020  001D90  5968               	subwfb	(___aomod@dividend+4)& (0+255),w,b
  3021  001D92  5171               	movf	(___aomod@divisor+5)& (0+255),w,b
  3022  001D94  5969               	subwfb	(___aomod@dividend+5)& (0+255),w,b
  3023  001D96  5172               	movf	(___aomod@divisor+6)& (0+255),w,b
  3024  001D98  596A               	subwfb	(___aomod@dividend+6)& (0+255),w,b
  3025  001D9A  5173               	movf	(___aomod@divisor+7)& (0+255),w,b
  3026  001D9C  596B               	subwfb	(___aomod@dividend+7)& (0+255),w,b
  3027  001D9E  A0D8               	btfss	status,0,c
  3028  001DA0  EFD4  F00E         	goto	u4461
  3029  001DA4  EFD6  F00E         	goto	u4460
  3030  001DA8                     u4461:
  3031  001DA8  EFE6  F00E         	goto	l4531
  3032  001DAC                     u4460:
  3033  001DAC                     
  3034                           ; BSR set to: 0
  3035  001DAC  516C               	movf	___aomod@divisor& (0+255),w,b
  3036  001DAE  5F64               	subwf	___aomod@dividend& (0+255),f,b
  3037  001DB0  516D               	movf	(___aomod@divisor+1)& (0+255),w,b
  3038  001DB2  5B65               	subwfb	(___aomod@dividend+1)& (0+255),f,b
  3039  001DB4  516E               	movf	(___aomod@divisor+2)& (0+255),w,b
  3040  001DB6  5B66               	subwfb	(___aomod@dividend+2)& (0+255),f,b
  3041  001DB8  516F               	movf	(___aomod@divisor+3)& (0+255),w,b
  3042  001DBA  5B67               	subwfb	(___aomod@dividend+3)& (0+255),f,b
  3043  001DBC  5170               	movf	(___aomod@divisor+4)& (0+255),w,b
  3044  001DBE  5B68               	subwfb	(___aomod@dividend+4)& (0+255),f,b
  3045  001DC0  5171               	movf	(___aomod@divisor+5)& (0+255),w,b
  3046  001DC2  5B69               	subwfb	(___aomod@dividend+5)& (0+255),f,b
  3047  001DC4  5172               	movf	(___aomod@divisor+6)& (0+255),w,b
  3048  001DC6  5B6A               	subwfb	(___aomod@dividend+6)& (0+255),f,b
  3049  001DC8  5173               	movf	(___aomod@divisor+7)& (0+255),w,b
  3050  001DCA  5B6B               	subwfb	(___aomod@dividend+7)& (0+255),f,b
  3051  001DCC                     l4531:
  3052                           
  3053                           ; BSR set to: 0
  3054  001DCC  90D8               	bcf	status,0,c
  3055  001DCE  3373               	rrcf	(___aomod@divisor+7)& (0+255),f,b
  3056  001DD0  3372               	rrcf	(___aomod@divisor+6)& (0+255),f,b
  3057  001DD2  3371               	rrcf	(___aomod@divisor+5)& (0+255),f,b
  3058  001DD4  3370               	rrcf	(___aomod@divisor+4)& (0+255),f,b
  3059  001DD6  336F               	rrcf	(___aomod@divisor+3)& (0+255),f,b
  3060  001DD8  336E               	rrcf	(___aomod@divisor+2)& (0+255),f,b
  3061  001DDA  336D               	rrcf	(___aomod@divisor+1)& (0+255),f,b
  3062  001DDC  336C               	rrcf	___aomod@divisor& (0+255),f,b
  3063  001DDE                     
  3064                           ; BSR set to: 0
  3065  001DDE  2F74               	decfsz	___aomod@counter& (0+255),f,b
  3066  001DE0  EFBF  F00E         	goto	l4527
  3067  001DE4                     l4535:
  3068                           
  3069                           ; BSR set to: 0
  3070  001DE4  5175               	movf	___aomod@sign& (0+255),w,b
  3071  001DE6  B4D8               	btfsc	status,2,c
  3072  001DE8  EFF8  F00E         	goto	u4471
  3073  001DEC  EFFA  F00E         	goto	u4470
  3074  001DF0                     u4471:
  3075  001DF0  EF0A  F00F         	goto	l4539
  3076  001DF4                     u4470:
  3077  001DF4                     
  3078                           ; BSR set to: 0
  3079  001DF4  1F6B               	comf	(___aomod@dividend+7)& (0+255),f,b
  3080  001DF6  1F6A               	comf	(___aomod@dividend+6)& (0+255),f,b
  3081  001DF8  1F69               	comf	(___aomod@dividend+5)& (0+255),f,b
  3082  001DFA  1F68               	comf	(___aomod@dividend+4)& (0+255),f,b
  3083  001DFC  1F67               	comf	(___aomod@dividend+3)& (0+255),f,b
  3084  001DFE  1F66               	comf	(___aomod@dividend+2)& (0+255),f,b
  3085  001E00  1F65               	comf	(___aomod@dividend+1)& (0+255),f,b
  3086  001E02  6D64               	negf	___aomod@dividend& (0+255),b
  3087  001E04  0E00               	movlw	0
  3088  001E06  2365               	addwfc	(___aomod@dividend+1)& (0+255),f,b
  3089  001E08  2366               	addwfc	(___aomod@dividend+2)& (0+255),f,b
  3090  001E0A  2367               	addwfc	(___aomod@dividend+3)& (0+255),f,b
  3091  001E0C  2368               	addwfc	(___aomod@dividend+4)& (0+255),f,b
  3092  001E0E  2369               	addwfc	(___aomod@dividend+5)& (0+255),f,b
  3093  001E10  236A               	addwfc	(___aomod@dividend+6)& (0+255),f,b
  3094  001E12  236B               	addwfc	(___aomod@dividend+7)& (0+255),f,b
  3095  001E14                     l4539:
  3096                           
  3097                           ; BSR set to: 0
  3098  001E14  C064  F064         	movff	___aomod@dividend,?___aomod
  3099  001E18  C065  F065         	movff	___aomod@dividend+1,?___aomod+1
  3100  001E1C  C066  F066         	movff	___aomod@dividend+2,?___aomod+2
  3101  001E20  C067  F067         	movff	___aomod@dividend+3,?___aomod+3
  3102  001E24  C068  F068         	movff	___aomod@dividend+4,?___aomod+4
  3103  001E28  C069  F069         	movff	___aomod@dividend+5,?___aomod+5
  3104  001E2C  C06A  F06A         	movff	___aomod@dividend+6,?___aomod+6
  3105  001E30  C06B  F06B         	movff	___aomod@dividend+7,?___aomod+7
  3106  001E34                     
  3107                           ; BSR set to: 0
  3108  001E34  0012               	return		;funcret
  3109  001E36                     __end_of___aomod:
  3110                           	opt callstack 0
  3111                           
  3112 ;; *************** function ___aodiv *****************
  3113 ;; Defined at:
  3114 ;;		line 9 in file "C:\Program Files (x86)\Microchip\xc8\v2.10\pic\sources\c99\common\aodiv.c"
  3115 ;; Parameters:    Size  Location     Type
  3116 ;;  dividend        8    4[BANK0 ] long long 
  3117 ;;  divisor         8   12[BANK0 ] long long 
  3118 ;; Auto vars:     Size  Location     Type
  3119 ;;  quotient        8   22[BANK0 ] long long 
  3120 ;;  sign            1   21[BANK0 ] unsigned char 
  3121 ;;  counter         1   20[BANK0 ] unsigned char 
  3122 ;; Return value:  Size  Location     Type
  3123 ;;                  8    4[BANK0 ] long long 
  3124 ;; Registers used:
  3125 ;;		wreg, fsr2l, fsr2h, status,2, status,0
  3126 ;; Tracked objects:
  3127 ;;		On entry : 0/0
  3128 ;;		On exit  : 0/0
  3129 ;;		Unchanged: 0/0
  3130 ;; Data sizes:     COMRAM   BANK0   BANK1   BANK2   BANK3   BANK4   BANK5
  3131 ;;      Params:         0      16       0       0       0       0       0
  3132 ;;      Locals:         0      10       0       0       0       0       0
  3133 ;;      Temps:          0       0       0       0       0       0       0
  3134 ;;      Totals:         0      26       0       0       0       0       0
  3135 ;;Total ram usage:       26 bytes
  3136 ;; Hardware stack levels used:    1
  3137 ;; Hardware stack levels required when called:    4
  3138 ;; This function calls:
  3139 ;;		Nothing
  3140 ;; This function is called by:
  3141 ;;		_dtoa
  3142 ;; This function uses a non-reentrant model
  3143 ;;
  3144                           
  3145                           	psect	text13
  3146  001B46                     __ptext13:
  3147                           	opt callstack 0
  3148  001B46                     ___aodiv:
  3149                           	opt callstack 22
  3150  001B46  0E00               	movlw	0
  3151  001B48  0100               	movlb	0	; () banked
  3152  001B4A  6F75               	movwf	___aodiv@sign& (0+255),b
  3153  001B4C                     
  3154                           ; BSR set to: 0
  3155  001B4C  BF73               	btfsc	(___aodiv@divisor+7)& (0+255),7,b
  3156  001B4E  EFAD  F00D         	goto	u4350
  3157  001B52  EFAB  F00D         	goto	u4351
  3158  001B56                     u4351:
  3159  001B56  EFBF  F00D         	goto	l4471
  3160  001B5A                     u4350:
  3161  001B5A                     
  3162                           ; BSR set to: 0
  3163  001B5A  1F73               	comf	(___aodiv@divisor+7)& (0+255),f,b
  3164  001B5C  1F72               	comf	(___aodiv@divisor+6)& (0+255),f,b
  3165  001B5E  1F71               	comf	(___aodiv@divisor+5)& (0+255),f,b
  3166  001B60  1F70               	comf	(___aodiv@divisor+4)& (0+255),f,b
  3167  001B62  1F6F               	comf	(___aodiv@divisor+3)& (0+255),f,b
  3168  001B64  1F6E               	comf	(___aodiv@divisor+2)& (0+255),f,b
  3169  001B66  1F6D               	comf	(___aodiv@divisor+1)& (0+255),f,b
  3170  001B68  6D6C               	negf	___aodiv@divisor& (0+255),b
  3171  001B6A  0E00               	movlw	0
  3172  001B6C  236D               	addwfc	(___aodiv@divisor+1)& (0+255),f,b
  3173  001B6E  236E               	addwfc	(___aodiv@divisor+2)& (0+255),f,b
  3174  001B70  236F               	addwfc	(___aodiv@divisor+3)& (0+255),f,b
  3175  001B72  2370               	addwfc	(___aodiv@divisor+4)& (0+255),f,b
  3176  001B74  2371               	addwfc	(___aodiv@divisor+5)& (0+255),f,b
  3177  001B76  2372               	addwfc	(___aodiv@divisor+6)& (0+255),f,b
  3178  001B78  2373               	addwfc	(___aodiv@divisor+7)& (0+255),f,b
  3179  001B7A                     
  3180                           ; BSR set to: 0
  3181  001B7A  0E01               	movlw	1
  3182  001B7C  6F75               	movwf	___aodiv@sign& (0+255),b
  3183  001B7E                     l4471:
  3184                           
  3185                           ; BSR set to: 0
  3186  001B7E  BF6B               	btfsc	(___aodiv@dividend+7)& (0+255),7,b
  3187  001B80  EFC6  F00D         	goto	u4360
  3188  001B84  EFC4  F00D         	goto	u4361
  3189  001B88                     u4361:
  3190  001B88  EFD8  F00D         	goto	l4477
  3191  001B8C                     u4360:
  3192  001B8C                     
  3193                           ; BSR set to: 0
  3194  001B8C  1F6B               	comf	(___aodiv@dividend+7)& (0+255),f,b
  3195  001B8E  1F6A               	comf	(___aodiv@dividend+6)& (0+255),f,b
  3196  001B90  1F69               	comf	(___aodiv@dividend+5)& (0+255),f,b
  3197  001B92  1F68               	comf	(___aodiv@dividend+4)& (0+255),f,b
  3198  001B94  1F67               	comf	(___aodiv@dividend+3)& (0+255),f,b
  3199  001B96  1F66               	comf	(___aodiv@dividend+2)& (0+255),f,b
  3200  001B98  1F65               	comf	(___aodiv@dividend+1)& (0+255),f,b
  3201  001B9A  6D64               	negf	___aodiv@dividend& (0+255),b
  3202  001B9C  0E00               	movlw	0
  3203  001B9E  2365               	addwfc	(___aodiv@dividend+1)& (0+255),f,b
  3204  001BA0  2366               	addwfc	(___aodiv@dividend+2)& (0+255),f,b
  3205  001BA2  2367               	addwfc	(___aodiv@dividend+3)& (0+255),f,b
  3206  001BA4  2368               	addwfc	(___aodiv@dividend+4)& (0+255),f,b
  3207  001BA6  2369               	addwfc	(___aodiv@dividend+5)& (0+255),f,b
  3208  001BA8  236A               	addwfc	(___aodiv@dividend+6)& (0+255),f,b
  3209  001BAA  236B               	addwfc	(___aodiv@dividend+7)& (0+255),f,b
  3210  001BAC                     
  3211                           ; BSR set to: 0
  3212  001BAC  0E01               	movlw	1
  3213  001BAE  1B75               	xorwf	___aodiv@sign& (0+255),f,b
  3214  001BB0                     l4477:
  3215                           
  3216                           ; BSR set to: 0
  3217  001BB0  EE20  F076         	lfsr	2,___aodiv@quotient
  3218  001BB4  0E07               	movlw	7
  3219  001BB6                     u4371:
  3220  001BB6  6ADE               	clrf	postinc2,c
  3221  001BB8  06E8               	decf	wreg,f,c
  3222  001BBA  E2FD               	bc	u4371
  3223  001BBC                     
  3224                           ; BSR set to: 0
  3225  001BBC  516C               	movf	___aodiv@divisor& (0+255),w,b
  3226  001BBE  116D               	iorwf	(___aodiv@divisor+1)& (0+255),w,b
  3227  001BC0  116E               	iorwf	(___aodiv@divisor+2)& (0+255),w,b
  3228  001BC2  116F               	iorwf	(___aodiv@divisor+3)& (0+255),w,b
  3229  001BC4  1170               	iorwf	(___aodiv@divisor+4)& (0+255),w,b
  3230  001BC6  1171               	iorwf	(___aodiv@divisor+5)& (0+255),w,b
  3231  001BC8  1172               	iorwf	(___aodiv@divisor+6)& (0+255),w,b
  3232  001BCA  1173               	iorwf	(___aodiv@divisor+7)& (0+255),w,b
  3233  001BCC  B4D8               	btfsc	status,2,c
  3234  001BCE  EFEB  F00D         	goto	u4381
  3235  001BD2  EFED  F00D         	goto	u4380
  3236  001BD6                     u4381:
  3237  001BD6  EF3F  F00E         	goto	l4499
  3238  001BDA                     u4380:
  3239  001BDA                     
  3240                           ; BSR set to: 0
  3241  001BDA  0E01               	movlw	1
  3242  001BDC  6F74               	movwf	___aodiv@counter& (0+255),b
  3243  001BDE  EFFB  F00D         	goto	l4485
  3244  001BE2                     l4483:
  3245                           
  3246                           ; BSR set to: 0
  3247  001BE2  90D8               	bcf	status,0,c
  3248  001BE4  376C               	rlcf	___aodiv@divisor& (0+255),f,b
  3249  001BE6  376D               	rlcf	(___aodiv@divisor+1)& (0+255),f,b
  3250  001BE8  376E               	rlcf	(___aodiv@divisor+2)& (0+255),f,b
  3251  001BEA  376F               	rlcf	(___aodiv@divisor+3)& (0+255),f,b
  3252  001BEC  3770               	rlcf	(___aodiv@divisor+4)& (0+255),f,b
  3253  001BEE  3771               	rlcf	(___aodiv@divisor+5)& (0+255),f,b
  3254  001BF0  3772               	rlcf	(___aodiv@divisor+6)& (0+255),f,b
  3255  001BF2  3773               	rlcf	(___aodiv@divisor+7)& (0+255),f,b
  3256  001BF4  2B74               	incf	___aodiv@counter& (0+255),f,b
  3257  001BF6                     l4485:
  3258                           
  3259                           ; BSR set to: 0
  3260  001BF6  AF73               	btfss	(___aodiv@divisor+7)& (0+255),7,b
  3261  001BF8  EF00  F00E         	goto	u4391
  3262  001BFC  EF02  F00E         	goto	u4390
  3263  001C00                     u4391:
  3264  001C00  EFF1  F00D         	goto	l4483
  3265  001C04                     u4390:
  3266  001C04                     l4487:
  3267                           
  3268                           ; BSR set to: 0
  3269  001C04  90D8               	bcf	status,0,c
  3270  001C06  3776               	rlcf	___aodiv@quotient& (0+255),f,b
  3271  001C08  3777               	rlcf	(___aodiv@quotient+1)& (0+255),f,b
  3272  001C0A  3778               	rlcf	(___aodiv@quotient+2)& (0+255),f,b
  3273  001C0C  3779               	rlcf	(___aodiv@quotient+3)& (0+255),f,b
  3274  001C0E  377A               	rlcf	(___aodiv@quotient+4)& (0+255),f,b
  3275  001C10  377B               	rlcf	(___aodiv@quotient+5)& (0+255),f,b
  3276  001C12  377C               	rlcf	(___aodiv@quotient+6)& (0+255),f,b
  3277  001C14  377D               	rlcf	(___aodiv@quotient+7)& (0+255),f,b
  3278  001C16                     
  3279                           ; BSR set to: 0
  3280  001C16  516C               	movf	___aodiv@divisor& (0+255),w,b
  3281  001C18  5D64               	subwf	___aodiv@dividend& (0+255),w,b
  3282  001C1A  516D               	movf	(___aodiv@divisor+1)& (0+255),w,b
  3283  001C1C  5965               	subwfb	(___aodiv@dividend+1)& (0+255),w,b
  3284  001C1E  516E               	movf	(___aodiv@divisor+2)& (0+255),w,b
  3285  001C20  5966               	subwfb	(___aodiv@dividend+2)& (0+255),w,b
  3286  001C22  516F               	movf	(___aodiv@divisor+3)& (0+255),w,b
  3287  001C24  5967               	subwfb	(___aodiv@dividend+3)& (0+255),w,b
  3288  001C26  5170               	movf	(___aodiv@divisor+4)& (0+255),w,b
  3289  001C28  5968               	subwfb	(___aodiv@dividend+4)& (0+255),w,b
  3290  001C2A  5171               	movf	(___aodiv@divisor+5)& (0+255),w,b
  3291  001C2C  5969               	subwfb	(___aodiv@dividend+5)& (0+255),w,b
  3292  001C2E  5172               	movf	(___aodiv@divisor+6)& (0+255),w,b
  3293  001C30  596A               	subwfb	(___aodiv@dividend+6)& (0+255),w,b
  3294  001C32  5173               	movf	(___aodiv@divisor+7)& (0+255),w,b
  3295  001C34  596B               	subwfb	(___aodiv@dividend+7)& (0+255),w,b
  3296  001C36  A0D8               	btfss	status,0,c
  3297  001C38  EF20  F00E         	goto	u4401
  3298  001C3C  EF22  F00E         	goto	u4400
  3299  001C40                     u4401:
  3300  001C40  EF33  F00E         	goto	l4495
  3301  001C44                     u4400:
  3302  001C44                     
  3303                           ; BSR set to: 0
  3304  001C44  516C               	movf	___aodiv@divisor& (0+255),w,b
  3305  001C46  5F64               	subwf	___aodiv@dividend& (0+255),f,b
  3306  001C48  516D               	movf	(___aodiv@divisor+1)& (0+255),w,b
  3307  001C4A  5B65               	subwfb	(___aodiv@dividend+1)& (0+255),f,b
  3308  001C4C  516E               	movf	(___aodiv@divisor+2)& (0+255),w,b
  3309  001C4E  5B66               	subwfb	(___aodiv@dividend+2)& (0+255),f,b
  3310  001C50  516F               	movf	(___aodiv@divisor+3)& (0+255),w,b
  3311  001C52  5B67               	subwfb	(___aodiv@dividend+3)& (0+255),f,b
  3312  001C54  5170               	movf	(___aodiv@divisor+4)& (0+255),w,b
  3313  001C56  5B68               	subwfb	(___aodiv@dividend+4)& (0+255),f,b
  3314  001C58  5171               	movf	(___aodiv@divisor+5)& (0+255),w,b
  3315  001C5A  5B69               	subwfb	(___aodiv@dividend+5)& (0+255),f,b
  3316  001C5C  5172               	movf	(___aodiv@divisor+6)& (0+255),w,b
  3317  001C5E  5B6A               	subwfb	(___aodiv@dividend+6)& (0+255),f,b
  3318  001C60  5173               	movf	(___aodiv@divisor+7)& (0+255),w,b
  3319  001C62  5B6B               	subwfb	(___aodiv@dividend+7)& (0+255),f,b
  3320  001C64                     
  3321                           ; BSR set to: 0
  3322  001C64  8176               	bsf	___aodiv@quotient& (0+255),0,b
  3323  001C66                     l4495:
  3324                           
  3325                           ; BSR set to: 0
  3326  001C66  90D8               	bcf	status,0,c
  3327  001C68  3373               	rrcf	(___aodiv@divisor+7)& (0+255),f,b
  3328  001C6A  3372               	rrcf	(___aodiv@divisor+6)& (0+255),f,b
  3329  001C6C  3371               	rrcf	(___aodiv@divisor+5)& (0+255),f,b
  3330  001C6E  3370               	rrcf	(___aodiv@divisor+4)& (0+255),f,b
  3331  001C70  336F               	rrcf	(___aodiv@divisor+3)& (0+255),f,b
  3332  001C72  336E               	rrcf	(___aodiv@divisor+2)& (0+255),f,b
  3333  001C74  336D               	rrcf	(___aodiv@divisor+1)& (0+255),f,b
  3334  001C76  336C               	rrcf	___aodiv@divisor& (0+255),f,b
  3335  001C78                     
  3336                           ; BSR set to: 0
  3337  001C78  2F74               	decfsz	___aodiv@counter& (0+255),f,b
  3338  001C7A  EF02  F00E         	goto	l4487
  3339  001C7E                     l4499:
  3340                           
  3341                           ; BSR set to: 0
  3342  001C7E  5175               	movf	___aodiv@sign& (0+255),w,b
  3343  001C80  B4D8               	btfsc	status,2,c
  3344  001C82  EF45  F00E         	goto	u4411
  3345  001C86  EF47  F00E         	goto	u4410
  3346  001C8A                     u4411:
  3347  001C8A  EF57  F00E         	goto	l4503
  3348  001C8E                     u4410:
  3349  001C8E                     
  3350                           ; BSR set to: 0
  3351  001C8E  1F7D               	comf	(___aodiv@quotient+7)& (0+255),f,b
  3352  001C90  1F7C               	comf	(___aodiv@quotient+6)& (0+255),f,b
  3353  001C92  1F7B               	comf	(___aodiv@quotient+5)& (0+255),f,b
  3354  001C94  1F7A               	comf	(___aodiv@quotient+4)& (0+255),f,b
  3355  001C96  1F79               	comf	(___aodiv@quotient+3)& (0+255),f,b
  3356  001C98  1F78               	comf	(___aodiv@quotient+2)& (0+255),f,b
  3357  001C9A  1F77               	comf	(___aodiv@quotient+1)& (0+255),f,b
  3358  001C9C  6D76               	negf	___aodiv@quotient& (0+255),b
  3359  001C9E  0E00               	movlw	0
  3360  001CA0  2377               	addwfc	(___aodiv@quotient+1)& (0+255),f,b
  3361  001CA2  2378               	addwfc	(___aodiv@quotient+2)& (0+255),f,b
  3362  001CA4  2379               	addwfc	(___aodiv@quotient+3)& (0+255),f,b
  3363  001CA6  237A               	addwfc	(___aodiv@quotient+4)& (0+255),f,b
  3364  001CA8  237B               	addwfc	(___aodiv@quotient+5)& (0+255),f,b
  3365  001CAA  237C               	addwfc	(___aodiv@quotient+6)& (0+255),f,b
  3366  001CAC  237D               	addwfc	(___aodiv@quotient+7)& (0+255),f,b
  3367  001CAE                     l4503:
  3368                           
  3369                           ; BSR set to: 0
  3370  001CAE  C076  F064         	movff	___aodiv@quotient,?___aodiv
  3371  001CB2  C077  F065         	movff	___aodiv@quotient+1,?___aodiv+1
  3372  001CB6  C078  F066         	movff	___aodiv@quotient+2,?___aodiv+2
  3373  001CBA  C079  F067         	movff	___aodiv@quotient+3,?___aodiv+3
  3374  001CBE  C07A  F068         	movff	___aodiv@quotient+4,?___aodiv+4
  3375  001CC2  C07B  F069         	movff	___aodiv@quotient+5,?___aodiv+5
  3376  001CC6  C07C  F06A         	movff	___aodiv@quotient+6,?___aodiv+6
  3377  001CCA  C07D  F06B         	movff	___aodiv@quotient+7,?___aodiv+7
  3378  001CCE                     
  3379                           ; BSR set to: 0
  3380  001CCE  0012               	return		;funcret
  3381  001CD0                     __end_of___aodiv:
  3382                           	opt callstack 0
  3383                           
  3384 ;; *************** function _SYSTEM_Initialize *****************
  3385 ;; Defined at:
  3386 ;;		line 50 in file "mcc_generated_files/mcc.c"
  3387 ;; Parameters:    Size  Location     Type
  3388 ;;		None
  3389 ;; Auto vars:     Size  Location     Type
  3390 ;;		None
  3391 ;; Return value:  Size  Location     Type
  3392 ;;                  1    wreg      void 
  3393 ;; Registers used:
  3394 ;;		wreg, status,2, status,0, cstack
  3395 ;; Tracked objects:
  3396 ;;		On entry : 0/0
  3397 ;;		On exit  : 0/0
  3398 ;;		Unchanged: 0/0
  3399 ;; Data sizes:     COMRAM   BANK0   BANK1   BANK2   BANK3   BANK4   BANK5
  3400 ;;      Params:         0       0       0       0       0       0       0
  3401 ;;      Locals:         0       0       0       0       0       0       0
  3402 ;;      Temps:          0       0       0       0       0       0       0
  3403 ;;      Totals:         0       0       0       0       0       0       0
  3404 ;;Total ram usage:        0 bytes
  3405 ;; Hardware stack levels used:    1
  3406 ;; Hardware stack levels required when called:    6
  3407 ;; This function calls:
  3408 ;;		_ADC_Initialize
  3409 ;;		_EPWM1_Initialize
  3410 ;;		_EXT_INT_Initialize
  3411 ;;		_INTERRUPT_Initialize
  3412 ;;		_OSCILLATOR_Initialize
  3413 ;;		_PIN_MANAGER_Initialize
  3414 ;;		_TMR0_Initialize
  3415 ;;		_TMR2_Initialize
  3416 ;; This function is called by:
  3417 ;;		_main
  3418 ;; This function uses a non-reentrant model
  3419 ;;
  3420                           
  3421                           	psect	text14
  3422  002ADA                     __ptext14:
  3423                           	opt callstack 0
  3424  002ADA                     _SYSTEM_Initialize:
  3425                           	opt callstack 24
  3426  002ADA                     
  3427                           ;mcc_generated_files/mcc.c: 53:     INTERRUPT_Initialize();
  3428  002ADA  ECB9  F015         	call	_INTERRUPT_Initialize	;wreg free
  3429  002ADE                     
  3430                           ;mcc_generated_files/mcc.c: 54:     PIN_MANAGER_Initialize();
  3431  002ADE  ECB2  F013         	call	_PIN_MANAGER_Initialize	;wreg free
  3432  002AE2                     
  3433                           ;mcc_generated_files/mcc.c: 55:     OSCILLATOR_Initialize();
  3434  002AE2  ECB2  F015         	call	_OSCILLATOR_Initialize	;wreg free
  3435  002AE6                     
  3436                           ;mcc_generated_files/mcc.c: 56:     ADC_Initialize();
  3437  002AE6  EC47  F015         	call	_ADC_Initialize	;wreg free
  3438  002AEA                     
  3439                           ;mcc_generated_files/mcc.c: 57:     EPWM1_Initialize();
  3440  002AEA  EC7E  F015         	call	_EPWM1_Initialize	;wreg free
  3441  002AEE                     
  3442                           ;mcc_generated_files/mcc.c: 58:     TMR2_Initialize();
  3443  002AEE  ECA2  F015         	call	_TMR2_Initialize	;wreg free
  3444  002AF2                     
  3445                           ;mcc_generated_files/mcc.c: 59:     EXT_INT_Initialize();
  3446  002AF2  EC5D  F014         	call	_EXT_INT_Initialize	;wreg free
  3447  002AF6                     
  3448                           ;mcc_generated_files/mcc.c: 60:     TMR0_Initialize();
  3449  002AF6  ECB6  F014         	call	_TMR0_Initialize	;wreg free
  3450  002AFA  0012               	return		;funcret
  3451  002AFC                     __end_of_SYSTEM_Initialize:
  3452                           	opt callstack 0
  3453                           
  3454 ;; *************** function _TMR2_Initialize *****************
  3455 ;; Defined at:
  3456 ;;		line 62 in file "mcc_generated_files/tmr2.c"
  3457 ;; Parameters:    Size  Location     Type
  3458 ;;		None
  3459 ;; Auto vars:     Size  Location     Type
  3460 ;;		None
  3461 ;; Return value:  Size  Location     Type
  3462 ;;                  1    wreg      void 
  3463 ;; Registers used:
  3464 ;;		wreg, status,2
  3465 ;; Tracked objects:
  3466 ;;		On entry : 0/0
  3467 ;;		On exit  : 0/0
  3468 ;;		Unchanged: 0/0
  3469 ;; Data sizes:     COMRAM   BANK0   BANK1   BANK2   BANK3   BANK4   BANK5
  3470 ;;      Params:         0       0       0       0       0       0       0
  3471 ;;      Locals:         0       0       0       0       0       0       0
  3472 ;;      Temps:          0       0       0       0       0       0       0
  3473 ;;      Totals:         0       0       0       0       0       0       0
  3474 ;;Total ram usage:        0 bytes
  3475 ;; Hardware stack levels used:    1
  3476 ;; Hardware stack levels required when called:    4
  3477 ;; This function calls:
  3478 ;;		Nothing
  3479 ;; This function is called by:
  3480 ;;		_SYSTEM_Initialize
  3481 ;; This function uses a non-reentrant model
  3482 ;;
  3483                           
  3484                           	psect	text15
  3485  002B44                     __ptext15:
  3486                           	opt callstack 0
  3487  002B44                     _TMR2_Initialize:
  3488                           	opt callstack 25
  3489  002B44                     
  3490                           ;mcc_generated_files/tmr2.c: 67:     PR2 = 0x4A;
  3491  002B44  0E4A               	movlw	74
  3492  002B46  6EBB               	movwf	187,c	;volatile
  3493                           
  3494                           ;mcc_generated_files/tmr2.c: 70:     TMR2 = 0x00;
  3495  002B48  0E00               	movlw	0
  3496  002B4A  6EBC               	movwf	188,c	;volatile
  3497  002B4C                     
  3498                           ;mcc_generated_files/tmr2.c: 73:     PIR1bits.TMR2IF = 0;
  3499  002B4C  929E               	bcf	158,1,c	;volatile
  3500                           
  3501                           ;mcc_generated_files/tmr2.c: 76:     T2CON = 0x05;
  3502  002B4E  0E05               	movlw	5
  3503  002B50  6EBA               	movwf	186,c	;volatile
  3504  002B52  0012               	return		;funcret
  3505  002B54                     __end_of_TMR2_Initialize:
  3506                           	opt callstack 0
  3507                           
  3508 ;; *************** function _TMR0_Initialize *****************
  3509 ;; Defined at:
  3510 ;;		line 67 in file "mcc_generated_files/tmr0.c"
  3511 ;; Parameters:    Size  Location     Type
  3512 ;;		None
  3513 ;; Auto vars:     Size  Location     Type
  3514 ;;		None
  3515 ;; Return value:  Size  Location     Type
  3516 ;;                  1    wreg      void 
  3517 ;; Registers used:
  3518 ;;		wreg, status,2, status,0, cstack
  3519 ;; Tracked objects:
  3520 ;;		On entry : 0/0
  3521 ;;		On exit  : 0/0
  3522 ;;		Unchanged: 0/0
  3523 ;; Data sizes:     COMRAM   BANK0   BANK1   BANK2   BANK3   BANK4   BANK5
  3524 ;;      Params:         0       0       0       0       0       0       0
  3525 ;;      Locals:         0       0       0       0       0       0       0
  3526 ;;      Temps:          0       2       0       0       0       0       0
  3527 ;;      Totals:         0       2       0       0       0       0       0
  3528 ;;Total ram usage:        2 bytes
  3529 ;; Hardware stack levels used:    1
  3530 ;; Hardware stack levels required when called:    5
  3531 ;; This function calls:
  3532 ;;		_TMR0_SetInterruptHandler
  3533 ;; This function is called by:
  3534 ;;		_SYSTEM_Initialize
  3535 ;; This function uses a non-reentrant model
  3536 ;;
  3537                           
  3538                           	psect	text16
  3539  00296C                     __ptext16:
  3540                           	opt callstack 0
  3541  00296C                     _TMR0_Initialize:
  3542                           	opt callstack 24
  3543  00296C                     
  3544                           ;mcc_generated_files/tmr0.c: 72:     T0CONbits.T08BIT = 0;
  3545  00296C  9CD5               	bcf	213,6,c	;volatile
  3546  00296E                     
  3547                           ;mcc_generated_files/tmr0.c: 75:     TMR0H = 0x48;
  3548  00296E  0E48               	movlw	72
  3549  002970  6ED7               	movwf	215,c	;volatile
  3550                           
  3551                           ;mcc_generated_files/tmr0.c: 78:     TMR0L = 0xE4;
  3552  002972  0EE4               	movlw	228
  3553  002974  6ED6               	movwf	214,c	;volatile
  3554  002976                     
  3555                           ;mcc_generated_files/tmr0.c: 82:     timer0ReloadVal = (uint16_t)((TMR0H << 8) | TMR0L);
  3556  002976  50D6               	movf	214,w,c	;volatile
  3557  002978  CFD7 F066          	movff	4055,??_TMR0_Initialize	;volatile
  3558  00297C  0100               	movlb	0	; () banked
  3559  00297E  6B67               	clrf	(??_TMR0_Initialize+1)& (0+255),b
  3560  002980  C066  F067         	movff	??_TMR0_Initialize,??_TMR0_Initialize+1
  3561  002984  6B66               	clrf	??_TMR0_Initialize& (0+255),b
  3562  002986  1166               	iorwf	??_TMR0_Initialize& (0+255),w,b
  3563  002988  6FF1               	movwf	_timer0ReloadVal& (0+255),b	;volatile
  3564  00298A  5167               	movf	(??_TMR0_Initialize+1)& (0+255),w,b
  3565  00298C  6FF2               	movwf	(_timer0ReloadVal+1)& (0+255),b	;volatile
  3566  00298E                     
  3567                           ; BSR set to: 0
  3568                           ;mcc_generated_files/tmr0.c: 85:     INTCONbits.TMR0IF = 0;
  3569  00298E  94F2               	bcf	242,2,c	;volatile
  3570  002990                     
  3571                           ; BSR set to: 0
  3572                           ;mcc_generated_files/tmr0.c: 88:     INTCONbits.TMR0IE = 1;
  3573  002990  8AF2               	bsf	242,5,c	;volatile
  3574  002992                     
  3575                           ; BSR set to: 0
  3576                           ;mcc_generated_files/tmr0.c: 91:     TMR0_SetInterruptHandler(TMR0_DefaultInterruptHandl
      +                          er);
  3577  002992  0ED4               	movlw	low _TMR0_DefaultInterruptHandler
  3578  002994  6F64               	movwf	TMR0_SetInterruptHandler@InterruptHandler& (0+255),b
  3579  002996  0E2B               	movlw	high _TMR0_DefaultInterruptHandler
  3580  002998  6F65               	movwf	(TMR0_SetInterruptHandler@InterruptHandler+1)& (0+255),b
  3581  00299A  ECBF  F015         	call	_TMR0_SetInterruptHandler	;wreg free
  3582  00299E                     
  3583                           ;mcc_generated_files/tmr0.c: 94:     T0CON = 0x93;
  3584  00299E  0E93               	movlw	147
  3585  0029A0  6ED5               	movwf	213,c	;volatile
  3586  0029A2  0012               	return		;funcret
  3587  0029A4                     __end_of_TMR0_Initialize:
  3588                           	opt callstack 0
  3589                           
  3590 ;; *************** function _TMR0_SetInterruptHandler *****************
  3591 ;; Defined at:
  3592 ;;		line 156 in file "mcc_generated_files/tmr0.c"
  3593 ;; Parameters:    Size  Location     Type
  3594 ;;  InterruptHan    2    4[BANK0 ] PTR FTN()void 
  3595 ;;		 -> Timer_0(1), TMR0_DefaultInterruptHandler(1), 
  3596 ;; Auto vars:     Size  Location     Type
  3597 ;;		None
  3598 ;; Return value:  Size  Location     Type
  3599 ;;                  1    wreg      void 
  3600 ;; Registers used:
  3601 ;;		wreg, status,2, status,0
  3602 ;; Tracked objects:
  3603 ;;		On entry : 0/0
  3604 ;;		On exit  : 0/0
  3605 ;;		Unchanged: 0/0
  3606 ;; Data sizes:     COMRAM   BANK0   BANK1   BANK2   BANK3   BANK4   BANK5
  3607 ;;      Params:         0       2       0       0       0       0       0
  3608 ;;      Locals:         0       0       0       0       0       0       0
  3609 ;;      Temps:          0       0       0       0       0       0       0
  3610 ;;      Totals:         0       2       0       0       0       0       0
  3611 ;;Total ram usage:        2 bytes
  3612 ;; Hardware stack levels used:    1
  3613 ;; Hardware stack levels required when called:    4
  3614 ;; This function calls:
  3615 ;;		Nothing
  3616 ;; This function is called by:
  3617 ;;		_TMR0_Initialize
  3618 ;;		_main
  3619 ;; This function uses a non-reentrant model
  3620 ;;
  3621                           
  3622                           	psect	text17
  3623  002B7E                     __ptext17:
  3624                           	opt callstack 0
  3625  002B7E                     _TMR0_SetInterruptHandler:
  3626                           	opt callstack 26
  3627  002B7E                     
  3628                           ;mcc_generated_files/tmr0.c: 157:     TMR0_InterruptHandler = InterruptHandler;
  3629  002B7E  C064  F0F3         	movff	TMR0_SetInterruptHandler@InterruptHandler,_TMR0_InterruptHandler
  3630  002B82  C065  F0F4         	movff	TMR0_SetInterruptHandler@InterruptHandler+1,_TMR0_InterruptHandler+1
  3631  002B86  0012               	return		;funcret
  3632  002B88                     __end_of_TMR0_SetInterruptHandler:
  3633                           	opt callstack 0
  3634                           
  3635 ;; *************** function _PIN_MANAGER_Initialize *****************
  3636 ;; Defined at:
  3637 ;;		line 55 in file "mcc_generated_files/pin_manager.c"
  3638 ;; Parameters:    Size  Location     Type
  3639 ;;		None
  3640 ;; Auto vars:     Size  Location     Type
  3641 ;;		None
  3642 ;; Return value:  Size  Location     Type
  3643 ;;                  1    wreg      void 
  3644 ;; Registers used:
  3645 ;;		wreg, status,2
  3646 ;; Tracked objects:
  3647 ;;		On entry : 0/0
  3648 ;;		On exit  : 0/0
  3649 ;;		Unchanged: 0/0
  3650 ;; Data sizes:     COMRAM   BANK0   BANK1   BANK2   BANK3   BANK4   BANK5
  3651 ;;      Params:         0       0       0       0       0       0       0
  3652 ;;      Locals:         0       0       0       0       0       0       0
  3653 ;;      Temps:          0       0       0       0       0       0       0
  3654 ;;      Totals:         0       0       0       0       0       0       0
  3655 ;;Total ram usage:        0 bytes
  3656 ;; Hardware stack levels used:    1
  3657 ;; Hardware stack levels required when called:    4
  3658 ;; This function calls:
  3659 ;;		Nothing
  3660 ;; This function is called by:
  3661 ;;		_SYSTEM_Initialize
  3662 ;; This function uses a non-reentrant model
  3663 ;;
  3664                           
  3665                           	psect	text18
  3666  002764                     __ptext18:
  3667                           	opt callstack 0
  3668  002764                     _PIN_MANAGER_Initialize:
  3669                           	opt callstack 25
  3670  002764                     
  3671                           ;mcc_generated_files/pin_manager.c: 60:     LATE = 0x00;
  3672  002764  0E00               	movlw	0
  3673  002766  6E8D               	movwf	141,c	;volatile
  3674                           
  3675                           ;mcc_generated_files/pin_manager.c: 61:     LATD = 0x00;
  3676  002768  0E00               	movlw	0
  3677  00276A  6E8C               	movwf	140,c	;volatile
  3678                           
  3679                           ;mcc_generated_files/pin_manager.c: 62:     LATA = 0x00;
  3680  00276C  0E00               	movlw	0
  3681  00276E  6E89               	movwf	137,c	;volatile
  3682                           
  3683                           ;mcc_generated_files/pin_manager.c: 63:     LATB = 0x00;
  3684  002770  0E00               	movlw	0
  3685  002772  6E8A               	movwf	138,c	;volatile
  3686                           
  3687                           ;mcc_generated_files/pin_manager.c: 64:     LATC = 0x00;
  3688  002774  0E00               	movlw	0
  3689  002776  6E8B               	movwf	139,c	;volatile
  3690                           
  3691                           ;mcc_generated_files/pin_manager.c: 69:     TRISE = 0x07;
  3692  002778  0E07               	movlw	7
  3693  00277A  6E96               	movwf	150,c	;volatile
  3694                           
  3695                           ;mcc_generated_files/pin_manager.c: 70:     TRISA = 0xFD;
  3696  00277C  0EFD               	movlw	253
  3697  00277E  6E92               	movwf	146,c	;volatile
  3698                           
  3699                           ;mcc_generated_files/pin_manager.c: 71:     TRISB = 0x87;
  3700  002780  0E87               	movlw	135
  3701  002782  6E93               	movwf	147,c	;volatile
  3702                           
  3703                           ;mcc_generated_files/pin_manager.c: 72:     TRISC = 0xBB;
  3704  002784  0EBB               	movlw	187
  3705  002786  6E94               	movwf	148,c	;volatile
  3706                           
  3707                           ;mcc_generated_files/pin_manager.c: 73:     TRISD = 0x00;
  3708  002788  0E00               	movlw	0
  3709  00278A  6E95               	movwf	149,c	;volatile
  3710                           
  3711                           ;mcc_generated_files/pin_manager.c: 78:     ANSELD = 0x00;
  3712  00278C  0E00               	movlw	0
  3713  00278E  010F               	movlb	15	; () banked
  3714  002790  6F3B               	movwf	59,b	;volatile
  3715                           
  3716                           ;mcc_generated_files/pin_manager.c: 79:     ANSELC = 0x38;
  3717  002792  0E38               	movlw	56
  3718  002794  6F3A               	movwf	58,b	;volatile
  3719                           
  3720                           ;mcc_generated_files/pin_manager.c: 80:     ANSELB = 0x00;
  3721  002796  0E00               	movlw	0
  3722  002798  6F39               	movwf	57,b	;volatile
  3723                           
  3724                           ;mcc_generated_files/pin_manager.c: 81:     ANSELE = 0x07;
  3725  00279A  0E07               	movlw	7
  3726  00279C  6F3C               	movwf	60,b	;volatile
  3727                           
  3728                           ;mcc_generated_files/pin_manager.c: 82:     ANSELA = 0x2D;
  3729  00279E  0E2D               	movlw	45
  3730  0027A0  6F38               	movwf	56,b	;volatile
  3731                           
  3732                           ;mcc_generated_files/pin_manager.c: 87:     WPUB = 0x07;
  3733  0027A2  0E07               	movlw	7
  3734  0027A4  6E61               	movwf	97,c	;volatile
  3735  0027A6                     
  3736                           ; BSR set to: 15
  3737                           ;mcc_generated_files/pin_manager.c: 88:     INTCON2bits.nRBPU = 0;
  3738  0027A6  9EF1               	bcf	241,7,c	;volatile
  3739  0027A8                     
  3740                           ; BSR set to: 15
  3741  0027A8  0012               	return		;funcret
  3742  0027AA                     __end_of_PIN_MANAGER_Initialize:
  3743                           	opt callstack 0
  3744                           
  3745 ;; *************** function _OSCILLATOR_Initialize *****************
  3746 ;; Defined at:
  3747 ;;		line 63 in file "mcc_generated_files/mcc.c"
  3748 ;; Parameters:    Size  Location     Type
  3749 ;;		None
  3750 ;; Auto vars:     Size  Location     Type
  3751 ;;		None
  3752 ;; Return value:  Size  Location     Type
  3753 ;;                  1    wreg      void 
  3754 ;; Registers used:
  3755 ;;		wreg, status,2
  3756 ;; Tracked objects:
  3757 ;;		On entry : 0/0
  3758 ;;		On exit  : 0/0
  3759 ;;		Unchanged: 0/0
  3760 ;; Data sizes:     COMRAM   BANK0   BANK1   BANK2   BANK3   BANK4   BANK5
  3761 ;;      Params:         0       0       0       0       0       0       0
  3762 ;;      Locals:         0       0       0       0       0       0       0
  3763 ;;      Temps:          0       0       0       0       0       0       0
  3764 ;;      Totals:         0       0       0       0       0       0       0
  3765 ;;Total ram usage:        0 bytes
  3766 ;; Hardware stack levels used:    1
  3767 ;; Hardware stack levels required when called:    4
  3768 ;; This function calls:
  3769 ;;		Nothing
  3770 ;; This function is called by:
  3771 ;;		_SYSTEM_Initialize
  3772 ;; This function uses a non-reentrant model
  3773 ;;
  3774                           
  3775                           	psect	text19
  3776  002B64                     __ptext19:
  3777                           	opt callstack 0
  3778  002B64                     _OSCILLATOR_Initialize:
  3779                           	opt callstack 25
  3780  002B64                     
  3781                           ;mcc_generated_files/mcc.c: 66:     OSCCON = 0x30;
  3782  002B64  0E30               	movlw	48
  3783  002B66  6ED3               	movwf	211,c	;volatile
  3784                           
  3785                           ;mcc_generated_files/mcc.c: 68:     OSCCON2 = 0x04;
  3786  002B68  0E04               	movlw	4
  3787  002B6A  6ED2               	movwf	210,c	;volatile
  3788                           
  3789                           ;mcc_generated_files/mcc.c: 70:     OSCTUNE = 0x00;
  3790  002B6C  0E00               	movlw	0
  3791  002B6E  6E9B               	movwf	155,c	;volatile
  3792  002B70  0012               	return		;funcret
  3793  002B72                     __end_of_OSCILLATOR_Initialize:
  3794                           	opt callstack 0
  3795                           
  3796 ;; *************** function _INTERRUPT_Initialize *****************
  3797 ;; Defined at:
  3798 ;;		line 52 in file "mcc_generated_files/interrupt_manager.c"
  3799 ;; Parameters:    Size  Location     Type
  3800 ;;		None
  3801 ;; Auto vars:     Size  Location     Type
  3802 ;;		None
  3803 ;; Return value:  Size  Location     Type
  3804 ;;                  1    wreg      void 
  3805 ;; Registers used:
  3806 ;;		None
  3807 ;; Tracked objects:
  3808 ;;		On entry : 0/0
  3809 ;;		On exit  : 0/0
  3810 ;;		Unchanged: 0/0
  3811 ;; Data sizes:     COMRAM   BANK0   BANK1   BANK2   BANK3   BANK4   BANK5
  3812 ;;      Params:         0       0       0       0       0       0       0
  3813 ;;      Locals:         0       0       0       0       0       0       0
  3814 ;;      Temps:          0       0       0       0       0       0       0
  3815 ;;      Totals:         0       0       0       0       0       0       0
  3816 ;;Total ram usage:        0 bytes
  3817 ;; Hardware stack levels used:    1
  3818 ;; Hardware stack levels required when called:    4
  3819 ;; This function calls:
  3820 ;;		Nothing
  3821 ;; This function is called by:
  3822 ;;		_SYSTEM_Initialize
  3823 ;; This function uses a non-reentrant model
  3824 ;;
  3825                           
  3826                           	psect	text20
  3827  002B72                     __ptext20:
  3828                           	opt callstack 0
  3829  002B72                     _INTERRUPT_Initialize:
  3830                           	opt callstack 25
  3831  002B72                     
  3832                           ;mcc_generated_files/interrupt_manager.c: 55:     RCONbits.IPEN = 1;
  3833  002B72  8ED0               	bsf	208,7,c	;volatile
  3834                           
  3835                           ;mcc_generated_files/interrupt_manager.c: 60:     IPR1bits.ADIP = 1;
  3836  002B74  8C9F               	bsf	159,6,c	;volatile
  3837                           
  3838                           ;mcc_generated_files/interrupt_manager.c: 65:     INTCON2bits.TMR0IP = 1;
  3839  002B76  84F1               	bsf	241,2,c	;volatile
  3840                           
  3841                           ;mcc_generated_files/interrupt_manager.c: 68:     INTCON3bits.INT1IP = 1;
  3842  002B78  8CF0               	bsf	240,6,c	;volatile
  3843                           
  3844                           ;mcc_generated_files/interrupt_manager.c: 71:     INTCON3bits.INT2IP = 1;
  3845  002B7A  8EF0               	bsf	240,7,c	;volatile
  3846  002B7C  0012               	return		;funcret
  3847  002B7E                     __end_of_INTERRUPT_Initialize:
  3848                           	opt callstack 0
  3849                           
  3850 ;; *************** function _EXT_INT_Initialize *****************
  3851 ;; Defined at:
  3852 ;;		line 113 in file "mcc_generated_files/ext_int.c"
  3853 ;; Parameters:    Size  Location     Type
  3854 ;;		None
  3855 ;; Auto vars:     Size  Location     Type
  3856 ;;		None
  3857 ;; Return value:  Size  Location     Type
  3858 ;;                  1    wreg      void 
  3859 ;; Registers used:
  3860 ;;		wreg, status,2, status,0, cstack
  3861 ;; Tracked objects:
  3862 ;;		On entry : 0/0
  3863 ;;		On exit  : 0/0
  3864 ;;		Unchanged: 0/0
  3865 ;; Data sizes:     COMRAM   BANK0   BANK1   BANK2   BANK3   BANK4   BANK5
  3866 ;;      Params:         0       0       0       0       0       0       0
  3867 ;;      Locals:         0       0       0       0       0       0       0
  3868 ;;      Temps:          0       0       0       0       0       0       0
  3869 ;;      Totals:         0       0       0       0       0       0       0
  3870 ;;Total ram usage:        0 bytes
  3871 ;; Hardware stack levels used:    1
  3872 ;; Hardware stack levels required when called:    5
  3873 ;; This function calls:
  3874 ;;		_INT0_SetInterruptHandler
  3875 ;;		_INT1_SetInterruptHandler
  3876 ;;		_INT2_SetInterruptHandler
  3877 ;; This function is called by:
  3878 ;;		_SYSTEM_Initialize
  3879 ;; This function uses a non-reentrant model
  3880 ;;
  3881                           
  3882                           	psect	text21
  3883  0028BA                     __ptext21:
  3884                           	opt callstack 0
  3885  0028BA                     _EXT_INT_Initialize:
  3886                           	opt callstack 24
  3887  0028BA                     
  3888                           ;mcc_generated_files/ext_int.c: 118:     (INTCONbits.INT0IF = 0);
  3889  0028BA  92F2               	bcf	242,1,c	;volatile
  3890                           
  3891                           ;mcc_generated_files/ext_int.c: 119:     (INTCON2bits.INTEDG0 = 0);
  3892  0028BC  9CF1               	bcf	241,6,c	;volatile
  3893  0028BE                     
  3894                           ;mcc_generated_files/ext_int.c: 121:     INT0_SetInterruptHandler(INT0_DefaultInterruptH
      +                          andler);
  3895  0028BE  0EDA               	movlw	low _INT0_DefaultInterruptHandler
  3896  0028C0  0100               	movlb	0	; () banked
  3897  0028C2  6F64               	movwf	INT0_SetInterruptHandler@InterruptHandler& (0+255),b
  3898  0028C4  0E2B               	movlw	high _INT0_DefaultInterruptHandler
  3899  0028C6  6F65               	movwf	(INT0_SetInterruptHandler@InterruptHandler+1)& (0+255),b
  3900  0028C8  ECCE  F015         	call	_INT0_SetInterruptHandler	;wreg free
  3901  0028CC                     
  3902                           ;mcc_generated_files/ext_int.c: 122:     (INTCONbits.INT0IE = 1);
  3903  0028CC  88F2               	bsf	242,4,c	;volatile
  3904  0028CE                     
  3905                           ;mcc_generated_files/ext_int.c: 127:     (INTCON3bits.INT1IF = 0);
  3906  0028CE  90F0               	bcf	240,0,c	;volatile
  3907  0028D0                     
  3908                           ;mcc_generated_files/ext_int.c: 128:     (INTCON2bits.INTEDG1 = 0);
  3909  0028D0  9AF1               	bcf	241,5,c	;volatile
  3910                           
  3911                           ;mcc_generated_files/ext_int.c: 130:     INT1_SetInterruptHandler(INT1_DefaultInterruptH
      +                          andler);
  3912  0028D2  0ED8               	movlw	low _INT1_DefaultInterruptHandler
  3913  0028D4  0100               	movlb	0	; () banked
  3914  0028D6  6F64               	movwf	INT1_SetInterruptHandler@InterruptHandler& (0+255),b
  3915  0028D8  0E2B               	movlw	high _INT1_DefaultInterruptHandler
  3916  0028DA  6F65               	movwf	(INT1_SetInterruptHandler@InterruptHandler+1)& (0+255),b
  3917  0028DC  ECC9  F015         	call	_INT1_SetInterruptHandler	;wreg free
  3918  0028E0                     
  3919                           ;mcc_generated_files/ext_int.c: 131:     (INTCON3bits.INT1IE = 1);
  3920  0028E0  86F0               	bsf	240,3,c	;volatile
  3921  0028E2                     
  3922                           ;mcc_generated_files/ext_int.c: 136:     (INTCON3bits.INT2IF = 0);
  3923  0028E2  92F0               	bcf	240,1,c	;volatile
  3924  0028E4                     
  3925                           ;mcc_generated_files/ext_int.c: 137:     (INTCON2bits.INTEDG2 = 0);
  3926  0028E4  98F1               	bcf	241,4,c	;volatile
  3927                           
  3928                           ;mcc_generated_files/ext_int.c: 139:     INT2_SetInterruptHandler(INT2_DefaultInterruptH
      +                          andler);
  3929  0028E6  0ED6               	movlw	low _INT2_DefaultInterruptHandler
  3930  0028E8  0100               	movlb	0	; () banked
  3931  0028EA  6F64               	movwf	INT2_SetInterruptHandler@InterruptHandler& (0+255),b
  3932  0028EC  0E2B               	movlw	high _INT2_DefaultInterruptHandler
  3933  0028EE  6F65               	movwf	(INT2_SetInterruptHandler@InterruptHandler+1)& (0+255),b
  3934  0028F0  ECC4  F015         	call	_INT2_SetInterruptHandler	;wreg free
  3935  0028F4                     
  3936                           ;mcc_generated_files/ext_int.c: 140:     (INTCON3bits.INT2IE = 1);
  3937  0028F4  88F0               	bsf	240,4,c	;volatile
  3938  0028F6  0012               	return		;funcret
  3939  0028F8                     __end_of_EXT_INT_Initialize:
  3940                           	opt callstack 0
  3941                           
  3942 ;; *************** function _INT2_SetInterruptHandler *****************
  3943 ;; Defined at:
  3944 ;;		line 104 in file "mcc_generated_files/ext_int.c"
  3945 ;; Parameters:    Size  Location     Type
  3946 ;;  InterruptHan    2    4[BANK0 ] PTR FTN()void 
  3947 ;;		 -> teclado_coluna_3(1), INT2_DefaultInterruptHandler(1), 
  3948 ;; Auto vars:     Size  Location     Type
  3949 ;;		None
  3950 ;; Return value:  Size  Location     Type
  3951 ;;                  1    wreg      void 
  3952 ;; Registers used:
  3953 ;;		wreg, status,2, status,0
  3954 ;; Tracked objects:
  3955 ;;		On entry : 0/0
  3956 ;;		On exit  : 0/0
  3957 ;;		Unchanged: 0/0
  3958 ;; Data sizes:     COMRAM   BANK0   BANK1   BANK2   BANK3   BANK4   BANK5
  3959 ;;      Params:         0       2       0       0       0       0       0
  3960 ;;      Locals:         0       0       0       0       0       0       0
  3961 ;;      Temps:          0       0       0       0       0       0       0
  3962 ;;      Totals:         0       2       0       0       0       0       0
  3963 ;;Total ram usage:        2 bytes
  3964 ;; Hardware stack levels used:    1
  3965 ;; Hardware stack levels required when called:    4
  3966 ;; This function calls:
  3967 ;;		Nothing
  3968 ;; This function is called by:
  3969 ;;		_EXT_INT_Initialize
  3970 ;;		_main
  3971 ;; This function uses a non-reentrant model
  3972 ;;
  3973                           
  3974                           	psect	text22
  3975  002B88                     __ptext22:
  3976                           	opt callstack 0
  3977  002B88                     _INT2_SetInterruptHandler:
  3978                           	opt callstack 24
  3979  002B88                     
  3980                           ;mcc_generated_files/ext_int.c: 105:     INT2_InterruptHandler = InterruptHandler;
  3981  002B88  C064  F0EB         	movff	INT2_SetInterruptHandler@InterruptHandler,_INT2_InterruptHandler
  3982  002B8C  C065  F0EC         	movff	INT2_SetInterruptHandler@InterruptHandler+1,_INT2_InterruptHandler+1
  3983  002B90  0012               	return		;funcret
  3984  002B92                     __end_of_INT2_SetInterruptHandler:
  3985                           	opt callstack 0
  3986                           
  3987 ;; *************** function _INT1_SetInterruptHandler *****************
  3988 ;; Defined at:
  3989 ;;		line 78 in file "mcc_generated_files/ext_int.c"
  3990 ;; Parameters:    Size  Location     Type
  3991 ;;  InterruptHan    2    4[BANK0 ] PTR FTN()void 
  3992 ;;		 -> teclado_coluna_2(1), INT1_DefaultInterruptHandler(1), 
  3993 ;; Auto vars:     Size  Location     Type
  3994 ;;		None
  3995 ;; Return value:  Size  Location     Type
  3996 ;;                  1    wreg      void 
  3997 ;; Registers used:
  3998 ;;		wreg, status,2, status,0
  3999 ;; Tracked objects:
  4000 ;;		On entry : 0/0
  4001 ;;		On exit  : 0/0
  4002 ;;		Unchanged: 0/0
  4003 ;; Data sizes:     COMRAM   BANK0   BANK1   BANK2   BANK3   BANK4   BANK5
  4004 ;;      Params:         0       2       0       0       0       0       0
  4005 ;;      Locals:         0       0       0       0       0       0       0
  4006 ;;      Temps:          0       0       0       0       0       0       0
  4007 ;;      Totals:         0       2       0       0       0       0       0
  4008 ;;Total ram usage:        2 bytes
  4009 ;; Hardware stack levels used:    1
  4010 ;; Hardware stack levels required when called:    4
  4011 ;; This function calls:
  4012 ;;		Nothing
  4013 ;; This function is called by:
  4014 ;;		_EXT_INT_Initialize
  4015 ;;		_main
  4016 ;; This function uses a non-reentrant model
  4017 ;;
  4018                           
  4019                           	psect	text23
  4020  002B92                     __ptext23:
  4021                           	opt callstack 0
  4022  002B92                     _INT1_SetInterruptHandler:
  4023                           	opt callstack 24
  4024  002B92                     
  4025                           ;mcc_generated_files/ext_int.c: 79:     INT1_InterruptHandler = InterruptHandler;
  4026  002B92  C064  F0ED         	movff	INT1_SetInterruptHandler@InterruptHandler,_INT1_InterruptHandler
  4027  002B96  C065  F0EE         	movff	INT1_SetInterruptHandler@InterruptHandler+1,_INT1_InterruptHandler+1
  4028  002B9A  0012               	return		;funcret
  4029  002B9C                     __end_of_INT1_SetInterruptHandler:
  4030                           	opt callstack 0
  4031                           
  4032 ;; *************** function _INT0_SetInterruptHandler *****************
  4033 ;; Defined at:
  4034 ;;		line 52 in file "mcc_generated_files/ext_int.c"
  4035 ;; Parameters:    Size  Location     Type
  4036 ;;  InterruptHan    2    4[BANK0 ] PTR FTN()void 
  4037 ;;		 -> teclado_coluna_1(1), INT0_DefaultInterruptHandler(1), 
  4038 ;; Auto vars:     Size  Location     Type
  4039 ;;		None
  4040 ;; Return value:  Size  Location     Type
  4041 ;;                  1    wreg      void 
  4042 ;; Registers used:
  4043 ;;		wreg, status,2, status,0
  4044 ;; Tracked objects:
  4045 ;;		On entry : 0/0
  4046 ;;		On exit  : 0/0
  4047 ;;		Unchanged: 0/0
  4048 ;; Data sizes:     COMRAM   BANK0   BANK1   BANK2   BANK3   BANK4   BANK5
  4049 ;;      Params:         0       2       0       0       0       0       0
  4050 ;;      Locals:         0       0       0       0       0       0       0
  4051 ;;      Temps:          0       0       0       0       0       0       0
  4052 ;;      Totals:         0       2       0       0       0       0       0
  4053 ;;Total ram usage:        2 bytes
  4054 ;; Hardware stack levels used:    1
  4055 ;; Hardware stack levels required when called:    4
  4056 ;; This function calls:
  4057 ;;		Nothing
  4058 ;; This function is called by:
  4059 ;;		_EXT_INT_Initialize
  4060 ;;		_main
  4061 ;; This function uses a non-reentrant model
  4062 ;;
  4063                           
  4064                           	psect	text24
  4065  002B9C                     __ptext24:
  4066                           	opt callstack 0
  4067  002B9C                     _INT0_SetInterruptHandler:
  4068                           	opt callstack 24
  4069  002B9C                     
  4070                           ;mcc_generated_files/ext_int.c: 53:     INT0_InterruptHandler = InterruptHandler;
  4071  002B9C  C064  F0EF         	movff	INT0_SetInterruptHandler@InterruptHandler,_INT0_InterruptHandler
  4072  002BA0  C065  F0F0         	movff	INT0_SetInterruptHandler@InterruptHandler+1,_INT0_InterruptHandler+1
  4073  002BA4  0012               	return		;funcret
  4074  002BA6                     __end_of_INT0_SetInterruptHandler:
  4075                           	opt callstack 0
  4076                           
  4077 ;; *************** function _EPWM1_Initialize *****************
  4078 ;; Defined at:
  4079 ;;		line 64 in file "mcc_generated_files/epwm1.c"
  4080 ;; Parameters:    Size  Location     Type
  4081 ;;		None
  4082 ;; Auto vars:     Size  Location     Type
  4083 ;;		None
  4084 ;; Return value:  Size  Location     Type
  4085 ;;                  1    wreg      void 
  4086 ;; Registers used:
  4087 ;;		wreg, status,2
  4088 ;; Tracked objects:
  4089 ;;		On entry : 0/0
  4090 ;;		On exit  : 0/0
  4091 ;;		Unchanged: 0/0
  4092 ;; Data sizes:     COMRAM   BANK0   BANK1   BANK2   BANK3   BANK4   BANK5
  4093 ;;      Params:         0       0       0       0       0       0       0
  4094 ;;      Locals:         0       0       0       0       0       0       0
  4095 ;;      Temps:          0       0       0       0       0       0       0
  4096 ;;      Totals:         0       0       0       0       0       0       0
  4097 ;;Total ram usage:        0 bytes
  4098 ;; Hardware stack levels used:    1
  4099 ;; Hardware stack levels required when called:    4
  4100 ;; This function calls:
  4101 ;;		Nothing
  4102 ;; This function is called by:
  4103 ;;		_SYSTEM_Initialize
  4104 ;; This function uses a non-reentrant model
  4105 ;;
  4106                           
  4107                           	psect	text25
  4108  002AFC                     __ptext25:
  4109                           	opt callstack 0
  4110  002AFC                     _EPWM1_Initialize:
  4111                           	opt callstack 25
  4112  002AFC                     
  4113                           ;mcc_generated_files/epwm1.c: 69:  CCP1CON = 0x1C;
  4114  002AFC  0E1C               	movlw	28
  4115  002AFE  6EBD               	movwf	189,c	;volatile
  4116                           
  4117                           ;mcc_generated_files/epwm1.c: 72:  ECCP1AS = 0x00;
  4118  002B00  0E00               	movlw	0
  4119  002B02  6EB6               	movwf	182,c	;volatile
  4120                           
  4121                           ;mcc_generated_files/epwm1.c: 75:  PWM1CON = 0x80;
  4122  002B04  0E80               	movlw	128
  4123  002B06  6EB7               	movwf	183,c	;volatile
  4124                           
  4125                           ;mcc_generated_files/epwm1.c: 78:  PSTR1CON = 0x01;
  4126  002B08  0E01               	movlw	1
  4127  002B0A  6EB9               	movwf	185,c	;volatile
  4128                           
  4129                           ;mcc_generated_files/epwm1.c: 81:  CCPR1H = 0x00;
  4130  002B0C  0E00               	movlw	0
  4131  002B0E  6EBF               	movwf	191,c	;volatile
  4132                           
  4133                           ;mcc_generated_files/epwm1.c: 84:  CCPR1L = 0x00;
  4134  002B10  0E00               	movlw	0
  4135  002B12  6EBE               	movwf	190,c	;volatile
  4136                           
  4137                           ;mcc_generated_files/epwm1.c: 87:  CCPTMRS0bits.C1TSEL = 0x0;
  4138  002B14  0EFC               	movlw	-4
  4139  002B16  010F               	movlb	15	; () banked
  4140  002B18  1749               	andwf	73,f,b	;volatile
  4141  002B1A                     
  4142                           ; BSR set to: 15
  4143  002B1A  0012               	return		;funcret
  4144  002B1C                     __end_of_EPWM1_Initialize:
  4145                           	opt callstack 0
  4146                           
  4147 ;; *************** function _ADC_Initialize *****************
  4148 ;; Defined at:
  4149 ;;		line 66 in file "mcc_generated_files/adc.c"
  4150 ;; Parameters:    Size  Location     Type
  4151 ;;		None
  4152 ;; Auto vars:     Size  Location     Type
  4153 ;;		None
  4154 ;; Return value:  Size  Location     Type
  4155 ;;                  1    wreg      void 
  4156 ;; Registers used:
  4157 ;;		wreg, status,2, status,0, cstack
  4158 ;; Tracked objects:
  4159 ;;		On entry : 0/0
  4160 ;;		On exit  : 0/0
  4161 ;;		Unchanged: 0/0
  4162 ;; Data sizes:     COMRAM   BANK0   BANK1   BANK2   BANK3   BANK4   BANK5
  4163 ;;      Params:         0       0       0       0       0       0       0
  4164 ;;      Locals:         0       0       0       0       0       0       0
  4165 ;;      Temps:          0       0       0       0       0       0       0
  4166 ;;      Totals:         0       0       0       0       0       0       0
  4167 ;;Total ram usage:        0 bytes
  4168 ;; Hardware stack levels used:    1
  4169 ;; Hardware stack levels required when called:    5
  4170 ;; This function calls:
  4171 ;;		_ADC_SetInterruptHandler
  4172 ;; This function is called by:
  4173 ;;		_SYSTEM_Initialize
  4174 ;; This function uses a non-reentrant model
  4175 ;;
  4176                           
  4177                           	psect	text26
  4178  002A8E                     __ptext26:
  4179                           	opt callstack 0
  4180  002A8E                     _ADC_Initialize:
  4181                           	opt callstack 24
  4182  002A8E                     
  4183                           ;mcc_generated_files/adc.c: 71:     ADCON0 = 0x03;
  4184  002A8E  0E03               	movlw	3
  4185  002A90  6EC2               	movwf	194,c	;volatile
  4186                           
  4187                           ;mcc_generated_files/adc.c: 74:     ADCON1 = 0x05;
  4188  002A92  0E05               	movlw	5
  4189  002A94  6EC1               	movwf	193,c	;volatile
  4190                           
  4191                           ;mcc_generated_files/adc.c: 77:     ADCON2 = 0x89;
  4192  002A96  0E89               	movlw	137
  4193  002A98  6EC0               	movwf	192,c	;volatile
  4194                           
  4195                           ;mcc_generated_files/adc.c: 80:     ADRESL = 0x00;
  4196  002A9A  0E00               	movlw	0
  4197  002A9C  6EC3               	movwf	195,c	;volatile
  4198                           
  4199                           ;mcc_generated_files/adc.c: 83:     ADRESH = 0x00;
  4200  002A9E  0E00               	movlw	0
  4201  002AA0  6EC4               	movwf	196,c	;volatile
  4202  002AA2                     
  4203                           ;mcc_generated_files/adc.c: 86:     PIE1bits.ADIE = 1;
  4204  002AA2  8C9D               	bsf	157,6,c	;volatile
  4205  002AA4                     
  4206                           ;mcc_generated_files/adc.c: 89:     ADC_SetInterruptHandler(ADC_DefaultInterruptHandler)
      +                          ;
  4207  002AA4  0EDC               	movlw	low _ADC_DefaultInterruptHandler
  4208  002AA6  0100               	movlb	0	; () banked
  4209  002AA8  6F64               	movwf	ADC_SetInterruptHandler@InterruptHandler& (0+255),b
  4210  002AAA  0E2B               	movlw	high _ADC_DefaultInterruptHandler
  4211  002AAC  6F65               	movwf	(ADC_SetInterruptHandler@InterruptHandler+1)& (0+255),b
  4212  002AAE  ECD3  F015         	call	_ADC_SetInterruptHandler	;wreg free
  4213  002AB2  0012               	return		;funcret
  4214  002AB4                     __end_of_ADC_Initialize:
  4215                           	opt callstack 0
  4216                           
  4217 ;; *************** function _ADC_SetInterruptHandler *****************
  4218 ;; Defined at:
  4219 ;;		line 153 in file "mcc_generated_files/adc.c"
  4220 ;; Parameters:    Size  Location     Type
  4221 ;;  InterruptHan    2    4[BANK0 ] PTR FTN()void 
  4222 ;;		 -> ADC_temperatura(1), ADC_DefaultInterruptHandler(1), 
  4223 ;; Auto vars:     Size  Location     Type
  4224 ;;		None
  4225 ;; Return value:  Size  Location     Type
  4226 ;;                  1    wreg      void 
  4227 ;; Registers used:
  4228 ;;		wreg, status,2, status,0
  4229 ;; Tracked objects:
  4230 ;;		On entry : 0/0
  4231 ;;		On exit  : 0/0
  4232 ;;		Unchanged: 0/0
  4233 ;; Data sizes:     COMRAM   BANK0   BANK1   BANK2   BANK3   BANK4   BANK5
  4234 ;;      Params:         0       2       0       0       0       0       0
  4235 ;;      Locals:         0       0       0       0       0       0       0
  4236 ;;      Temps:          0       0       0       0       0       0       0
  4237 ;;      Totals:         0       2       0       0       0       0       0
  4238 ;;Total ram usage:        2 bytes
  4239 ;; Hardware stack levels used:    1
  4240 ;; Hardware stack levels required when called:    4
  4241 ;; This function calls:
  4242 ;;		Nothing
  4243 ;; This function is called by:
  4244 ;;		_ADC_Initialize
  4245 ;;		_main
  4246 ;; This function uses a non-reentrant model
  4247 ;;
  4248                           
  4249                           	psect	text27
  4250  002BA6                     __ptext27:
  4251                           	opt callstack 0
  4252  002BA6                     _ADC_SetInterruptHandler:
  4253                           	opt callstack 24
  4254  002BA6                     
  4255                           ;mcc_generated_files/adc.c: 154:     ADC_InterruptHandler = InterruptHandler;
  4256  002BA6  C064  F0E9         	movff	ADC_SetInterruptHandler@InterruptHandler,_ADC_InterruptHandler
  4257  002BAA  C065  F0EA         	movff	ADC_SetInterruptHandler@InterruptHandler+1,_ADC_InterruptHandler+1
  4258  002BAE  0012               	return		;funcret
  4259  002BB0                     __end_of_ADC_SetInterruptHandler:
  4260                           	opt callstack 0
  4261                           
  4262 ;; *************** function _LCD_inicio_teste *****************
  4263 ;; Defined at:
  4264 ;;		line 23 in file "LCD.c"
  4265 ;; Parameters:    Size  Location     Type
  4266 ;;		None
  4267 ;; Auto vars:     Size  Location     Type
  4268 ;;		None
  4269 ;; Return value:  Size  Location     Type
  4270 ;;                  1    wreg      void 
  4271 ;; Registers used:
  4272 ;;		wreg, fsr1l, fsr1h, status,2, status,0, tblptrl, tblptrh, tblptru, cstack
  4273 ;; Tracked objects:
  4274 ;;		On entry : 0/0
  4275 ;;		On exit  : 0/0
  4276 ;;		Unchanged: 0/0
  4277 ;; Data sizes:     COMRAM   BANK0   BANK1   BANK2   BANK3   BANK4   BANK5
  4278 ;;      Params:         0       0       0       0       0       0       0
  4279 ;;      Locals:         0       0       0       0       0       0       0
  4280 ;;      Temps:          0       2       0       0       0       0       0
  4281 ;;      Totals:         0       2       0       0       0       0       0
  4282 ;;Total ram usage:        2 bytes
  4283 ;; Hardware stack levels used:    1
  4284 ;; Hardware stack levels required when called:    7
  4285 ;; This function calls:
  4286 ;;		_BusyXLCD
  4287 ;;		_OpenXLCD
  4288 ;;		_WriteCmdXLCD
  4289 ;;		_putsXLCD
  4290 ;; This function is called by:
  4291 ;;		_main
  4292 ;; This function uses a non-reentrant model
  4293 ;;
  4294                           
  4295                           	psect	text28
  4296  001E36                     __ptext28:
  4297                           	opt callstack 0
  4298  001E36                     _LCD_inicio_teste:
  4299                           	opt callstack 23
  4300  001E36                     
  4301                           ;LCD.c: 36:  OpenXLCD(0b00101011);
  4302  001E36  0E2B               	movlw	43
  4303  001E38  ECB3  F00F         	call	_OpenXLCD
  4304  001E3C                     l4927:
  4305  001E3C  ECD5  F013         	call	_BusyXLCD	;wreg free
  4306  001E40  0900               	iorlw	0
  4307  001E42  A4D8               	btfss	status,2,c
  4308  001E44  EF26  F00F         	goto	u4791
  4309  001E48  EF28  F00F         	goto	u4790
  4310  001E4C                     u4791:
  4311  001E4C  EF1E  F00F         	goto	l4927
  4312  001E50                     u4790:
  4313  001E50                     
  4314                           ;LCD.c: 46:  WriteCmdXLCD(0b00001100);
  4315  001E50  0E0C               	movlw	12
  4316  001E52  EC1A  F014         	call	_WriteCmdXLCD
  4317  001E56                     l4931:
  4318  001E56  ECD5  F013         	call	_BusyXLCD	;wreg free
  4319  001E5A  0900               	iorlw	0
  4320  001E5C  A4D8               	btfss	status,2,c
  4321  001E5E  EF33  F00F         	goto	u4801
  4322  001E62  EF35  F00F         	goto	u4800
  4323  001E66                     u4801:
  4324  001E66  EF2B  F00F         	goto	l4931
  4325  001E6A                     u4800:
  4326  001E6A                     
  4327                           ;LCD.c: 54:  WriteCmdXLCD(0b00010111);
  4328  001E6A  0E17               	movlw	23
  4329  001E6C  EC1A  F014         	call	_WriteCmdXLCD
  4330  001E70                     l4935:
  4331  001E70  ECD5  F013         	call	_BusyXLCD	;wreg free
  4332  001E74  0900               	iorlw	0
  4333  001E76  A4D8               	btfss	status,2,c
  4334  001E78  EF40  F00F         	goto	u4811
  4335  001E7C  EF42  F00F         	goto	u4810
  4336  001E80                     u4811:
  4337  001E80  EF38  F00F         	goto	l4935
  4338  001E84                     u4810:
  4339  001E84                     
  4340                           ;LCD.c: 60:  WriteCmdXLCD(0b00000001);
  4341  001E84  0E01               	movlw	1
  4342  001E86  EC1A  F014         	call	_WriteCmdXLCD
  4343  001E8A                     l4939:
  4344  001E8A  ECD5  F013         	call	_BusyXLCD	;wreg free
  4345  001E8E  0900               	iorlw	0
  4346  001E90  A4D8               	btfss	status,2,c
  4347  001E92  EF4D  F00F         	goto	u4821
  4348  001E96  EF4F  F00F         	goto	u4820
  4349  001E9A                     u4821:
  4350  001E9A  EF45  F00F         	goto	l4939
  4351  001E9E                     u4820:
  4352  001E9E                     
  4353                           ;LCD.c: 76:  WriteCmdXLCD(0b10000000);
  4354  001E9E  0E80               	movlw	128
  4355  001EA0  EC1A  F014         	call	_WriteCmdXLCD
  4356  001EA4                     l4943:
  4357  001EA4  ECD5  F013         	call	_BusyXLCD	;wreg free
  4358  001EA8  0900               	iorlw	0
  4359  001EAA  A4D8               	btfss	status,2,c
  4360  001EAC  EF5A  F00F         	goto	u4831
  4361  001EB0  EF5C  F00F         	goto	u4830
  4362  001EB4                     u4831:
  4363  001EB4  EF52  F00F         	goto	l4943
  4364  001EB8                     u4830:
  4365  001EB8                     
  4366                           ;LCD.c: 83:     putsXLCD("Mars ROCK'S!");
  4367  001EB8  0E26               	movlw	low STR_3
  4368  001EBA  0100               	movlb	0	; () banked
  4369  001EBC  6F65               	movwf	putsXLCD@buffer& (0+255),b
  4370  001EBE  0E06               	movlw	high STR_3
  4371  001EC0  6F66               	movwf	(putsXLCD@buffer+1)& (0+255),b
  4372  001EC2  EC6F  F012         	call	_putsXLCD	;wreg free
  4373  001EC6                     l4947:
  4374  001EC6  ECD5  F013         	call	_BusyXLCD	;wreg free
  4375  001ECA  0900               	iorlw	0
  4376  001ECC  A4D8               	btfss	status,2,c
  4377  001ECE  EF6B  F00F         	goto	u4841
  4378  001ED2  EF6D  F00F         	goto	u4840
  4379  001ED6                     u4841:
  4380  001ED6  EF63  F00F         	goto	l4947
  4381  001EDA                     u4840:
  4382  001EDA                     
  4383                           ;LCD.c: 86:     _delay((unsigned long)((1000)*(6000000/4000.0)));
  4384  001EDA  0E08               	movlw	8
  4385  001EDC  0100               	movlb	0	; () banked
  4386  001EDE  6F68               	movwf	(??_LCD_inicio_teste+1)& (0+255),b
  4387  001EE0  0E9D               	movlw	157
  4388  001EE2  6F67               	movwf	??_LCD_inicio_teste& (0+255),b
  4389  001EE4  0E05               	movlw	5
  4390  001EE6                     u5077:
  4391  001EE6  2EE8               	decfsz	wreg,f,c
  4392  001EE8  D7FE               	bra	u5077
  4393  001EEA  2F67               	decfsz	??_LCD_inicio_teste& (0+255),f,b
  4394  001EEC  D7FC               	bra	u5077
  4395  001EEE  2F68               	decfsz	(??_LCD_inicio_teste+1)& (0+255),f,b
  4396  001EF0  D7FA               	bra	u5077
  4397  001EF2  D000               	nop2	
  4398  001EF4                     
  4399                           ;LCD.c: 88:     WriteCmdXLCD(0b00010111);
  4400  001EF4  0E17               	movlw	23
  4401  001EF6  EC1A  F014         	call	_WriteCmdXLCD
  4402  001EFA                     l4953:
  4403  001EFA  ECD5  F013         	call	_BusyXLCD	;wreg free
  4404  001EFE  0900               	iorlw	0
  4405  001F00  A4D8               	btfss	status,2,c
  4406  001F02  EF85  F00F         	goto	u4851
  4407  001F06  EF87  F00F         	goto	u4850
  4408  001F0A                     u4851:
  4409  001F0A  EF7D  F00F         	goto	l4953
  4410  001F0E                     u4850:
  4411  001F0E                     
  4412                           ;LCD.c: 94:  WriteCmdXLCD(0b00000001);
  4413  001F0E  0E01               	movlw	1
  4414  001F10  EC1A  F014         	call	_WriteCmdXLCD
  4415  001F14                     l4957:
  4416  001F14  ECD5  F013         	call	_BusyXLCD	;wreg free
  4417  001F18  0900               	iorlw	0
  4418  001F1A  A4D8               	btfss	status,2,c
  4419  001F1C  EF92  F00F         	goto	u4861
  4420  001F20  EF94  F00F         	goto	u4860
  4421  001F24                     u4861:
  4422  001F24  EF8A  F00F         	goto	l4957
  4423  001F28                     u4860:
  4424  001F28                     
  4425                           ;LCD.c: 101:  WriteCmdXLCD(0b10000000);
  4426  001F28  0E80               	movlw	128
  4427  001F2A  EC1A  F014         	call	_WriteCmdXLCD
  4428  001F2E                     l4961:
  4429  001F2E  ECD5  F013         	call	_BusyXLCD	;wreg free
  4430  001F32  0900               	iorlw	0
  4431  001F34  A4D8               	btfss	status,2,c
  4432  001F36  EF9F  F00F         	goto	u4871
  4433  001F3A  EFA1  F00F         	goto	u4870
  4434  001F3E                     u4871:
  4435  001F3E  EF97  F00F         	goto	l4961
  4436  001F42                     u4870:
  4437  001F42                     
  4438                           ;LCD.c: 108:     putsXLCD("Teste - Teclado");
  4439  001F42  0E16               	movlw	low STR_4
  4440  001F44  0100               	movlb	0	; () banked
  4441  001F46  6F65               	movwf	putsXLCD@buffer& (0+255),b
  4442  001F48  0E06               	movlw	high STR_4
  4443  001F4A  6F66               	movwf	(putsXLCD@buffer+1)& (0+255),b
  4444  001F4C  EC6F  F012         	call	_putsXLCD	;wreg free
  4445  001F50                     l4965:
  4446  001F50  ECD5  F013         	call	_BusyXLCD	;wreg free
  4447  001F54  0900               	iorlw	0
  4448  001F56  A4D8               	btfss	status,2,c
  4449  001F58  EFB0  F00F         	goto	u4881
  4450  001F5C  EFB2  F00F         	goto	u4880
  4451  001F60                     u4881:
  4452  001F60  EFA8  F00F         	goto	l4965
  4453  001F64                     u4880:
  4454  001F64  0012               	return		;funcret
  4455  001F66                     __end_of_LCD_inicio_teste:
  4456                           	opt callstack 0
  4457                           
  4458 ;; *************** function _putsXLCD *****************
  4459 ;; Defined at:
  4460 ;;		line 302 in file "xlcd.c"
  4461 ;; Parameters:    Size  Location     Type
  4462 ;;  buffer          2    5[BANK0 ] PTR unsigned char 
  4463 ;;		 -> STR_4(16), STR_3(13), STR_2(21), pin(4), 
  4464 ;;		 -> temp_ambiente_LCD(4), 
  4465 ;; Auto vars:     Size  Location     Type
  4466 ;;		None
  4467 ;; Return value:  Size  Location     Type
  4468 ;;                  1    wreg      void 
  4469 ;; Registers used:
  4470 ;;		wreg, fsr1l, fsr1h, status,2, status,0, tblptrl, tblptrh, tblptru, cstack
  4471 ;; Tracked objects:
  4472 ;;		On entry : 0/0
  4473 ;;		On exit  : 0/0
  4474 ;;		Unchanged: 0/0
  4475 ;; Data sizes:     COMRAM   BANK0   BANK1   BANK2   BANK3   BANK4   BANK5
  4476 ;;      Params:         0       2       0       0       0       0       0
  4477 ;;      Locals:         0       0       0       0       0       0       0
  4478 ;;      Temps:          0       0       0       0       0       0       0
  4479 ;;      Totals:         0       2       0       0       0       0       0
  4480 ;;Total ram usage:        2 bytes
  4481 ;; Hardware stack levels used:    1
  4482 ;; Hardware stack levels required when called:    6
  4483 ;; This function calls:
  4484 ;;		_BusyXLCD
  4485 ;;		_WriteDataXLCD
  4486 ;; This function is called by:
  4487 ;;		_main
  4488 ;;		_LCD_inicio_teste
  4489 ;; This function uses a non-reentrant model
  4490 ;;
  4491                           
  4492                           	psect	text29
  4493  0024DE                     __ptext29:
  4494                           	opt callstack 0
  4495  0024DE                     _putsXLCD:
  4496                           	opt callstack 24
  4497  0024DE                     
  4498                           ;xlcd.c: 303:     while (*buffer)
  4499  0024DE  EF90  F012         	goto	l4813
  4500  0024E2                     l4807:
  4501  0024E2  ECD5  F013         	call	_BusyXLCD	;wreg free
  4502  0024E6  0900               	iorlw	0
  4503  0024E8  A4D8               	btfss	status,2,c
  4504  0024EA  EF79  F012         	goto	u4681
  4505  0024EE  EF7B  F012         	goto	u4680
  4506  0024F2                     u4681:
  4507  0024F2  EF71  F012         	goto	l4807
  4508  0024F6                     u4680:
  4509  0024F6                     
  4510                           ;xlcd.c: 306:         WriteDataXLCD(*buffer);
  4511  0024F6  C065  FFF6         	movff	putsXLCD@buffer,tblptrl
  4512  0024FA  C066  FFF7         	movff	putsXLCD@buffer+1,tblptrh
  4513  0024FE  6AF8               	clrf	tblptru,c
  4514  002500  0E05               	movlw	(high __ramtop+-1)
  4515  002502  64F7               	cpfsgt	tblptrh,c
  4516  002504  D003               	bra	u4697
  4517  002506  0008               	tblrd		*
  4518  002508  50F5               	movf	tablat,w,c
  4519  00250A  D005               	bra	u4690
  4520  00250C                     u4697:
  4521  00250C  CFF6 FFE1          	movff	tblptrl,fsr1l
  4522  002510  CFF7 FFE2          	movff	tblptrh,fsr1h
  4523  002514  50E7               	movf	indf1,w,c
  4524  002516                     u4690:
  4525  002516  ECF8  F013         	call	_WriteDataXLCD
  4526  00251A                     
  4527                           ;xlcd.c: 307:         buffer++;
  4528  00251A  0100               	movlb	0	; () banked
  4529  00251C  4B65               	infsnz	putsXLCD@buffer& (0+255),f,b
  4530  00251E  2B66               	incf	(putsXLCD@buffer+1)& (0+255),f,b
  4531  002520                     l4813:
  4532                           
  4533                           ;xlcd.c: 303:     while (*buffer)
  4534  002520  C065  FFF6         	movff	putsXLCD@buffer,tblptrl
  4535  002524  C066  FFF7         	movff	putsXLCD@buffer+1,tblptrh
  4536  002528  6AF8               	clrf	tblptru,c
  4537  00252A  0E05               	movlw	(high __ramtop+-1)
  4538  00252C  64F7               	cpfsgt	tblptrh,c
  4539  00252E  D003               	bra	u4707
  4540  002530  0008               	tblrd		*
  4541  002532  50F5               	movf	tablat,w,c
  4542  002534  D005               	bra	u4700
  4543  002536                     u4707:
  4544  002536  CFF6 FFE1          	movff	tblptrl,fsr1l
  4545  00253A  CFF7 FFE2          	movff	tblptrh,fsr1h
  4546  00253E  50E7               	movf	indf1,w,c
  4547  002540                     u4700:
  4548  002540  0900               	iorlw	0
  4549  002542  A4D8               	btfss	status,2,c
  4550  002544  EFA6  F012         	goto	u4711
  4551  002548  EFA8  F012         	goto	u4710
  4552  00254C                     u4711:
  4553  00254C  EF71  F012         	goto	l4807
  4554  002550                     u4710:
  4555  002550  0012               	return		;funcret
  4556  002552                     __end_of_putsXLCD:
  4557                           	opt callstack 0
  4558                           
  4559 ;; *************** function _WriteDataXLCD *****************
  4560 ;; Defined at:
  4561 ;;		line 598 in file "xlcd.c"
  4562 ;; Parameters:    Size  Location     Type
  4563 ;;  data            1    wreg     unsigned char 
  4564 ;; Auto vars:     Size  Location     Type
  4565 ;;  data            1    4[BANK0 ] unsigned char 
  4566 ;; Return value:  Size  Location     Type
  4567 ;;                  1    wreg      void 
  4568 ;; Registers used:
  4569 ;;		wreg, status,2, status,0, cstack
  4570 ;; Tracked objects:
  4571 ;;		On entry : 0/0
  4572 ;;		On exit  : 0/0
  4573 ;;		Unchanged: 0/0
  4574 ;; Data sizes:     COMRAM   BANK0   BANK1   BANK2   BANK3   BANK4   BANK5
  4575 ;;      Params:         0       0       0       0       0       0       0
  4576 ;;      Locals:         0       1       0       0       0       0       0
  4577 ;;      Temps:          0       0       0       0       0       0       0
  4578 ;;      Totals:         0       1       0       0       0       0       0
  4579 ;;Total ram usage:        1 bytes
  4580 ;; Hardware stack levels used:    1
  4581 ;; Hardware stack levels required when called:    5
  4582 ;; This function calls:
  4583 ;;		_DelayFor18TCY
  4584 ;; This function is called by:
  4585 ;;		_putsXLCD
  4586 ;; This function uses a non-reentrant model
  4587 ;;
  4588                           
  4589                           	psect	text30
  4590  0027F0                     __ptext30:
  4591                           	opt callstack 0
  4592  0027F0                     _WriteDataXLCD:
  4593                           	opt callstack 24
  4594                           
  4595                           ;incstack = 0
  4596                           ;WriteDataXLCD@data stored from wreg
  4597  0027F0  0100               	movlb	0	; () banked
  4598  0027F2  6F64               	movwf	WriteDataXLCD@data& (0+255),b
  4599  0027F4                     
  4600                           ;xlcd.c: 616:     TRISD &= 0xf0;
  4601  0027F4  0EF0               	movlw	240
  4602  0027F6  1695               	andwf	149,f,c	;volatile
  4603                           
  4604                           ;xlcd.c: 617:     PORTD &= 0xf0;
  4605  0027F8  0EF0               	movlw	240
  4606  0027FA  1683               	andwf	131,f,c	;volatile
  4607                           
  4608                           ;xlcd.c: 618:     PORTD |= ((data >> 4)&0x0f);
  4609  0027FC  0100               	movlb	0	; () banked
  4610  0027FE  3964               	swapf	WriteDataXLCD@data& (0+255),w,b
  4611  002800  0B0F               	andlw	15
  4612  002802  0B0F               	andlw	15
  4613  002804  1283               	iorwf	131,f,c	;volatile
  4614  002806                     
  4615                           ; BSR set to: 0
  4616                           ;xlcd.c: 620:     LATDbits.LATD4 = 1;
  4617  002806  888C               	bsf	140,4,c	;volatile
  4618  002808                     
  4619                           ; BSR set to: 0
  4620                           ;xlcd.c: 621:     LATDbits.LATD5 = 0;
  4621  002808  9A8C               	bcf	140,5,c	;volatile
  4622  00280A                     
  4623                           ; BSR set to: 0
  4624                           ;xlcd.c: 622:     DelayFor18TCY();
  4625  00280A  ECAA  F015         	call	_DelayFor18TCY	;wreg free
  4626  00280E                     
  4627                           ;xlcd.c: 623:     LATDbits.LATD6 = 1;
  4628  00280E  8C8C               	bsf	140,6,c	;volatile
  4629  002810                     
  4630                           ;xlcd.c: 624:     DelayFor18TCY();
  4631  002810  ECAA  F015         	call	_DelayFor18TCY	;wreg free
  4632  002814                     
  4633                           ;xlcd.c: 625:     LATDbits.LATD6 = 0;
  4634  002814  9C8C               	bcf	140,6,c	;volatile
  4635                           
  4636                           ;xlcd.c: 630:     PORTD &= 0xf0;
  4637  002816  0EF0               	movlw	240
  4638  002818  1683               	andwf	131,f,c	;volatile
  4639                           
  4640                           ;xlcd.c: 631:     PORTD |= (data & 0x0f);
  4641  00281A  0100               	movlb	0	; () banked
  4642  00281C  5164               	movf	WriteDataXLCD@data& (0+255),w,b
  4643  00281E  0B0F               	andlw	15
  4644  002820  1283               	iorwf	131,f,c	;volatile
  4645  002822                     
  4646                           ; BSR set to: 0
  4647                           ;xlcd.c: 633:     DelayFor18TCY();
  4648  002822  ECAA  F015         	call	_DelayFor18TCY	;wreg free
  4649  002826                     
  4650                           ;xlcd.c: 634:     LATDbits.LATD6 = 1;
  4651  002826  8C8C               	bsf	140,6,c	;volatile
  4652  002828                     
  4653                           ;xlcd.c: 635:     DelayFor18TCY();
  4654  002828  ECAA  F015         	call	_DelayFor18TCY	;wreg free
  4655  00282C                     
  4656                           ;xlcd.c: 636:     LATDbits.LATD6 = 0;
  4657  00282C  9C8C               	bcf	140,6,c	;volatile
  4658                           
  4659                           ;xlcd.c: 640:     TRISD |= 0x0f;
  4660  00282E  0E0F               	movlw	15
  4661  002830  1295               	iorwf	149,f,c	;volatile
  4662  002832  0012               	return		;funcret
  4663  002834                     __end_of_WriteDataXLCD:
  4664                           	opt callstack 0
  4665                           
  4666 ;; *************** function _OpenXLCD *****************
  4667 ;; Defined at:
  4668 ;;		line 56 in file "xlcd.c"
  4669 ;; Parameters:    Size  Location     Type
  4670 ;;  lcdtype         1    wreg     unsigned char 
  4671 ;; Auto vars:     Size  Location     Type
  4672 ;;  lcdtype         1    0[COMRAM] unsigned char 
  4673 ;; Return value:  Size  Location     Type
  4674 ;;                  1    wreg      void 
  4675 ;; Registers used:
  4676 ;;		wreg, status,2, status,0, cstack
  4677 ;; Tracked objects:
  4678 ;;		On entry : 0/0
  4679 ;;		On exit  : 0/0
  4680 ;;		Unchanged: 0/0
  4681 ;; Data sizes:     COMRAM   BANK0   BANK1   BANK2   BANK3   BANK4   BANK5
  4682 ;;      Params:         0       0       0       0       0       0       0
  4683 ;;      Locals:         0       0       0       0       0       0       0
  4684 ;;      Temps:          0       0       0       0       0       0       0
  4685 ;;      Totals:         0       0       0       0       0       0       0
  4686 ;;Total ram usage:        0 bytes
  4687 ;; Hardware stack levels used:    1
  4688 ;; Hardware stack levels required when called:    6
  4689 ;; This function calls:
  4690 ;;		_BusyXLCD
  4691 ;;		_DelayFor18TCY
  4692 ;;		_DelayPORXLCD
  4693 ;;		_DelayXLCD
  4694 ;;		_WriteCmdXLCD
  4695 ;; This function is called by:
  4696 ;;		_LCD_inicio_teste
  4697 ;; This function uses a non-reentrant model
  4698 ;;
  4699                           
  4700                           	psect	text31
  4701  001F66                     __ptext31:
  4702                           	opt callstack 0
  4703  001F66                     _OpenXLCD:
  4704                           	opt callstack 23
  4705  001F66                     
  4706                           ;xlcd.c: 60:     DelayPORXLCD();
  4707  001F66  EC5A  F015         	call	_DelayPORXLCD	;wreg free
  4708  001F6A                     
  4709                           ;xlcd.c: 72:     PORTD &= 0xf0;
  4710  001F6A  0EF0               	movlw	240
  4711  001F6C  1683               	andwf	131,f,c	;volatile
  4712  001F6E                     
  4713                           ;xlcd.c: 73:     TRISD |= 0x0f;
  4714  001F6E  0E0F               	movlw	15
  4715  001F70  1295               	iorwf	149,f,c	;volatile
  4716  001F72                     
  4717                           ;xlcd.c: 76:     TRISDbits.TRISD5 = 0;
  4718  001F72  9A95               	bcf	149,5,c	;volatile
  4719  001F74                     
  4720                           ;xlcd.c: 77:     TRISDbits.TRISD4 = 0;
  4721  001F74  9895               	bcf	149,4,c	;volatile
  4722  001F76                     
  4723                           ;xlcd.c: 78:     TRISDbits.TRISD6 = 0;
  4724  001F76  9C95               	bcf	149,6,c	;volatile
  4725  001F78                     
  4726                           ;xlcd.c: 79:     LATDbits.LATD5 = 0;
  4727  001F78  9A8C               	bcf	140,5,c	;volatile
  4728  001F7A                     
  4729                           ;xlcd.c: 80:     LATDbits.LATD4 = 0;
  4730  001F7A  988C               	bcf	140,4,c	;volatile
  4731  001F7C                     
  4732                           ;xlcd.c: 81:     LATDbits.LATD6 = 0;
  4733  001F7C  9C8C               	bcf	140,6,c	;volatile
  4734                           
  4735                           ;xlcd.c: 84:     DelayPORXLCD();
  4736  001F7E  EC5A  F015         	call	_DelayPORXLCD	;wreg free
  4737  001F82                     
  4738                           ;xlcd.c: 97:     TRISD &= 0xf0;
  4739  001F82  0EF0               	movlw	240
  4740  001F84  1695               	andwf	149,f,c	;volatile
  4741  001F86                     
  4742                           ;xlcd.c: 98:     PORTD &= 0xf0;
  4743  001F86  0EF0               	movlw	240
  4744  001F88  1683               	andwf	131,f,c	;volatile
  4745  001F8A                     
  4746                           ;xlcd.c: 99:     PORTD |= 0b00000011;
  4747  001F8A  0E03               	movlw	3
  4748  001F8C  1283               	iorwf	131,f,c	;volatile
  4749  001F8E                     
  4750                           ;xlcd.c: 102:     LATDbits.LATD6 = 1;
  4751  001F8E  8C8C               	bsf	140,6,c	;volatile
  4752  001F90                     
  4753                           ;xlcd.c: 103:     DelayFor18TCY();
  4754  001F90  ECAA  F015         	call	_DelayFor18TCY	;wreg free
  4755  001F94                     
  4756                           ;xlcd.c: 104:     LATDbits.LATD6 = 0;
  4757  001F94  9C8C               	bcf	140,6,c	;volatile
  4758  001F96                     
  4759                           ;xlcd.c: 107:     DelayXLCD();
  4760  001F96  EC8E  F015         	call	_DelayXLCD	;wreg free
  4761  001F9A                     
  4762                           ;xlcd.c: 118:     TRISD &= 0xf0;
  4763  001F9A  0EF0               	movlw	240
  4764  001F9C  1695               	andwf	149,f,c	;volatile
  4765  001F9E                     
  4766                           ;xlcd.c: 119:     PORTD &= 0xf0;
  4767  001F9E  0EF0               	movlw	240
  4768  001FA0  1683               	andwf	131,f,c	;volatile
  4769  001FA2                     
  4770                           ;xlcd.c: 120:     PORTD |= 0b00000011;
  4771  001FA2  0E03               	movlw	3
  4772  001FA4  1283               	iorwf	131,f,c	;volatile
  4773  001FA6                     
  4774                           ;xlcd.c: 123:     LATDbits.LATD6 = 1;
  4775  001FA6  8C8C               	bsf	140,6,c	;volatile
  4776                           
  4777                           ;xlcd.c: 124:     DelayFor18TCY();
  4778  001FA8  ECAA  F015         	call	_DelayFor18TCY	;wreg free
  4779  001FAC                     
  4780                           ;xlcd.c: 125:     LATDbits.LATD6 = 0;
  4781  001FAC  9C8C               	bcf	140,6,c	;volatile
  4782                           
  4783                           ;xlcd.c: 128:     DelayXLCD();
  4784  001FAE  EC8E  F015         	call	_DelayXLCD	;wreg free
  4785  001FB2                     
  4786                           ;xlcd.c: 138:     PORTD &= 0xf0;
  4787  001FB2  0EF0               	movlw	240
  4788  001FB4  1683               	andwf	131,f,c	;volatile
  4789  001FB6                     
  4790                           ;xlcd.c: 139:     PORTD |= 0b00000011;
  4791  001FB6  0E03               	movlw	3
  4792  001FB8  1283               	iorwf	131,f,c	;volatile
  4793  001FBA                     
  4794                           ;xlcd.c: 142:     LATDbits.LATD6 = 1;
  4795  001FBA  8C8C               	bsf	140,6,c	;volatile
  4796                           
  4797                           ;xlcd.c: 143:     DelayFor18TCY();
  4798  001FBC  ECAA  F015         	call	_DelayFor18TCY	;wreg free
  4799  001FC0                     
  4800                           ;xlcd.c: 144:     LATDbits.LATD6 = 0;
  4801  001FC0  9C8C               	bcf	140,6,c	;volatile
  4802                           
  4803                           ;xlcd.c: 147:     DelayXLCD();
  4804  001FC2  EC8E  F015         	call	_DelayXLCD	;wreg free
  4805  001FC6                     
  4806                           ;xlcd.c: 159:     PORTD &= 0xf0;
  4807  001FC6  0EF0               	movlw	240
  4808  001FC8  1683               	andwf	131,f,c	;volatile
  4809  001FCA                     
  4810                           ;xlcd.c: 160:     PORTD |= 0b00000010;
  4811  001FCA  8283               	bsf	131,1,c	;volatile
  4812  001FCC                     
  4813                           ;xlcd.c: 163:     LATDbits.LATD6 = 1;
  4814  001FCC  8C8C               	bsf	140,6,c	;volatile
  4815  001FCE                     
  4816                           ;xlcd.c: 164:     DelayFor18TCY();
  4817  001FCE  ECAA  F015         	call	_DelayFor18TCY	;wreg free
  4818  001FD2                     
  4819                           ;xlcd.c: 165:     LATDbits.LATD6 = 0;
  4820  001FD2  9C8C               	bcf	140,6,c	;volatile
  4821  001FD4                     
  4822                           ;xlcd.c: 174:     TRISD |= 0x0f;
  4823  001FD4  0E0F               	movlw	15
  4824  001FD6  1295               	iorwf	149,f,c	;volatile
  4825  001FD8                     l4877:
  4826  001FD8  ECD5  F013         	call	_BusyXLCD	;wreg free
  4827  001FDC  0900               	iorlw	0
  4828  001FDE  A4D8               	btfss	status,2,c
  4829  001FE0  EFF4  F00F         	goto	u4721
  4830  001FE4  EFF6  F00F         	goto	u4720
  4831  001FE8                     u4721:
  4832  001FE8  EFEC  F00F         	goto	l4877
  4833  001FEC                     u4720:
  4834  001FEC                     
  4835                           ;xlcd.c: 182:     WriteCmdXLCD(0x28);
  4836  001FEC  0E28               	movlw	40
  4837  001FEE  EC1A  F014         	call	_WriteCmdXLCD
  4838  001FF2                     l4881:
  4839  001FF2  ECD5  F013         	call	_BusyXLCD	;wreg free
  4840  001FF6  0900               	iorlw	0
  4841  001FF8  A4D8               	btfss	status,2,c
  4842  001FFA  EF01  F010         	goto	u4731
  4843  001FFE  EF03  F010         	goto	u4730
  4844  002002                     u4731:
  4845  002002  EFF9  F00F         	goto	l4881
  4846  002006                     u4730:
  4847  002006                     
  4848                           ;xlcd.c: 188:     WriteCmdXLCD(0x0D);
  4849  002006  0E0D               	movlw	13
  4850  002008  EC1A  F014         	call	_WriteCmdXLCD
  4851  00200C                     l4885:
  4852  00200C  ECD5  F013         	call	_BusyXLCD	;wreg free
  4853  002010  0900               	iorlw	0
  4854  002012  A4D8               	btfss	status,2,c
  4855  002014  EF0E  F010         	goto	u4741
  4856  002018  EF10  F010         	goto	u4740
  4857  00201C                     u4741:
  4858  00201C  EF06  F010         	goto	l4885
  4859  002020                     u4740:
  4860  002020                     l4887:
  4861  002020  ECD5  F013         	call	_BusyXLCD	;wreg free
  4862  002024  0900               	iorlw	0
  4863  002026  A4D8               	btfss	status,2,c
  4864  002028  EF18  F010         	goto	u4751
  4865  00202C  EF1A  F010         	goto	u4750
  4866  002030                     u4751:
  4867  002030  EF10  F010         	goto	l4887
  4868  002034                     u4750:
  4869  002034                     
  4870                           ;xlcd.c: 196:     WriteCmdXLCD(0x01);
  4871  002034  0E01               	movlw	1
  4872  002036  EC1A  F014         	call	_WriteCmdXLCD
  4873  00203A                     l4891:
  4874  00203A  ECD5  F013         	call	_BusyXLCD	;wreg free
  4875  00203E  0900               	iorlw	0
  4876  002040  A4D8               	btfss	status,2,c
  4877  002042  EF25  F010         	goto	u4761
  4878  002046  EF27  F010         	goto	u4760
  4879  00204A                     u4761:
  4880  00204A  EF1D  F010         	goto	l4891
  4881  00204E                     u4760:
  4882  00204E                     
  4883                           ;xlcd.c: 201:     WriteCmdXLCD(0x06);
  4884  00204E  0E06               	movlw	6
  4885  002050  EC1A  F014         	call	_WriteCmdXLCD
  4886  002054                     l4895:
  4887  002054  ECD5  F013         	call	_BusyXLCD	;wreg free
  4888  002058  0900               	iorlw	0
  4889  00205A  A4D8               	btfss	status,2,c
  4890  00205C  EF32  F010         	goto	u4771
  4891  002060  EF34  F010         	goto	u4770
  4892  002064                     u4771:
  4893  002064  EF2A  F010         	goto	l4895
  4894  002068                     u4770:
  4895  002068                     
  4896                           ;xlcd.c: 207:     WriteCmdXLCD(0x80);
  4897  002068  0E80               	movlw	128
  4898  00206A  EC1A  F014         	call	_WriteCmdXLCD
  4899  00206E  0012               	return		;funcret
  4900  002070                     __end_of_OpenXLCD:
  4901                           	opt callstack 0
  4902                           
  4903 ;; *************** function _WriteCmdXLCD *****************
  4904 ;; Defined at:
  4905 ;;		line 538 in file "xlcd.c"
  4906 ;; Parameters:    Size  Location     Type
  4907 ;;  cmd             1    wreg     unsigned char 
  4908 ;; Auto vars:     Size  Location     Type
  4909 ;;  cmd             1    4[BANK0 ] unsigned char 
  4910 ;; Return value:  Size  Location     Type
  4911 ;;                  1    wreg      void 
  4912 ;; Registers used:
  4913 ;;		wreg, status,2, status,0, cstack
  4914 ;; Tracked objects:
  4915 ;;		On entry : 0/0
  4916 ;;		On exit  : 0/0
  4917 ;;		Unchanged: 0/0
  4918 ;; Data sizes:     COMRAM   BANK0   BANK1   BANK2   BANK3   BANK4   BANK5
  4919 ;;      Params:         0       0       0       0       0       0       0
  4920 ;;      Locals:         0       1       0       0       0       0       0
  4921 ;;      Temps:          0       0       0       0       0       0       0
  4922 ;;      Totals:         0       1       0       0       0       0       0
  4923 ;;Total ram usage:        1 bytes
  4924 ;; Hardware stack levels used:    1
  4925 ;; Hardware stack levels required when called:    5
  4926 ;; This function calls:
  4927 ;;		_DelayFor18TCY
  4928 ;; This function is called by:
  4929 ;;		_main
  4930 ;;		_OpenXLCD
  4931 ;;		_LCD_inicio_teste
  4932 ;; This function uses a non-reentrant model
  4933 ;;
  4934                           
  4935                           	psect	text32
  4936  002834                     __ptext32:
  4937                           	opt callstack 0
  4938  002834                     _WriteCmdXLCD:
  4939                           	opt callstack 25
  4940                           
  4941                           ;incstack = 0
  4942                           ;WriteCmdXLCD@cmd stored from wreg
  4943  002834  0100               	movlb	0	; () banked
  4944  002836  6F64               	movwf	WriteCmdXLCD@cmd& (0+255),b
  4945  002838                     
  4946                           ;xlcd.c: 556:     TRISD &= 0xf0;
  4947  002838  0EF0               	movlw	240
  4948  00283A  1695               	andwf	149,f,c	;volatile
  4949                           
  4950                           ;xlcd.c: 557:     PORTD &= 0xf0;
  4951  00283C  0EF0               	movlw	240
  4952  00283E  1683               	andwf	131,f,c	;volatile
  4953                           
  4954                           ;xlcd.c: 558:     PORTD |= (cmd >> 4)&0x0f;
  4955  002840  0100               	movlb	0	; () banked
  4956  002842  3964               	swapf	WriteCmdXLCD@cmd& (0+255),w,b
  4957  002844  0B0F               	andlw	15
  4958  002846  0B0F               	andlw	15
  4959  002848  1283               	iorwf	131,f,c	;volatile
  4960  00284A                     
  4961                           ; BSR set to: 0
  4962                           ;xlcd.c: 560:     LATDbits.LATD5 = 0;
  4963  00284A  9A8C               	bcf	140,5,c	;volatile
  4964  00284C                     
  4965                           ; BSR set to: 0
  4966                           ;xlcd.c: 561:     LATDbits.LATD4 = 0;
  4967  00284C  988C               	bcf	140,4,c	;volatile
  4968  00284E                     
  4969                           ; BSR set to: 0
  4970                           ;xlcd.c: 562:     DelayFor18TCY();
  4971  00284E  ECAA  F015         	call	_DelayFor18TCY	;wreg free
  4972  002852                     
  4973                           ;xlcd.c: 563:     LATDbits.LATD6 = 1;
  4974  002852  8C8C               	bsf	140,6,c	;volatile
  4975  002854                     
  4976                           ;xlcd.c: 564:     DelayFor18TCY();
  4977  002854  ECAA  F015         	call	_DelayFor18TCY	;wreg free
  4978  002858                     
  4979                           ;xlcd.c: 565:     LATDbits.LATD6 = 0;
  4980  002858  9C8C               	bcf	140,6,c	;volatile
  4981                           
  4982                           ;xlcd.c: 570:     PORTD &= 0xf0;
  4983  00285A  0EF0               	movlw	240
  4984  00285C  1683               	andwf	131,f,c	;volatile
  4985                           
  4986                           ;xlcd.c: 571:     PORTD |= cmd & 0x0f;
  4987  00285E  0100               	movlb	0	; () banked
  4988  002860  5164               	movf	WriteCmdXLCD@cmd& (0+255),w,b
  4989  002862  0B0F               	andlw	15
  4990  002864  1283               	iorwf	131,f,c	;volatile
  4991  002866                     
  4992                           ; BSR set to: 0
  4993                           ;xlcd.c: 573:     DelayFor18TCY();
  4994  002866  ECAA  F015         	call	_DelayFor18TCY	;wreg free
  4995  00286A                     
  4996                           ;xlcd.c: 574:     LATDbits.LATD6 = 1;
  4997  00286A  8C8C               	bsf	140,6,c	;volatile
  4998  00286C                     
  4999                           ;xlcd.c: 575:     DelayFor18TCY();
  5000  00286C  ECAA  F015         	call	_DelayFor18TCY	;wreg free
  5001  002870                     
  5002                           ;xlcd.c: 576:     LATDbits.LATD6 = 0;
  5003  002870  9C8C               	bcf	140,6,c	;volatile
  5004                           
  5005                           ;xlcd.c: 580:     TRISD |= 0x0f;
  5006  002872  0E0F               	movlw	15
  5007  002874  1295               	iorwf	149,f,c	;volatile
  5008  002876  0012               	return		;funcret
  5009  002878                     __end_of_WriteCmdXLCD:
  5010                           	opt callstack 0
  5011                           
  5012 ;; *************** function _DelayXLCD *****************
  5013 ;; Defined at:
  5014 ;;		line 33 in file "xlcd.c"
  5015 ;; Parameters:    Size  Location     Type
  5016 ;;		None
  5017 ;; Auto vars:     Size  Location     Type
  5018 ;;		None
  5019 ;; Return value:  Size  Location     Type
  5020 ;;                  1    wreg      void 
  5021 ;; Registers used:
  5022 ;;		wreg
  5023 ;; Tracked objects:
  5024 ;;		On entry : 0/0
  5025 ;;		On exit  : 0/0
  5026 ;;		Unchanged: 0/0
  5027 ;; Data sizes:     COMRAM   BANK0   BANK1   BANK2   BANK3   BANK4   BANK5
  5028 ;;      Params:         0       0       0       0       0       0       0
  5029 ;;      Locals:         0       0       0       0       0       0       0
  5030 ;;      Temps:          0       1       0       0       0       0       0
  5031 ;;      Totals:         0       1       0       0       0       0       0
  5032 ;;Total ram usage:        1 bytes
  5033 ;; Hardware stack levels used:    1
  5034 ;; Hardware stack levels required when called:    4
  5035 ;; This function calls:
  5036 ;;		Nothing
  5037 ;; This function is called by:
  5038 ;;		_OpenXLCD
  5039 ;; This function uses a non-reentrant model
  5040 ;;
  5041                           
  5042                           	psect	text33
  5043  002B1C                     __ptext33:
  5044                           	opt callstack 0
  5045  002B1C                     _DelayXLCD:
  5046                           	opt callstack 24
  5047  002B1C                     
  5048                           ;xlcd.c: 36:     _delay((unsigned long)((15)*(4000000/4000.0)));
  5049  002B1C  0E14               	movlw	20
  5050  002B1E  0100               	movlb	0	; () banked
  5051  002B20  6F64               	movwf	??_DelayXLCD& (0+255),b
  5052  002B22  0E79               	movlw	121
  5053  002B24                     u5087:
  5054  002B24  2EE8               	decfsz	wreg,f,c
  5055  002B26  D7FE               	bra	u5087
  5056  002B28  2F64               	decfsz	??_DelayXLCD& (0+255),f,b
  5057  002B2A  D7FC               	bra	u5087
  5058  002B2C  D000               	nop2	
  5059  002B2E  0012               	return		;funcret
  5060  002B30                     __end_of_DelayXLCD:
  5061                           	opt callstack 0
  5062                           
  5063 ;; *************** function _DelayPORXLCD *****************
  5064 ;; Defined at:
  5065 ;;		line 25 in file "xlcd.c"
  5066 ;; Parameters:    Size  Location     Type
  5067 ;;		None
  5068 ;; Auto vars:     Size  Location     Type
  5069 ;;		None
  5070 ;; Return value:  Size  Location     Type
  5071 ;;                  1    wreg      void 
  5072 ;; Registers used:
  5073 ;;		wreg
  5074 ;; Tracked objects:
  5075 ;;		On entry : 0/0
  5076 ;;		On exit  : 0/0
  5077 ;;		Unchanged: 0/0
  5078 ;; Data sizes:     COMRAM   BANK0   BANK1   BANK2   BANK3   BANK4   BANK5
  5079 ;;      Params:         0       0       0       0       0       0       0
  5080 ;;      Locals:         0       0       0       0       0       0       0
  5081 ;;      Temps:          0       1       0       0       0       0       0
  5082 ;;      Totals:         0       1       0       0       0       0       0
  5083 ;;Total ram usage:        1 bytes
  5084 ;; Hardware stack levels used:    1
  5085 ;; Hardware stack levels required when called:    4
  5086 ;; This function calls:
  5087 ;;		Nothing
  5088 ;; This function is called by:
  5089 ;;		_OpenXLCD
  5090 ;; This function uses a non-reentrant model
  5091 ;;
  5092                           
  5093                           	psect	text34
  5094  002AB4                     __ptext34:
  5095                           	opt callstack 0
  5096  002AB4                     _DelayPORXLCD:
  5097                           	opt callstack 24
  5098  002AB4                     
  5099                           ;xlcd.c: 28:     _delay((unsigned long)((15)*(4000000/4000.0)));
  5100  002AB4  0E14               	movlw	20
  5101  002AB6  0100               	movlb	0	; () banked
  5102  002AB8  6F64               	movwf	??_DelayPORXLCD& (0+255),b
  5103  002ABA  0E79               	movlw	121
  5104  002ABC                     u5097:
  5105  002ABC  2EE8               	decfsz	wreg,f,c
  5106  002ABE  D7FE               	bra	u5097
  5107  002AC0  2F64               	decfsz	??_DelayPORXLCD& (0+255),f,b
  5108  002AC2  D7FC               	bra	u5097
  5109  002AC4  D000               	nop2	
  5110                           
  5111                           ;xlcd.c: 29:     _delay((unsigned long)((15)*(4000000/4000.0)));
  5112  002AC6  0E14               	movlw	20
  5113  002AC8  0100               	movlb	0	; () banked
  5114  002ACA  6F64               	movwf	??_DelayPORXLCD& (0+255),b
  5115  002ACC  0E79               	movlw	121
  5116  002ACE                     u5107:
  5117  002ACE  2EE8               	decfsz	wreg,f,c
  5118  002AD0  D7FE               	bra	u5107
  5119  002AD2  2F64               	decfsz	??_DelayPORXLCD& (0+255),f,b
  5120  002AD4  D7FC               	bra	u5107
  5121  002AD6  D000               	nop2	
  5122  002AD8  0012               	return		;funcret
  5123  002ADA                     __end_of_DelayPORXLCD:
  5124                           	opt callstack 0
  5125                           
  5126 ;; *************** function _BusyXLCD *****************
  5127 ;; Defined at:
  5128 ;;		line 218 in file "xlcd.c"
  5129 ;; Parameters:    Size  Location     Type
  5130 ;;		None
  5131 ;; Auto vars:     Size  Location     Type
  5132 ;;		None
  5133 ;; Return value:  Size  Location     Type
  5134 ;;                  1    wreg      unsigned char 
  5135 ;; Registers used:
  5136 ;;		wreg, cstack
  5137 ;; Tracked objects:
  5138 ;;		On entry : 0/0
  5139 ;;		On exit  : 0/0
  5140 ;;		Unchanged: 0/0
  5141 ;; Data sizes:     COMRAM   BANK0   BANK1   BANK2   BANK3   BANK4   BANK5
  5142 ;;      Params:         0       0       0       0       0       0       0
  5143 ;;      Locals:         0       0       0       0       0       0       0
  5144 ;;      Temps:          0       0       0       0       0       0       0
  5145 ;;      Totals:         0       0       0       0       0       0       0
  5146 ;;Total ram usage:        0 bytes
  5147 ;; Hardware stack levels used:    1
  5148 ;; Hardware stack levels required when called:    5
  5149 ;; This function calls:
  5150 ;;		_DelayFor18TCY
  5151 ;; This function is called by:
  5152 ;;		_main
  5153 ;;		_OpenXLCD
  5154 ;;		_putsXLCD
  5155 ;;		_LCD_inicio_teste
  5156 ;; This function uses a non-reentrant model
  5157 ;;
  5158                           
  5159                           	psect	text35
  5160  0027AA                     __ptext35:
  5161                           	opt callstack 0
  5162  0027AA                     _BusyXLCD:
  5163                           	opt callstack 24
  5164  0027AA                     
  5165                           ;xlcd.c: 219:     LATDbits.LATD5 = 1;
  5166  0027AA  8A8C               	bsf	140,5,c	;volatile
  5167                           
  5168                           ;xlcd.c: 220:     LATDbits.LATD4 = 0;
  5169  0027AC  988C               	bcf	140,4,c	;volatile
  5170  0027AE                     
  5171                           ;xlcd.c: 221:     DelayFor18TCY();
  5172  0027AE  ECAA  F015         	call	_DelayFor18TCY	;wreg free
  5173  0027B2                     
  5174                           ;xlcd.c: 222:     LATDbits.LATD6 = 1;
  5175  0027B2  8C8C               	bsf	140,6,c	;volatile
  5176                           
  5177                           ;xlcd.c: 223:     DelayFor18TCY();
  5178  0027B4  ECAA  F015         	call	_DelayFor18TCY	;wreg free
  5179  0027B8                     
  5180                           ;xlcd.c: 240:     if (PORTD & 0x08)
  5181  0027B8  A683               	btfss	131,3,c	;volatile
  5182  0027BA  EFE1  F013         	goto	u4631
  5183  0027BE  EFE3  F013         	goto	u4630
  5184  0027C2                     u4631:
  5185  0027C2  EFEE  F013         	goto	l488
  5186  0027C6                     u4630:
  5187  0027C6                     
  5188                           ;xlcd.c: 242:     {;xlcd.c: 243:         LATDbits.LATD6 = 0;
  5189  0027C6  9C8C               	bcf	140,6,c	;volatile
  5190  0027C8                     
  5191                           ;xlcd.c: 244:         DelayFor18TCY();
  5192  0027C8  ECAA  F015         	call	_DelayFor18TCY	;wreg free
  5193  0027CC                     
  5194                           ;xlcd.c: 245:         LATDbits.LATD6 = 1;
  5195  0027CC  8C8C               	bsf	140,6,c	;volatile
  5196                           
  5197                           ;xlcd.c: 246:         DelayFor18TCY();
  5198  0027CE  ECAA  F015         	call	_DelayFor18TCY	;wreg free
  5199  0027D2                     
  5200                           ;xlcd.c: 247:         LATDbits.LATD6 = 0;
  5201  0027D2  9C8C               	bcf	140,6,c	;volatile
  5202  0027D4                     
  5203                           ;xlcd.c: 248:         LATDbits.LATD5 = 0;
  5204  0027D4  9A8C               	bcf	140,5,c	;volatile
  5205  0027D6                     
  5206                           ;xlcd.c: 249:         return 1;
  5207  0027D6  0E01               	movlw	1
  5208  0027D8  EFF7  F013         	goto	l489
  5209  0027DC                     l488:
  5210                           
  5211                           ;xlcd.c: 251:     {;xlcd.c: 252:         LATDbits.LATD6 = 0;
  5212  0027DC  9C8C               	bcf	140,6,c	;volatile
  5213  0027DE                     
  5214                           ;xlcd.c: 253:         DelayFor18TCY();
  5215  0027DE  ECAA  F015         	call	_DelayFor18TCY	;wreg free
  5216  0027E2                     
  5217                           ;xlcd.c: 254:         LATDbits.LATD6 = 1;
  5218  0027E2  8C8C               	bsf	140,6,c	;volatile
  5219                           
  5220                           ;xlcd.c: 255:         DelayFor18TCY();
  5221  0027E4  ECAA  F015         	call	_DelayFor18TCY	;wreg free
  5222  0027E8                     
  5223                           ;xlcd.c: 256:         LATDbits.LATD6 = 0;
  5224  0027E8  9C8C               	bcf	140,6,c	;volatile
  5225  0027EA                     
  5226                           ;xlcd.c: 257:         LATDbits.LATD5 = 0;
  5227  0027EA  9A8C               	bcf	140,5,c	;volatile
  5228  0027EC                     
  5229                           ;xlcd.c: 258:         return 0;
  5230  0027EC  0E00               	movlw	0
  5231  0027EE                     l489:
  5232  0027EE  0012               	return		;funcret
  5233  0027F0                     __end_of_BusyXLCD:
  5234                           	opt callstack 0
  5235                           
  5236 ;; *************** function _DelayFor18TCY *****************
  5237 ;; Defined at:
  5238 ;;		line 18 in file "xlcd.c"
  5239 ;; Parameters:    Size  Location     Type
  5240 ;;		None
  5241 ;; Auto vars:     Size  Location     Type
  5242 ;;		None
  5243 ;; Return value:  Size  Location     Type
  5244 ;;                  1    wreg      void 
  5245 ;; Registers used:
  5246 ;;		wreg
  5247 ;; Tracked objects:
  5248 ;;		On entry : 0/0
  5249 ;;		On exit  : 0/0
  5250 ;;		Unchanged: 0/0
  5251 ;; Data sizes:     COMRAM   BANK0   BANK1   BANK2   BANK3   BANK4   BANK5
  5252 ;;      Params:         0       0       0       0       0       0       0
  5253 ;;      Locals:         0       0       0       0       0       0       0
  5254 ;;      Temps:          0       0       0       0       0       0       0
  5255 ;;      Totals:         0       0       0       0       0       0       0
  5256 ;;Total ram usage:        0 bytes
  5257 ;; Hardware stack levels used:    1
  5258 ;; Hardware stack levels required when called:    4
  5259 ;; This function calls:
  5260 ;;		Nothing
  5261 ;; This function is called by:
  5262 ;;		_OpenXLCD
  5263 ;;		_BusyXLCD
  5264 ;;		_WriteCmdXLCD
  5265 ;;		_WriteDataXLCD
  5266 ;;		_ReadAddrXLCD
  5267 ;;		_ReadDataXLCD
  5268 ;;		_SetCGRamAddr
  5269 ;;		_SetDDRamAddr
  5270 ;; This function uses a non-reentrant model
  5271 ;;
  5272                           
  5273                           	psect	text36
  5274  002B54                     __ptext36:
  5275                           	opt callstack 0
  5276  002B54                     _DelayFor18TCY:
  5277                           	opt callstack 24
  5278  002B54                     
  5279                           ;xlcd.c: 20:     _delay((unsigned long)((18)*(4000000/4000000.0)));
  5280  002B54  0E06               	movlw	6
  5281  002B56                     u5117:
  5282  002B56  2EE8               	decfsz	wreg,f,c
  5283  002B58  D7FE               	bra	u5117
  5284                           
  5285                           ;xlcd.c: 21:     _delay((unsigned long)((1)*(4000000/4000.0)));
  5286  002B5A  0EC8               	movlw	200
  5287  002B5C                     u5127:
  5288  002B5C  D000               	nop2	
  5289  002B5E  2EE8               	decfsz	wreg,f,c
  5290  002B60  D7FD               	bra	u5127
  5291  002B62  0012               	return		;funcret
  5292  002B64                     __end_of_DelayFor18TCY:
  5293                           	opt callstack 0
  5294                           
  5295 ;; *************** function _INTERRUPT_InterruptManagerHigh *****************
  5296 ;; Defined at:
  5297 ;;		line 76 in file "mcc_generated_files/interrupt_manager.c"
  5298 ;; Parameters:    Size  Location     Type
  5299 ;;		None
  5300 ;; Auto vars:     Size  Location     Type
  5301 ;;		None
  5302 ;; Return value:  Size  Location     Type
  5303 ;;                  1    wreg      void 
  5304 ;; Registers used:
  5305 ;;		wreg, status,2, status,0, pclath, tosl, prodl, prodh, cstack
  5306 ;; Tracked objects:
  5307 ;;		On entry : 0/0
  5308 ;;		On exit  : 0/0
  5309 ;;		Unchanged: 0/0
  5310 ;; Data sizes:     COMRAM   BANK0   BANK1   BANK2   BANK3   BANK4   BANK5
  5311 ;;      Params:         0       0       0       0       0       0       0
  5312 ;;      Locals:         0       0       0       0       0       0       0
  5313 ;;      Temps:          0       4       0       0       0       0       0
  5314 ;;      Totals:         0       4       0       0       0       0       0
  5315 ;;Total ram usage:        4 bytes
  5316 ;; Hardware stack levels used:    1
  5317 ;; Hardware stack levels required when called:    3
  5318 ;; This function calls:
  5319 ;;		_ADC_ISR
  5320 ;;		_INT0_ISR
  5321 ;;		_INT1_ISR
  5322 ;;		_INT2_ISR
  5323 ;;		_TMR0_ISR
  5324 ;; This function is called by:
  5325 ;;		Interrupt level 2
  5326 ;; This function uses a non-reentrant model
  5327 ;;
  5328                           
  5329                           	psect	intcode
  5330  000008                     __pintcode:
  5331                           	opt callstack 0
  5332  000008                     _INTERRUPT_InterruptManagerHigh:
  5333                           	opt callstack 19
  5334                           
  5335                           ;incstack = 0
  5336  000008  825F               	bsf	int$flags,1,c	;set compiler interrupt flag (level 2)
  5337  00000A  CFFA F060          	movff	pclath,??_INTERRUPT_InterruptManagerHigh
  5338  00000E  CFFB F061          	movff	pclatu,??_INTERRUPT_InterruptManagerHigh+1
  5339  000012  CFF3 F062          	movff	prodl,??_INTERRUPT_InterruptManagerHigh+2
  5340  000016  CFF4 F063          	movff	prodh,??_INTERRUPT_InterruptManagerHigh+3
  5341  00001A                     
  5342                           ;mcc_generated_files/interrupt_manager.c: 79:     if(PIE1bits.ADIE == 1 && PIR1bits.ADIF
      +                           == 1)
  5343  00001A  AC9D               	btfss	157,6,c	;volatile
  5344  00001C  EF12  F000         	goto	i2u402_41
  5345  000020  EF14  F000         	goto	i2u402_40
  5346  000024                     i2u402_41:
  5347  000024  EF1F  F000         	goto	i2l138
  5348  000028                     i2u402_40:
  5349  000028  AC9E               	btfss	158,6,c	;volatile
  5350  00002A  EF19  F000         	goto	i2u403_41
  5351  00002E  EF1B  F000         	goto	i2u403_40
  5352  000032                     i2u403_41:
  5353  000032  EF1F  F000         	goto	i2l138
  5354  000036                     i2u403_40:
  5355  000036                     
  5356                           ;mcc_generated_files/interrupt_manager.c: 80:     {;mcc_generated_files/interrupt_manage
      +                          r.c: 81:         ADC_ISR();
  5357  000036  ECD2  F014         	call	_ADC_ISR	;wreg free
  5358                           
  5359                           ;mcc_generated_files/interrupt_manager.c: 82:     }
  5360  00003A  EF67  F000         	goto	i2l148
  5361  00003E                     i2l138:
  5362  00003E  A8F2               	btfss	242,4,c	;volatile
  5363  000040  EF24  F000         	goto	i2u404_41
  5364  000044  EF26  F000         	goto	i2u404_40
  5365  000048                     i2u404_41:
  5366  000048  EF31  F000         	goto	i2l140
  5367  00004C                     i2u404_40:
  5368  00004C  A2F2               	btfss	242,1,c	;volatile
  5369  00004E  EF2B  F000         	goto	i2u405_41
  5370  000052  EF2D  F000         	goto	i2u405_40
  5371  000056                     i2u405_41:
  5372  000056  EF31  F000         	goto	i2l140
  5373  00005A                     i2u405_40:
  5374  00005A                     
  5375                           ;mcc_generated_files/interrupt_manager.c: 84:     {;mcc_generated_files/interrupt_manage
      +                          r.c: 85:         INT0_ISR();
  5376  00005A  ECE0  F015         	call	_INT0_ISR	;wreg free
  5377                           
  5378                           ;mcc_generated_files/interrupt_manager.c: 86:     }
  5379  00005E  EF67  F000         	goto	i2l148
  5380  000062                     i2l140:
  5381  000062  AAF2               	btfss	242,5,c	;volatile
  5382  000064  EF36  F000         	goto	i2u406_41
  5383  000068  EF38  F000         	goto	i2u406_40
  5384  00006C                     i2u406_41:
  5385  00006C  EF43  F000         	goto	i2l142
  5386  000070                     i2u406_40:
  5387  000070  A4F2               	btfss	242,2,c	;volatile
  5388  000072  EF3D  F000         	goto	i2u407_41
  5389  000076  EF3F  F000         	goto	i2u407_40
  5390  00007A                     i2u407_41:
  5391  00007A  EF43  F000         	goto	i2l142
  5392  00007E                     i2u407_40:
  5393  00007E                     
  5394                           ;mcc_generated_files/interrupt_manager.c: 88:     {;mcc_generated_files/interrupt_manage
      +                          r.c: 89:         TMR0_ISR();
  5395  00007E  EC99  F014         	call	_TMR0_ISR	;wreg free
  5396                           
  5397                           ;mcc_generated_files/interrupt_manager.c: 90:     }
  5398  000082  EF67  F000         	goto	i2l148
  5399  000086                     i2l142:
  5400  000086  A6F0               	btfss	240,3,c	;volatile
  5401  000088  EF48  F000         	goto	i2u408_41
  5402  00008C  EF4A  F000         	goto	i2u408_40
  5403  000090                     i2u408_41:
  5404  000090  EF55  F000         	goto	i2l144
  5405  000094                     i2u408_40:
  5406  000094  A0F0               	btfss	240,0,c	;volatile
  5407  000096  EF4F  F000         	goto	i2u409_41
  5408  00009A  EF51  F000         	goto	i2u409_40
  5409  00009E                     i2u409_41:
  5410  00009E  EF55  F000         	goto	i2l144
  5411  0000A2                     i2u409_40:
  5412  0000A2                     
  5413                           ;mcc_generated_files/interrupt_manager.c: 92:     {;mcc_generated_files/interrupt_manage
      +                          r.c: 93:         INT1_ISR();
  5414  0000A2  ECDC  F015         	call	_INT1_ISR	;wreg free
  5415                           
  5416                           ;mcc_generated_files/interrupt_manager.c: 94:     }
  5417  0000A6  EF67  F000         	goto	i2l148
  5418  0000AA                     i2l144:
  5419  0000AA  A8F0               	btfss	240,4,c	;volatile
  5420  0000AC  EF5A  F000         	goto	i2u410_41
  5421  0000B0  EF5C  F000         	goto	i2u410_40
  5422  0000B4                     i2u410_41:
  5423  0000B4  EF67  F000         	goto	i2l143
  5424  0000B8                     i2u410_40:
  5425  0000B8  A2F0               	btfss	240,1,c	;volatile
  5426  0000BA  EF61  F000         	goto	i2u411_41
  5427  0000BE  EF63  F000         	goto	i2u411_40
  5428  0000C2                     i2u411_41:
  5429  0000C2  EF67  F000         	goto	i2l143
  5430  0000C6                     i2u411_40:
  5431  0000C6                     
  5432                           ;mcc_generated_files/interrupt_manager.c: 96:     {;mcc_generated_files/interrupt_manage
      +                          r.c: 97:         INT2_ISR();
  5433  0000C6  ECD8  F015         	call	_INT2_ISR	;wreg free
  5434                           
  5435                           ;mcc_generated_files/interrupt_manager.c: 98:     }
  5436  0000CA  EF67  F000         	goto	i2l148
  5437  0000CE                     i2l143:
  5438  0000CE                     i2l148:
  5439  0000CE  C063  FFF4         	movff	??_INTERRUPT_InterruptManagerHigh+3,prodh
  5440  0000D2  C062  FFF3         	movff	??_INTERRUPT_InterruptManagerHigh+2,prodl
  5441  0000D6  C061  FFFB         	movff	??_INTERRUPT_InterruptManagerHigh+1,pclatu
  5442  0000DA  C060  FFFA         	movff	??_INTERRUPT_InterruptManagerHigh,pclath
  5443  0000DE  925F               	bcf	int$flags,1,c	;clear compiler interrupt flag (level 2)
  5444  0000E0  0011               	retfie		f
  5445  0000E2                     __end_of_INTERRUPT_InterruptManagerHigh:
  5446                           	opt callstack 0
  5447                           
  5448 ;; *************** function _TMR0_ISR *****************
  5449 ;; Defined at:
  5450 ;;		line 136 in file "mcc_generated_files/tmr0.c"
  5451 ;; Parameters:    Size  Location     Type
  5452 ;;		None
  5453 ;; Auto vars:     Size  Location     Type
  5454 ;;		None
  5455 ;; Return value:  Size  Location     Type
  5456 ;;                  1    wreg      void 
  5457 ;; Registers used:
  5458 ;;		wreg, status,2, status,0, pclath, tosl, cstack
  5459 ;; Tracked objects:
  5460 ;;		On entry : 0/0
  5461 ;;		On exit  : 0/0
  5462 ;;		Unchanged: 0/0
  5463 ;; Data sizes:     COMRAM   BANK0   BANK1   BANK2   BANK3   BANK4   BANK5
  5464 ;;      Params:         0       0       0       0       0       0       0
  5465 ;;      Locals:         0       0       0       0       0       0       0
  5466 ;;      Temps:          0       0       0       0       0       0       0
  5467 ;;      Totals:         0       0       0       0       0       0       0
  5468 ;;Total ram usage:        0 bytes
  5469 ;; Hardware stack levels used:    1
  5470 ;; Hardware stack levels required when called:    2
  5471 ;; This function calls:
  5472 ;;		Absolute function
  5473 ;;		_TMR0_DefaultInterruptHandler
  5474 ;;		_Timer_0
  5475 ;; This function is called by:
  5476 ;;		_INTERRUPT_InterruptManagerHigh
  5477 ;; This function uses a non-reentrant model
  5478 ;;
  5479                           
  5480                           	psect	text38
  5481  002932                     __ptext38:
  5482                           	opt callstack 0
  5483  002932                     _TMR0_ISR:
  5484                           	opt callstack 19
  5485  002932                     
  5486                           ;mcc_generated_files/tmr0.c: 140:     INTCONbits.TMR0IF = 0;
  5487  002932  94F2               	bcf	242,2,c	;volatile
  5488  002934                     
  5489                           ;mcc_generated_files/tmr0.c: 144:     TMR0H = timer0ReloadVal >> 8;
  5490  002934  0100               	movlb	0	; () banked
  5491  002936  51F2               	movf	(_timer0ReloadVal+1)& (0+255),w,b	;volatile
  5492  002938  6ED7               	movwf	215,c	;volatile
  5493  00293A                     
  5494                           ; BSR set to: 0
  5495                           ;mcc_generated_files/tmr0.c: 145:     TMR0L = (uint8_t) timer0ReloadVal;
  5496  00293A  C0F1  FFD6         	movff	_timer0ReloadVal,4054	;volatile
  5497  00293E                     
  5498                           ; BSR set to: 0
  5499                           ;mcc_generated_files/tmr0.c: 147:     if(TMR0_InterruptHandler)
  5500  00293E  51F3               	movf	_TMR0_InterruptHandler& (0+255),w,b
  5501  002940  11F4               	iorwf	(_TMR0_InterruptHandler+1)& (0+255),w,b
  5502  002942  B4D8               	btfsc	status,2,c
  5503  002944  EFA6  F014         	goto	i2u386_41
  5504  002948  EFA8  F014         	goto	i2u386_40
  5505  00294C                     i2u386_41:
  5506  00294C  EFB5  F014         	goto	i2l40
  5507  002950                     i2u386_40:
  5508  002950                     
  5509                           ; BSR set to: 0
  5510                           ;mcc_generated_files/tmr0.c: 148:     {;mcc_generated_files/tmr0.c: 149:         TMR0_In
      +                          terruptHandler();
  5511  002950  D802               	call	i2u387_48
  5512  002952  EFB5  F014         	goto	i2u387_49
  5513  002956                     i2u387_48:
  5514  002956  0005               	push	
  5515  002958  6EFA               	movwf	pclath,c
  5516  00295A  51F3               	movf	_TMR0_InterruptHandler& (0+255),w,b
  5517  00295C  6EFD               	movwf	tosl,c
  5518  00295E  51F4               	movf	(_TMR0_InterruptHandler+1)& (0+255),w,b
  5519  002960  6EFE               	movwf	tosh,c
  5520  002962  50F8               	movf	tblptru,w,c
  5521  002964  6EFF               	movwf	tosu,c
  5522  002966  50FA               	movf	pclath,w,c
  5523  002968  0012               	return		;indir
  5524  00296A                     i2u387_49:
  5525  00296A                     i2l40:
  5526  00296A  0012               	return		;funcret
  5527  00296C                     __end_of_TMR0_ISR:
  5528                           	opt callstack 0
  5529                           
  5530 ;; *************** function _TMR0_DefaultInterruptHandler *****************
  5531 ;; Defined at:
  5532 ;;		line 160 in file "mcc_generated_files/tmr0.c"
  5533 ;; Parameters:    Size  Location     Type
  5534 ;;		None
  5535 ;; Auto vars:     Size  Location     Type
  5536 ;;		None
  5537 ;; Return value:  Size  Location     Type
  5538 ;;                  1    wreg      void 
  5539 ;; Registers used:
  5540 ;;		None
  5541 ;; Tracked objects:
  5542 ;;		On entry : 0/0
  5543 ;;		On exit  : 0/0
  5544 ;;		Unchanged: 0/0
  5545 ;; Data sizes:     COMRAM   BANK0   BANK1   BANK2   BANK3   BANK4   BANK5
  5546 ;;      Params:         0       0       0       0       0       0       0
  5547 ;;      Locals:         0       0       0       0       0       0       0
  5548 ;;      Temps:          0       0       0       0       0       0       0
  5549 ;;      Totals:         0       0       0       0       0       0       0
  5550 ;;Total ram usage:        0 bytes
  5551 ;; Hardware stack levels used:    1
  5552 ;; This function calls:
  5553 ;;		Nothing
  5554 ;; This function is called by:
  5555 ;;		_TMR0_Initialize
  5556 ;;		_TMR0_ISR
  5557 ;; This function uses a non-reentrant model
  5558 ;;
  5559                           
  5560                           	psect	text39
  5561  002BD4                     __ptext39:
  5562                           	opt callstack 0
  5563  002BD4                     _TMR0_DefaultInterruptHandler:
  5564                           	opt callstack 20
  5565  002BD4  0012               	return		;funcret
  5566  002BD6                     __end_of_TMR0_DefaultInterruptHandler:
  5567                           	opt callstack 0
  5568                           
  5569 ;; *************** function _Timer_0 *****************
  5570 ;; Defined at:
  5571 ;;		line 70 in file "main.c"
  5572 ;; Parameters:    Size  Location     Type
  5573 ;;		None
  5574 ;; Auto vars:     Size  Location     Type
  5575 ;;		None
  5576 ;; Return value:  Size  Location     Type
  5577 ;;                  1    wreg      void 
  5578 ;; Registers used:
  5579 ;;		wreg, status,2, status,0, cstack
  5580 ;; Tracked objects:
  5581 ;;		On entry : 0/0
  5582 ;;		On exit  : 0/0
  5583 ;;		Unchanged: 0/0
  5584 ;; Data sizes:     COMRAM   BANK0   BANK1   BANK2   BANK3   BANK4   BANK5
  5585 ;;      Params:         0       0       0       0       0       0       0
  5586 ;;      Locals:         0       0       0       0       0       0       0
  5587 ;;      Temps:          1       0       0       0       0       0       0
  5588 ;;      Totals:         1       0       0       0       0       0       0
  5589 ;;Total ram usage:        1 bytes
  5590 ;; Hardware stack levels used:    1
  5591 ;; Hardware stack levels required when called:    1
  5592 ;; This function calls:
  5593 ;;		_ADC_StartConversion
  5594 ;; This function is called by:
  5595 ;;		_main
  5596 ;;		_TMR0_ISR
  5597 ;; This function uses a non-reentrant model
  5598 ;;
  5599                           
  5600                           	psect	text40
  5601  002A66                     __ptext40:
  5602                           	opt callstack 0
  5603  002A66                     _Timer_0:
  5604                           	opt callstack 19
  5605  002A66  B289               	btfsc	137,1,c	;volatile
  5606  002A68  EF38  F015         	goto	i2u374_41
  5607  002A6C  EF3B  F015         	goto	i2u374_40
  5608  002A70                     i2u374_41:
  5609  002A70  0E01               	movlw	1
  5610  002A72  EF3C  F015         	goto	i2u374_46
  5611  002A76                     i2u374_40:
  5612  002A76  0E00               	movlw	0
  5613  002A78                     i2u374_46:
  5614  002A78  0AFF               	xorlw	255
  5615  002A7A  6E01               	movwf	??_Timer_0^0,c
  5616  002A7C  4601               	rlncf	??_Timer_0^0,f,c
  5617  002A7E  5089               	movf	137,w,c	;volatile
  5618  002A80  1801               	xorwf	??_Timer_0^0,w,c
  5619  002A82  0BFD               	andlw	-3
  5620  002A84  1801               	xorwf	??_Timer_0^0,w,c
  5621  002A86  6E89               	movwf	137,c	;volatile
  5622  002A88                     
  5623                           ;main.c: 72:     ADC_StartConversion();
  5624  002A88  ECE7  F015         	call	_ADC_StartConversion	;wreg free
  5625  002A8C  0012               	return		;funcret
  5626  002A8E                     __end_of_Timer_0:
  5627                           	opt callstack 0
  5628                           
  5629 ;; *************** function _ADC_StartConversion *****************
  5630 ;; Defined at:
  5631 ;;		line 100 in file "mcc_generated_files/adc.c"
  5632 ;; Parameters:    Size  Location     Type
  5633 ;;		None
  5634 ;; Auto vars:     Size  Location     Type
  5635 ;;		None
  5636 ;; Return value:  Size  Location     Type
  5637 ;;                  1    wreg      void 
  5638 ;; Registers used:
  5639 ;;		None
  5640 ;; Tracked objects:
  5641 ;;		On entry : 0/0
  5642 ;;		On exit  : 0/0
  5643 ;;		Unchanged: 0/0
  5644 ;; Data sizes:     COMRAM   BANK0   BANK1   BANK2   BANK3   BANK4   BANK5
  5645 ;;      Params:         0       0       0       0       0       0       0
  5646 ;;      Locals:         0       0       0       0       0       0       0
  5647 ;;      Temps:          0       0       0       0       0       0       0
  5648 ;;      Totals:         0       0       0       0       0       0       0
  5649 ;;Total ram usage:        0 bytes
  5650 ;; Hardware stack levels used:    1
  5651 ;; This function calls:
  5652 ;;		Nothing
  5653 ;; This function is called by:
  5654 ;;		_Timer_0
  5655 ;; This function uses a non-reentrant model
  5656 ;;
  5657                           
  5658                           	psect	text41
  5659  002BCE                     __ptext41:
  5660                           	opt callstack 0
  5661  002BCE                     _ADC_StartConversion:
  5662                           	opt callstack 19
  5663  002BCE                     
  5664                           ;mcc_generated_files/adc.c: 103:     ADCON0bits.GO_nDONE = 1;
  5665  002BCE  82C2               	bsf	194,1,c	;volatile
  5666  002BD0  0012               	return		;funcret
  5667  002BD2                     __end_of_ADC_StartConversion:
  5668                           	opt callstack 0
  5669                           
  5670 ;; *************** function _INT2_ISR *****************
  5671 ;; Defined at:
  5672 ;;		line 86 in file "mcc_generated_files/ext_int.c"
  5673 ;; Parameters:    Size  Location     Type
  5674 ;;		None
  5675 ;; Auto vars:     Size  Location     Type
  5676 ;;		None
  5677 ;; Return value:  Size  Location     Type
  5678 ;;                  1    wreg      void 
  5679 ;; Registers used:
  5680 ;;		wreg, status,2, status,0, pclath, tosl, cstack
  5681 ;; Tracked objects:
  5682 ;;		On entry : 0/0
  5683 ;;		On exit  : 0/0
  5684 ;;		Unchanged: 0/0
  5685 ;; Data sizes:     COMRAM   BANK0   BANK1   BANK2   BANK3   BANK4   BANK5
  5686 ;;      Params:         0       0       0       0       0       0       0
  5687 ;;      Locals:         0       0       0       0       0       0       0
  5688 ;;      Temps:          0       0       0       0       0       0       0
  5689 ;;      Totals:         0       0       0       0       0       0       0
  5690 ;;Total ram usage:        0 bytes
  5691 ;; Hardware stack levels used:    1
  5692 ;; Hardware stack levels required when called:    2
  5693 ;; This function calls:
  5694 ;;		_INT2_CallBack
  5695 ;; This function is called by:
  5696 ;;		_INTERRUPT_InterruptManagerHigh
  5697 ;; This function uses a non-reentrant model
  5698 ;;
  5699                           
  5700                           	psect	text42
  5701  002BB0                     __ptext42:
  5702                           	opt callstack 0
  5703  002BB0                     _INT2_ISR:
  5704                           	opt callstack 19
  5705  002BB0                     
  5706                           ;mcc_generated_files/ext_int.c: 88:     (INTCON3bits.INT2IF = 0);
  5707  002BB0  92F0               	bcf	240,1,c	;volatile
  5708  002BB2                     
  5709                           ;mcc_generated_files/ext_int.c: 91:     INT2_CallBack();
  5710  002BB2  ECEB  F014         	call	_INT2_CallBack	;wreg free
  5711  002BB6  0012               	return		;funcret
  5712  002BB8                     __end_of_INT2_ISR:
  5713                           	opt callstack 0
  5714                           
  5715 ;; *************** function _INT2_CallBack *****************
  5716 ;; Defined at:
  5717 ;;		line 95 in file "mcc_generated_files/ext_int.c"
  5718 ;; Parameters:    Size  Location     Type
  5719 ;;		None
  5720 ;; Auto vars:     Size  Location     Type
  5721 ;;		None
  5722 ;; Return value:  Size  Location     Type
  5723 ;;                  1    wreg      void 
  5724 ;; Registers used:
  5725 ;;		wreg, status,2, status,0, pclath, tosl, cstack
  5726 ;; Tracked objects:
  5727 ;;		On entry : 0/0
  5728 ;;		On exit  : 0/0
  5729 ;;		Unchanged: 0/0
  5730 ;; Data sizes:     COMRAM   BANK0   BANK1   BANK2   BANK3   BANK4   BANK5
  5731 ;;      Params:         0       0       0       0       0       0       0
  5732 ;;      Locals:         0       0       0       0       0       0       0
  5733 ;;      Temps:          0       0       0       0       0       0       0
  5734 ;;      Totals:         0       0       0       0       0       0       0
  5735 ;;Total ram usage:        0 bytes
  5736 ;; Hardware stack levels used:    1
  5737 ;; Hardware stack levels required when called:    1
  5738 ;; This function calls:
  5739 ;;		Absolute function
  5740 ;;		_INT2_DefaultInterruptHandler
  5741 ;;		_teclado_coluna_3
  5742 ;; This function is called by:
  5743 ;;		_INT2_ISR
  5744 ;; This function uses a non-reentrant model
  5745 ;;
  5746                           
  5747                           	psect	text43
  5748  0029D6                     __ptext43:
  5749                           	opt callstack 0
  5750  0029D6                     _INT2_CallBack:
  5751                           	opt callstack 19
  5752  0029D6                     
  5753                           ;mcc_generated_files/ext_int.c: 98:     if(INT2_InterruptHandler)
  5754  0029D6  0100               	movlb	0	; () banked
  5755  0029D8  51EB               	movf	_INT2_InterruptHandler& (0+255),w,b
  5756  0029DA  11EC               	iorwf	(_INT2_InterruptHandler+1)& (0+255),w,b
  5757  0029DC  B4D8               	btfsc	status,2,c
  5758  0029DE  EFF3  F014         	goto	i2u372_41
  5759  0029E2  EFF5  F014         	goto	i2u372_40
  5760  0029E6                     i2u372_41:
  5761  0029E6  EF02  F015         	goto	i2l97
  5762  0029EA                     i2u372_40:
  5763  0029EA                     
  5764                           ; BSR set to: 0
  5765                           ;mcc_generated_files/ext_int.c: 99:     {;mcc_generated_files/ext_int.c: 100:         IN
      +                          T2_InterruptHandler();
  5766  0029EA  D802               	call	i2u373_48
  5767  0029EC  EF02  F015         	goto	i2u373_49
  5768  0029F0                     i2u373_48:
  5769  0029F0  0005               	push	
  5770  0029F2  6EFA               	movwf	pclath,c
  5771  0029F4  51EB               	movf	_INT2_InterruptHandler& (0+255),w,b
  5772  0029F6  6EFD               	movwf	tosl,c
  5773  0029F8  51EC               	movf	(_INT2_InterruptHandler+1)& (0+255),w,b
  5774  0029FA  6EFE               	movwf	tosh,c
  5775  0029FC  50F8               	movf	tblptru,w,c
  5776  0029FE  6EFF               	movwf	tosu,c
  5777  002A00  50FA               	movf	pclath,w,c
  5778  002A02  0012               	return		;indir
  5779  002A04                     i2u373_49:
  5780  002A04                     i2l97:
  5781  002A04  0012               	return		;funcret
  5782  002A06                     __end_of_INT2_CallBack:
  5783                           	opt callstack 0
  5784                           
  5785 ;; *************** function _INT2_DefaultInterruptHandler *****************
  5786 ;; Defined at:
  5787 ;;		line 108 in file "mcc_generated_files/ext_int.c"
  5788 ;; Parameters:    Size  Location     Type
  5789 ;;		None
  5790 ;; Auto vars:     Size  Location     Type
  5791 ;;		None
  5792 ;; Return value:  Size  Location     Type
  5793 ;;                  1    wreg      void 
  5794 ;; Registers used:
  5795 ;;		None
  5796 ;; Tracked objects:
  5797 ;;		On entry : 0/0
  5798 ;;		On exit  : 0/0
  5799 ;;		Unchanged: 0/0
  5800 ;; Data sizes:     COMRAM   BANK0   BANK1   BANK2   BANK3   BANK4   BANK5
  5801 ;;      Params:         0       0       0       0       0       0       0
  5802 ;;      Locals:         0       0       0       0       0       0       0
  5803 ;;      Temps:          0       0       0       0       0       0       0
  5804 ;;      Totals:         0       0       0       0       0       0       0
  5805 ;;Total ram usage:        0 bytes
  5806 ;; Hardware stack levels used:    1
  5807 ;; This function calls:
  5808 ;;		Nothing
  5809 ;; This function is called by:
  5810 ;;		_EXT_INT_Initialize
  5811 ;;		_INT2_CallBack
  5812 ;; This function uses a non-reentrant model
  5813 ;;
  5814                           
  5815                           	psect	text44
  5816  002BD6                     __ptext44:
  5817                           	opt callstack 0
  5818  002BD6                     _INT2_DefaultInterruptHandler:
  5819                           	opt callstack 19
  5820  002BD6  0012               	return		;funcret
  5821  002BD8                     __end_of_INT2_DefaultInterruptHandler:
  5822                           	opt callstack 0
  5823                           
  5824 ;; *************** function _teclado_coluna_3 *****************
  5825 ;; Defined at:
  5826 ;;		line 54 in file "Teclado.c"
  5827 ;; Parameters:    Size  Location     Type
  5828 ;;		None
  5829 ;; Auto vars:     Size  Location     Type
  5830 ;;		None
  5831 ;; Return value:  Size  Location     Type
  5832 ;;                  1    wreg      void 
  5833 ;; Registers used:
  5834 ;;		wreg, status,2
  5835 ;; Tracked objects:
  5836 ;;		On entry : 0/0
  5837 ;;		On exit  : 0/0
  5838 ;;		Unchanged: 0/0
  5839 ;; Data sizes:     COMRAM   BANK0   BANK1   BANK2   BANK3   BANK4   BANK5
  5840 ;;      Params:         0       0       0       0       0       0       0
  5841 ;;      Locals:         0       0       0       0       0       0       0
  5842 ;;      Temps:          0       0       0       0       0       0       0
  5843 ;;      Totals:         0       0       0       0       0       0       0
  5844 ;;Total ram usage:        0 bytes
  5845 ;; Hardware stack levels used:    1
  5846 ;; This function calls:
  5847 ;;		Nothing
  5848 ;; This function is called by:
  5849 ;;		_main
  5850 ;;		_INT2_CallBack
  5851 ;; This function uses a non-reentrant model
  5852 ;;
  5853                           
  5854                           	psect	text45
  5855  002466                     __ptext45:
  5856                           	opt callstack 0
  5857  002466                     _teclado_coluna_3:
  5858                           	opt callstack 19
  5859  002466                     
  5860                           ;Teclado.c: 55:     tecla_n = 1;
  5861  002466  0E00               	movlw	0
  5862  002468  0100               	movlb	0	; () banked
  5863  00246A  6FE3               	movwf	(_tecla_n+1)& (0+255),b
  5864  00246C  0E01               	movlw	1
  5865  00246E  6FE2               	movwf	_tecla_n& (0+255),b
  5866  002470                     
  5867                           ; BSR set to: 0
  5868                           ;Teclado.c: 56:     if (PORTBbits.RB3 == 0){
  5869  002470  B681               	btfsc	129,3,c	;volatile
  5870  002472  EF3D  F012         	goto	i2u262_41
  5871  002476  EF3F  F012         	goto	i2u262_40
  5872  00247A                     i2u262_41:
  5873  00247A  EF43  F012         	goto	i2l550
  5874  00247E                     i2u262_40:
  5875  00247E                     
  5876                           ; BSR set to: 0
  5877                           ;Teclado.c: 57:             tecla_premida = '3';
  5878  00247E  0E33               	movlw	51
  5879  002480  6FE8               	movwf	_tecla_premida& (0+255),b
  5880                           
  5881                           ;Teclado.c: 58:         }
  5882  002482  EF6E  F012         	goto	i2l557
  5883  002486                     i2l550:
  5884                           
  5885                           ; BSR set to: 0
  5886  002486  B881               	btfsc	129,4,c	;volatile
  5887  002488  EF48  F012         	goto	i2u263_41
  5888  00248C  EF4A  F012         	goto	i2u263_40
  5889  002490                     i2u263_41:
  5890  002490  EF4E  F012         	goto	i2l552
  5891  002494                     i2u263_40:
  5892  002494                     
  5893                           ; BSR set to: 0
  5894                           ;Teclado.c: 60:             tecla_premida = '6';
  5895  002494  0E36               	movlw	54
  5896  002496  6FE8               	movwf	_tecla_premida& (0+255),b
  5897                           
  5898                           ;Teclado.c: 61:         }
  5899  002498  EF6E  F012         	goto	i2l557
  5900  00249C                     i2l552:
  5901                           
  5902                           ; BSR set to: 0
  5903  00249C  BA81               	btfsc	129,5,c	;volatile
  5904  00249E  EF53  F012         	goto	i2u264_41
  5905  0024A2  EF55  F012         	goto	i2u264_40
  5906  0024A6                     i2u264_41:
  5907  0024A6  EF59  F012         	goto	i2l554
  5908  0024AA                     i2u264_40:
  5909  0024AA                     
  5910                           ; BSR set to: 0
  5911                           ;Teclado.c: 63:             tecla_premida = '9';
  5912  0024AA  0E39               	movlw	57
  5913  0024AC  6FE8               	movwf	_tecla_premida& (0+255),b
  5914                           
  5915                           ;Teclado.c: 64:         }
  5916  0024AE  EF6E  F012         	goto	i2l557
  5917  0024B2                     i2l554:
  5918                           
  5919                           ; BSR set to: 0
  5920  0024B2  BC81               	btfsc	129,6,c	;volatile
  5921  0024B4  EF5E  F012         	goto	i2u265_41
  5922  0024B8  EF60  F012         	goto	i2u265_40
  5923  0024BC                     i2u265_41:
  5924  0024BC  EF6E  F012         	goto	i2l553
  5925  0024C0                     i2u265_40:
  5926  0024C0                     
  5927                           ; BSR set to: 0
  5928                           ;Teclado.c: 66:             contador_colunas_LCD = 192;
  5929  0024C0  0E00               	movlw	0
  5930  0024C2  6FFA               	movwf	(_contador_colunas_LCD+1)& (0+255),b
  5931  0024C4  0EC0               	movlw	192
  5932  0024C6  6FF9               	movwf	_contador_colunas_LCD& (0+255),b
  5933                           
  5934                           ;Teclado.c: 67:             tecla_n = 0;
  5935  0024C8  0E00               	movlw	0
  5936  0024CA  6FE3               	movwf	(_tecla_n+1)& (0+255),b
  5937  0024CC  0E00               	movlw	0
  5938  0024CE  6FE2               	movwf	_tecla_n& (0+255),b
  5939                           
  5940                           ;Teclado.c: 68:             tecla_limpar = 1;
  5941  0024D0  0E00               	movlw	0
  5942  0024D2  6FE1               	movwf	(_tecla_limpar+1)& (0+255),b
  5943  0024D4  0E01               	movlw	1
  5944  0024D6  6FE0               	movwf	_tecla_limpar& (0+255),b
  5945  0024D8  EF6E  F012         	goto	i2l557
  5946  0024DC                     i2l553:
  5947  0024DC                     i2l557:
  5948                           
  5949                           ; BSR set to: 0
  5950  0024DC  0012               	return		;funcret
  5951  0024DE                     __end_of_teclado_coluna_3:
  5952                           	opt callstack 0
  5953                           
  5954 ;; *************** function _INT1_ISR *****************
  5955 ;; Defined at:
  5956 ;;		line 60 in file "mcc_generated_files/ext_int.c"
  5957 ;; Parameters:    Size  Location     Type
  5958 ;;		None
  5959 ;; Auto vars:     Size  Location     Type
  5960 ;;		None
  5961 ;; Return value:  Size  Location     Type
  5962 ;;                  1    wreg      void 
  5963 ;; Registers used:
  5964 ;;		wreg, status,2, status,0, pclath, tosl, cstack
  5965 ;; Tracked objects:
  5966 ;;		On entry : 0/0
  5967 ;;		On exit  : 0/0
  5968 ;;		Unchanged: 0/0
  5969 ;; Data sizes:     COMRAM   BANK0   BANK1   BANK2   BANK3   BANK4   BANK5
  5970 ;;      Params:         0       0       0       0       0       0       0
  5971 ;;      Locals:         0       0       0       0       0       0       0
  5972 ;;      Temps:          0       0       0       0       0       0       0
  5973 ;;      Totals:         0       0       0       0       0       0       0
  5974 ;;Total ram usage:        0 bytes
  5975 ;; Hardware stack levels used:    1
  5976 ;; Hardware stack levels required when called:    2
  5977 ;; This function calls:
  5978 ;;		_INT1_CallBack
  5979 ;; This function is called by:
  5980 ;;		_INTERRUPT_InterruptManagerHigh
  5981 ;; This function uses a non-reentrant model
  5982 ;;
  5983                           
  5984                           	psect	text46
  5985  002BB8                     __ptext46:
  5986                           	opt callstack 0
  5987  002BB8                     _INT1_ISR:
  5988                           	opt callstack 19
  5989  002BB8                     
  5990                           ;mcc_generated_files/ext_int.c: 62:     (INTCON3bits.INT1IF = 0);
  5991  002BB8  90F0               	bcf	240,0,c	;volatile
  5992  002BBA                     
  5993                           ;mcc_generated_files/ext_int.c: 65:     INT1_CallBack();
  5994  002BBA  EC03  F015         	call	_INT1_CallBack	;wreg free
  5995  002BBE  0012               	return		;funcret
  5996  002BC0                     __end_of_INT1_ISR:
  5997                           	opt callstack 0
  5998                           
  5999 ;; *************** function _INT1_CallBack *****************
  6000 ;; Defined at:
  6001 ;;		line 69 in file "mcc_generated_files/ext_int.c"
  6002 ;; Parameters:    Size  Location     Type
  6003 ;;		None
  6004 ;; Auto vars:     Size  Location     Type
  6005 ;;		None
  6006 ;; Return value:  Size  Location     Type
  6007 ;;                  1    wreg      void 
  6008 ;; Registers used:
  6009 ;;		wreg, status,2, status,0, pclath, tosl, cstack
  6010 ;; Tracked objects:
  6011 ;;		On entry : 0/0
  6012 ;;		On exit  : 0/0
  6013 ;;		Unchanged: 0/0
  6014 ;; Data sizes:     COMRAM   BANK0   BANK1   BANK2   BANK3   BANK4   BANK5
  6015 ;;      Params:         0       0       0       0       0       0       0
  6016 ;;      Locals:         0       0       0       0       0       0       0
  6017 ;;      Temps:          0       0       0       0       0       0       0
  6018 ;;      Totals:         0       0       0       0       0       0       0
  6019 ;;Total ram usage:        0 bytes
  6020 ;; Hardware stack levels used:    1
  6021 ;; Hardware stack levels required when called:    1
  6022 ;; This function calls:
  6023 ;;		Absolute function
  6024 ;;		_INT1_DefaultInterruptHandler
  6025 ;;		_teclado_coluna_2
  6026 ;; This function is called by:
  6027 ;;		_INT1_ISR
  6028 ;; This function uses a non-reentrant model
  6029 ;;
  6030                           
  6031                           	psect	text47
  6032  002A06                     __ptext47:
  6033                           	opt callstack 0
  6034  002A06                     _INT1_CallBack:
  6035                           	opt callstack 19
  6036  002A06                     
  6037                           ;mcc_generated_files/ext_int.c: 72:     if(INT1_InterruptHandler)
  6038  002A06  0100               	movlb	0	; () banked
  6039  002A08  51ED               	movf	_INT1_InterruptHandler& (0+255),w,b
  6040  002A0A  11EE               	iorwf	(_INT1_InterruptHandler+1)& (0+255),w,b
  6041  002A0C  B4D8               	btfsc	status,2,c
  6042  002A0E  EF0B  F015         	goto	i2u370_41
  6043  002A12  EF0D  F015         	goto	i2u370_40
  6044  002A16                     i2u370_41:
  6045  002A16  EF1A  F015         	goto	i2l84
  6046  002A1A                     i2u370_40:
  6047  002A1A                     
  6048                           ; BSR set to: 0
  6049                           ;mcc_generated_files/ext_int.c: 73:     {;mcc_generated_files/ext_int.c: 74:         INT
      +                          1_InterruptHandler();
  6050  002A1A  D802               	call	i2u371_48
  6051  002A1C  EF1A  F015         	goto	i2u371_49
  6052  002A20                     i2u371_48:
  6053  002A20  0005               	push	
  6054  002A22  6EFA               	movwf	pclath,c
  6055  002A24  51ED               	movf	_INT1_InterruptHandler& (0+255),w,b
  6056  002A26  6EFD               	movwf	tosl,c
  6057  002A28  51EE               	movf	(_INT1_InterruptHandler+1)& (0+255),w,b
  6058  002A2A  6EFE               	movwf	tosh,c
  6059  002A2C  50F8               	movf	tblptru,w,c
  6060  002A2E  6EFF               	movwf	tosu,c
  6061  002A30  50FA               	movf	pclath,w,c
  6062  002A32  0012               	return		;indir
  6063  002A34                     i2u371_49:
  6064  002A34                     i2l84:
  6065  002A34  0012               	return		;funcret
  6066  002A36                     __end_of_INT1_CallBack:
  6067                           	opt callstack 0
  6068                           
  6069 ;; *************** function _INT1_DefaultInterruptHandler *****************
  6070 ;; Defined at:
  6071 ;;		line 82 in file "mcc_generated_files/ext_int.c"
  6072 ;; Parameters:    Size  Location     Type
  6073 ;;		None
  6074 ;; Auto vars:     Size  Location     Type
  6075 ;;		None
  6076 ;; Return value:  Size  Location     Type
  6077 ;;                  1    wreg      void 
  6078 ;; Registers used:
  6079 ;;		None
  6080 ;; Tracked objects:
  6081 ;;		On entry : 0/0
  6082 ;;		On exit  : 0/0
  6083 ;;		Unchanged: 0/0
  6084 ;; Data sizes:     COMRAM   BANK0   BANK1   BANK2   BANK3   BANK4   BANK5
  6085 ;;      Params:         0       0       0       0       0       0       0
  6086 ;;      Locals:         0       0       0       0       0       0       0
  6087 ;;      Temps:          0       0       0       0       0       0       0
  6088 ;;      Totals:         0       0       0       0       0       0       0
  6089 ;;Total ram usage:        0 bytes
  6090 ;; Hardware stack levels used:    1
  6091 ;; This function calls:
  6092 ;;		Nothing
  6093 ;; This function is called by:
  6094 ;;		_EXT_INT_Initialize
  6095 ;;		_INT1_CallBack
  6096 ;; This function uses a non-reentrant model
  6097 ;;
  6098                           
  6099                           	psect	text48
  6100  002BD8                     __ptext48:
  6101                           	opt callstack 0
  6102  002BD8                     _INT1_DefaultInterruptHandler:
  6103                           	opt callstack 19
  6104  002BD8  0012               	return		;funcret
  6105  002BDA                     __end_of_INT1_DefaultInterruptHandler:
  6106                           	opt callstack 0
  6107                           
  6108 ;; *************** function _teclado_coluna_2 *****************
  6109 ;; Defined at:
  6110 ;;		line 37 in file "Teclado.c"
  6111 ;; Parameters:    Size  Location     Type
  6112 ;;		None
  6113 ;; Auto vars:     Size  Location     Type
  6114 ;;		None
  6115 ;; Return value:  Size  Location     Type
  6116 ;;                  1    wreg      void 
  6117 ;; Registers used:
  6118 ;;		wreg, status,2
  6119 ;; Tracked objects:
  6120 ;;		On entry : 0/0
  6121 ;;		On exit  : 0/0
  6122 ;;		Unchanged: 0/0
  6123 ;; Data sizes:     COMRAM   BANK0   BANK1   BANK2   BANK3   BANK4   BANK5
  6124 ;;      Params:         0       0       0       0       0       0       0
  6125 ;;      Locals:         0       0       0       0       0       0       0
  6126 ;;      Temps:          0       0       0       0       0       0       0
  6127 ;;      Totals:         0       0       0       0       0       0       0
  6128 ;;Total ram usage:        0 bytes
  6129 ;; Hardware stack levels used:    1
  6130 ;; This function calls:
  6131 ;;		Nothing
  6132 ;; This function is called by:
  6133 ;;		_main
  6134 ;;		_INT1_CallBack
  6135 ;; This function uses a non-reentrant model
  6136 ;;
  6137                           
  6138                           	psect	text49
  6139  002552                     __ptext49:
  6140                           	opt callstack 0
  6141  002552                     _teclado_coluna_2:
  6142                           	opt callstack 19
  6143  002552                     
  6144                           ;Teclado.c: 39:     if (PORTBbits.RB3 == 0){
  6145  002552  B681               	btfsc	129,3,c	;volatile
  6146  002554  EFAE  F012         	goto	i2u258_41
  6147  002558  EFB0  F012         	goto	i2u258_40
  6148  00255C                     i2u258_41:
  6149  00255C  EFB5  F012         	goto	i2l540
  6150  002560                     i2u258_40:
  6151  002560                     
  6152                           ;Teclado.c: 40:             tecla_premida = '2';
  6153  002560  0E32               	movlw	50
  6154  002562  0100               	movlb	0	; () banked
  6155  002564  6FE8               	movwf	_tecla_premida& (0+255),b
  6156                           
  6157                           ;Teclado.c: 41:         }
  6158  002566  EFD7  F012         	goto	i2l541
  6159  00256A                     i2l540:
  6160  00256A  B881               	btfsc	129,4,c	;volatile
  6161  00256C  EFBA  F012         	goto	i2u259_41
  6162  002570  EFBC  F012         	goto	i2u259_40
  6163  002574                     i2u259_41:
  6164  002574  EFC1  F012         	goto	i2l542
  6165  002578                     i2u259_40:
  6166  002578                     
  6167                           ;Teclado.c: 43:             tecla_premida = '5';
  6168  002578  0E35               	movlw	53
  6169  00257A  0100               	movlb	0	; () banked
  6170  00257C  6FE8               	movwf	_tecla_premida& (0+255),b
  6171                           
  6172                           ;Teclado.c: 44:         }
  6173  00257E  EFD7  F012         	goto	i2l541
  6174  002582                     i2l542:
  6175  002582  BA81               	btfsc	129,5,c	;volatile
  6176  002584  EFC6  F012         	goto	i2u260_41
  6177  002588  EFC8  F012         	goto	i2u260_40
  6178  00258C                     i2u260_41:
  6179  00258C  EFCD  F012         	goto	i2l544
  6180  002590                     i2u260_40:
  6181  002590                     
  6182                           ;Teclado.c: 46:             tecla_premida = '8';
  6183  002590  0E38               	movlw	56
  6184  002592  0100               	movlb	0	; () banked
  6185  002594  6FE8               	movwf	_tecla_premida& (0+255),b
  6186                           
  6187                           ;Teclado.c: 47:         }
  6188  002596  EFD7  F012         	goto	i2l541
  6189  00259A                     i2l544:
  6190  00259A  BC81               	btfsc	129,6,c	;volatile
  6191  00259C  EFD2  F012         	goto	i2u261_41
  6192  0025A0  EFD4  F012         	goto	i2u261_40
  6193  0025A4                     i2u261_41:
  6194  0025A4  EFD7  F012         	goto	i2l541
  6195  0025A8                     i2u261_40:
  6196  0025A8                     
  6197                           ;Teclado.c: 49:             tecla_premida = '0';
  6198  0025A8  0E30               	movlw	48
  6199  0025AA  0100               	movlb	0	; () banked
  6200  0025AC  6FE8               	movwf	_tecla_premida& (0+255),b
  6201  0025AE                     i2l541:
  6202                           
  6203                           ;Teclado.c: 51:         tecla_n = 1;
  6204  0025AE  0E00               	movlw	0
  6205  0025B0  0100               	movlb	0	; () banked
  6206  0025B2  6FE3               	movwf	(_tecla_n+1)& (0+255),b
  6207  0025B4  0E01               	movlw	1
  6208  0025B6  6FE2               	movwf	_tecla_n& (0+255),b
  6209  0025B8                     
  6210                           ; BSR set to: 0
  6211  0025B8  0012               	return		;funcret
  6212  0025BA                     __end_of_teclado_coluna_2:
  6213                           	opt callstack 0
  6214                           
  6215 ;; *************** function _INT0_ISR *****************
  6216 ;; Defined at:
  6217 ;;		line 34 in file "mcc_generated_files/ext_int.c"
  6218 ;; Parameters:    Size  Location     Type
  6219 ;;		None
  6220 ;; Auto vars:     Size  Location     Type
  6221 ;;		None
  6222 ;; Return value:  Size  Location     Type
  6223 ;;                  1    wreg      void 
  6224 ;; Registers used:
  6225 ;;		wreg, status,2, status,0, pclath, tosl, cstack
  6226 ;; Tracked objects:
  6227 ;;		On entry : 0/0
  6228 ;;		On exit  : 0/0
  6229 ;;		Unchanged: 0/0
  6230 ;; Data sizes:     COMRAM   BANK0   BANK1   BANK2   BANK3   BANK4   BANK5
  6231 ;;      Params:         0       0       0       0       0       0       0
  6232 ;;      Locals:         0       0       0       0       0       0       0
  6233 ;;      Temps:          0       0       0       0       0       0       0
  6234 ;;      Totals:         0       0       0       0       0       0       0
  6235 ;;Total ram usage:        0 bytes
  6236 ;; Hardware stack levels used:    1
  6237 ;; Hardware stack levels required when called:    2
  6238 ;; This function calls:
  6239 ;;		_INT0_CallBack
  6240 ;; This function is called by:
  6241 ;;		_INTERRUPT_InterruptManagerHigh
  6242 ;; This function uses a non-reentrant model
  6243 ;;
  6244                           
  6245                           	psect	text50
  6246  002BC0                     __ptext50:
  6247                           	opt callstack 0
  6248  002BC0                     _INT0_ISR:
  6249                           	opt callstack 19
  6250  002BC0                     
  6251                           ;mcc_generated_files/ext_int.c: 36:     (INTCONbits.INT0IF = 0);
  6252  002BC0  92F2               	bcf	242,1,c	;volatile
  6253  002BC2                     
  6254                           ;mcc_generated_files/ext_int.c: 39:     INT0_CallBack();
  6255  002BC2  EC1B  F015         	call	_INT0_CallBack	;wreg free
  6256  002BC6  0012               	return		;funcret
  6257  002BC8                     __end_of_INT0_ISR:
  6258                           	opt callstack 0
  6259                           
  6260 ;; *************** function _INT0_CallBack *****************
  6261 ;; Defined at:
  6262 ;;		line 43 in file "mcc_generated_files/ext_int.c"
  6263 ;; Parameters:    Size  Location     Type
  6264 ;;		None
  6265 ;; Auto vars:     Size  Location     Type
  6266 ;;		None
  6267 ;; Return value:  Size  Location     Type
  6268 ;;                  1    wreg      void 
  6269 ;; Registers used:
  6270 ;;		wreg, status,2, status,0, pclath, tosl, cstack
  6271 ;; Tracked objects:
  6272 ;;		On entry : 0/0
  6273 ;;		On exit  : 0/0
  6274 ;;		Unchanged: 0/0
  6275 ;; Data sizes:     COMRAM   BANK0   BANK1   BANK2   BANK3   BANK4   BANK5
  6276 ;;      Params:         0       0       0       0       0       0       0
  6277 ;;      Locals:         0       0       0       0       0       0       0
  6278 ;;      Temps:          0       0       0       0       0       0       0
  6279 ;;      Totals:         0       0       0       0       0       0       0
  6280 ;;Total ram usage:        0 bytes
  6281 ;; Hardware stack levels used:    1
  6282 ;; Hardware stack levels required when called:    1
  6283 ;; This function calls:
  6284 ;;		Absolute function
  6285 ;;		_INT0_DefaultInterruptHandler
  6286 ;;		_teclado_coluna_1
  6287 ;; This function is called by:
  6288 ;;		_INT0_ISR
  6289 ;; This function uses a non-reentrant model
  6290 ;;
  6291                           
  6292                           	psect	text51
  6293  002A36                     __ptext51:
  6294                           	opt callstack 0
  6295  002A36                     _INT0_CallBack:
  6296                           	opt callstack 19
  6297  002A36                     
  6298                           ;mcc_generated_files/ext_int.c: 46:     if(INT0_InterruptHandler)
  6299  002A36  0100               	movlb	0	; () banked
  6300  002A38  51EF               	movf	_INT0_InterruptHandler& (0+255),w,b
  6301  002A3A  11F0               	iorwf	(_INT0_InterruptHandler+1)& (0+255),w,b
  6302  002A3C  B4D8               	btfsc	status,2,c
  6303  002A3E  EF23  F015         	goto	i2u368_41
  6304  002A42  EF25  F015         	goto	i2u368_40
  6305  002A46                     i2u368_41:
  6306  002A46  EF32  F015         	goto	i2l71
  6307  002A4A                     i2u368_40:
  6308  002A4A                     
  6309                           ; BSR set to: 0
  6310                           ;mcc_generated_files/ext_int.c: 47:     {;mcc_generated_files/ext_int.c: 48:         INT
      +                          0_InterruptHandler();
  6311  002A4A  D802               	call	i2u369_48
  6312  002A4C  EF32  F015         	goto	i2u369_49
  6313  002A50                     i2u369_48:
  6314  002A50  0005               	push	
  6315  002A52  6EFA               	movwf	pclath,c
  6316  002A54  51EF               	movf	_INT0_InterruptHandler& (0+255),w,b
  6317  002A56  6EFD               	movwf	tosl,c
  6318  002A58  51F0               	movf	(_INT0_InterruptHandler+1)& (0+255),w,b
  6319  002A5A  6EFE               	movwf	tosh,c
  6320  002A5C  50F8               	movf	tblptru,w,c
  6321  002A5E  6EFF               	movwf	tosu,c
  6322  002A60  50FA               	movf	pclath,w,c
  6323  002A62  0012               	return		;indir
  6324  002A64                     i2u369_49:
  6325  002A64                     i2l71:
  6326  002A64  0012               	return		;funcret
  6327  002A66                     __end_of_INT0_CallBack:
  6328                           	opt callstack 0
  6329                           
  6330 ;; *************** function _INT0_DefaultInterruptHandler *****************
  6331 ;; Defined at:
  6332 ;;		line 56 in file "mcc_generated_files/ext_int.c"
  6333 ;; Parameters:    Size  Location     Type
  6334 ;;		None
  6335 ;; Auto vars:     Size  Location     Type
  6336 ;;		None
  6337 ;; Return value:  Size  Location     Type
  6338 ;;                  1    wreg      void 
  6339 ;; Registers used:
  6340 ;;		None
  6341 ;; Tracked objects:
  6342 ;;		On entry : 0/0
  6343 ;;		On exit  : 0/0
  6344 ;;		Unchanged: 0/0
  6345 ;; Data sizes:     COMRAM   BANK0   BANK1   BANK2   BANK3   BANK4   BANK5
  6346 ;;      Params:         0       0       0       0       0       0       0
  6347 ;;      Locals:         0       0       0       0       0       0       0
  6348 ;;      Temps:          0       0       0       0       0       0       0
  6349 ;;      Totals:         0       0       0       0       0       0       0
  6350 ;;Total ram usage:        0 bytes
  6351 ;; Hardware stack levels used:    1
  6352 ;; This function calls:
  6353 ;;		Nothing
  6354 ;; This function is called by:
  6355 ;;		_EXT_INT_Initialize
  6356 ;;		_INT0_CallBack
  6357 ;; This function uses a non-reentrant model
  6358 ;;
  6359                           
  6360                           	psect	text52
  6361  002BDA                     __ptext52:
  6362                           	opt callstack 0
  6363  002BDA                     _INT0_DefaultInterruptHandler:
  6364                           	opt callstack 19
  6365  002BDA  0012               	return		;funcret
  6366  002BDC                     __end_of_INT0_DefaultInterruptHandler:
  6367                           	opt callstack 0
  6368                           
  6369 ;; *************** function _teclado_coluna_1 *****************
  6370 ;; Defined at:
  6371 ;;		line 20 in file "Teclado.c"
  6372 ;; Parameters:    Size  Location     Type
  6373 ;;		None
  6374 ;; Auto vars:     Size  Location     Type
  6375 ;;		None
  6376 ;; Return value:  Size  Location     Type
  6377 ;;                  1    wreg      void 
  6378 ;; Registers used:
  6379 ;;		wreg, status,2
  6380 ;; Tracked objects:
  6381 ;;		On entry : 0/0
  6382 ;;		On exit  : 0/0
  6383 ;;		Unchanged: 0/0
  6384 ;; Data sizes:     COMRAM   BANK0   BANK1   BANK2   BANK3   BANK4   BANK5
  6385 ;;      Params:         0       0       0       0       0       0       0
  6386 ;;      Locals:         0       0       0       0       0       0       0
  6387 ;;      Temps:          0       0       0       0       0       0       0
  6388 ;;      Totals:         0       0       0       0       0       0       0
  6389 ;;Total ram usage:        0 bytes
  6390 ;; Hardware stack levels used:    1
  6391 ;; This function calls:
  6392 ;;		Nothing
  6393 ;; This function is called by:
  6394 ;;		_main
  6395 ;;		_INT0_CallBack
  6396 ;; This function uses a non-reentrant model
  6397 ;;
  6398                           
  6399                           	psect	text53
  6400  0025BA                     __ptext53:
  6401                           	opt callstack 0
  6402  0025BA                     _teclado_coluna_1:
  6403                           	opt callstack 19
  6404  0025BA                     
  6405                           ;Teclado.c: 22:     if (PORTBbits.RB3 == 0){
  6406  0025BA  B681               	btfsc	129,3,c	;volatile
  6407  0025BC  EFE2  F012         	goto	i2u254_41
  6408  0025C0  EFE4  F012         	goto	i2u254_40
  6409  0025C4                     i2u254_41:
  6410  0025C4  EFE9  F012         	goto	i2l530
  6411  0025C8                     i2u254_40:
  6412  0025C8                     
  6413                           ;Teclado.c: 23:             tecla_premida = '1';
  6414  0025C8  0E31               	movlw	49
  6415  0025CA  0100               	movlb	0	; () banked
  6416  0025CC  6FE8               	movwf	_tecla_premida& (0+255),b
  6417                           
  6418                           ;Teclado.c: 24:         }
  6419  0025CE  EF0B  F013         	goto	i2l531
  6420  0025D2                     i2l530:
  6421  0025D2  B881               	btfsc	129,4,c	;volatile
  6422  0025D4  EFEE  F012         	goto	i2u255_41
  6423  0025D8  EFF0  F012         	goto	i2u255_40
  6424  0025DC                     i2u255_41:
  6425  0025DC  EFF5  F012         	goto	i2l532
  6426  0025E0                     i2u255_40:
  6427  0025E0                     
  6428                           ;Teclado.c: 26:             tecla_premida = '4';
  6429  0025E0  0E34               	movlw	52
  6430  0025E2  0100               	movlb	0	; () banked
  6431  0025E4  6FE8               	movwf	_tecla_premida& (0+255),b
  6432                           
  6433                           ;Teclado.c: 27:         }
  6434  0025E6  EF0B  F013         	goto	i2l531
  6435  0025EA                     i2l532:
  6436  0025EA  BA81               	btfsc	129,5,c	;volatile
  6437  0025EC  EFFA  F012         	goto	i2u256_41
  6438  0025F0  EFFC  F012         	goto	i2u256_40
  6439  0025F4                     i2u256_41:
  6440  0025F4  EF01  F013         	goto	i2l534
  6441  0025F8                     i2u256_40:
  6442  0025F8                     
  6443                           ;Teclado.c: 29:             tecla_premida = '7';
  6444  0025F8  0E37               	movlw	55
  6445  0025FA  0100               	movlb	0	; () banked
  6446  0025FC  6FE8               	movwf	_tecla_premida& (0+255),b
  6447                           
  6448                           ;Teclado.c: 30:         }
  6449  0025FE  EF0B  F013         	goto	i2l531
  6450  002602                     i2l534:
  6451  002602  BC81               	btfsc	129,6,c	;volatile
  6452  002604  EF06  F013         	goto	i2u257_41
  6453  002608  EF08  F013         	goto	i2u257_40
  6454  00260C                     i2u257_41:
  6455  00260C  EF0B  F013         	goto	i2l531
  6456  002610                     i2u257_40:
  6457  002610                     
  6458                           ;Teclado.c: 32:             tecla_premida = '*';
  6459  002610  0E2A               	movlw	42
  6460  002612  0100               	movlb	0	; () banked
  6461  002614  6FE8               	movwf	_tecla_premida& (0+255),b
  6462  002616                     i2l531:
  6463                           
  6464                           ;Teclado.c: 34:         tecla_n = 1;
  6465  002616  0E00               	movlw	0
  6466  002618  0100               	movlb	0	; () banked
  6467  00261A  6FE3               	movwf	(_tecla_n+1)& (0+255),b
  6468  00261C  0E01               	movlw	1
  6469  00261E  6FE2               	movwf	_tecla_n& (0+255),b
  6470  002620                     
  6471                           ; BSR set to: 0
  6472  002620  0012               	return		;funcret
  6473  002622                     __end_of_teclado_coluna_1:
  6474                           	opt callstack 0
  6475                           
  6476 ;; *************** function _ADC_ISR *****************
  6477 ;; Defined at:
  6478 ;;		line 144 in file "mcc_generated_files/adc.c"
  6479 ;; Parameters:    Size  Location     Type
  6480 ;;		None
  6481 ;; Auto vars:     Size  Location     Type
  6482 ;;		None
  6483 ;; Return value:  Size  Location     Type
  6484 ;;                  1    wreg      void 
  6485 ;; Registers used:
  6486 ;;		wreg, status,2, status,0, pclath, tosl, prodl, prodh, cstack
  6487 ;; Tracked objects:
  6488 ;;		On entry : 0/0
  6489 ;;		On exit  : 0/0
  6490 ;;		Unchanged: 0/0
  6491 ;; Data sizes:     COMRAM   BANK0   BANK1   BANK2   BANK3   BANK4   BANK5
  6492 ;;      Params:         0       0       0       0       0       0       0
  6493 ;;      Locals:         0       0       0       0       0       0       0
  6494 ;;      Temps:          0       0       0       0       0       0       0
  6495 ;;      Totals:         0       0       0       0       0       0       0
  6496 ;;Total ram usage:        0 bytes
  6497 ;; Hardware stack levels used:    1
  6498 ;; Hardware stack levels required when called:    2
  6499 ;; This function calls:
  6500 ;;		Absolute function
  6501 ;;		_ADC_DefaultInterruptHandler
  6502 ;;		_ADC_temperatura
  6503 ;; This function is called by:
  6504 ;;		_INTERRUPT_InterruptManagerHigh
  6505 ;; This function uses a non-reentrant model
  6506 ;;
  6507                           
  6508                           	psect	text54
  6509  0029A4                     __ptext54:
  6510                           	opt callstack 0
  6511  0029A4                     _ADC_ISR:
  6512                           	opt callstack 19
  6513  0029A4                     
  6514                           ;mcc_generated_files/adc.c: 145:     if(ADC_InterruptHandler)
  6515  0029A4  0100               	movlb	0	; () banked
  6516  0029A6  51E9               	movf	_ADC_InterruptHandler& (0+255),w,b
  6517  0029A8  11EA               	iorwf	(_ADC_InterruptHandler+1)& (0+255),w,b
  6518  0029AA  B4D8               	btfsc	status,2,c
  6519  0029AC  EFDA  F014         	goto	i2u388_41
  6520  0029B0  EFDC  F014         	goto	i2u388_40
  6521  0029B4                     i2u388_41:
  6522  0029B4  EFE9  F014         	goto	i2l4081
  6523  0029B8                     i2u388_40:
  6524  0029B8                     
  6525                           ; BSR set to: 0
  6526                           ;mcc_generated_files/adc.c: 146:     {;mcc_generated_files/adc.c: 147:         ADC_Inter
      +                          ruptHandler();
  6527  0029B8  D802               	call	i2u389_48
  6528  0029BA  EFE9  F014         	goto	i2u389_49
  6529  0029BE                     i2u389_48:
  6530  0029BE  0005               	push	
  6531  0029C0  6EFA               	movwf	pclath,c
  6532  0029C2  51E9               	movf	_ADC_InterruptHandler& (0+255),w,b
  6533  0029C4  6EFD               	movwf	tosl,c
  6534  0029C6  51EA               	movf	(_ADC_InterruptHandler+1)& (0+255),w,b
  6535  0029C8  6EFE               	movwf	tosh,c
  6536  0029CA  50F8               	movf	tblptru,w,c
  6537  0029CC  6EFF               	movwf	tosu,c
  6538  0029CE  50FA               	movf	pclath,w,c
  6539  0029D0  0012               	return		;indir
  6540  0029D2                     i2u389_49:
  6541  0029D2                     i2l4081:
  6542                           
  6543                           ;mcc_generated_files/adc.c: 149:     PIR1bits.ADIF=0;
  6544  0029D2  9C9E               	bcf	158,6,c	;volatile
  6545  0029D4  0012               	return		;funcret
  6546  0029D6                     __end_of_ADC_ISR:
  6547                           	opt callstack 0
  6548                           
  6549 ;; *************** function _ADC_DefaultInterruptHandler *****************
  6550 ;; Defined at:
  6551 ;;		line 157 in file "mcc_generated_files/adc.c"
  6552 ;; Parameters:    Size  Location     Type
  6553 ;;		None
  6554 ;; Auto vars:     Size  Location     Type
  6555 ;;		None
  6556 ;; Return value:  Size  Location     Type
  6557 ;;                  1    wreg      void 
  6558 ;; Registers used:
  6559 ;;		None
  6560 ;; Tracked objects:
  6561 ;;		On entry : 0/0
  6562 ;;		On exit  : 0/0
  6563 ;;		Unchanged: 0/0
  6564 ;; Data sizes:     COMRAM   BANK0   BANK1   BANK2   BANK3   BANK4   BANK5
  6565 ;;      Params:         0       0       0       0       0       0       0
  6566 ;;      Locals:         0       0       0       0       0       0       0
  6567 ;;      Temps:          0       0       0       0       0       0       0
  6568 ;;      Totals:         0       0       0       0       0       0       0
  6569 ;;Total ram usage:        0 bytes
  6570 ;; Hardware stack levels used:    1
  6571 ;; This function calls:
  6572 ;;		Nothing
  6573 ;; This function is called by:
  6574 ;;		_ADC_Initialize
  6575 ;;		_ADC_ISR
  6576 ;; This function uses a non-reentrant model
  6577 ;;
  6578                           
  6579                           	psect	text55
  6580  002BDC                     __ptext55:
  6581                           	opt callstack 0
  6582  002BDC                     _ADC_DefaultInterruptHandler:
  6583                           	opt callstack 20
  6584  002BDC  0012               	return		;funcret
  6585  002BDE                     __end_of_ADC_DefaultInterruptHandler:
  6586                           	opt callstack 0
  6587                           
  6588 ;; *************** function _ADC_temperatura *****************
  6589 ;; Defined at:
  6590 ;;		line 75 in file "main.c"
  6591 ;; Parameters:    Size  Location     Type
  6592 ;;		None
  6593 ;; Auto vars:     Size  Location     Type
  6594 ;;		None
  6595 ;; Return value:  Size  Location     Type
  6596 ;;                  1    wreg      void 
  6597 ;; Registers used:
  6598 ;;		wreg, status,2, status,0, prodl, prodh, cstack
  6599 ;; Tracked objects:
  6600 ;;		On entry : 0/0
  6601 ;;		On exit  : 0/0
  6602 ;;		Unchanged: 0/0
  6603 ;; Data sizes:     COMRAM   BANK0   BANK1   BANK2   BANK3   BANK4   BANK5
  6604 ;;      Params:         0       0       0       0       0       0       0
  6605 ;;      Locals:         4       0       0       0       0       0       0
  6606 ;;      Temps:          0       0       0       0       0       0       0
  6607 ;;      Totals:         4       0       0       0       0       0       0
  6608 ;;Total ram usage:        4 bytes
  6609 ;; Hardware stack levels used:    1
  6610 ;; Hardware stack levels required when called:    1
  6611 ;; This function calls:
  6612 ;;		_ADC_GetConversionResult
  6613 ;;		___fladd
  6614 ;;		___fldiv
  6615 ;;		___flmul
  6616 ;;		___fltol
  6617 ;;		___xxtofl
  6618 ;; This function is called by:
  6619 ;;		_main
  6620 ;;		_ADC_ISR
  6621 ;; This function uses a non-reentrant model
  6622 ;;
  6623                           
  6624                           	psect	text56
  6625  002176                     __ptext56:
  6626                           	opt callstack 0
  6627  002176                     _ADC_temperatura:
  6628                           	opt callstack 19
  6629  002176                     
  6630                           ;main.c: 77:     codigo_digital = ADC_GetConversionResult();
  6631  002176  EC98  F015         	call	_ADC_GetConversionResult	;wreg free
  6632  00217A  C001  F0D6         	movff	?_ADC_GetConversionResult,_codigo_digital
  6633  00217E  C002  F0D7         	movff	?_ADC_GetConversionResult+1,_codigo_digital+1
  6634  002182                     
  6635                           ;main.c: 80:     temp_ambiente = (int)(((((float) codigo_digital * (3.4/1024.0))-0.3)-0.
      +                          400) / (0.0195));
  6636  002182  0E9A               	movlw	154
  6637  002184  6E2C               	movwf	___fladd@a^0,c
  6638  002186  0E99               	movlw	153
  6639  002188  6E2D               	movwf	(___fladd@a+1)^0,c
  6640  00218A  0E99               	movlw	153
  6641  00218C  6E2E               	movwf	(___fladd@a+2)^0,c
  6642  00218E  0EBE               	movlw	190
  6643  002190  6E2F               	movwf	(___fladd@a+3)^0,c
  6644  002192  0E9A               	movlw	154
  6645  002194  6E13               	movwf	___flmul@a^0,c
  6646  002196  0E99               	movlw	153
  6647  002198  6E14               	movwf	(___flmul@a+1)^0,c
  6648  00219A  0E59               	movlw	89
  6649  00219C  6E15               	movwf	(___flmul@a+2)^0,c
  6650  00219E  0E3B               	movlw	59
  6651  0021A0  6E16               	movwf	(___flmul@a+3)^0,c
  6652  0021A2  C0D6  F001         	movff	_codigo_digital,___xxtofl@val
  6653  0021A6  C0D7  F002         	movff	_codigo_digital+1,___xxtofl@val+1
  6654  0021AA  0E00               	movlw	0
  6655  0021AC  BE02               	btfsc	(___xxtofl@val+1)^0,7,c
  6656  0021AE  0EFF               	movlw	-1
  6657  0021B0  6E03               	movwf	(___xxtofl@val+2)^0,c
  6658  0021B2  6E04               	movwf	(___xxtofl@val+3)^0,c
  6659  0021B4  0E01               	movlw	1
  6660  0021B6  ECC9  F00C         	call	___xxtofl
  6661  0021BA  C001  F00F         	movff	?___xxtofl,___flmul@b
  6662  0021BE  C002  F010         	movff	?___xxtofl+1,___flmul@b+1
  6663  0021C2  C003  F011         	movff	?___xxtofl+2,___flmul@b+2
  6664  0021C6  C004  F012         	movff	?___xxtofl+3,___flmul@b+3
  6665  0021CA  EC7F  F005         	call	___flmul	;wreg free
  6666  0021CE  C00F  F028         	movff	?___flmul,___fladd@b
  6667  0021D2  C010  F029         	movff	?___flmul+1,___fladd@b+1
  6668  0021D6  C011  F02A         	movff	?___flmul+2,___fladd@b+2
  6669  0021DA  C012  F02B         	movff	?___flmul+3,___fladd@b+3
  6670  0021DE  EC1F  F003         	call	___fladd	;wreg free
  6671  0021E2  C028  F05B         	movff	?___fladd,_ADC_temperatura$2330
  6672  0021E6  C029  F05C         	movff	?___fladd+1,_ADC_temperatura$2330+1
  6673  0021EA  C02A  F05D         	movff	?___fladd+2,_ADC_temperatura$2330+2
  6674  0021EE  C02B  F05E         	movff	?___fladd+3,_ADC_temperatura$2330+3
  6675  0021F2                     
  6676                           ;main.c: 80:     temp_ambiente = (int)(((((float) codigo_digital * (3.4/1024.0))-0.3)-0.
      +                          400) / (0.0195));
  6677  0021F2  0E77               	movlw	119
  6678  0021F4  6E3C               	movwf	___fldiv@a^0,c
  6679  0021F6  0EBE               	movlw	190
  6680  0021F8  6E3D               	movwf	(___fldiv@a+1)^0,c
  6681  0021FA  0E9F               	movlw	159
  6682  0021FC  6E3E               	movwf	(___fldiv@a+2)^0,c
  6683  0021FE  0E3C               	movlw	60
  6684  002200  6E3F               	movwf	(___fldiv@a+3)^0,c
  6685  002202  0ECD               	movlw	205
  6686  002204  6E2C               	movwf	___fladd@a^0,c
  6687  002206  0ECC               	movlw	204
  6688  002208  6E2D               	movwf	(___fladd@a+1)^0,c
  6689  00220A  0ECC               	movlw	204
  6690  00220C  6E2E               	movwf	(___fladd@a+2)^0,c
  6691  00220E  0EBE               	movlw	190
  6692  002210  6E2F               	movwf	(___fladd@a+3)^0,c
  6693  002212  C05B  F028         	movff	_ADC_temperatura$2330,___fladd@b
  6694  002216  C05C  F029         	movff	_ADC_temperatura$2330+1,___fladd@b+1
  6695  00221A  C05D  F02A         	movff	_ADC_temperatura$2330+2,___fladd@b+2
  6696  00221E  C05E  F02B         	movff	_ADC_temperatura$2330+3,___fladd@b+3
  6697  002222  EC1F  F003         	call	___fladd	;wreg free
  6698  002226  C028  F038         	movff	?___fladd,___fldiv@b
  6699  00222A  C029  F039         	movff	?___fladd+1,___fldiv@b+1
  6700  00222E  C02A  F03A         	movff	?___fladd+2,___fldiv@b+2
  6701  002232  C02B  F03B         	movff	?___fladd+3,___fldiv@b+3
  6702  002236  EC94  F007         	call	___fldiv	;wreg free
  6703  00223A  C038  F051         	movff	?___fldiv,___fltol@f1
  6704  00223E  C039  F052         	movff	?___fldiv+1,___fltol@f1+1
  6705  002242  C03A  F053         	movff	?___fldiv+2,___fltol@f1+2
  6706  002246  C03B  F054         	movff	?___fldiv+3,___fltol@f1+3
  6707  00224A  EC38  F010         	call	___fltol	;wreg free
  6708  00224E  C051  F0D4         	movff	?___fltol,_temp_ambiente
  6709  002252  C052  F0D5         	movff	?___fltol+1,_temp_ambiente+1
  6710  002256  0012               	return		;funcret
  6711  002258                     __end_of_ADC_temperatura:
  6712                           	opt callstack 0
  6713                           
  6714 ;; *************** function ___xxtofl *****************
  6715 ;; Defined at:
  6716 ;;		line 10 in file "C:\Program Files (x86)\Microchip\xc8\v2.10\pic\sources\c99\common\xxtofl.c"
  6717 ;; Parameters:    Size  Location     Type
  6718 ;;  sign            1    wreg     unsigned char 
  6719 ;;  val             4    0[COMRAM] long 
  6720 ;; Auto vars:     Size  Location     Type
  6721 ;;  sign            1    8[COMRAM] unsigned char 
  6722 ;;  arg             4   10[COMRAM] unsigned long 
  6723 ;;  exp             1    9[COMRAM] unsigned char 
  6724 ;; Return value:  Size  Location     Type
  6725 ;;                  4    0[COMRAM] unsigned char 
  6726 ;; Registers used:
  6727 ;;		wreg, status,2, status,0
  6728 ;; Tracked objects:
  6729 ;;		On entry : 0/0
  6730 ;;		On exit  : 0/0
  6731 ;;		Unchanged: 0/0
  6732 ;; Data sizes:     COMRAM   BANK0   BANK1   BANK2   BANK3   BANK4   BANK5
  6733 ;;      Params:         4       0       0       0       0       0       0
  6734 ;;      Locals:         6       0       0       0       0       0       0
  6735 ;;      Temps:          4       0       0       0       0       0       0
  6736 ;;      Totals:        14       0       0       0       0       0       0
  6737 ;;Total ram usage:       14 bytes
  6738 ;; Hardware stack levels used:    1
  6739 ;; This function calls:
  6740 ;;		Nothing
  6741 ;; This function is called by:
  6742 ;;		_ADC_temperatura
  6743 ;; This function uses a non-reentrant model
  6744 ;;
  6745                           
  6746                           	psect	text57
  6747  001992                     __ptext57:
  6748                           	opt callstack 0
  6749  001992                     ___xxtofl:
  6750                           	opt callstack 19
  6751                           
  6752                           ;incstack = 0
  6753                           ;___xxtofl@sign stored from wreg
  6754  001992  6E09               	movwf	___xxtofl@sign^0,c
  6755  001994  5009               	movf	___xxtofl@sign^0,w,c
  6756  001996  B4D8               	btfsc	status,2,c
  6757  001998  EFD0  F00C         	goto	i2u358_41
  6758  00199C  EFD2  F00C         	goto	i2u358_40
  6759  0019A0                     i2u358_41:
  6760  0019A0  EFF4  F00C         	goto	i2l1334
  6761  0019A4                     i2u358_40:
  6762  0019A4  BE04               	btfsc	(___xxtofl@val+3)^0,7,c
  6763  0019A6  EFD9  F00C         	goto	i2u359_40
  6764  0019AA  EFD7  F00C         	goto	i2u359_41
  6765  0019AE                     i2u359_41:
  6766  0019AE  EFF4  F00C         	goto	i2l1334
  6767  0019B2                     i2u359_40:
  6768  0019B2  C001  F005         	movff	___xxtofl@val,??___xxtofl
  6769  0019B6  C002  F006         	movff	___xxtofl@val+1,??___xxtofl+1
  6770  0019BA  C003  F007         	movff	___xxtofl@val+2,??___xxtofl+2
  6771  0019BE  C004  F008         	movff	___xxtofl@val+3,??___xxtofl+3
  6772  0019C2  1E05               	comf	??___xxtofl^0,f,c
  6773  0019C4  1E06               	comf	(??___xxtofl+1)^0,f,c
  6774  0019C6  1E07               	comf	(??___xxtofl+2)^0,f,c
  6775  0019C8  1E08               	comf	(??___xxtofl+3)^0,f,c
  6776  0019CA  2A05               	incf	??___xxtofl^0,f,c
  6777  0019CC  0E00               	movlw	0
  6778  0019CE  2206               	addwfc	(??___xxtofl+1)^0,f,c
  6779  0019D0  2207               	addwfc	(??___xxtofl+2)^0,f,c
  6780  0019D2  2208               	addwfc	(??___xxtofl+3)^0,f,c
  6781  0019D4  C005  F00B         	movff	??___xxtofl,___xxtofl@arg
  6782  0019D8  C006  F00C         	movff	??___xxtofl+1,___xxtofl@arg+1
  6783  0019DC  C007  F00D         	movff	??___xxtofl+2,___xxtofl@arg+2
  6784  0019E0  C008  F00E         	movff	??___xxtofl+3,___xxtofl@arg+3
  6785  0019E4  EFFC  F00C         	goto	i2l3837
  6786  0019E8                     i2l1334:
  6787  0019E8  C001  F00B         	movff	___xxtofl@val,___xxtofl@arg
  6788  0019EC  C002  F00C         	movff	___xxtofl@val+1,___xxtofl@arg+1
  6789  0019F0  C003  F00D         	movff	___xxtofl@val+2,___xxtofl@arg+2
  6790  0019F4  C004  F00E         	movff	___xxtofl@val+3,___xxtofl@arg+3
  6791  0019F8                     i2l3837:
  6792  0019F8  5001               	movf	___xxtofl@val^0,w,c
  6793  0019FA  1002               	iorwf	(___xxtofl@val+1)^0,w,c
  6794  0019FC  1003               	iorwf	(___xxtofl@val+2)^0,w,c
  6795  0019FE  1004               	iorwf	(___xxtofl@val+3)^0,w,c
  6796  001A00  A4D8               	btfss	status,2,c
  6797  001A02  EF05  F00D         	goto	i2u360_41
  6798  001A06  EF07  F00D         	goto	i2u360_40
  6799  001A0A                     i2u360_41:
  6800  001A0A  EF11  F00D         	goto	i2l3843
  6801  001A0E                     i2u360_40:
  6802  001A0E  0E00               	movlw	0
  6803  001A10  6E01               	movwf	?___xxtofl^0,c
  6804  001A12  0E00               	movlw	0
  6805  001A14  6E02               	movwf	(?___xxtofl+1)^0,c
  6806  001A16  0E00               	movlw	0
  6807  001A18  6E03               	movwf	(?___xxtofl+2)^0,c
  6808  001A1A  0E00               	movlw	0
  6809  001A1C  6E04               	movwf	(?___xxtofl+3)^0,c
  6810  001A1E  EFA2  F00D         	goto	i2l1337
  6811  001A22                     i2l3843:
  6812  001A22  0E96               	movlw	150
  6813  001A24  6E0A               	movwf	___xxtofl@exp^0,c
  6814  001A26  EF1B  F00D         	goto	i2l3847
  6815  001A2A                     i2l3845:
  6816  001A2A  2A0A               	incf	___xxtofl@exp^0,f,c
  6817  001A2C  90D8               	bcf	status,0,c
  6818  001A2E  320E               	rrcf	(___xxtofl@arg+3)^0,f,c
  6819  001A30  320D               	rrcf	(___xxtofl@arg+2)^0,f,c
  6820  001A32  320C               	rrcf	(___xxtofl@arg+1)^0,f,c
  6821  001A34  320B               	rrcf	___xxtofl@arg^0,f,c
  6822  001A36                     i2l3847:
  6823  001A36  0E00               	movlw	0
  6824  001A38  140B               	andwf	___xxtofl@arg^0,w,c
  6825  001A3A  6E05               	movwf	??___xxtofl^0,c
  6826  001A3C  0E00               	movlw	0
  6827  001A3E  140C               	andwf	(___xxtofl@arg+1)^0,w,c
  6828  001A40  6E06               	movwf	(??___xxtofl+1)^0,c
  6829  001A42  0E00               	movlw	0
  6830  001A44  140D               	andwf	(___xxtofl@arg+2)^0,w,c
  6831  001A46  6E07               	movwf	(??___xxtofl+2)^0,c
  6832  001A48  0EFE               	movlw	254
  6833  001A4A  140E               	andwf	(___xxtofl@arg+3)^0,w,c
  6834  001A4C  6E08               	movwf	(??___xxtofl+3)^0,c
  6835  001A4E  5005               	movf	??___xxtofl^0,w,c
  6836  001A50  1006               	iorwf	(??___xxtofl+1)^0,w,c
  6837  001A52  1007               	iorwf	(??___xxtofl+2)^0,w,c
  6838  001A54  1008               	iorwf	(??___xxtofl+3)^0,w,c
  6839  001A56  A4D8               	btfss	status,2,c
  6840  001A58  EF30  F00D         	goto	i2u361_41
  6841  001A5C  EF32  F00D         	goto	i2u361_40
  6842  001A60                     i2u361_41:
  6843  001A60  EF15  F00D         	goto	i2l3845
  6844  001A64                     i2u361_40:
  6845  001A64  EF40  F00D         	goto	i2l1341
  6846  001A68                     i2l3849:
  6847  001A68  2A0A               	incf	___xxtofl@exp^0,f,c
  6848  001A6A  0E01               	movlw	1
  6849  001A6C  260B               	addwf	___xxtofl@arg^0,f,c
  6850  001A6E  0E00               	movlw	0
  6851  001A70  220C               	addwfc	(___xxtofl@arg+1)^0,f,c
  6852  001A72  220D               	addwfc	(___xxtofl@arg+2)^0,f,c
  6853  001A74  220E               	addwfc	(___xxtofl@arg+3)^0,f,c
  6854  001A76  90D8               	bcf	status,0,c
  6855  001A78  320E               	rrcf	(___xxtofl@arg+3)^0,f,c
  6856  001A7A  320D               	rrcf	(___xxtofl@arg+2)^0,f,c
  6857  001A7C  320C               	rrcf	(___xxtofl@arg+1)^0,f,c
  6858  001A7E  320B               	rrcf	___xxtofl@arg^0,f,c
  6859  001A80                     i2l1341:
  6860  001A80  0E00               	movlw	0
  6861  001A82  140B               	andwf	___xxtofl@arg^0,w,c
  6862  001A84  6E05               	movwf	??___xxtofl^0,c
  6863  001A86  0E00               	movlw	0
  6864  001A88  140C               	andwf	(___xxtofl@arg+1)^0,w,c
  6865  001A8A  6E06               	movwf	(??___xxtofl+1)^0,c
  6866  001A8C  0E00               	movlw	0
  6867  001A8E  140D               	andwf	(___xxtofl@arg+2)^0,w,c
  6868  001A90  6E07               	movwf	(??___xxtofl+2)^0,c
  6869  001A92  0EFF               	movlw	255
  6870  001A94  140E               	andwf	(___xxtofl@arg+3)^0,w,c
  6871  001A96  6E08               	movwf	(??___xxtofl+3)^0,c
  6872  001A98  5005               	movf	??___xxtofl^0,w,c
  6873  001A9A  1006               	iorwf	(??___xxtofl+1)^0,w,c
  6874  001A9C  1007               	iorwf	(??___xxtofl+2)^0,w,c
  6875  001A9E  1008               	iorwf	(??___xxtofl+3)^0,w,c
  6876  001AA0  A4D8               	btfss	status,2,c
  6877  001AA2  EF55  F00D         	goto	i2u362_41
  6878  001AA6  EF57  F00D         	goto	i2u362_40
  6879  001AAA                     i2u362_41:
  6880  001AAA  EF34  F00D         	goto	i2l3849
  6881  001AAE                     i2u362_40:
  6882  001AAE  EF5F  F00D         	goto	i2l3857
  6883  001AB2                     i2l3855:
  6884  001AB2  060A               	decf	___xxtofl@exp^0,f,c
  6885  001AB4  90D8               	bcf	status,0,c
  6886  001AB6  360B               	rlcf	___xxtofl@arg^0,f,c
  6887  001AB8  360C               	rlcf	(___xxtofl@arg+1)^0,f,c
  6888  001ABA  360D               	rlcf	(___xxtofl@arg+2)^0,f,c
  6889  001ABC  360E               	rlcf	(___xxtofl@arg+3)^0,f,c
  6890  001ABE                     i2l3857:
  6891  001ABE  BE0D               	btfsc	(___xxtofl@arg+2)^0,7,c
  6892  001AC0  EF64  F00D         	goto	i2u363_41
  6893  001AC4  EF66  F00D         	goto	i2u363_40
  6894  001AC8                     i2u363_41:
  6895  001AC8  EF6E  F00D         	goto	i2l1348
  6896  001ACC                     i2u363_40:
  6897  001ACC  0E02               	movlw	2
  6898  001ACE  600A               	cpfslt	___xxtofl@exp^0,c
  6899  001AD0  EF6C  F00D         	goto	i2u364_41
  6900  001AD4  EF6E  F00D         	goto	i2u364_40
  6901  001AD8                     i2u364_41:
  6902  001AD8  EF59  F00D         	goto	i2l3855
  6903  001ADC                     i2u364_40:
  6904  001ADC                     i2l1348:
  6905  001ADC  B00A               	btfsc	___xxtofl@exp^0,0,c
  6906  001ADE  EF73  F00D         	goto	i2u365_41
  6907  001AE2  EF75  F00D         	goto	i2u365_40
  6908  001AE6                     i2u365_41:
  6909  001AE6  EF76  F00D         	goto	i2l3863
  6910  001AEA                     i2u365_40:
  6911  001AEA  9E0D               	bcf	(___xxtofl@arg+2)^0,7,c
  6912  001AEC                     i2l3863:
  6913  001AEC  90D8               	bcf	status,0,c
  6914  001AEE  320A               	rrcf	___xxtofl@exp^0,f,c
  6915  001AF0  C00A  F005         	movff	___xxtofl@exp,??___xxtofl
  6916  001AF4  6A06               	clrf	(??___xxtofl+1)^0,c
  6917  001AF6  6A07               	clrf	(??___xxtofl+2)^0,c
  6918  001AF8  6A08               	clrf	(??___xxtofl+3)^0,c
  6919  001AFA  C005  F008         	movff	??___xxtofl,??___xxtofl+3
  6920  001AFE  6A07               	clrf	(??___xxtofl+2)^0,c
  6921  001B00  6A06               	clrf	(??___xxtofl+1)^0,c
  6922  001B02  6A05               	clrf	??___xxtofl^0,c
  6923  001B04  5005               	movf	??___xxtofl^0,w,c
  6924  001B06  120B               	iorwf	___xxtofl@arg^0,f,c
  6925  001B08  5006               	movf	(??___xxtofl+1)^0,w,c
  6926  001B0A  120C               	iorwf	(___xxtofl@arg+1)^0,f,c
  6927  001B0C  5007               	movf	(??___xxtofl+2)^0,w,c
  6928  001B0E  120D               	iorwf	(___xxtofl@arg+2)^0,f,c
  6929  001B10  5008               	movf	(??___xxtofl+3)^0,w,c
  6930  001B12  120E               	iorwf	(___xxtofl@arg+3)^0,f,c
  6931  001B14  5009               	movf	___xxtofl@sign^0,w,c
  6932  001B16  B4D8               	btfsc	status,2,c
  6933  001B18  EF90  F00D         	goto	i2u366_41
  6934  001B1C  EF92  F00D         	goto	i2u366_40
  6935  001B20                     i2u366_41:
  6936  001B20  EF9A  F00D         	goto	i2l3873
  6937  001B24                     i2u366_40:
  6938  001B24  BE04               	btfsc	(___xxtofl@val+3)^0,7,c
  6939  001B26  EF99  F00D         	goto	i2u367_40
  6940  001B2A  EF97  F00D         	goto	i2u367_41
  6941  001B2E                     i2u367_41:
  6942  001B2E  EF9A  F00D         	goto	i2l3873
  6943  001B32                     i2u367_40:
  6944  001B32  8E0E               	bsf	(___xxtofl@arg+3)^0,7,c
  6945  001B34                     i2l3873:
  6946  001B34  C00B  F001         	movff	___xxtofl@arg,?___xxtofl
  6947  001B38  C00C  F002         	movff	___xxtofl@arg+1,?___xxtofl+1
  6948  001B3C  C00D  F003         	movff	___xxtofl@arg+2,?___xxtofl+2
  6949  001B40  C00E  F004         	movff	___xxtofl@arg+3,?___xxtofl+3
  6950  001B44                     i2l1337:
  6951  001B44  0012               	return		;funcret
  6952  001B46                     __end_of___xxtofl:
  6953                           	opt callstack 0
  6954                           
  6955 ;; *************** function ___fltol *****************
  6956 ;; Defined at:
  6957 ;;		line 43 in file "C:\Program Files (x86)\Microchip\xc8\v2.10\pic\sources\c99\common\fltol.c"
  6958 ;; Parameters:    Size  Location     Type
  6959 ;;  f1              4   80[COMRAM] unsigned char 
  6960 ;; Auto vars:     Size  Location     Type
  6961 ;;  exp1            1   89[COMRAM] unsigned char 
  6962 ;;  sign1           1   88[COMRAM] unsigned char 
  6963 ;; Return value:  Size  Location     Type
  6964 ;;                  4   80[COMRAM] long 
  6965 ;; Registers used:
  6966 ;;		wreg, status,2, status,0
  6967 ;; Tracked objects:
  6968 ;;		On entry : 0/0
  6969 ;;		On exit  : 0/0
  6970 ;;		Unchanged: 0/0
  6971 ;; Data sizes:     COMRAM   BANK0   BANK1   BANK2   BANK3   BANK4   BANK5
  6972 ;;      Params:         4       0       0       0       0       0       0
  6973 ;;      Locals:         2       0       0       0       0       0       0
  6974 ;;      Temps:          4       0       0       0       0       0       0
  6975 ;;      Totals:        10       0       0       0       0       0       0
  6976 ;;Total ram usage:       10 bytes
  6977 ;; Hardware stack levels used:    1
  6978 ;; This function calls:
  6979 ;;		Nothing
  6980 ;; This function is called by:
  6981 ;;		_ADC_temperatura
  6982 ;; This function uses a non-reentrant model
  6983 ;;
  6984                           
  6985                           	psect	text58
  6986  002070                     __ptext58:
  6987                           	opt callstack 0
  6988  002070                     ___fltol:
  6989                           	opt callstack 19
  6990  002070  3453               	rlcf	(___fltol@f1+2)^0,w,c
  6991  002072  3454               	rlcf	(___fltol@f1+3)^0,w,c
  6992  002074  6E5A               	movwf	___fltol@exp1^0,c
  6993  002076  505A               	movf	___fltol@exp1^0,w,c
  6994  002078  A4D8               	btfss	status,2,c
  6995  00207A  EF41  F010         	goto	i2u351_41
  6996  00207E  EF43  F010         	goto	i2u351_40
  6997  002082                     i2u351_41:
  6998  002082  EF4D  F010         	goto	i2l3793
  6999  002086                     i2u351_40:
  7000  002086                     i2l3789:
  7001  002086  0E00               	movlw	0
  7002  002088  6E51               	movwf	?___fltol^0,c
  7003  00208A  0E00               	movlw	0
  7004  00208C  6E52               	movwf	(?___fltol+1)^0,c
  7005  00208E  0E00               	movlw	0
  7006  002090  6E53               	movwf	(?___fltol+2)^0,c
  7007  002092  0E00               	movlw	0
  7008  002094  6E54               	movwf	(?___fltol+3)^0,c
  7009  002096  EFBA  F010         	goto	i2l976
  7010  00209A                     i2l3793:
  7011  00209A  C051  F055         	movff	___fltol@f1,??___fltol
  7012  00209E  C052  F056         	movff	___fltol@f1+1,??___fltol+1
  7013  0020A2  C053  F057         	movff	___fltol@f1+2,??___fltol+2
  7014  0020A6  C054  F058         	movff	___fltol@f1+3,??___fltol+3
  7015  0020AA  0E20               	movlw	32
  7016  0020AC  EF5D  F010         	goto	i2u352_40
  7017  0020B0                     i2u352_45:
  7018  0020B0  90D8               	bcf	status,0,c
  7019  0020B2  3258               	rrcf	(??___fltol+3)^0,f,c
  7020  0020B4  3257               	rrcf	(??___fltol+2)^0,f,c
  7021  0020B6  3256               	rrcf	(??___fltol+1)^0,f,c
  7022  0020B8  3255               	rrcf	??___fltol^0,f,c
  7023  0020BA                     i2u352_40:
  7024  0020BA  2EE8               	decfsz	wreg,f,c
  7025  0020BC  EF58  F010         	goto	i2u352_45
  7026  0020C0  5055               	movf	??___fltol^0,w,c
  7027  0020C2  6E59               	movwf	___fltol@sign1^0,c
  7028  0020C4  8E53               	bsf	(___fltol@f1+2)^0,7,c
  7029  0020C6  0EFF               	movlw	255
  7030  0020C8  1651               	andwf	___fltol@f1^0,f,c
  7031  0020CA  0EFF               	movlw	255
  7032  0020CC  1652               	andwf	(___fltol@f1+1)^0,f,c
  7033  0020CE  0EFF               	movlw	255
  7034  0020D0  1653               	andwf	(___fltol@f1+2)^0,f,c
  7035  0020D2  0E00               	movlw	0
  7036  0020D4  1654               	andwf	(___fltol@f1+3)^0,f,c
  7037  0020D6  0E96               	movlw	150
  7038  0020D8  5E5A               	subwf	___fltol@exp1^0,f,c
  7039  0020DA  BE5A               	btfsc	___fltol@exp1^0,7,c
  7040  0020DC  EF74  F010         	goto	i2u353_40
  7041  0020E0  EF72  F010         	goto	i2u353_41
  7042  0020E4                     i2u353_41:
  7043  0020E4  EF8A  F010         	goto	i2l3813
  7044  0020E8                     i2u353_40:
  7045  0020E8  505A               	movf	___fltol@exp1^0,w,c
  7046  0020EA  0A80               	xorlw	128
  7047  0020EC  0F97               	addlw	151
  7048  0020EE  B0D8               	btfsc	status,0,c
  7049  0020F0  EF7C  F010         	goto	i2u354_41
  7050  0020F4  EF7E  F010         	goto	i2u354_40
  7051  0020F8                     i2u354_41:
  7052  0020F8  EF80  F010         	goto	i2l3809
  7053  0020FC                     i2u354_40:
  7054  0020FC  EF43  F010         	goto	i2l3789
  7055  002100                     i2l3809:
  7056  002100  90D8               	bcf	status,0,c
  7057  002102  3254               	rrcf	(___fltol@f1+3)^0,f,c
  7058  002104  3253               	rrcf	(___fltol@f1+2)^0,f,c
  7059  002106  3252               	rrcf	(___fltol@f1+1)^0,f,c
  7060  002108  3251               	rrcf	___fltol@f1^0,f,c
  7061  00210A  3E5A               	incfsz	___fltol@exp1^0,f,c
  7062  00210C  EF80  F010         	goto	i2l3809
  7063  002110  EFA2  F010         	goto	i2l3823
  7064  002114                     i2l3813:
  7065  002114  0E1F               	movlw	31
  7066  002116  645A               	cpfsgt	___fltol@exp1^0,c
  7067  002118  EF90  F010         	goto	i2u355_41
  7068  00211C  EF92  F010         	goto	i2u355_40
  7069  002120                     i2u355_41:
  7070  002120  EF9A  F010         	goto	i2l3821
  7071  002124                     i2u355_40:
  7072  002124  EF43  F010         	goto	i2l3789
  7073  002128                     i2l3819:
  7074  002128  90D8               	bcf	status,0,c
  7075  00212A  3651               	rlcf	___fltol@f1^0,f,c
  7076  00212C  3652               	rlcf	(___fltol@f1+1)^0,f,c
  7077  00212E  3653               	rlcf	(___fltol@f1+2)^0,f,c
  7078  002130  3654               	rlcf	(___fltol@f1+3)^0,f,c
  7079  002132  065A               	decf	___fltol@exp1^0,f,c
  7080  002134                     i2l3821:
  7081  002134  505A               	movf	___fltol@exp1^0,w,c
  7082  002136  A4D8               	btfss	status,2,c
  7083  002138  EFA0  F010         	goto	i2u356_41
  7084  00213C  EFA2  F010         	goto	i2u356_40
  7085  002140                     i2u356_41:
  7086  002140  EF94  F010         	goto	i2l3819
  7087  002144                     i2u356_40:
  7088  002144                     i2l3823:
  7089  002144  5059               	movf	___fltol@sign1^0,w,c
  7090  002146  B4D8               	btfsc	status,2,c
  7091  002148  EFA8  F010         	goto	i2u357_41
  7092  00214C  EFAA  F010         	goto	i2u357_40
  7093  002150                     i2u357_41:
  7094  002150  EFB2  F010         	goto	i2l3827
  7095  002154                     i2u357_40:
  7096  002154  1E54               	comf	(___fltol@f1+3)^0,f,c
  7097  002156  1E53               	comf	(___fltol@f1+2)^0,f,c
  7098  002158  1E52               	comf	(___fltol@f1+1)^0,f,c
  7099  00215A  6C51               	negf	___fltol@f1^0,c
  7100  00215C  0E00               	movlw	0
  7101  00215E  2252               	addwfc	(___fltol@f1+1)^0,f,c
  7102  002160  2253               	addwfc	(___fltol@f1+2)^0,f,c
  7103  002162  2254               	addwfc	(___fltol@f1+3)^0,f,c
  7104  002164                     i2l3827:
  7105  002164  C051  F051         	movff	___fltol@f1,?___fltol
  7106  002168  C052  F052         	movff	___fltol@f1+1,?___fltol+1
  7107  00216C  C053  F053         	movff	___fltol@f1+2,?___fltol+2
  7108  002170  C054  F054         	movff	___fltol@f1+3,?___fltol+3
  7109  002174                     i2l976:
  7110  002174  0012               	return		;funcret
  7111  002176                     __end_of___fltol:
  7112                           	opt callstack 0
  7113                           
  7114 ;; *************** function ___flmul *****************
  7115 ;; Defined at:
  7116 ;;		line 8 in file "C:\Program Files (x86)\Microchip\xc8\v2.10\pic\sources\c99\common\sprcmul.c"
  7117 ;; Parameters:    Size  Location     Type
  7118 ;;  b               4   14[COMRAM] long 
  7119 ;;  a               4   18[COMRAM] long 
  7120 ;; Auto vars:     Size  Location     Type
  7121 ;;  prod            4   33[COMRAM] struct .
  7122 ;;  grs             4   27[COMRAM] unsigned long 
  7123 ;;  temp            2   37[COMRAM] struct .
  7124 ;;  bexp            1   32[COMRAM] unsigned char 
  7125 ;;  aexp            1   31[COMRAM] unsigned char 
  7126 ;;  sign            1   26[COMRAM] unsigned char 
  7127 ;; Return value:  Size  Location     Type
  7128 ;;                  4   14[COMRAM] unsigned char 
  7129 ;; Registers used:
  7130 ;;		wreg, status,2, status,0, prodl, prodh
  7131 ;; Tracked objects:
  7132 ;;		On entry : 0/0
  7133 ;;		On exit  : 0/0
  7134 ;;		Unchanged: 0/0
  7135 ;; Data sizes:     COMRAM   BANK0   BANK1   BANK2   BANK3   BANK4   BANK5
  7136 ;;      Params:         8       0       0       0       0       0       0
  7137 ;;      Locals:        13       0       0       0       0       0       0
  7138 ;;      Temps:          4       0       0       0       0       0       0
  7139 ;;      Totals:        25       0       0       0       0       0       0
  7140 ;;Total ram usage:       25 bytes
  7141 ;; Hardware stack levels used:    1
  7142 ;; This function calls:
  7143 ;;		Nothing
  7144 ;; This function is called by:
  7145 ;;		_ADC_temperatura
  7146 ;; This function uses a non-reentrant model
  7147 ;;
  7148                           
  7149                           	psect	text59
  7150  000AFE                     __ptext59:
  7151                           	opt callstack 0
  7152  000AFE                     ___flmul:
  7153                           	opt callstack 19
  7154  000AFE  5012               	movf	(___flmul@b+3)^0,w,c
  7155  000B00  0B80               	andlw	128
  7156  000B02  6E1B               	movwf	___flmul@sign^0,c
  7157  000B04  5012               	movf	(___flmul@b+3)^0,w,c
  7158  000B06  2412               	addwf	(___flmul@b+3)^0,w,c
  7159  000B08  6E21               	movwf	___flmul@bexp^0,c
  7160  000B0A  AE11               	btfss	(___flmul@b+2)^0,7,c
  7161  000B0C  EF8A  F005         	goto	i2u332_41
  7162  000B10  EF8C  F005         	goto	i2u332_40
  7163  000B14                     i2u332_41:
  7164  000B14  EF8D  F005         	goto	i2l3663
  7165  000B18                     i2u332_40:
  7166  000B18  8021               	bsf	___flmul@bexp^0,0,c
  7167  000B1A                     i2l3663:
  7168  000B1A  5021               	movf	___flmul@bexp^0,w,c
  7169  000B1C  B4D8               	btfsc	status,2,c
  7170  000B1E  EF93  F005         	goto	i2u333_41
  7171  000B22  EF95  F005         	goto	i2u333_40
  7172  000B26                     i2u333_41:
  7173  000B26  EFA8  F005         	goto	i2l3671
  7174  000B2A                     i2u333_40:
  7175  000B2A  2821               	incf	___flmul@bexp^0,w,c
  7176  000B2C  A4D8               	btfss	status,2,c
  7177  000B2E  EF9B  F005         	goto	i2u334_41
  7178  000B32  EF9D  F005         	goto	i2u334_40
  7179  000B36                     i2u334_41:
  7180  000B36  EFA5  F005         	goto	i2l3669
  7181  000B3A                     i2u334_40:
  7182  000B3A  0E00               	movlw	0
  7183  000B3C  6E0F               	movwf	___flmul@b^0,c
  7184  000B3E  0E00               	movlw	0
  7185  000B40  6E10               	movwf	(___flmul@b+1)^0,c
  7186  000B42  0E00               	movlw	0
  7187  000B44  6E11               	movwf	(___flmul@b+2)^0,c
  7188  000B46  0E00               	movlw	0
  7189  000B48  6E12               	movwf	(___flmul@b+3)^0,c
  7190  000B4A                     i2l3669:
  7191  000B4A  8E11               	bsf	(___flmul@b+2)^0,7,c
  7192  000B4C  EFB0  F005         	goto	i2l3673
  7193  000B50                     i2l3671:
  7194  000B50  0E00               	movlw	0
  7195  000B52  6E0F               	movwf	___flmul@b^0,c
  7196  000B54  0E00               	movlw	0
  7197  000B56  6E10               	movwf	(___flmul@b+1)^0,c
  7198  000B58  0E00               	movlw	0
  7199  000B5A  6E11               	movwf	(___flmul@b+2)^0,c
  7200  000B5C  0E00               	movlw	0
  7201  000B5E  6E12               	movwf	(___flmul@b+3)^0,c
  7202  000B60                     i2l3673:
  7203  000B60  5016               	movf	(___flmul@a+3)^0,w,c
  7204  000B62  0B80               	andlw	128
  7205  000B64  1A1B               	xorwf	___flmul@sign^0,f,c
  7206  000B66  5016               	movf	(___flmul@a+3)^0,w,c
  7207  000B68  2416               	addwf	(___flmul@a+3)^0,w,c
  7208  000B6A  6E20               	movwf	___flmul@aexp^0,c
  7209  000B6C  AE15               	btfss	(___flmul@a+2)^0,7,c
  7210  000B6E  EFBB  F005         	goto	i2u335_41
  7211  000B72  EFBD  F005         	goto	i2u335_40
  7212  000B76                     i2u335_41:
  7213  000B76  EFBE  F005         	goto	i2l3681
  7214  000B7A                     i2u335_40:
  7215  000B7A  8020               	bsf	___flmul@aexp^0,0,c
  7216  000B7C                     i2l3681:
  7217  000B7C  5020               	movf	___flmul@aexp^0,w,c
  7218  000B7E  B4D8               	btfsc	status,2,c
  7219  000B80  EFC4  F005         	goto	i2u336_41
  7220  000B84  EFC6  F005         	goto	i2u336_40
  7221  000B88                     i2u336_41:
  7222  000B88  EFD9  F005         	goto	i2l3689
  7223  000B8C                     i2u336_40:
  7224  000B8C  2820               	incf	___flmul@aexp^0,w,c
  7225  000B8E  A4D8               	btfss	status,2,c
  7226  000B90  EFCC  F005         	goto	i2u337_41
  7227  000B94  EFCE  F005         	goto	i2u337_40
  7228  000B98                     i2u337_41:
  7229  000B98  EFD6  F005         	goto	i2l3687
  7230  000B9C                     i2u337_40:
  7231  000B9C  0E00               	movlw	0
  7232  000B9E  6E13               	movwf	___flmul@a^0,c
  7233  000BA0  0E00               	movlw	0
  7234  000BA2  6E14               	movwf	(___flmul@a+1)^0,c
  7235  000BA4  0E00               	movlw	0
  7236  000BA6  6E15               	movwf	(___flmul@a+2)^0,c
  7237  000BA8  0E00               	movlw	0
  7238  000BAA  6E16               	movwf	(___flmul@a+3)^0,c
  7239  000BAC                     i2l3687:
  7240  000BAC  8E15               	bsf	(___flmul@a+2)^0,7,c
  7241  000BAE  EFE1  F005         	goto	i2l1293
  7242  000BB2                     i2l3689:
  7243  000BB2  0E00               	movlw	0
  7244  000BB4  6E13               	movwf	___flmul@a^0,c
  7245  000BB6  0E00               	movlw	0
  7246  000BB8  6E14               	movwf	(___flmul@a+1)^0,c
  7247  000BBA  0E00               	movlw	0
  7248  000BBC  6E15               	movwf	(___flmul@a+2)^0,c
  7249  000BBE  0E00               	movlw	0
  7250  000BC0  6E16               	movwf	(___flmul@a+3)^0,c
  7251  000BC2                     i2l1293:
  7252  000BC2  5020               	movf	___flmul@aexp^0,w,c
  7253  000BC4  B4D8               	btfsc	status,2,c
  7254  000BC6  EFE7  F005         	goto	i2u338_41
  7255  000BCA  EFE9  F005         	goto	i2u338_40
  7256  000BCE                     i2u338_41:
  7257  000BCE  EFF1  F005         	goto	i2l3693
  7258  000BD2                     i2u338_40:
  7259  000BD2  5021               	movf	___flmul@bexp^0,w,c
  7260  000BD4  A4D8               	btfss	status,2,c
  7261  000BD6  EFEF  F005         	goto	i2u339_41
  7262  000BDA  EFF1  F005         	goto	i2u339_40
  7263  000BDE                     i2u339_41:
  7264  000BDE  EFFB  F005         	goto	i2l3697
  7265  000BE2                     i2u339_40:
  7266  000BE2                     i2l3693:
  7267  000BE2  0E00               	movlw	0
  7268  000BE4  6E0F               	movwf	?___flmul^0,c
  7269  000BE6  0E00               	movlw	0
  7270  000BE8  6E10               	movwf	(?___flmul+1)^0,c
  7271  000BEA  0E00               	movlw	0
  7272  000BEC  6E11               	movwf	(?___flmul+2)^0,c
  7273  000BEE  0E00               	movlw	0
  7274  000BF0  6E12               	movwf	(?___flmul+3)^0,c
  7275  000BF2  EF93  F007         	goto	i2l1297
  7276  000BF6                     i2l3697:
  7277  000BF6  5015               	movf	(___flmul@a+2)^0,w,c
  7278  000BF8  020F               	mulwf	___flmul@b^0,c
  7279  000BFA  CFF3 F026          	movff	prodl,___flmul@temp
  7280  000BFE  CFF4 F027          	movff	prodh,___flmul@temp+1
  7281  000C02  5026               	movf	___flmul@temp^0,w,c
  7282  000C04  6E1C               	movwf	___flmul@grs^0,c
  7283  000C06  6A1D               	clrf	(___flmul@grs+1)^0,c
  7284  000C08  6A1E               	clrf	(___flmul@grs+2)^0,c
  7285  000C0A  6A1F               	clrf	(___flmul@grs+3)^0,c
  7286  000C0C  5027               	movf	(___flmul@temp+1)^0,w,c
  7287  000C0E  6E22               	movwf	___flmul@prod^0,c
  7288  000C10  6A23               	clrf	(___flmul@prod+1)^0,c
  7289  000C12  6A24               	clrf	(___flmul@prod+2)^0,c
  7290  000C14  6A25               	clrf	(___flmul@prod+3)^0,c
  7291  000C16  5014               	movf	(___flmul@a+1)^0,w,c
  7292  000C18  0210               	mulwf	(___flmul@b+1)^0,c
  7293  000C1A  CFF3 F026          	movff	prodl,___flmul@temp
  7294  000C1E  CFF4 F027          	movff	prodh,___flmul@temp+1
  7295  000C22  5026               	movf	___flmul@temp^0,w,c
  7296  000C24  261C               	addwf	___flmul@grs^0,f,c
  7297  000C26  0E00               	movlw	0
  7298  000C28  221D               	addwfc	(___flmul@grs+1)^0,f,c
  7299  000C2A  221E               	addwfc	(___flmul@grs+2)^0,f,c
  7300  000C2C  221F               	addwfc	(___flmul@grs+3)^0,f,c
  7301  000C2E  5027               	movf	(___flmul@temp+1)^0,w,c
  7302  000C30  2622               	addwf	___flmul@prod^0,f,c
  7303  000C32  0E00               	movlw	0
  7304  000C34  2223               	addwfc	(___flmul@prod+1)^0,f,c
  7305  000C36  2224               	addwfc	(___flmul@prod+2)^0,f,c
  7306  000C38  2225               	addwfc	(___flmul@prod+3)^0,f,c
  7307  000C3A  5013               	movf	___flmul@a^0,w,c
  7308  000C3C  0211               	mulwf	(___flmul@b+2)^0,c
  7309  000C3E  CFF3 F026          	movff	prodl,___flmul@temp
  7310  000C42  CFF4 F027          	movff	prodh,___flmul@temp+1
  7311  000C46  5026               	movf	___flmul@temp^0,w,c
  7312  000C48  261C               	addwf	___flmul@grs^0,f,c
  7313  000C4A  0E00               	movlw	0
  7314  000C4C  221D               	addwfc	(___flmul@grs+1)^0,f,c
  7315  000C4E  221E               	addwfc	(___flmul@grs+2)^0,f,c
  7316  000C50  221F               	addwfc	(___flmul@grs+3)^0,f,c
  7317  000C52  5027               	movf	(___flmul@temp+1)^0,w,c
  7318  000C54  2622               	addwf	___flmul@prod^0,f,c
  7319  000C56  0E00               	movlw	0
  7320  000C58  2223               	addwfc	(___flmul@prod+1)^0,f,c
  7321  000C5A  2224               	addwfc	(___flmul@prod+2)^0,f,c
  7322  000C5C  2225               	addwfc	(___flmul@prod+3)^0,f,c
  7323  000C5E  C01E  F01F         	movff	___flmul@grs+2,___flmul@grs+3
  7324  000C62  C01D  F01E         	movff	___flmul@grs+1,___flmul@grs+2
  7325  000C66  C01C  F01D         	movff	___flmul@grs,___flmul@grs+1
  7326  000C6A  6A1C               	clrf	___flmul@grs^0,c
  7327  000C6C  5013               	movf	___flmul@a^0,w,c
  7328  000C6E  0210               	mulwf	(___flmul@b+1)^0,c
  7329  000C70  CFF3 F026          	movff	prodl,___flmul@temp
  7330  000C74  CFF4 F027          	movff	prodh,___flmul@temp+1
  7331  000C78  5026               	movf	___flmul@temp^0,w,c
  7332  000C7A  261C               	addwf	___flmul@grs^0,f,c
  7333  000C7C  5027               	movf	(___flmul@temp+1)^0,w,c
  7334  000C7E  221D               	addwfc	(___flmul@grs+1)^0,f,c
  7335  000C80  0E00               	movlw	0
  7336  000C82  221E               	addwfc	(___flmul@grs+2)^0,f,c
  7337  000C84  0E00               	movlw	0
  7338  000C86  221F               	addwfc	(___flmul@grs+3)^0,f,c
  7339  000C88  5014               	movf	(___flmul@a+1)^0,w,c
  7340  000C8A  020F               	mulwf	___flmul@b^0,c
  7341  000C8C  CFF3 F026          	movff	prodl,___flmul@temp
  7342  000C90  CFF4 F027          	movff	prodh,___flmul@temp+1
  7343  000C94  5026               	movf	___flmul@temp^0,w,c
  7344  000C96  261C               	addwf	___flmul@grs^0,f,c
  7345  000C98  5027               	movf	(___flmul@temp+1)^0,w,c
  7346  000C9A  221D               	addwfc	(___flmul@grs+1)^0,f,c
  7347  000C9C  0E00               	movlw	0
  7348  000C9E  221E               	addwfc	(___flmul@grs+2)^0,f,c
  7349  000CA0  0E00               	movlw	0
  7350  000CA2  221F               	addwfc	(___flmul@grs+3)^0,f,c
  7351  000CA4  C01E  F01F         	movff	___flmul@grs+2,___flmul@grs+3
  7352  000CA8  C01D  F01E         	movff	___flmul@grs+1,___flmul@grs+2
  7353  000CAC  C01C  F01D         	movff	___flmul@grs,___flmul@grs+1
  7354  000CB0  6A1C               	clrf	___flmul@grs^0,c
  7355  000CB2  5013               	movf	___flmul@a^0,w,c
  7356  000CB4  020F               	mulwf	___flmul@b^0,c
  7357  000CB6  CFF3 F026          	movff	prodl,___flmul@temp
  7358  000CBA  CFF4 F027          	movff	prodh,___flmul@temp+1
  7359  000CBE  5026               	movf	___flmul@temp^0,w,c
  7360  000CC0  261C               	addwf	___flmul@grs^0,f,c
  7361  000CC2  5027               	movf	(___flmul@temp+1)^0,w,c
  7362  000CC4  221D               	addwfc	(___flmul@grs+1)^0,f,c
  7363  000CC6  0E00               	movlw	0
  7364  000CC8  221E               	addwfc	(___flmul@grs+2)^0,f,c
  7365  000CCA  0E00               	movlw	0
  7366  000CCC  221F               	addwfc	(___flmul@grs+3)^0,f,c
  7367  000CCE  5015               	movf	(___flmul@a+2)^0,w,c
  7368  000CD0  0210               	mulwf	(___flmul@b+1)^0,c
  7369  000CD2  CFF3 F026          	movff	prodl,___flmul@temp
  7370  000CD6  CFF4 F027          	movff	prodh,___flmul@temp+1
  7371  000CDA  5026               	movf	___flmul@temp^0,w,c
  7372  000CDC  2622               	addwf	___flmul@prod^0,f,c
  7373  000CDE  5027               	movf	(___flmul@temp+1)^0,w,c
  7374  000CE0  2223               	addwfc	(___flmul@prod+1)^0,f,c
  7375  000CE2  0E00               	movlw	0
  7376  000CE4  2224               	addwfc	(___flmul@prod+2)^0,f,c
  7377  000CE6  0E00               	movlw	0
  7378  000CE8  2225               	addwfc	(___flmul@prod+3)^0,f,c
  7379  000CEA  5014               	movf	(___flmul@a+1)^0,w,c
  7380  000CEC  0211               	mulwf	(___flmul@b+2)^0,c
  7381  000CEE  CFF3 F026          	movff	prodl,___flmul@temp
  7382  000CF2  CFF4 F027          	movff	prodh,___flmul@temp+1
  7383  000CF6  5026               	movf	___flmul@temp^0,w,c
  7384  000CF8  2622               	addwf	___flmul@prod^0,f,c
  7385  000CFA  5027               	movf	(___flmul@temp+1)^0,w,c
  7386  000CFC  2223               	addwfc	(___flmul@prod+1)^0,f,c
  7387  000CFE  0E00               	movlw	0
  7388  000D00  2224               	addwfc	(___flmul@prod+2)^0,f,c
  7389  000D02  0E00               	movlw	0
  7390  000D04  2225               	addwfc	(___flmul@prod+3)^0,f,c
  7391  000D06  5015               	movf	(___flmul@a+2)^0,w,c
  7392  000D08  0211               	mulwf	(___flmul@b+2)^0,c
  7393  000D0A  CFF3 F026          	movff	prodl,___flmul@temp
  7394  000D0E  CFF4 F027          	movff	prodh,___flmul@temp+1
  7395  000D12  5026               	movf	___flmul@temp^0,w,c
  7396  000D14  6E17               	movwf	??___flmul^0,c
  7397  000D16  5027               	movf	(___flmul@temp+1)^0,w,c
  7398  000D18  6E18               	movwf	(??___flmul+1)^0,c
  7399  000D1A  6A19               	clrf	(??___flmul+2)^0,c
  7400  000D1C  6A1A               	clrf	(??___flmul+3)^0,c
  7401  000D1E  C019  F01A         	movff	??___flmul+2,??___flmul+3
  7402  000D22  C018  F019         	movff	??___flmul+1,??___flmul+2
  7403  000D26  C017  F018         	movff	??___flmul,??___flmul+1
  7404  000D2A  6A17               	clrf	??___flmul^0,c
  7405  000D2C  5017               	movf	??___flmul^0,w,c
  7406  000D2E  2622               	addwf	___flmul@prod^0,f,c
  7407  000D30  5018               	movf	(??___flmul+1)^0,w,c
  7408  000D32  2223               	addwfc	(___flmul@prod+1)^0,f,c
  7409  000D34  5019               	movf	(??___flmul+2)^0,w,c
  7410  000D36  2224               	addwfc	(___flmul@prod+2)^0,f,c
  7411  000D38  501A               	movf	(??___flmul+3)^0,w,c
  7412  000D3A  2225               	addwfc	(___flmul@prod+3)^0,f,c
  7413  000D3C  C01C  F017         	movff	___flmul@grs,??___flmul
  7414  000D40  C01D  F018         	movff	___flmul@grs+1,??___flmul+1
  7415  000D44  C01E  F019         	movff	___flmul@grs+2,??___flmul+2
  7416  000D48  C01F  F01A         	movff	___flmul@grs+3,??___flmul+3
  7417  000D4C  0E19               	movlw	25
  7418  000D4E  EFAE  F006         	goto	i2u340_40
  7419  000D52                     i2u340_45:
  7420  000D52  90D8               	bcf	status,0,c
  7421  000D54  321A               	rrcf	(??___flmul+3)^0,f,c
  7422  000D56  3219               	rrcf	(??___flmul+2)^0,f,c
  7423  000D58  3218               	rrcf	(??___flmul+1)^0,f,c
  7424  000D5A  3217               	rrcf	??___flmul^0,f,c
  7425  000D5C                     i2u340_40:
  7426  000D5C  2EE8               	decfsz	wreg,f,c
  7427  000D5E  EFA9  F006         	goto	i2u340_45
  7428  000D62  5017               	movf	??___flmul^0,w,c
  7429  000D64  2622               	addwf	___flmul@prod^0,f,c
  7430  000D66  5018               	movf	(??___flmul+1)^0,w,c
  7431  000D68  2223               	addwfc	(___flmul@prod+1)^0,f,c
  7432  000D6A  5019               	movf	(??___flmul+2)^0,w,c
  7433  000D6C  2224               	addwfc	(___flmul@prod+2)^0,f,c
  7434  000D6E  501A               	movf	(??___flmul+3)^0,w,c
  7435  000D70  2225               	addwfc	(___flmul@prod+3)^0,f,c
  7436  000D72  C01E  F01F         	movff	___flmul@grs+2,___flmul@grs+3
  7437  000D76  C01D  F01E         	movff	___flmul@grs+1,___flmul@grs+2
  7438  000D7A  C01C  F01D         	movff	___flmul@grs,___flmul@grs+1
  7439  000D7E  6A1C               	clrf	___flmul@grs^0,c
  7440  000D80  5020               	movf	___flmul@aexp^0,w,c
  7441  000D82  C021  F017         	movff	___flmul@bexp,??___flmul
  7442  000D86  6A18               	clrf	(??___flmul+1)^0,c
  7443  000D88  2617               	addwf	??___flmul^0,f,c
  7444  000D8A  0E00               	movlw	0
  7445  000D8C  2218               	addwfc	(??___flmul+1)^0,f,c
  7446  000D8E  0E82               	movlw	130
  7447  000D90  2417               	addwf	??___flmul^0,w,c
  7448  000D92  6E26               	movwf	___flmul@temp^0,c
  7449  000D94  0EFF               	movlw	255
  7450  000D96  2018               	addwfc	(??___flmul+1)^0,w,c
  7451  000D98  6E27               	movwf	(___flmul@temp+1)^0,c
  7452  000D9A  EFE4  F006         	goto	i2l3745
  7453  000D9E                     i2l3739:
  7454  000D9E  90D8               	bcf	status,0,c
  7455  000DA0  3622               	rlcf	___flmul@prod^0,f,c
  7456  000DA2  3623               	rlcf	(___flmul@prod+1)^0,f,c
  7457  000DA4  3624               	rlcf	(___flmul@prod+2)^0,f,c
  7458  000DA6  3625               	rlcf	(___flmul@prod+3)^0,f,c
  7459  000DA8  AE1F               	btfss	(___flmul@grs+3)^0,7,c
  7460  000DAA  EFD9  F006         	goto	i2u341_41
  7461  000DAE  EFDB  F006         	goto	i2u341_40
  7462  000DB2                     i2u341_41:
  7463  000DB2  EFDC  F006         	goto	i2l1300
  7464  000DB6                     i2u341_40:
  7465  000DB6  8022               	bsf	___flmul@prod^0,0,c
  7466  000DB8                     i2l1300:
  7467  000DB8  90D8               	bcf	status,0,c
  7468  000DBA  361C               	rlcf	___flmul@grs^0,f,c
  7469  000DBC  361D               	rlcf	(___flmul@grs+1)^0,f,c
  7470  000DBE  361E               	rlcf	(___flmul@grs+2)^0,f,c
  7471  000DC0  361F               	rlcf	(___flmul@grs+3)^0,f,c
  7472  000DC2  0626               	decf	___flmul@temp^0,f,c
  7473  000DC4  A0D8               	btfss	status,0,c
  7474  000DC6  0627               	decf	(___flmul@temp+1)^0,f,c
  7475  000DC8                     i2l3745:
  7476  000DC8  AE24               	btfss	(___flmul@prod+2)^0,7,c
  7477  000DCA  EFE9  F006         	goto	i2u342_41
  7478  000DCE  EFEB  F006         	goto	i2u342_40
  7479  000DD2                     i2u342_41:
  7480  000DD2  EFCF  F006         	goto	i2l3739
  7481  000DD6                     i2u342_40:
  7482  000DD6  0E00               	movlw	0
  7483  000DD8  6E20               	movwf	___flmul@aexp^0,c
  7484  000DDA  AE1F               	btfss	(___flmul@grs+3)^0,7,c
  7485  000DDC  EFF2  F006         	goto	i2u343_41
  7486  000DE0  EFF4  F006         	goto	i2u343_40
  7487  000DE4                     i2u343_41:
  7488  000DE4  EF18  F007         	goto	i2l1302
  7489  000DE8                     i2u343_40:
  7490  000DE8  0EFF               	movlw	255
  7491  000DEA  141C               	andwf	___flmul@grs^0,w,c
  7492  000DEC  6E17               	movwf	??___flmul^0,c
  7493  000DEE  0EFF               	movlw	255
  7494  000DF0  141D               	andwf	(___flmul@grs+1)^0,w,c
  7495  000DF2  6E18               	movwf	(??___flmul+1)^0,c
  7496  000DF4  0EFF               	movlw	255
  7497  000DF6  141E               	andwf	(___flmul@grs+2)^0,w,c
  7498  000DF8  6E19               	movwf	(??___flmul+2)^0,c
  7499  000DFA  0E7F               	movlw	127
  7500  000DFC  141F               	andwf	(___flmul@grs+3)^0,w,c
  7501  000DFE  6E1A               	movwf	(??___flmul+3)^0,c
  7502  000E00  5017               	movf	??___flmul^0,w,c
  7503  000E02  1018               	iorwf	(??___flmul+1)^0,w,c
  7504  000E04  1019               	iorwf	(??___flmul+2)^0,w,c
  7505  000E06  101A               	iorwf	(??___flmul+3)^0,w,c
  7506  000E08  B4D8               	btfsc	status,2,c
  7507  000E0A  EF09  F007         	goto	i2u344_41
  7508  000E0E  EF0B  F007         	goto	i2u344_40
  7509  000E12                     i2u344_41:
  7510  000E12  EF0F  F007         	goto	i2l1303
  7511  000E16                     i2u344_40:
  7512  000E16                     i2l3753:
  7513  000E16  0E01               	movlw	1
  7514  000E18  6E20               	movwf	___flmul@aexp^0,c
  7515  000E1A  EF18  F007         	goto	i2l1302
  7516  000E1E                     i2l1303:
  7517  000E1E  A022               	btfss	___flmul@prod^0,0,c
  7518  000E20  EF14  F007         	goto	i2u345_41
  7519  000E24  EF16  F007         	goto	i2u345_40
  7520  000E28                     i2u345_41:
  7521  000E28  EF18  F007         	goto	i2l1302
  7522  000E2C                     i2u345_40:
  7523  000E2C  EF0B  F007         	goto	i2l3753
  7524  000E30                     i2l1302:
  7525  000E30  5020               	movf	___flmul@aexp^0,w,c
  7526  000E32  B4D8               	btfsc	status,2,c
  7527  000E34  EF1E  F007         	goto	i2u346_41
  7528  000E38  EF20  F007         	goto	i2u346_40
  7529  000E3C                     i2u346_41:
  7530  000E3C  EF44  F007         	goto	i2l3765
  7531  000E40                     i2u346_40:
  7532  000E40  0E01               	movlw	1
  7533  000E42  2622               	addwf	___flmul@prod^0,f,c
  7534  000E44  0E00               	movlw	0
  7535  000E46  2223               	addwfc	(___flmul@prod+1)^0,f,c
  7536  000E48  2224               	addwfc	(___flmul@prod+2)^0,f,c
  7537  000E4A  2225               	addwfc	(___flmul@prod+3)^0,f,c
  7538  000E4C  A025               	btfss	(___flmul@prod+3)^0,0,c
  7539  000E4E  EF2B  F007         	goto	i2u347_41
  7540  000E52  EF2D  F007         	goto	i2u347_40
  7541  000E56                     i2u347_41:
  7542  000E56  EF44  F007         	goto	i2l3765
  7543  000E5A                     i2u347_40:
  7544  000E5A  C022  F017         	movff	___flmul@prod,??___flmul
  7545  000E5E  C023  F018         	movff	___flmul@prod+1,??___flmul+1
  7546  000E62  C024  F019         	movff	___flmul@prod+2,??___flmul+2
  7547  000E66  C025  F01A         	movff	___flmul@prod+3,??___flmul+3
  7548  000E6A  341A               	rlcf	(??___flmul+3)^0,w,c
  7549  000E6C  321A               	rrcf	(??___flmul+3)^0,f,c
  7550  000E6E  3219               	rrcf	(??___flmul+2)^0,f,c
  7551  000E70  3218               	rrcf	(??___flmul+1)^0,f,c
  7552  000E72  3217               	rrcf	??___flmul^0,f,c
  7553  000E74  C017  F022         	movff	??___flmul,___flmul@prod
  7554  000E78  C018  F023         	movff	??___flmul+1,___flmul@prod+1
  7555  000E7C  C019  F024         	movff	??___flmul+2,___flmul@prod+2
  7556  000E80  C01A  F025         	movff	??___flmul+3,___flmul@prod+3
  7557  000E84  4A26               	infsnz	___flmul@temp^0,f,c
  7558  000E86  2A27               	incf	(___flmul@temp+1)^0,f,c
  7559  000E88                     i2l3765:
  7560  000E88  BE27               	btfsc	(___flmul@temp+1)^0,7,c
  7561  000E8A  EF4F  F007         	goto	i2u348_41
  7562  000E8E  5027               	movf	(___flmul@temp+1)^0,w,c
  7563  000E90  E108               	bnz	i2u348_40
  7564  000E92  2826               	incf	___flmul@temp^0,w,c
  7565  000E94  A0D8               	btfss	status,0,c
  7566  000E96  EF4F  F007         	goto	i2u348_41
  7567  000E9A  EF51  F007         	goto	i2u348_40
  7568  000E9E                     i2u348_41:
  7569  000E9E  EF5B  F007         	goto	i2l3769
  7570  000EA2                     i2u348_40:
  7571  000EA2  0E00               	movlw	0
  7572  000EA4  6E22               	movwf	___flmul@prod^0,c
  7573  000EA6  0E00               	movlw	0
  7574  000EA8  6E23               	movwf	(___flmul@prod+1)^0,c
  7575  000EAA  0E80               	movlw	128
  7576  000EAC  6E24               	movwf	(___flmul@prod+2)^0,c
  7577  000EAE  0E7F               	movlw	127
  7578  000EB0  6E25               	movwf	(___flmul@prod+3)^0,c
  7579  000EB2  EF89  F007         	goto	i2l3781
  7580  000EB6                     i2l3769:
  7581  000EB6  BE27               	btfsc	(___flmul@temp+1)^0,7,c
  7582  000EB8  EF68  F007         	goto	i2u349_40
  7583  000EBC  5027               	movf	(___flmul@temp+1)^0,w,c
  7584  000EBE  E106               	bnz	i2u349_41
  7585  000EC0  0426               	decf	___flmul@temp^0,w,c
  7586  000EC2  B0D8               	btfsc	status,0,c
  7587  000EC4  EF66  F007         	goto	i2u349_41
  7588  000EC8  EF68  F007         	goto	i2u349_40
  7589  000ECC                     i2u349_41:
  7590  000ECC  EF74  F007         	goto	i2l1310
  7591  000ED0                     i2u349_40:
  7592  000ED0  0E00               	movlw	0
  7593  000ED2  6E22               	movwf	___flmul@prod^0,c
  7594  000ED4  0E00               	movlw	0
  7595  000ED6  6E23               	movwf	(___flmul@prod+1)^0,c
  7596  000ED8  0E00               	movlw	0
  7597  000EDA  6E24               	movwf	(___flmul@prod+2)^0,c
  7598  000EDC  0E00               	movlw	0
  7599  000EDE  6E25               	movwf	(___flmul@prod+3)^0,c
  7600  000EE0  0E00               	movlw	0
  7601  000EE2  6E1B               	movwf	___flmul@sign^0,c
  7602  000EE4  EF89  F007         	goto	i2l3781
  7603  000EE8                     i2l1310:
  7604  000EE8  C026  F021         	movff	___flmul@temp,___flmul@bexp
  7605  000EEC  0EFF               	movlw	255
  7606  000EEE  1622               	andwf	___flmul@prod^0,f,c
  7607  000EF0  0EFF               	movlw	255
  7608  000EF2  1623               	andwf	(___flmul@prod+1)^0,f,c
  7609  000EF4  0E7F               	movlw	127
  7610  000EF6  1624               	andwf	(___flmul@prod+2)^0,f,c
  7611  000EF8  0E00               	movlw	0
  7612  000EFA  1625               	andwf	(___flmul@prod+3)^0,f,c
  7613  000EFC  A021               	btfss	___flmul@bexp^0,0,c
  7614  000EFE  EF83  F007         	goto	i2u350_41
  7615  000F02  EF85  F007         	goto	i2u350_40
  7616  000F06                     i2u350_41:
  7617  000F06  EF86  F007         	goto	i2l3779
  7618  000F0A                     i2u350_40:
  7619  000F0A  8E24               	bsf	(___flmul@prod+2)^0,7,c
  7620  000F0C                     i2l3779:
  7621  000F0C  90D8               	bcf	status,0,c
  7622  000F0E  3021               	rrcf	___flmul@bexp^0,w,c
  7623  000F10  6E25               	movwf	(___flmul@prod+3)^0,c
  7624  000F12                     i2l3781:
  7625  000F12  501B               	movf	___flmul@sign^0,w,c
  7626  000F14  1225               	iorwf	(___flmul@prod+3)^0,f,c
  7627  000F16  C022  F00F         	movff	___flmul@prod,?___flmul
  7628  000F1A  C023  F010         	movff	___flmul@prod+1,?___flmul+1
  7629  000F1E  C024  F011         	movff	___flmul@prod+2,?___flmul+2
  7630  000F22  C025  F012         	movff	___flmul@prod+3,?___flmul+3
  7631  000F26                     i2l1297:
  7632  000F26  0012               	return		;funcret
  7633  000F28                     __end_of___flmul:
  7634                           	opt callstack 0
  7635                           
  7636 ;; *************** function ___fldiv *****************
  7637 ;; Defined at:
  7638 ;;		line 11 in file "C:\Program Files (x86)\Microchip\xc8\v2.10\pic\sources\c99\common\sprcdiv.c"
  7639 ;; Parameters:    Size  Location     Type
  7640 ;;  b               4   55[COMRAM] unsigned char 
  7641 ;;  a               4   59[COMRAM] unsigned char 
  7642 ;; Auto vars:     Size  Location     Type
  7643 ;;  grs             4   74[COMRAM] unsigned long 
  7644 ;;  rem             4   67[COMRAM] unsigned long 
  7645 ;;  new_exp         2   72[COMRAM] short 
  7646 ;;  aexp            1   79[COMRAM] unsigned char 
  7647 ;;  bexp            1   78[COMRAM] unsigned char 
  7648 ;;  sign            1   71[COMRAM] unsigned char 
  7649 ;; Return value:  Size  Location     Type
  7650 ;;                  4   55[COMRAM] unsigned char 
  7651 ;; Registers used:
  7652 ;;		wreg, status,2, status,0
  7653 ;; Tracked objects:
  7654 ;;		On entry : 0/0
  7655 ;;		On exit  : 0/0
  7656 ;;		Unchanged: 0/0
  7657 ;; Data sizes:     COMRAM   BANK0   BANK1   BANK2   BANK3   BANK4   BANK5
  7658 ;;      Params:         8       0       0       0       0       0       0
  7659 ;;      Locals:        13       0       0       0       0       0       0
  7660 ;;      Temps:          4       0       0       0       0       0       0
  7661 ;;      Totals:        25       0       0       0       0       0       0
  7662 ;;Total ram usage:       25 bytes
  7663 ;; Hardware stack levels used:    1
  7664 ;; This function calls:
  7665 ;;		Nothing
  7666 ;; This function is called by:
  7667 ;;		_ADC_temperatura
  7668 ;; This function uses a non-reentrant model
  7669 ;;
  7670                           
  7671                           	psect	text60
  7672  000F28                     __ptext60:
  7673                           	opt callstack 0
  7674  000F28                     ___fldiv:
  7675                           	opt callstack 19
  7676  000F28  503B               	movf	(___fldiv@b+3)^0,w,c
  7677  000F2A  0B80               	andlw	128
  7678  000F2C  6E48               	movwf	___fldiv@sign^0,c
  7679  000F2E  503B               	movf	(___fldiv@b+3)^0,w,c
  7680  000F30  243B               	addwf	(___fldiv@b+3)^0,w,c
  7681  000F32  6E4F               	movwf	___fldiv@bexp^0,c
  7682  000F34  AE3A               	btfss	(___fldiv@b+2)^0,7,c
  7683  000F36  EF9F  F007         	goto	i2u309_41
  7684  000F3A  EFA1  F007         	goto	i2u309_40
  7685  000F3E                     i2u309_41:
  7686  000F3E  EFA2  F007         	goto	i2l3525
  7687  000F42                     i2u309_40:
  7688  000F42  804F               	bsf	___fldiv@bexp^0,0,c
  7689  000F44                     i2l3525:
  7690  000F44  504F               	movf	___fldiv@bexp^0,w,c
  7691  000F46  B4D8               	btfsc	status,2,c
  7692  000F48  EFA8  F007         	goto	i2u310_41
  7693  000F4C  EFAA  F007         	goto	i2u310_40
  7694  000F50                     i2u310_41:
  7695  000F50  EFBF  F007         	goto	i2l3535
  7696  000F54                     i2u310_40:
  7697  000F54  284F               	incf	___fldiv@bexp^0,w,c
  7698  000F56  A4D8               	btfss	status,2,c
  7699  000F58  EFB0  F007         	goto	i2u311_41
  7700  000F5C  EFB2  F007         	goto	i2u311_40
  7701  000F60                     i2u311_41:
  7702  000F60  EFBA  F007         	goto	i2l3531
  7703  000F64                     i2u311_40:
  7704  000F64  0E00               	movlw	0
  7705  000F66  6E38               	movwf	___fldiv@b^0,c
  7706  000F68  0E00               	movlw	0
  7707  000F6A  6E39               	movwf	(___fldiv@b+1)^0,c
  7708  000F6C  0E00               	movlw	0
  7709  000F6E  6E3A               	movwf	(___fldiv@b+2)^0,c
  7710  000F70  0E00               	movlw	0
  7711  000F72  6E3B               	movwf	(___fldiv@b+3)^0,c
  7712  000F74                     i2l3531:
  7713  000F74  8E3A               	bsf	(___fldiv@b+2)^0,7,c
  7714  000F76  0E00               	movlw	0
  7715  000F78  6E3B               	movwf	(___fldiv@b+3)^0,c
  7716  000F7A  EFC7  F007         	goto	i2l3537
  7717  000F7E                     i2l3535:
  7718  000F7E  0E00               	movlw	0
  7719  000F80  6E38               	movwf	___fldiv@b^0,c
  7720  000F82  0E00               	movlw	0
  7721  000F84  6E39               	movwf	(___fldiv@b+1)^0,c
  7722  000F86  0E00               	movlw	0
  7723  000F88  6E3A               	movwf	(___fldiv@b+2)^0,c
  7724  000F8A  0E00               	movlw	0
  7725  000F8C  6E3B               	movwf	(___fldiv@b+3)^0,c
  7726  000F8E                     i2l3537:
  7727  000F8E  503F               	movf	(___fldiv@a+3)^0,w,c
  7728  000F90  0B80               	andlw	128
  7729  000F92  1A48               	xorwf	___fldiv@sign^0,f,c
  7730  000F94  503F               	movf	(___fldiv@a+3)^0,w,c
  7731  000F96  243F               	addwf	(___fldiv@a+3)^0,w,c
  7732  000F98  6E50               	movwf	___fldiv@aexp^0,c
  7733  000F9A  AE3E               	btfss	(___fldiv@a+2)^0,7,c
  7734  000F9C  EFD2  F007         	goto	i2u312_41
  7735  000FA0  EFD4  F007         	goto	i2u312_40
  7736  000FA4                     i2u312_41:
  7737  000FA4  EFD5  F007         	goto	i2l3545
  7738  000FA8                     i2u312_40:
  7739  000FA8  8050               	bsf	___fldiv@aexp^0,0,c
  7740  000FAA                     i2l3545:
  7741  000FAA  5050               	movf	___fldiv@aexp^0,w,c
  7742  000FAC  B4D8               	btfsc	status,2,c
  7743  000FAE  EFDB  F007         	goto	i2u313_41
  7744  000FB2  EFDD  F007         	goto	i2u313_40
  7745  000FB6                     i2u313_41:
  7746  000FB6  EFF2  F007         	goto	i2l3555
  7747  000FBA                     i2u313_40:
  7748  000FBA  2850               	incf	___fldiv@aexp^0,w,c
  7749  000FBC  A4D8               	btfss	status,2,c
  7750  000FBE  EFE3  F007         	goto	i2u314_41
  7751  000FC2  EFE5  F007         	goto	i2u314_40
  7752  000FC6                     i2u314_41:
  7753  000FC6  EFED  F007         	goto	i2l3551
  7754  000FCA                     i2u314_40:
  7755  000FCA  0E00               	movlw	0
  7756  000FCC  6E3C               	movwf	___fldiv@a^0,c
  7757  000FCE  0E00               	movlw	0
  7758  000FD0  6E3D               	movwf	(___fldiv@a+1)^0,c
  7759  000FD2  0E00               	movlw	0
  7760  000FD4  6E3E               	movwf	(___fldiv@a+2)^0,c
  7761  000FD6  0E00               	movlw	0
  7762  000FD8  6E3F               	movwf	(___fldiv@a+3)^0,c
  7763  000FDA                     i2l3551:
  7764  000FDA  8E3E               	bsf	(___fldiv@a+2)^0,7,c
  7765  000FDC  0E00               	movlw	0
  7766  000FDE  6E3F               	movwf	(___fldiv@a+3)^0,c
  7767  000FE0  EFFA  F007         	goto	i2l3557
  7768  000FE4                     i2l3555:
  7769  000FE4  0E00               	movlw	0
  7770  000FE6  6E3C               	movwf	___fldiv@a^0,c
  7771  000FE8  0E00               	movlw	0
  7772  000FEA  6E3D               	movwf	(___fldiv@a+1)^0,c
  7773  000FEC  0E00               	movlw	0
  7774  000FEE  6E3E               	movwf	(___fldiv@a+2)^0,c
  7775  000FF0  0E00               	movlw	0
  7776  000FF2  6E3F               	movwf	(___fldiv@a+3)^0,c
  7777  000FF4                     i2l3557:
  7778  000FF4  503C               	movf	___fldiv@a^0,w,c
  7779  000FF6  103D               	iorwf	(___fldiv@a+1)^0,w,c
  7780  000FF8  103E               	iorwf	(___fldiv@a+2)^0,w,c
  7781  000FFA  103F               	iorwf	(___fldiv@a+3)^0,w,c
  7782  000FFC  A4D8               	btfss	status,2,c
  7783  000FFE  EF03  F008         	goto	i2u315_41
  7784  001002  EF05  F008         	goto	i2u315_40
  7785  001006                     i2u315_41:
  7786  001006  EF1D  F008         	goto	i2l3569
  7787  00100A                     i2u315_40:
  7788  00100A  0E00               	movlw	0
  7789  00100C  6E38               	movwf	___fldiv@b^0,c
  7790  00100E  0E00               	movlw	0
  7791  001010  6E39               	movwf	(___fldiv@b+1)^0,c
  7792  001012  0E00               	movlw	0
  7793  001014  6E3A               	movwf	(___fldiv@b+2)^0,c
  7794  001016  0E00               	movlw	0
  7795  001018  6E3B               	movwf	(___fldiv@b+3)^0,c
  7796  00101A  0E80               	movlw	128
  7797  00101C  123A               	iorwf	(___fldiv@b+2)^0,f,c
  7798  00101E  0E7F               	movlw	127
  7799  001020  123B               	iorwf	(___fldiv@b+3)^0,f,c
  7800  001022                     i2l3563:
  7801  001022  5048               	movf	___fldiv@sign^0,w,c
  7802  001024  123B               	iorwf	(___fldiv@b+3)^0,f,c
  7803  001026  C038  F038         	movff	___fldiv@b,?___fldiv
  7804  00102A  C039  F039         	movff	___fldiv@b+1,?___fldiv+1
  7805  00102E  C03A  F03A         	movff	___fldiv@b+2,?___fldiv+2
  7806  001032  C03B  F03B         	movff	___fldiv@b+3,?___fldiv+3
  7807  001036  EF60  F009         	goto	i2l1261
  7808  00103A                     i2l3569:
  7809  00103A  504F               	movf	___fldiv@bexp^0,w,c
  7810  00103C  A4D8               	btfss	status,2,c
  7811  00103E  EF23  F008         	goto	i2u316_41
  7812  001042  EF25  F008         	goto	i2u316_40
  7813  001046                     i2u316_41:
  7814  001046  EF2F  F008         	goto	i2l3577
  7815  00104A                     i2u316_40:
  7816  00104A  0E00               	movlw	0
  7817  00104C  6E38               	movwf	?___fldiv^0,c
  7818  00104E  0E00               	movlw	0
  7819  001050  6E39               	movwf	(?___fldiv+1)^0,c
  7820  001052  0E00               	movlw	0
  7821  001054  6E3A               	movwf	(?___fldiv+2)^0,c
  7822  001056  0E00               	movlw	0
  7823  001058  6E3B               	movwf	(?___fldiv+3)^0,c
  7824  00105A  EF60  F009         	goto	i2l1261
  7825  00105E                     i2l3577:
  7826  00105E  5050               	movf	___fldiv@aexp^0,w,c
  7827  001060  C04F  F040         	movff	___fldiv@bexp,??___fldiv
  7828  001064  6A41               	clrf	(??___fldiv+1)^0,c
  7829  001066  5E40               	subwf	??___fldiv^0,f,c
  7830  001068  0E00               	movlw	0
  7831  00106A  5A41               	subwfb	(??___fldiv+1)^0,f,c
  7832  00106C  0E7F               	movlw	127
  7833  00106E  2440               	addwf	??___fldiv^0,w,c
  7834  001070  6E49               	movwf	___fldiv@new_exp^0,c
  7835  001072  0E00               	movlw	0
  7836  001074  2041               	addwfc	(??___fldiv+1)^0,w,c
  7837  001076  6E4A               	movwf	(___fldiv@new_exp+1)^0,c
  7838  001078  C038  F044         	movff	___fldiv@b,___fldiv@rem
  7839  00107C  C039  F045         	movff	___fldiv@b+1,___fldiv@rem+1
  7840  001080  C03A  F046         	movff	___fldiv@b+2,___fldiv@rem+2
  7841  001084  C03B  F047         	movff	___fldiv@b+3,___fldiv@rem+3
  7842  001088  0E00               	movlw	0
  7843  00108A  6E38               	movwf	___fldiv@b^0,c
  7844  00108C  0E00               	movlw	0
  7845  00108E  6E39               	movwf	(___fldiv@b+1)^0,c
  7846  001090  0E00               	movlw	0
  7847  001092  6E3A               	movwf	(___fldiv@b+2)^0,c
  7848  001094  0E00               	movlw	0
  7849  001096  6E3B               	movwf	(___fldiv@b+3)^0,c
  7850  001098  0E00               	movlw	0
  7851  00109A  6E4B               	movwf	___fldiv@grs^0,c
  7852  00109C  0E00               	movlw	0
  7853  00109E  6E4C               	movwf	(___fldiv@grs+1)^0,c
  7854  0010A0  0E00               	movlw	0
  7855  0010A2  6E4D               	movwf	(___fldiv@grs+2)^0,c
  7856  0010A4  0E00               	movlw	0
  7857  0010A6  6E4E               	movwf	(___fldiv@grs+3)^0,c
  7858  0010A8  0E00               	movlw	0
  7859  0010AA  6E50               	movwf	___fldiv@aexp^0,c
  7860  0010AC  EF90  F008         	goto	i2l1263
  7861  0010B0                     i2l3587:
  7862  0010B0  5050               	movf	___fldiv@aexp^0,w,c
  7863  0010B2  B4D8               	btfsc	status,2,c
  7864  0010B4  EF5E  F008         	goto	i2u317_41
  7865  0010B8  EF60  F008         	goto	i2u317_40
  7866  0010BC                     i2u317_41:
  7867  0010BC  EF77  F008         	goto	i2l3595
  7868  0010C0                     i2u317_40:
  7869  0010C0  90D8               	bcf	status,0,c
  7870  0010C2  3644               	rlcf	___fldiv@rem^0,f,c
  7871  0010C4  3645               	rlcf	(___fldiv@rem+1)^0,f,c
  7872  0010C6  3646               	rlcf	(___fldiv@rem+2)^0,f,c
  7873  0010C8  3647               	rlcf	(___fldiv@rem+3)^0,f,c
  7874  0010CA  90D8               	bcf	status,0,c
  7875  0010CC  3638               	rlcf	___fldiv@b^0,f,c
  7876  0010CE  3639               	rlcf	(___fldiv@b+1)^0,f,c
  7877  0010D0  363A               	rlcf	(___fldiv@b+2)^0,f,c
  7878  0010D2  363B               	rlcf	(___fldiv@b+3)^0,f,c
  7879  0010D4  AE4E               	btfss	(___fldiv@grs+3)^0,7,c
  7880  0010D6  EF6F  F008         	goto	i2u318_41
  7881  0010DA  EF71  F008         	goto	i2u318_40
  7882  0010DE                     i2u318_41:
  7883  0010DE  EF72  F008         	goto	i2l1266
  7884  0010E2                     i2u318_40:
  7885  0010E2  8038               	bsf	___fldiv@b^0,0,c
  7886  0010E4                     i2l1266:
  7887  0010E4  90D8               	bcf	status,0,c
  7888  0010E6  364B               	rlcf	___fldiv@grs^0,f,c
  7889  0010E8  364C               	rlcf	(___fldiv@grs+1)^0,f,c
  7890  0010EA  364D               	rlcf	(___fldiv@grs+2)^0,f,c
  7891  0010EC  364E               	rlcf	(___fldiv@grs+3)^0,f,c
  7892  0010EE                     i2l3595:
  7893  0010EE  503C               	movf	___fldiv@a^0,w,c
  7894  0010F0  5C44               	subwf	___fldiv@rem^0,w,c
  7895  0010F2  503D               	movf	(___fldiv@a+1)^0,w,c
  7896  0010F4  5845               	subwfb	(___fldiv@rem+1)^0,w,c
  7897  0010F6  503E               	movf	(___fldiv@a+2)^0,w,c
  7898  0010F8  5846               	subwfb	(___fldiv@rem+2)^0,w,c
  7899  0010FA  503F               	movf	(___fldiv@a+3)^0,w,c
  7900  0010FC  5847               	subwfb	(___fldiv@rem+3)^0,w,c
  7901  0010FE  A0D8               	btfss	status,0,c
  7902  001100  EF84  F008         	goto	i2u319_41
  7903  001104  EF86  F008         	goto	i2u319_40
  7904  001108                     i2u319_41:
  7905  001108  EF8F  F008         	goto	i2l3601
  7906  00110C                     i2u319_40:
  7907  00110C  8C4E               	bsf	(___fldiv@grs+3)^0,6,c
  7908  00110E  503C               	movf	___fldiv@a^0,w,c
  7909  001110  5E44               	subwf	___fldiv@rem^0,f,c
  7910  001112  503D               	movf	(___fldiv@a+1)^0,w,c
  7911  001114  5A45               	subwfb	(___fldiv@rem+1)^0,f,c
  7912  001116  503E               	movf	(___fldiv@a+2)^0,w,c
  7913  001118  5A46               	subwfb	(___fldiv@rem+2)^0,f,c
  7914  00111A  503F               	movf	(___fldiv@a+3)^0,w,c
  7915  00111C  5A47               	subwfb	(___fldiv@rem+3)^0,f,c
  7916  00111E                     i2l3601:
  7917  00111E  2A50               	incf	___fldiv@aexp^0,f,c
  7918  001120                     i2l1263:
  7919  001120  0E19               	movlw	25
  7920  001122  6450               	cpfsgt	___fldiv@aexp^0,c
  7921  001124  EF96  F008         	goto	i2u320_41
  7922  001128  EF98  F008         	goto	i2u320_40
  7923  00112C                     i2u320_41:
  7924  00112C  EF58  F008         	goto	i2l3587
  7925  001130                     i2u320_40:
  7926  001130  5044               	movf	___fldiv@rem^0,w,c
  7927  001132  1045               	iorwf	(___fldiv@rem+1)^0,w,c
  7928  001134  1046               	iorwf	(___fldiv@rem+2)^0,w,c
  7929  001136  1047               	iorwf	(___fldiv@rem+3)^0,w,c
  7930  001138  B4D8               	btfsc	status,2,c
  7931  00113A  EFA1  F008         	goto	i2u321_41
  7932  00113E  EFA3  F008         	goto	i2u321_40
  7933  001142                     i2u321_41:
  7934  001142  EFBB  F008         	goto	i2l3613
  7935  001146                     i2u321_40:
  7936  001146  804B               	bsf	___fldiv@grs^0,0,c
  7937  001148  EFBB  F008         	goto	i2l3613
  7938  00114C                     i2l3607:
  7939  00114C  90D8               	bcf	status,0,c
  7940  00114E  3638               	rlcf	___fldiv@b^0,f,c
  7941  001150  3639               	rlcf	(___fldiv@b+1)^0,f,c
  7942  001152  363A               	rlcf	(___fldiv@b+2)^0,f,c
  7943  001154  363B               	rlcf	(___fldiv@b+3)^0,f,c
  7944  001156  AE4E               	btfss	(___fldiv@grs+3)^0,7,c
  7945  001158  EFB0  F008         	goto	i2u322_41
  7946  00115C  EFB2  F008         	goto	i2u322_40
  7947  001160                     i2u322_41:
  7948  001160  EFB3  F008         	goto	i2l1272
  7949  001164                     i2u322_40:
  7950  001164  8038               	bsf	___fldiv@b^0,0,c
  7951  001166                     i2l1272:
  7952  001166  90D8               	bcf	status,0,c
  7953  001168  364B               	rlcf	___fldiv@grs^0,f,c
  7954  00116A  364C               	rlcf	(___fldiv@grs+1)^0,f,c
  7955  00116C  364D               	rlcf	(___fldiv@grs+2)^0,f,c
  7956  00116E  364E               	rlcf	(___fldiv@grs+3)^0,f,c
  7957  001170  0649               	decf	___fldiv@new_exp^0,f,c
  7958  001172  A0D8               	btfss	status,0,c
  7959  001174  064A               	decf	(___fldiv@new_exp+1)^0,f,c
  7960  001176                     i2l3613:
  7961  001176  AE3A               	btfss	(___fldiv@b+2)^0,7,c
  7962  001178  EFC0  F008         	goto	i2u323_41
  7963  00117C  EFC2  F008         	goto	i2u323_40
  7964  001180                     i2u323_41:
  7965  001180  EFA6  F008         	goto	i2l3607
  7966  001184                     i2u323_40:
  7967  001184  0E00               	movlw	0
  7968  001186  6E50               	movwf	___fldiv@aexp^0,c
  7969  001188  AE4E               	btfss	(___fldiv@grs+3)^0,7,c
  7970  00118A  EFC9  F008         	goto	i2u324_41
  7971  00118E  EFCB  F008         	goto	i2u324_40
  7972  001192                     i2u324_41:
  7973  001192  EFEF  F008         	goto	i2l1274
  7974  001196                     i2u324_40:
  7975  001196  0EFF               	movlw	255
  7976  001198  144B               	andwf	___fldiv@grs^0,w,c
  7977  00119A  6E40               	movwf	??___fldiv^0,c
  7978  00119C  0EFF               	movlw	255
  7979  00119E  144C               	andwf	(___fldiv@grs+1)^0,w,c
  7980  0011A0  6E41               	movwf	(??___fldiv+1)^0,c
  7981  0011A2  0EFF               	movlw	255
  7982  0011A4  144D               	andwf	(___fldiv@grs+2)^0,w,c
  7983  0011A6  6E42               	movwf	(??___fldiv+2)^0,c
  7984  0011A8  0E7F               	movlw	127
  7985  0011AA  144E               	andwf	(___fldiv@grs+3)^0,w,c
  7986  0011AC  6E43               	movwf	(??___fldiv+3)^0,c
  7987  0011AE  5040               	movf	??___fldiv^0,w,c
  7988  0011B0  1041               	iorwf	(??___fldiv+1)^0,w,c
  7989  0011B2  1042               	iorwf	(??___fldiv+2)^0,w,c
  7990  0011B4  1043               	iorwf	(??___fldiv+3)^0,w,c
  7991  0011B6  B4D8               	btfsc	status,2,c
  7992  0011B8  EFE0  F008         	goto	i2u325_41
  7993  0011BC  EFE2  F008         	goto	i2u325_40
  7994  0011C0                     i2u325_41:
  7995  0011C0  EFE6  F008         	goto	i2l1275
  7996  0011C4                     i2u325_40:
  7997  0011C4                     i2l3621:
  7998  0011C4  0E01               	movlw	1
  7999  0011C6  6E50               	movwf	___fldiv@aexp^0,c
  8000  0011C8  EFEF  F008         	goto	i2l1274
  8001  0011CC                     i2l1275:
  8002  0011CC  A038               	btfss	___fldiv@b^0,0,c
  8003  0011CE  EFEB  F008         	goto	i2u326_41
  8004  0011D2  EFED  F008         	goto	i2u326_40
  8005  0011D6                     i2u326_41:
  8006  0011D6  EFEF  F008         	goto	i2l1274
  8007  0011DA                     i2u326_40:
  8008  0011DA  EFE2  F008         	goto	i2l3621
  8009  0011DE                     i2l1274:
  8010  0011DE  5050               	movf	___fldiv@aexp^0,w,c
  8011  0011E0  B4D8               	btfsc	status,2,c
  8012  0011E2  EFF5  F008         	goto	i2u327_41
  8013  0011E6  EFF7  F008         	goto	i2u327_40
  8014  0011EA                     i2u327_41:
  8015  0011EA  EF1B  F009         	goto	i2l3633
  8016  0011EE                     i2u327_40:
  8017  0011EE  0E01               	movlw	1
  8018  0011F0  2638               	addwf	___fldiv@b^0,f,c
  8019  0011F2  0E00               	movlw	0
  8020  0011F4  2239               	addwfc	(___fldiv@b+1)^0,f,c
  8021  0011F6  223A               	addwfc	(___fldiv@b+2)^0,f,c
  8022  0011F8  223B               	addwfc	(___fldiv@b+3)^0,f,c
  8023  0011FA  A03B               	btfss	(___fldiv@b+3)^0,0,c
  8024  0011FC  EF02  F009         	goto	i2u328_41
  8025  001200  EF04  F009         	goto	i2u328_40
  8026  001204                     i2u328_41:
  8027  001204  EF1B  F009         	goto	i2l3633
  8028  001208                     i2u328_40:
  8029  001208  C038  F040         	movff	___fldiv@b,??___fldiv
  8030  00120C  C039  F041         	movff	___fldiv@b+1,??___fldiv+1
  8031  001210  C03A  F042         	movff	___fldiv@b+2,??___fldiv+2
  8032  001214  C03B  F043         	movff	___fldiv@b+3,??___fldiv+3
  8033  001218  3443               	rlcf	(??___fldiv+3)^0,w,c
  8034  00121A  3243               	rrcf	(??___fldiv+3)^0,f,c
  8035  00121C  3242               	rrcf	(??___fldiv+2)^0,f,c
  8036  00121E  3241               	rrcf	(??___fldiv+1)^0,f,c
  8037  001220  3240               	rrcf	??___fldiv^0,f,c
  8038  001222  C040  F038         	movff	??___fldiv,___fldiv@b
  8039  001226  C041  F039         	movff	??___fldiv+1,___fldiv@b+1
  8040  00122A  C042  F03A         	movff	??___fldiv+2,___fldiv@b+2
  8041  00122E  C043  F03B         	movff	??___fldiv+3,___fldiv@b+3
  8042  001232  4A49               	infsnz	___fldiv@new_exp^0,f,c
  8043  001234  2A4A               	incf	(___fldiv@new_exp+1)^0,f,c
  8044  001236                     i2l3633:
  8045  001236  BE4A               	btfsc	(___fldiv@new_exp+1)^0,7,c
  8046  001238  EF26  F009         	goto	i2u329_41
  8047  00123C  504A               	movf	(___fldiv@new_exp+1)^0,w,c
  8048  00123E  E108               	bnz	i2u329_40
  8049  001240  2849               	incf	___fldiv@new_exp^0,w,c
  8050  001242  A0D8               	btfss	status,0,c
  8051  001244  EF26  F009         	goto	i2u329_41
  8052  001248  EF28  F009         	goto	i2u329_40
  8053  00124C                     i2u329_41:
  8054  00124C  EF33  F009         	goto	i2l3637
  8055  001250                     i2u329_40:
  8056  001250  0E00               	movlw	0
  8057  001252  6E4A               	movwf	(___fldiv@new_exp+1)^0,c
  8058  001254  6849               	setf	___fldiv@new_exp^0,c
  8059  001256  0E00               	movlw	0
  8060  001258  6E38               	movwf	___fldiv@b^0,c
  8061  00125A  0E00               	movlw	0
  8062  00125C  6E39               	movwf	(___fldiv@b+1)^0,c
  8063  00125E  0E00               	movlw	0
  8064  001260  6E3A               	movwf	(___fldiv@b+2)^0,c
  8065  001262  0E00               	movlw	0
  8066  001264  6E3B               	movwf	(___fldiv@b+3)^0,c
  8067  001266                     i2l3637:
  8068  001266  BE4A               	btfsc	(___fldiv@new_exp+1)^0,7,c
  8069  001268  EF40  F009         	goto	i2u330_40
  8070  00126C  504A               	movf	(___fldiv@new_exp+1)^0,w,c
  8071  00126E  E106               	bnz	i2u330_41
  8072  001270  0449               	decf	___fldiv@new_exp^0,w,c
  8073  001272  B0D8               	btfsc	status,0,c
  8074  001274  EF3E  F009         	goto	i2u330_41
  8075  001278  EF40  F009         	goto	i2u330_40
  8076  00127C                     i2u330_41:
  8077  00127C  EF4E  F009         	goto	i2l3641
  8078  001280                     i2u330_40:
  8079  001280  0E00               	movlw	0
  8080  001282  6E4A               	movwf	(___fldiv@new_exp+1)^0,c
  8081  001284  0E00               	movlw	0
  8082  001286  6E49               	movwf	___fldiv@new_exp^0,c
  8083  001288  0E00               	movlw	0
  8084  00128A  6E38               	movwf	___fldiv@b^0,c
  8085  00128C  0E00               	movlw	0
  8086  00128E  6E39               	movwf	(___fldiv@b+1)^0,c
  8087  001290  0E00               	movlw	0
  8088  001292  6E3A               	movwf	(___fldiv@b+2)^0,c
  8089  001294  0E00               	movlw	0
  8090  001296  6E3B               	movwf	(___fldiv@b+3)^0,c
  8091  001298  0E00               	movlw	0
  8092  00129A  6E48               	movwf	___fldiv@sign^0,c
  8093  00129C                     i2l3641:
  8094  00129C  C049  F04F         	movff	___fldiv@new_exp,___fldiv@bexp
  8095  0012A0  A04F               	btfss	___fldiv@bexp^0,0,c
  8096  0012A2  EF55  F009         	goto	i2u331_41
  8097  0012A6  EF57  F009         	goto	i2u331_40
  8098  0012AA                     i2u331_41:
  8099  0012AA  EF5A  F009         	goto	i2l3647
  8100  0012AE                     i2u331_40:
  8101  0012AE  8E3A               	bsf	(___fldiv@b+2)^0,7,c
  8102  0012B0  EF5B  F009         	goto	i2l3649
  8103  0012B4                     i2l3647:
  8104  0012B4  9E3A               	bcf	(___fldiv@b+2)^0,7,c
  8105  0012B6                     i2l3649:
  8106  0012B6  90D8               	bcf	status,0,c
  8107  0012B8  304F               	rrcf	___fldiv@bexp^0,w,c
  8108  0012BA  6E3B               	movwf	(___fldiv@b+3)^0,c
  8109  0012BC  EF11  F008         	goto	i2l3563
  8110  0012C0                     i2l1261:
  8111  0012C0  0012               	return		;funcret
  8112  0012C2                     __end_of___fldiv:
  8113                           	opt callstack 0
  8114                           
  8115 ;; *************** function ___fladd *****************
  8116 ;; Defined at:
  8117 ;;		line 10 in file "C:\Program Files (x86)\Microchip\xc8\v2.10\pic\sources\c99\common\sprcadd.c"
  8118 ;; Parameters:    Size  Location     Type
  8119 ;;  b               4   39[COMRAM] unsigned char 
  8120 ;;  a               4   43[COMRAM] unsigned char 
  8121 ;; Auto vars:     Size  Location     Type
  8122 ;;  grs             1   54[COMRAM] unsigned char 
  8123 ;;  bexp            1   53[COMRAM] unsigned char 
  8124 ;;  aexp            1   52[COMRAM] unsigned char 
  8125 ;;  signs           1   51[COMRAM] unsigned char 
  8126 ;; Return value:  Size  Location     Type
  8127 ;;                  4   39[COMRAM] unsigned char 
  8128 ;; Registers used:
  8129 ;;		wreg, status,2, status,0
  8130 ;; Tracked objects:
  8131 ;;		On entry : 0/0
  8132 ;;		On exit  : 0/0
  8133 ;;		Unchanged: 0/0
  8134 ;; Data sizes:     COMRAM   BANK0   BANK1   BANK2   BANK3   BANK4   BANK5
  8135 ;;      Params:         8       0       0       0       0       0       0
  8136 ;;      Locals:         4       0       0       0       0       0       0
  8137 ;;      Temps:          4       0       0       0       0       0       0
  8138 ;;      Totals:        16       0       0       0       0       0       0
  8139 ;;Total ram usage:       16 bytes
  8140 ;; Hardware stack levels used:    1
  8141 ;; This function calls:
  8142 ;;		Nothing
  8143 ;; This function is called by:
  8144 ;;		_ADC_temperatura
  8145 ;; This function uses a non-reentrant model
  8146 ;;
  8147                           
  8148                           	psect	text61
  8149  00063E                     __ptext61:
  8150                           	opt callstack 0
  8151  00063E                     ___fladd:
  8152                           	opt callstack 19
  8153  00063E  502B               	movf	(___fladd@b+3)^0,w,c
  8154  000640  0B80               	andlw	128
  8155  000642  6E34               	movwf	___fladd@signs^0,c
  8156  000644  502B               	movf	(___fladd@b+3)^0,w,c
  8157  000646  242B               	addwf	(___fladd@b+3)^0,w,c
  8158  000648  6E36               	movwf	___fladd@bexp^0,c
  8159  00064A  AE2A               	btfss	(___fladd@b+2)^0,7,c
  8160  00064C  EF2A  F003         	goto	i2u270_41
  8161  000650  EF2C  F003         	goto	i2u270_40
  8162  000654                     i2u270_41:
  8163  000654  EF2D  F003         	goto	i2l3323
  8164  000658                     i2u270_40:
  8165  000658  8036               	bsf	___fladd@bexp^0,0,c
  8166  00065A                     i2l3323:
  8167  00065A  5036               	movf	___fladd@bexp^0,w,c
  8168  00065C  B4D8               	btfsc	status,2,c
  8169  00065E  EF33  F003         	goto	i2u271_41
  8170  000662  EF35  F003         	goto	i2u271_40
  8171  000666                     i2u271_41:
  8172  000666  EF4A  F003         	goto	i2l3333
  8173  00066A                     i2u271_40:
  8174  00066A  2836               	incf	___fladd@bexp^0,w,c
  8175  00066C  A4D8               	btfss	status,2,c
  8176  00066E  EF3B  F003         	goto	i2u272_41
  8177  000672  EF3D  F003         	goto	i2u272_40
  8178  000676                     i2u272_41:
  8179  000676  EF45  F003         	goto	i2l3329
  8180  00067A                     i2u272_40:
  8181  00067A  0E00               	movlw	0
  8182  00067C  6E28               	movwf	___fladd@b^0,c
  8183  00067E  0E00               	movlw	0
  8184  000680  6E29               	movwf	(___fladd@b+1)^0,c
  8185  000682  0E00               	movlw	0
  8186  000684  6E2A               	movwf	(___fladd@b+2)^0,c
  8187  000686  0E00               	movlw	0
  8188  000688  6E2B               	movwf	(___fladd@b+3)^0,c
  8189  00068A                     i2l3329:
  8190  00068A  8E2A               	bsf	(___fladd@b+2)^0,7,c
  8191  00068C  0E00               	movlw	0
  8192  00068E  6E2B               	movwf	(___fladd@b+3)^0,c
  8193  000690  EF52  F003         	goto	i2l3335
  8194  000694                     i2l3333:
  8195  000694  0E00               	movlw	0
  8196  000696  6E28               	movwf	___fladd@b^0,c
  8197  000698  0E00               	movlw	0
  8198  00069A  6E29               	movwf	(___fladd@b+1)^0,c
  8199  00069C  0E00               	movlw	0
  8200  00069E  6E2A               	movwf	(___fladd@b+2)^0,c
  8201  0006A0  0E00               	movlw	0
  8202  0006A2  6E2B               	movwf	(___fladd@b+3)^0,c
  8203  0006A4                     i2l3335:
  8204  0006A4  502F               	movf	(___fladd@a+3)^0,w,c
  8205  0006A6  0B80               	andlw	128
  8206  0006A8  6E35               	movwf	___fladd@aexp^0,c
  8207  0006AA  5034               	movf	___fladd@signs^0,w,c
  8208  0006AC  1835               	xorwf	___fladd@aexp^0,w,c
  8209  0006AE  B4D8               	btfsc	status,2,c
  8210  0006B0  EF5C  F003         	goto	i2u273_41
  8211  0006B4  EF5E  F003         	goto	i2u273_40
  8212  0006B8                     i2u273_41:
  8213  0006B8  EF5F  F003         	goto	i2l3341
  8214  0006BC                     i2u273_40:
  8215  0006BC  8C34               	bsf	___fladd@signs^0,6,c
  8216  0006BE                     i2l3341:
  8217  0006BE  502F               	movf	(___fladd@a+3)^0,w,c
  8218  0006C0  242F               	addwf	(___fladd@a+3)^0,w,c
  8219  0006C2  6E35               	movwf	___fladd@aexp^0,c
  8220  0006C4  AE2E               	btfss	(___fladd@a+2)^0,7,c
  8221  0006C6  EF67  F003         	goto	i2u274_41
  8222  0006CA  EF69  F003         	goto	i2u274_40
  8223  0006CE                     i2u274_41:
  8224  0006CE  EF6A  F003         	goto	i2l3347
  8225  0006D2                     i2u274_40:
  8226  0006D2  8035               	bsf	___fladd@aexp^0,0,c
  8227  0006D4                     i2l3347:
  8228  0006D4  5035               	movf	___fladd@aexp^0,w,c
  8229  0006D6  B4D8               	btfsc	status,2,c
  8230  0006D8  EF70  F003         	goto	i2u275_41
  8231  0006DC  EF72  F003         	goto	i2u275_40
  8232  0006E0                     i2u275_41:
  8233  0006E0  EF87  F003         	goto	i2l3357
  8234  0006E4                     i2u275_40:
  8235  0006E4  2835               	incf	___fladd@aexp^0,w,c
  8236  0006E6  A4D8               	btfss	status,2,c
  8237  0006E8  EF78  F003         	goto	i2u276_41
  8238  0006EC  EF7A  F003         	goto	i2u276_40
  8239  0006F0                     i2u276_41:
  8240  0006F0  EF82  F003         	goto	i2l3353
  8241  0006F4                     i2u276_40:
  8242  0006F4  0E00               	movlw	0
  8243  0006F6  6E2C               	movwf	___fladd@a^0,c
  8244  0006F8  0E00               	movlw	0
  8245  0006FA  6E2D               	movwf	(___fladd@a+1)^0,c
  8246  0006FC  0E00               	movlw	0
  8247  0006FE  6E2E               	movwf	(___fladd@a+2)^0,c
  8248  000700  0E00               	movlw	0
  8249  000702  6E2F               	movwf	(___fladd@a+3)^0,c
  8250  000704                     i2l3353:
  8251  000704  8E2E               	bsf	(___fladd@a+2)^0,7,c
  8252  000706  0E00               	movlw	0
  8253  000708  6E2F               	movwf	(___fladd@a+3)^0,c
  8254  00070A  EF8F  F003         	goto	i2l3359
  8255  00070E                     i2l3357:
  8256  00070E  0E00               	movlw	0
  8257  000710  6E2C               	movwf	___fladd@a^0,c
  8258  000712  0E00               	movlw	0
  8259  000714  6E2D               	movwf	(___fladd@a+1)^0,c
  8260  000716  0E00               	movlw	0
  8261  000718  6E2E               	movwf	(___fladd@a+2)^0,c
  8262  00071A  0E00               	movlw	0
  8263  00071C  6E2F               	movwf	(___fladd@a+3)^0,c
  8264  00071E                     i2l3359:
  8265  00071E  5036               	movf	___fladd@bexp^0,w,c
  8266  000720  5C35               	subwf	___fladd@aexp^0,w,c
  8267  000722  B0D8               	btfsc	status,0,c
  8268  000724  EF96  F003         	goto	i2u277_41
  8269  000728  EF98  F003         	goto	i2u277_40
  8270  00072C                     i2u277_41:
  8271  00072C  EFBF  F003         	goto	i2l3395
  8272  000730                     i2u277_40:
  8273  000730  AC34               	btfss	___fladd@signs^0,6,c
  8274  000732  EF9D  F003         	goto	i2u278_41
  8275  000736  EF9F  F003         	goto	i2u278_40
  8276  00073A                     i2u278_41:
  8277  00073A  EFA1  F003         	goto	i2l3365
  8278  00073E                     i2u278_40:
  8279  00073E  0E80               	movlw	128
  8280  000740  1A34               	xorwf	___fladd@signs^0,f,c
  8281  000742                     i2l3365:
  8282  000742  C036  F037         	movff	___fladd@bexp,___fladd@grs
  8283  000746  C035  F036         	movff	___fladd@aexp,___fladd@bexp
  8284  00074A  C037  F035         	movff	___fladd@grs,___fladd@aexp
  8285  00074E  C028  F037         	movff	___fladd@b,___fladd@grs
  8286  000752  C02C  F028         	movff	___fladd@a,___fladd@b
  8287  000756  C037  F02C         	movff	___fladd@grs,___fladd@a
  8288  00075A  C029  F037         	movff	___fladd@b+1,___fladd@grs
  8289  00075E  C02D  F029         	movff	___fladd@a+1,___fladd@b+1
  8290  000762  C037  F02D         	movff	___fladd@grs,___fladd@a+1
  8291  000766  C02A  F037         	movff	___fladd@b+2,___fladd@grs
  8292  00076A  C02E  F02A         	movff	___fladd@a+2,___fladd@b+2
  8293  00076E  C037  F02E         	movff	___fladd@grs,___fladd@a+2
  8294  000772  C02B  F037         	movff	___fladd@b+3,___fladd@grs
  8295  000776  C02F  F02B         	movff	___fladd@a+3,___fladd@b+3
  8296  00077A  C037  F02F         	movff	___fladd@grs,___fladd@a+3
  8297  00077E                     i2l3395:
  8298  00077E  0E00               	movlw	0
  8299  000780  6E37               	movwf	___fladd@grs^0,c
  8300  000782  5036               	movf	___fladd@bexp^0,w,c
  8301  000784  C035  F030         	movff	___fladd@aexp,??___fladd
  8302  000788  6A31               	clrf	(??___fladd+1)^0,c
  8303  00078A  5E30               	subwf	??___fladd^0,f,c
  8304  00078C  0E00               	movlw	0
  8305  00078E  5A31               	subwfb	(??___fladd+1)^0,f,c
  8306  000790  BE31               	btfsc	(??___fladd+1)^0,7,c
  8307  000792  EFD4  F003         	goto	i2u279_41
  8308  000796  5031               	movf	(??___fladd+1)^0,w,c
  8309  000798  E109               	bnz	i2u279_40
  8310  00079A  0E1A               	movlw	26
  8311  00079C  5C30               	subwf	??___fladd^0,w,c
  8312  00079E  A0D8               	btfss	status,0,c
  8313  0007A0  EFD4  F003         	goto	i2u279_41
  8314  0007A4  EFD6  F003         	goto	i2u279_40
  8315  0007A8                     i2u279_41:
  8316  0007A8  EF0D  F004         	goto	i2l1208
  8317  0007AC                     i2u279_40:
  8318  0007AC  5028               	movf	___fladd@b^0,w,c
  8319  0007AE  1029               	iorwf	(___fladd@b+1)^0,w,c
  8320  0007B0  102A               	iorwf	(___fladd@b+2)^0,w,c
  8321  0007B2  102B               	iorwf	(___fladd@b+3)^0,w,c
  8322  0007B4  A4D8               	btfss	status,2,c
  8323  0007B6  EFDF  F003         	goto	i2u280_41
  8324  0007BA  EFE2  F003         	goto	i2u280_40
  8325  0007BE                     i2u280_41:
  8326  0007BE  0E01               	movlw	1
  8327  0007C0  EFE3  F003         	goto	i2u281_40
  8328  0007C4                     i2u280_40:
  8329  0007C4  0E00               	movlw	0
  8330  0007C6                     i2u281_40:
  8331  0007C6  6E37               	movwf	___fladd@grs^0,c
  8332  0007C8  0E00               	movlw	0
  8333  0007CA  6E28               	movwf	___fladd@b^0,c
  8334  0007CC  0E00               	movlw	0
  8335  0007CE  6E29               	movwf	(___fladd@b+1)^0,c
  8336  0007D0  0E00               	movlw	0
  8337  0007D2  6E2A               	movwf	(___fladd@b+2)^0,c
  8338  0007D4  0E00               	movlw	0
  8339  0007D6  6E2B               	movwf	(___fladd@b+3)^0,c
  8340  0007D8  C035  F036         	movff	___fladd@aexp,___fladd@bexp
  8341  0007DC  EF16  F004         	goto	i2l1207
  8342  0007E0                     i2l1209:
  8343  0007E0  A037               	btfss	___fladd@grs^0,0,c
  8344  0007E2  EFF5  F003         	goto	i2u282_41
  8345  0007E6  EFF7  F003         	goto	i2u282_40
  8346  0007EA                     i2u282_41:
  8347  0007EA  EFFD  F003         	goto	i2l3407
  8348  0007EE                     i2u282_40:
  8349  0007EE  90D8               	bcf	status,0,c
  8350  0007F0  3037               	rrcf	___fladd@grs^0,w,c
  8351  0007F2  0901               	iorlw	1
  8352  0007F4  6E37               	movwf	___fladd@grs^0,c
  8353  0007F6  EFFF  F003         	goto	i2l3409
  8354  0007FA                     i2l3407:
  8355  0007FA  90D8               	bcf	status,0,c
  8356  0007FC  3237               	rrcf	___fladd@grs^0,f,c
  8357  0007FE                     i2l3409:
  8358  0007FE  A028               	btfss	___fladd@b^0,0,c
  8359  000800  EF04  F004         	goto	i2u283_41
  8360  000804  EF06  F004         	goto	i2u283_40
  8361  000808                     i2u283_41:
  8362  000808  EF07  F004         	goto	i2l3413
  8363  00080C                     i2u283_40:
  8364  00080C  8E37               	bsf	___fladd@grs^0,7,c
  8365  00080E                     i2l3413:
  8366  00080E  342B               	rlcf	(___fladd@b+3)^0,w,c
  8367  000810  322B               	rrcf	(___fladd@b+3)^0,f,c
  8368  000812  322A               	rrcf	(___fladd@b+2)^0,f,c
  8369  000814  3229               	rrcf	(___fladd@b+1)^0,f,c
  8370  000816  3228               	rrcf	___fladd@b^0,f,c
  8371  000818  2A36               	incf	___fladd@bexp^0,f,c
  8372  00081A                     i2l1208:
  8373  00081A  5035               	movf	___fladd@aexp^0,w,c
  8374  00081C  5C36               	subwf	___fladd@bexp^0,w,c
  8375  00081E  A0D8               	btfss	status,0,c
  8376  000820  EF14  F004         	goto	i2u284_41
  8377  000824  EF16  F004         	goto	i2u284_40
  8378  000828                     i2u284_41:
  8379  000828  EFF0  F003         	goto	i2l1209
  8380  00082C                     i2u284_40:
  8381  00082C                     i2l1207:
  8382  00082C  BC34               	btfsc	___fladd@signs^0,6,c
  8383  00082E  EF1B  F004         	goto	i2u285_41
  8384  000832  EF1D  F004         	goto	i2u285_40
  8385  000836                     i2u285_41:
  8386  000836  EF5D  F004         	goto	i2l3441
  8387  00083A                     i2u285_40:
  8388  00083A  5036               	movf	___fladd@bexp^0,w,c
  8389  00083C  A4D8               	btfss	status,2,c
  8390  00083E  EF23  F004         	goto	i2u286_41
  8391  000842  EF25  F004         	goto	i2u286_40
  8392  000846                     i2u286_41:
  8393  000846  EF2F  F004         	goto	i2l3423
  8394  00084A                     i2u286_40:
  8395  00084A  0E00               	movlw	0
  8396  00084C  6E28               	movwf	?___fladd^0,c
  8397  00084E  0E00               	movlw	0
  8398  000850  6E29               	movwf	(?___fladd+1)^0,c
  8399  000852  0E00               	movlw	0
  8400  000854  6E2A               	movwf	(?___fladd+2)^0,c
  8401  000856  0E00               	movlw	0
  8402  000858  6E2B               	movwf	(?___fladd+3)^0,c
  8403  00085A  EF7E  F005         	goto	i2l1216
  8404  00085E                     i2l3423:
  8405  00085E  502C               	movf	___fladd@a^0,w,c
  8406  000860  2628               	addwf	___fladd@b^0,f,c
  8407  000862  502D               	movf	(___fladd@a+1)^0,w,c
  8408  000864  2229               	addwfc	(___fladd@b+1)^0,f,c
  8409  000866  502E               	movf	(___fladd@a+2)^0,w,c
  8410  000868  222A               	addwfc	(___fladd@b+2)^0,f,c
  8411  00086A  502F               	movf	(___fladd@a+3)^0,w,c
  8412  00086C  222B               	addwfc	(___fladd@b+3)^0,f,c
  8413  00086E  A02B               	btfss	(___fladd@b+3)^0,0,c
  8414  000870  EF3C  F004         	goto	i2u287_41
  8415  000874  EF3E  F004         	goto	i2u287_40
  8416  000878                     i2u287_41:
  8417  000878  EFEA  F004         	goto	i2l3477
  8418  00087C                     i2u287_40:
  8419  00087C  A037               	btfss	___fladd@grs^0,0,c
  8420  00087E  EF43  F004         	goto	i2u288_41
  8421  000882  EF45  F004         	goto	i2u288_40
  8422  000886                     i2u288_41:
  8423  000886  EF4B  F004         	goto	i2l3431
  8424  00088A                     i2u288_40:
  8425  00088A  90D8               	bcf	status,0,c
  8426  00088C  3037               	rrcf	___fladd@grs^0,w,c
  8427  00088E  0901               	iorlw	1
  8428  000890  6E37               	movwf	___fladd@grs^0,c
  8429  000892  EF4D  F004         	goto	i2l3433
  8430  000896                     i2l3431:
  8431  000896  90D8               	bcf	status,0,c
  8432  000898  3237               	rrcf	___fladd@grs^0,f,c
  8433  00089A                     i2l3433:
  8434  00089A  A028               	btfss	___fladd@b^0,0,c
  8435  00089C  EF52  F004         	goto	i2u289_41
  8436  0008A0  EF54  F004         	goto	i2u289_40
  8437  0008A4                     i2u289_41:
  8438  0008A4  EF55  F004         	goto	i2l3437
  8439  0008A8                     i2u289_40:
  8440  0008A8  8E37               	bsf	___fladd@grs^0,7,c
  8441  0008AA                     i2l3437:
  8442  0008AA  342B               	rlcf	(___fladd@b+3)^0,w,c
  8443  0008AC  322B               	rrcf	(___fladd@b+3)^0,f,c
  8444  0008AE  322A               	rrcf	(___fladd@b+2)^0,f,c
  8445  0008B0  3229               	rrcf	(___fladd@b+1)^0,f,c
  8446  0008B2  3228               	rrcf	___fladd@b^0,f,c
  8447  0008B4  2A36               	incf	___fladd@bexp^0,f,c
  8448  0008B6  EFEA  F004         	goto	i2l3477
  8449  0008BA                     i2l3441:
  8450  0008BA  502C               	movf	___fladd@a^0,w,c
  8451  0008BC  5C28               	subwf	___fladd@b^0,w,c
  8452  0008BE  502D               	movf	(___fladd@a+1)^0,w,c
  8453  0008C0  5829               	subwfb	(___fladd@b+1)^0,w,c
  8454  0008C2  502E               	movf	(___fladd@a+2)^0,w,c
  8455  0008C4  582A               	subwfb	(___fladd@b+2)^0,w,c
  8456  0008C6  502B               	movf	(___fladd@b+3)^0,w,c
  8457  0008C8  0A80               	xorlw	128
  8458  0008CA  6E30               	movwf	??___fladd^0,c
  8459  0008CC  502F               	movf	(___fladd@a+3)^0,w,c
  8460  0008CE  0A80               	xorlw	128
  8461  0008D0  5830               	subwfb	??___fladd^0,w,c
  8462  0008D2  B0D8               	btfsc	status,0,c
  8463  0008D4  EF6E  F004         	goto	i2u290_41
  8464  0008D8  EF70  F004         	goto	i2u290_40
  8465  0008DC                     i2u290_41:
  8466  0008DC  EF9B  F004         	goto	i2l3451
  8467  0008E0                     i2u290_40:
  8468  0008E0  5028               	movf	___fladd@b^0,w,c
  8469  0008E2  5C2C               	subwf	___fladd@a^0,w,c
  8470  0008E4  6E30               	movwf	??___fladd^0,c
  8471  0008E6  5029               	movf	(___fladd@b+1)^0,w,c
  8472  0008E8  582D               	subwfb	(___fladd@a+1)^0,w,c
  8473  0008EA  6E31               	movwf	(??___fladd+1)^0,c
  8474  0008EC  502A               	movf	(___fladd@b+2)^0,w,c
  8475  0008EE  582E               	subwfb	(___fladd@a+2)^0,w,c
  8476  0008F0  6E32               	movwf	(??___fladd+2)^0,c
  8477  0008F2  502B               	movf	(___fladd@b+3)^0,w,c
  8478  0008F4  582F               	subwfb	(___fladd@a+3)^0,w,c
  8479  0008F6  6E33               	movwf	(??___fladd+3)^0,c
  8480  0008F8  0EFF               	movlw	255
  8481  0008FA  2430               	addwf	??___fladd^0,w,c
  8482  0008FC  6E28               	movwf	___fladd@b^0,c
  8483  0008FE  0EFF               	movlw	255
  8484  000900  2031               	addwfc	(??___fladd+1)^0,w,c
  8485  000902  6E29               	movwf	(___fladd@b+1)^0,c
  8486  000904  0EFF               	movlw	255
  8487  000906  2032               	addwfc	(??___fladd+2)^0,w,c
  8488  000908  6E2A               	movwf	(___fladd@b+2)^0,c
  8489  00090A  0EFF               	movlw	255
  8490  00090C  2033               	addwfc	(??___fladd+3)^0,w,c
  8491  00090E  6E2B               	movwf	(___fladd@b+3)^0,c
  8492  000910  0E80               	movlw	128
  8493  000912  1A34               	xorwf	___fladd@signs^0,f,c
  8494  000914  6C37               	negf	___fladd@grs^0,c
  8495  000916  5037               	movf	___fladd@grs^0,w,c
  8496  000918  A4D8               	btfss	status,2,c
  8497  00091A  EF91  F004         	goto	i2u291_41
  8498  00091E  EF93  F004         	goto	i2u291_40
  8499  000922                     i2u291_41:
  8500  000922  EFA3  F004         	goto	i2l1224
  8501  000926                     i2u291_40:
  8502  000926  0E01               	movlw	1
  8503  000928  2628               	addwf	___fladd@b^0,f,c
  8504  00092A  0E00               	movlw	0
  8505  00092C  2229               	addwfc	(___fladd@b+1)^0,f,c
  8506  00092E  222A               	addwfc	(___fladd@b+2)^0,f,c
  8507  000930  222B               	addwfc	(___fladd@b+3)^0,f,c
  8508  000932  EFA3  F004         	goto	i2l1224
  8509  000936                     i2l3451:
  8510  000936  502C               	movf	___fladd@a^0,w,c
  8511  000938  5E28               	subwf	___fladd@b^0,f,c
  8512  00093A  502D               	movf	(___fladd@a+1)^0,w,c
  8513  00093C  5A29               	subwfb	(___fladd@b+1)^0,f,c
  8514  00093E  502E               	movf	(___fladd@a+2)^0,w,c
  8515  000940  5A2A               	subwfb	(___fladd@b+2)^0,f,c
  8516  000942  502F               	movf	(___fladd@a+3)^0,w,c
  8517  000944  5A2B               	subwfb	(___fladd@b+3)^0,f,c
  8518  000946                     i2l1224:
  8519  000946  5028               	movf	___fladd@b^0,w,c
  8520  000948  1029               	iorwf	(___fladd@b+1)^0,w,c
  8521  00094A  102A               	iorwf	(___fladd@b+2)^0,w,c
  8522  00094C  102B               	iorwf	(___fladd@b+3)^0,w,c
  8523  00094E  A4D8               	btfss	status,2,c
  8524  000950  EFAC  F004         	goto	i2u292_41
  8525  000954  EFAE  F004         	goto	i2u292_40
  8526  000958                     i2u292_41:
  8527  000958  EFE3  F004         	goto	i2l3475
  8528  00095C                     i2u292_40:
  8529  00095C  5037               	movf	___fladd@grs^0,w,c
  8530  00095E  A4D8               	btfss	status,2,c
  8531  000960  EFB4  F004         	goto	i2u293_41
  8532  000964  EFB6  F004         	goto	i2u293_40
  8533  000968                     i2u293_41:
  8534  000968  EFE3  F004         	goto	i2l3475
  8535  00096C                     i2u293_40:
  8536  00096C  0E00               	movlw	0
  8537  00096E  6E28               	movwf	?___fladd^0,c
  8538  000970  0E00               	movlw	0
  8539  000972  6E29               	movwf	(?___fladd+1)^0,c
  8540  000974  0E00               	movlw	0
  8541  000976  6E2A               	movwf	(?___fladd+2)^0,c
  8542  000978  0E00               	movlw	0
  8543  00097A  6E2B               	movwf	(?___fladd+3)^0,c
  8544  00097C  EF7E  F005         	goto	i2l1216
  8545  000980                     i2l3459:
  8546  000980  90D8               	bcf	status,0,c
  8547  000982  3628               	rlcf	___fladd@b^0,f,c
  8548  000984  3629               	rlcf	(___fladd@b+1)^0,f,c
  8549  000986  362A               	rlcf	(___fladd@b+2)^0,f,c
  8550  000988  362B               	rlcf	(___fladd@b+3)^0,f,c
  8551  00098A  AE37               	btfss	___fladd@grs^0,7,c
  8552  00098C  EFCA  F004         	goto	i2u294_41
  8553  000990  EFCC  F004         	goto	i2u294_40
  8554  000994                     i2u294_41:
  8555  000994  EFCD  F004         	goto	i2l3465
  8556  000998                     i2u294_40:
  8557  000998  8028               	bsf	___fladd@b^0,0,c
  8558  00099A                     i2l3465:
  8559  00099A  A037               	btfss	___fladd@grs^0,0,c
  8560  00099C  EFD2  F004         	goto	i2u295_41
  8561  0009A0  EFD4  F004         	goto	i2u295_40
  8562  0009A4                     i2u295_41:
  8563  0009A4  EFD8  F004         	goto	i2l3469
  8564  0009A8                     i2u295_40:
  8565  0009A8  80D8               	bsf	status,0,c
  8566  0009AA  3637               	rlcf	___fladd@grs^0,f,c
  8567  0009AC  EFDA  F004         	goto	i2l3471
  8568  0009B0                     i2l3469:
  8569  0009B0  90D8               	bcf	status,0,c
  8570  0009B2  3637               	rlcf	___fladd@grs^0,f,c
  8571  0009B4                     i2l3471:
  8572  0009B4  5036               	movf	___fladd@bexp^0,w,c
  8573  0009B6  B4D8               	btfsc	status,2,c
  8574  0009B8  EFE0  F004         	goto	i2u296_41
  8575  0009BC  EFE2  F004         	goto	i2u296_40
  8576  0009C0                     i2u296_41:
  8577  0009C0  EFE3  F004         	goto	i2l3475
  8578  0009C4                     i2u296_40:
  8579  0009C4  0636               	decf	___fladd@bexp^0,f,c
  8580  0009C6                     i2l3475:
  8581  0009C6  AE2A               	btfss	(___fladd@b+2)^0,7,c
  8582  0009C8  EFE8  F004         	goto	i2u297_41
  8583  0009CC  EFEA  F004         	goto	i2u297_40
  8584  0009D0                     i2u297_41:
  8585  0009D0  EFC0  F004         	goto	i2l3459
  8586  0009D4                     i2u297_40:
  8587  0009D4                     i2l3477:
  8588  0009D4  0E00               	movlw	0
  8589  0009D6  6E35               	movwf	___fladd@aexp^0,c
  8590  0009D8  AE37               	btfss	___fladd@grs^0,7,c
  8591  0009DA  EFF1  F004         	goto	i2u298_41
  8592  0009DE  EFF3  F004         	goto	i2u298_40
  8593  0009E2                     i2u298_41:
  8594  0009E2  EF0B  F005         	goto	i2l1233
  8595  0009E6                     i2u298_40:
  8596  0009E6  C037  F030         	movff	___fladd@grs,??___fladd
  8597  0009EA  0E7F               	movlw	127
  8598  0009EC  1630               	andwf	??___fladd^0,f,c
  8599  0009EE  B4D8               	btfsc	status,2,c
  8600  0009F0  EFFC  F004         	goto	i2u299_41
  8601  0009F4  EFFE  F004         	goto	i2u299_40
  8602  0009F8                     i2u299_41:
  8603  0009F8  EF02  F005         	goto	i2l1234
  8604  0009FC                     i2u299_40:
  8605  0009FC                     i2l3483:
  8606  0009FC  0E01               	movlw	1
  8607  0009FE  6E35               	movwf	___fladd@aexp^0,c
  8608  000A00  EF0B  F005         	goto	i2l1233
  8609  000A04                     i2l1234:
  8610  000A04  A028               	btfss	___fladd@b^0,0,c
  8611  000A06  EF07  F005         	goto	i2u300_41
  8612  000A0A  EF09  F005         	goto	i2u300_40
  8613  000A0E                     i2u300_41:
  8614  000A0E  EF0B  F005         	goto	i2l1233
  8615  000A12                     i2u300_40:
  8616  000A12  EFFE  F004         	goto	i2l3483
  8617  000A16                     i2l1233:
  8618  000A16  5035               	movf	___fladd@aexp^0,w,c
  8619  000A18  B4D8               	btfsc	status,2,c
  8620  000A1A  EF11  F005         	goto	i2u301_41
  8621  000A1E  EF13  F005         	goto	i2u301_40
  8622  000A22                     i2u301_41:
  8623  000A22  EF3E  F005         	goto	i2l3495
  8624  000A26                     i2u301_40:
  8625  000A26  0E01               	movlw	1
  8626  000A28  2628               	addwf	___fladd@b^0,f,c
  8627  000A2A  0E00               	movlw	0
  8628  000A2C  2229               	addwfc	(___fladd@b+1)^0,f,c
  8629  000A2E  222A               	addwfc	(___fladd@b+2)^0,f,c
  8630  000A30  222B               	addwfc	(___fladd@b+3)^0,f,c
  8631  000A32  A02B               	btfss	(___fladd@b+3)^0,0,c
  8632  000A34  EF1E  F005         	goto	i2u302_41
  8633  000A38  EF20  F005         	goto	i2u302_40
  8634  000A3C                     i2u302_41:
  8635  000A3C  EF3E  F005         	goto	i2l3495
  8636  000A40                     i2u302_40:
  8637  000A40  C028  F030         	movff	___fladd@b,??___fladd
  8638  000A44  C029  F031         	movff	___fladd@b+1,??___fladd+1
  8639  000A48  C02A  F032         	movff	___fladd@b+2,??___fladd+2
  8640  000A4C  C02B  F033         	movff	___fladd@b+3,??___fladd+3
  8641  000A50  3433               	rlcf	(??___fladd+3)^0,w,c
  8642  000A52  3233               	rrcf	(??___fladd+3)^0,f,c
  8643  000A54  3232               	rrcf	(??___fladd+2)^0,f,c
  8644  000A56  3231               	rrcf	(??___fladd+1)^0,f,c
  8645  000A58  3230               	rrcf	??___fladd^0,f,c
  8646  000A5A  C030  F028         	movff	??___fladd,___fladd@b
  8647  000A5E  C031  F029         	movff	??___fladd+1,___fladd@b+1
  8648  000A62  C032  F02A         	movff	??___fladd+2,___fladd@b+2
  8649  000A66  C033  F02B         	movff	??___fladd+3,___fladd@b+3
  8650  000A6A  2836               	incf	___fladd@bexp^0,w,c
  8651  000A6C  B4D8               	btfsc	status,2,c
  8652  000A6E  EF3B  F005         	goto	i2u303_41
  8653  000A72  EF3D  F005         	goto	i2u303_40
  8654  000A76                     i2u303_41:
  8655  000A76  EF3E  F005         	goto	i2l3495
  8656  000A7A                     i2u303_40:
  8657  000A7A  2A36               	incf	___fladd@bexp^0,f,c
  8658  000A7C                     i2l3495:
  8659  000A7C  2836               	incf	___fladd@bexp^0,w,c
  8660  000A7E  B4D8               	btfsc	status,2,c
  8661  000A80  EF44  F005         	goto	i2u304_41
  8662  000A84  EF46  F005         	goto	i2u304_40
  8663  000A88                     i2u304_41:
  8664  000A88  EF4E  F005         	goto	i2l3499
  8665  000A8C                     i2u304_40:
  8666  000A8C  5036               	movf	___fladd@bexp^0,w,c
  8667  000A8E  A4D8               	btfss	status,2,c
  8668  000A90  EF4C  F005         	goto	i2u305_41
  8669  000A94  EF4E  F005         	goto	i2u305_40
  8670  000A98                     i2u305_41:
  8671  000A98  EF60  F005         	goto	i2l3503
  8672  000A9C                     i2u305_40:
  8673  000A9C                     i2l3499:
  8674  000A9C  0E00               	movlw	0
  8675  000A9E  6E28               	movwf	___fladd@b^0,c
  8676  000AA0  0E00               	movlw	0
  8677  000AA2  6E29               	movwf	(___fladd@b+1)^0,c
  8678  000AA4  0E00               	movlw	0
  8679  000AA6  6E2A               	movwf	(___fladd@b+2)^0,c
  8680  000AA8  0E00               	movlw	0
  8681  000AAA  6E2B               	movwf	(___fladd@b+3)^0,c
  8682  000AAC  5036               	movf	___fladd@bexp^0,w,c
  8683  000AAE  A4D8               	btfss	status,2,c
  8684  000AB0  EF5C  F005         	goto	i2u306_41
  8685  000AB4  EF5E  F005         	goto	i2u306_40
  8686  000AB8                     i2u306_41:
  8687  000AB8  EF60  F005         	goto	i2l3503
  8688  000ABC                     i2u306_40:
  8689  000ABC  0E00               	movlw	0
  8690  000ABE  6E34               	movwf	___fladd@signs^0,c
  8691  000AC0                     i2l3503:
  8692  000AC0  A036               	btfss	___fladd@bexp^0,0,c
  8693  000AC2  EF65  F005         	goto	i2u307_41
  8694  000AC6  EF67  F005         	goto	i2u307_40
  8695  000ACA                     i2u307_41:
  8696  000ACA  EF6A  F005         	goto	i2l3507
  8697  000ACE                     i2u307_40:
  8698  000ACE  8E2A               	bsf	(___fladd@b+2)^0,7,c
  8699  000AD0  EF6B  F005         	goto	i2l3509
  8700  000AD4                     i2l3507:
  8701  000AD4  9E2A               	bcf	(___fladd@b+2)^0,7,c
  8702  000AD6                     i2l3509:
  8703  000AD6  90D8               	bcf	status,0,c
  8704  000AD8  3036               	rrcf	___fladd@bexp^0,w,c
  8705  000ADA  6E2B               	movwf	(___fladd@b+3)^0,c
  8706  000ADC  AE34               	btfss	___fladd@signs^0,7,c
  8707  000ADE  EF73  F005         	goto	i2u308_41
  8708  000AE2  EF75  F005         	goto	i2u308_40
  8709  000AE6                     i2u308_41:
  8710  000AE6  EF76  F005         	goto	i2l3515
  8711  000AEA                     i2u308_40:
  8712  000AEA  8E2B               	bsf	(___fladd@b+3)^0,7,c
  8713  000AEC                     i2l3515:
  8714  000AEC  C028  F028         	movff	___fladd@b,?___fladd
  8715  000AF0  C029  F029         	movff	___fladd@b+1,?___fladd+1
  8716  000AF4  C02A  F02A         	movff	___fladd@b+2,?___fladd+2
  8717  000AF8  C02B  F02B         	movff	___fladd@b+3,?___fladd+3
  8718  000AFC                     i2l1216:
  8719  000AFC  0012               	return		;funcret
  8720  000AFE                     __end_of___fladd:
  8721                           	opt callstack 0
  8722                           
  8723 ;; *************** function _ADC_GetConversionResult *****************
  8724 ;; Defined at:
  8725 ;;		line 113 in file "mcc_generated_files/adc.c"
  8726 ;; Parameters:    Size  Location     Type
  8727 ;;		None
  8728 ;; Auto vars:     Size  Location     Type
  8729 ;;		None
  8730 ;; Return value:  Size  Location     Type
  8731 ;;                  2    0[COMRAM] unsigned short 
  8732 ;; Registers used:
  8733 ;;		wreg, status,2, status,0
  8734 ;; Tracked objects:
  8735 ;;		On entry : 0/0
  8736 ;;		On exit  : 0/0
  8737 ;;		Unchanged: 0/0
  8738 ;; Data sizes:     COMRAM   BANK0   BANK1   BANK2   BANK3   BANK4   BANK5
  8739 ;;      Params:         2       0       0       0       0       0       0
  8740 ;;      Locals:         0       0       0       0       0       0       0
  8741 ;;      Temps:          2       0       0       0       0       0       0
  8742 ;;      Totals:         4       0       0       0       0       0       0
  8743 ;;Total ram usage:        4 bytes
  8744 ;; Hardware stack levels used:    1
  8745 ;; This function calls:
  8746 ;;		Nothing
  8747 ;; This function is called by:
  8748 ;;		_ADC_temperatura
  8749 ;; This function uses a non-reentrant model
  8750 ;;
  8751                           
  8752                           	psect	text62
  8753  002B30                     __ptext62:
  8754                           	opt callstack 0
  8755  002B30                     _ADC_GetConversionResult:
  8756                           	opt callstack 19
  8757  002B30                     
  8758                           ;mcc_generated_files/adc.c: 116:      return ((adc_result_t)((ADRESH << 8) + ADRESL));
  8759  002B30  50C4               	movf	196,w,c	;volatile
  8760  002B32  6E04               	movwf	(??_ADC_GetConversionResult+1)^0,c
  8761  002B34  6A03               	clrf	??_ADC_GetConversionResult^0,c
  8762  002B36  50C3               	movf	195,w,c	;volatile
  8763  002B38  2403               	addwf	??_ADC_GetConversionResult^0,w,c
  8764  002B3A  6E01               	movwf	?_ADC_GetConversionResult^0,c
  8765  002B3C  0E00               	movlw	0
  8766  002B3E  2004               	addwfc	(??_ADC_GetConversionResult+1)^0,w,c
  8767  002B40  6E02               	movwf	(?_ADC_GetConversionResult+1)^0,c
  8768  002B42  0012               	return		;funcret
  8769  002B44                     __end_of_ADC_GetConversionResult:
  8770                           	opt callstack 0
  8771                           
  8772                           	psect	text63
  8773  000000                     __ptext63:
  8774                           	opt callstack 0
  8775  000000                     
  8776                           	psect	rparam
  8777  0000                     
  8778                           	psect	temp
  8779  00005F                     btemp:
  8780                           	opt callstack 0
  8781  00005F                     	ds	1
  8782  0000                     int$flags	set	btemp
  8783  0000                     wtemp8	set	btemp+1
  8784  0000                     ttemp5	set	btemp+1
  8785  0000                     ttemp6	set	btemp+4
  8786  0000                     ttemp7	set	btemp+8
  8787                           tosu	equ	0xFFF
  8788                           tosh	equ	0xFFE
  8789                           tosl	equ	0xFFD
  8790                           stkptr	equ	0xFFC
  8791                           pclatu	equ	0xFFB
  8792                           pclath	equ	0xFFA
  8793                           pcl	equ	0xFF9
  8794                           tblptru	equ	0xFF8
  8795                           tblptrh	equ	0xFF7
  8796                           tblptrl	equ	0xFF6
  8797                           tablat	equ	0xFF5
  8798                           prodh	equ	0xFF4
  8799                           prodl	equ	0xFF3
  8800                           indf0	equ	0xFEF
  8801                           postinc0	equ	0xFEE
  8802                           postdec0	equ	0xFED
  8803                           preinc0	equ	0xFEC
  8804                           plusw0	equ	0xFEB
  8805                           fsr0h	equ	0xFEA
  8806                           fsr0l	equ	0xFE9
  8807                           wreg	equ	0xFE8
  8808                           indf1	equ	0xFE7
  8809                           postinc1	equ	0xFE6
  8810                           postdec1	equ	0xFE5
  8811                           preinc1	equ	0xFE4
  8812                           plusw1	equ	0xFE3
  8813                           fsr1h	equ	0xFE2
  8814                           fsr1l	equ	0xFE1
  8815                           bsr	equ	0xFE0
  8816                           indf2	equ	0xFDF
  8817                           postinc2	equ	0xFDE
  8818                           postdec2	equ	0xFDD
  8819                           preinc2	equ	0xFDC
  8820                           plusw2	equ	0xFDB
  8821                           fsr2h	equ	0xFDA
  8822                           fsr2l	equ	0xFD9
  8823                           status	equ	0xFD8


Data Sizes:
    Strings     60
    Constant    0
    Data        6
    BSS         65
    Persistent  12
    Stack       0

Auto Spaces:
    Space          Size  Autos    Used
    COMRAM           94     94      94
    BANK0           160    108     155
    BANK1           256      2      38
    BANK2           256      0       0
    BANK3           256      0       0
    BANK4           256      0       0
    BANK5           256      0       0

Pointer List with Targets:

    strncat@s	PTR const unsigned char  size(2) Largest target is 1
		 -> tecla_premida(BANK0[1]), 

    strncat@d	PTR unsigned char  size(2) Largest target is 4
		 -> pin(BANK0[4]), 

    strncat@a	PTR unsigned char  size(2) Largest target is 4
		 -> pin(BANK0[4]), 

    strlen@s	PTR const unsigned char  size(2) Largest target is 32
		 -> dbuf(BANK1[32]), pin(BANK0[4]), 

    strlen@a	PTR const unsigned char  size(2) Largest target is 32
		 -> dbuf(BANK1[32]), pin(BANK0[4]), 

    sprintf@fmt	PTR const unsigned char  size(2) Largest target is 10
		 -> STR_1(CODE[10]), 

    sprintf@s	PTR unsigned char  size(2) Largest target is 4
		 -> temp_ambiente_LCD(BANK1[4]), 

    sprintf@ap	PTR void [1] size(2) Largest target is 2
		 -> ?_sprintf(BANK0[2]), 

    f.buffer	PTR unsigned char  size(2) Largest target is 4
		 -> temp_ambiente_LCD(BANK1[4]), 

    fputs@s	PTR const unsigned char  size(2) Largest target is 32
		 -> dbuf(BANK1[32]), 

    fputs@fp	PTR struct _IO_FILE size(2) Largest target is 7
		 -> sprintf@f(BANK0[6]), 

    S1978_IO_FILE$buffer	PTR unsigned char  size(2) Largest target is 4
		 -> temp_ambiente_LCD(BANK1[4]), 

    fputc@fp.buffer	PTR unsigned char  size(2) Largest target is 4
		 -> temp_ambiente_LCD(BANK1[4]), 

    fputc@fp	PTR struct _IO_FILE size(2) Largest target is 7
		 -> sprintf@f(BANK0[6]), 

    vfprintf@ap	PTR PTR void  size(2) Largest target is 2
		 -> sprintf@ap(BANK0[2]), 

    vfprintf@fp	PTR struct _IO_FILE size(2) Largest target is 7
		 -> sprintf@f(BANK0[6]), 

    vfprintf@fmt	PTR const unsigned char  size(2) Largest target is 10
		 -> STR_1(CODE[10]), 

    vfprintf@cfmt	PTR unsigned char  size(2) Largest target is 10
		 -> STR_1(CODE[10]), 

    vfpfcnvrt@fp	PTR struct _IO_FILE size(2) Largest target is 7
		 -> sprintf@f(BANK0[6]), 

    vfpfcnvrt@ap	PTR PTR void  size(2) Largest target is 2
		 -> sprintf@ap(BANK0[2]), 

    vfpfcnvrt@fmt	PTR PTR unsigned char  size(2) Largest target is 2
		 -> vfprintf@cfmt(BANK0[2]), 

    dtoa@fp	PTR struct _IO_FILE size(2) Largest target is 7
		 -> sprintf@f(BANK0[6]), 

    pad@fp	PTR struct _IO_FILE size(2) Largest target is 7
		 -> sprintf@f(BANK0[6]), 

    pad@buf	PTR unsigned char  size(2) Largest target is 32
		 -> dbuf(BANK1[32]), 

    putsXLCD@buffer	PTR unsigned char  size(2) Largest target is 21
		 -> STR_4(CODE[16]), STR_3(CODE[13]), STR_2(CODE[21]), pin(BANK0[4]), 
		 -> temp_ambiente_LCD(BANK1[4]), 

    sp__strncat	PTR unsigned char  size(2) Largest target is 4
		 -> pin(BANK0[4]), 

    ADC_SetInterruptHandler@InterruptHandler	PTR FTN()void  size(2) Largest target is 1
		 -> ADC_temperatura(), ADC_DefaultInterruptHandler(), 

    ADC_InterruptHandler	PTR FTN()void  size(2) Largest target is 1
		 -> ADC_temperatura(), ADC_DefaultInterruptHandler(), Absolute function(), 

    INT2_SetInterruptHandler@InterruptHandler	PTR FTN()void  size(2) Largest target is 1
		 -> teclado_coluna_3(), INT2_DefaultInterruptHandler(), 

    INT2_InterruptHandler	PTR FTN()void  size(2) Largest target is 1
		 -> teclado_coluna_3(), INT2_DefaultInterruptHandler(), Absolute function(), 

    INT1_SetInterruptHandler@InterruptHandler	PTR FTN()void  size(2) Largest target is 1
		 -> teclado_coluna_2(), INT1_DefaultInterruptHandler(), 

    INT1_InterruptHandler	PTR FTN()void  size(2) Largest target is 1
		 -> teclado_coluna_2(), INT1_DefaultInterruptHandler(), Absolute function(), 

    INT0_SetInterruptHandler@InterruptHandler	PTR FTN()void  size(2) Largest target is 1
		 -> teclado_coluna_1(), INT0_DefaultInterruptHandler(), 

    INT0_InterruptHandler	PTR FTN()void  size(2) Largest target is 1
		 -> teclado_coluna_1(), INT0_DefaultInterruptHandler(), Absolute function(), 

    TMR0_SetInterruptHandler@InterruptHandler	PTR FTN()void  size(2) Largest target is 1
		 -> Timer_0(), TMR0_DefaultInterruptHandler(), 

    TMR0_InterruptHandler	PTR FTN()void  size(2) Largest target is 1
		 -> Timer_0(), Absolute function(), TMR0_DefaultInterruptHandler(), 


Critical Paths under _main in COMRAM

    None.

Critical Paths under _INTERRUPT_InterruptManagerHigh in COMRAM

    _TMR0_ISR->_Timer_0
    _ADC_ISR->_ADC_temperatura
    _ADC_temperatura->___fltol
    ___fltol->___fldiv
    ___flmul->___xxtofl
    ___fldiv->___fladd
    ___fladd->___flmul

Critical Paths under _main in BANK0

    _main->_sprintf
    _strncat->_strlen
    _sprintf->_vfprintf
    _vfprintf->_vfpfcnvrt
    _vfpfcnvrt->_dtoa
    _dtoa->_pad
    _pad->_fputs
    _fputs->_fputc
    _abs->___aomod
    _SYSTEM_Initialize->_TMR0_Initialize
    _TMR0_Initialize->_TMR0_SetInterruptHandler
    _EXT_INT_Initialize->_INT0_SetInterruptHandler
    _EXT_INT_Initialize->_INT1_SetInterruptHandler
    _EXT_INT_Initialize->_INT2_SetInterruptHandler
    _ADC_Initialize->_ADC_SetInterruptHandler
    _LCD_inicio_teste->_putsXLCD
    _putsXLCD->_WriteDataXLCD
    _OpenXLCD->_DelayPORXLCD
    _OpenXLCD->_DelayXLCD
    _OpenXLCD->_WriteCmdXLCD

Critical Paths under _INTERRUPT_InterruptManagerHigh in BANK0

    None.

Critical Paths under _main in BANK1

    None.

Critical Paths under _INTERRUPT_InterruptManagerHigh in BANK1

    None.

Critical Paths under _main in BANK2

    None.

Critical Paths under _INTERRUPT_InterruptManagerHigh in BANK2

    None.

Critical Paths under _main in BANK3

    None.

Critical Paths under _INTERRUPT_InterruptManagerHigh in BANK3

    None.

Critical Paths under _main in BANK4

    None.

Critical Paths under _INTERRUPT_InterruptManagerHigh in BANK4

    None.

Critical Paths under _main in BANK5

    None.

Critical Paths under _INTERRUPT_InterruptManagerHigh in BANK5

    None.

Call Graph Tables:

 ---------------------------------------------------------------------------------
 (Depth) Function   	        Calls       Base Space   Used Autos Params    Refs
 ---------------------------------------------------------------------------------
 (0) _main                                                 3     3      0   12785
                                            107 BANK0      1     1      0
                                              0 BANK1      2     2      0
            _ADC_SetInterruptHandler
                           _BusyXLCD
           _INT0_SetInterruptHandler
           _INT1_SetInterruptHandler
           _INT2_SetInterruptHandler
                   _LCD_inicio_teste
                  _SYSTEM_Initialize
           _TMR0_SetInterruptHandler
                       _WriteCmdXLCD
                           _putsXLCD
                            _sprintf
                            _strncat
 ---------------------------------------------------------------------------------
 (1) _strncat                                              8     2      6     822
                                              8 BANK0      8     2      6
                             _strlen
 ---------------------------------------------------------------------------------
 (1) _sprintf                                             16    10      6    8507
                                             91 BANK0     16    10      6
                           _vfprintf
 ---------------------------------------------------------------------------------
 (2) _vfprintf                                             8     2      6    8021
                                             83 BANK0      8     2      6
                          _vfpfcnvrt
 ---------------------------------------------------------------------------------
 (3) _vfpfcnvrt                                           42    36      6    7548
                                             67 BANK0     16    10      6
                               _dtoa
                              _fputc
 ---------------------------------------------------------------------------------
 (4) _dtoa                                                36    26     10    5773
                                             31 BANK0     36    26     10
                            ___aodiv
                            ___aomod
                                _abs
                                _pad
 ---------------------------------------------------------------------------------
 (5) _pad                                                 11     5      6    3507
                                             20 BANK0     11     5      6
                              _fputc
                              _fputs
                             _strlen
 ---------------------------------------------------------------------------------
 (2) _strlen                                               4     2      2     310
                                              4 BANK0      4     2      2
 ---------------------------------------------------------------------------------
 (6) _fputs                                                7     3      4    1537
                                             13 BANK0      7     3      4
                              _fputc
 ---------------------------------------------------------------------------------
 (4) _fputc                                                9     5      4    1037
                                              4 BANK0      9     5      4
                              _putch
 ---------------------------------------------------------------------------------
 (5) _putch                                                1     1      0       0
 ---------------------------------------------------------------------------------
 (5) _abs                                                  4     2      2     183
                                             22 BANK0      4     2      2
                            ___aomod (ARG)
 ---------------------------------------------------------------------------------
 (5) ___aomod                                             18     2     16     613
                                              4 BANK0     18     2     16
 ---------------------------------------------------------------------------------
 (5) ___aodiv                                             26    10     16     625
                                              4 BANK0     26    10     16
 ---------------------------------------------------------------------------------
 (1) _SYSTEM_Initialize                                    0     0      0    1055
                     _ADC_Initialize
                   _EPWM1_Initialize
                 _EXT_INT_Initialize
               _INTERRUPT_Initialize
              _OSCILLATOR_Initialize
             _PIN_MANAGER_Initialize
                    _TMR0_Initialize
                    _TMR2_Initialize
 ---------------------------------------------------------------------------------
 (2) _TMR2_Initialize                                      0     0      0       0
 ---------------------------------------------------------------------------------
 (2) _TMR0_Initialize                                      2     2      0     211
                                              6 BANK0      2     2      0
           _TMR0_SetInterruptHandler
 ---------------------------------------------------------------------------------
 (1) _TMR0_SetInterruptHandler                             2     0      2     211
                                              4 BANK0      2     0      2
 ---------------------------------------------------------------------------------
 (2) _PIN_MANAGER_Initialize                               0     0      0       0
 ---------------------------------------------------------------------------------
 (2) _OSCILLATOR_Initialize                                0     0      0       0
 ---------------------------------------------------------------------------------
 (2) _INTERRUPT_Initialize                                 0     0      0       0
 ---------------------------------------------------------------------------------
 (2) _EXT_INT_Initialize                                   0     0      0     633
           _INT0_SetInterruptHandler
           _INT1_SetInterruptHandler
           _INT2_SetInterruptHandler
 ---------------------------------------------------------------------------------
 (3) _INT2_SetInterruptHandler                             2     0      2     211
                                              4 BANK0      2     0      2
 ---------------------------------------------------------------------------------
 (3) _INT1_SetInterruptHandler                             2     0      2     211
                                              4 BANK0      2     0      2
 ---------------------------------------------------------------------------------
 (3) _INT0_SetInterruptHandler                             2     0      2     211
                                              4 BANK0      2     0      2
 ---------------------------------------------------------------------------------
 (2) _EPWM1_Initialize                                     0     0      0       0
 ---------------------------------------------------------------------------------
 (2) _ADC_Initialize                                       0     0      0     211
            _ADC_SetInterruptHandler
 ---------------------------------------------------------------------------------
 (3) _ADC_SetInterruptHandler                              2     0      2     211
                                              4 BANK0      2     0      2
 ---------------------------------------------------------------------------------
 (1) _LCD_inicio_teste                                     2     2      0     701
                                              7 BANK0      2     2      0
                           _BusyXLCD
                           _OpenXLCD
                       _WriteCmdXLCD
                           _putsXLCD
 ---------------------------------------------------------------------------------
 (1) _putsXLCD                                             2     0      2     577
                                              5 BANK0      2     0      2
                           _BusyXLCD
                      _WriteDataXLCD
 ---------------------------------------------------------------------------------
 (2) _WriteDataXLCD                                        1     1      0      62
                                              4 BANK0      1     1      0
                      _DelayFor18TCY
 ---------------------------------------------------------------------------------
 (2) _OpenXLCD                                             1     1      0      62
                           _BusyXLCD
                      _DelayFor18TCY
                       _DelayPORXLCD
                          _DelayXLCD
                       _WriteCmdXLCD
 ---------------------------------------------------------------------------------
 (1) _WriteCmdXLCD                                         1     1      0      62
                                              4 BANK0      1     1      0
                      _DelayFor18TCY
 ---------------------------------------------------------------------------------
 (3) _DelayXLCD                                            1     1      0       0
                                              4 BANK0      1     1      0
 ---------------------------------------------------------------------------------
 (3) _DelayPORXLCD                                         1     1      0       0
                                              4 BANK0      1     1      0
 ---------------------------------------------------------------------------------
 (2) _BusyXLCD                                             0     0      0       0
                      _DelayFor18TCY
 ---------------------------------------------------------------------------------
 (3) _DelayFor18TCY                                        0     0      0       0
 ---------------------------------------------------------------------------------
 Estimated maximum stack depth 6
 ---------------------------------------------------------------------------------
 (Depth) Function   	        Calls       Base Space   Used Autos Params    Refs
 ---------------------------------------------------------------------------------
 (9) _INTERRUPT_InterruptManagerHigh                       4     4      0    6409
                                              0 BANK0      4     4      0
                            _ADC_ISR
                           _INT0_ISR
                           _INT1_ISR
                           _INT2_ISR
                           _TMR0_ISR
 ---------------------------------------------------------------------------------
 (10) _TMR0_ISR                                            0     0      0       0
                   Absolute function *
       _TMR0_DefaultInterruptHandler *
                            _Timer_0 *
 ---------------------------------------------------------------------------------
 (11) _Timer_0                                             1     1      0       0
                                              0 COMRAM     1     1      0
                _ADC_StartConversion
 ---------------------------------------------------------------------------------
 (12) _ADC_StartConversion                                 0     0      0       0
 ---------------------------------------------------------------------------------
 (11) _TMR0_DefaultInterruptHandler                        0     0      0       0
 ---------------------------------------------------------------------------------
 (10) _INT2_ISR                                            0     0      0       0
                      _INT2_CallBack
 ---------------------------------------------------------------------------------
 (11) _INT2_CallBack                                       0     0      0       0
                   Absolute function *
       _INT2_DefaultInterruptHandler *
                   _teclado_coluna_3 *
 ---------------------------------------------------------------------------------
 (12) _teclado_coluna_3                                    0     0      0       0
 ---------------------------------------------------------------------------------
 (12) _INT2_DefaultInterruptHandler                        0     0      0       0
 ---------------------------------------------------------------------------------
 (10) _INT1_ISR                                            0     0      0       0
                      _INT1_CallBack
 ---------------------------------------------------------------------------------
 (11) _INT1_CallBack                                       0     0      0       0
                   Absolute function *
       _INT1_DefaultInterruptHandler *
                   _teclado_coluna_2 *
 ---------------------------------------------------------------------------------
 (12) _teclado_coluna_2                                    0     0      0       0
 ---------------------------------------------------------------------------------
 (12) _INT1_DefaultInterruptHandler                        0     0      0       0
 ---------------------------------------------------------------------------------
 (10) _INT0_ISR                                            0     0      0       0
                      _INT0_CallBack
 ---------------------------------------------------------------------------------
 (11) _INT0_CallBack                                       0     0      0       0
                   Absolute function *
       _INT0_DefaultInterruptHandler *
                   _teclado_coluna_1 *
 ---------------------------------------------------------------------------------
 (12) _teclado_coluna_1                                    0     0      0       0
 ---------------------------------------------------------------------------------
 (12) _INT0_DefaultInterruptHandler                        0     0      0       0
 ---------------------------------------------------------------------------------
 (10) _ADC_ISR                                             0     0      0    6409
                   Absolute function *
        _ADC_DefaultInterruptHandler *
                    _ADC_temperatura *
 ---------------------------------------------------------------------------------
 (11) _ADC_temperatura                                     4     4      0    6409
                                             90 COMRAM     4     4      0
            _ADC_GetConversionResult
                            ___fladd
                            ___fldiv
                            ___flmul
                            ___fltol
                           ___xxtofl
 ---------------------------------------------------------------------------------
 (12) ___xxtofl                                           14    10      4     398
                                              0 COMRAM    14    10      4
 ---------------------------------------------------------------------------------
 (12) ___fltol                                            10     6      4     305
                                             80 COMRAM    10     6      4
                            ___fladd (ARG)
                            ___fldiv (ARG)
 ---------------------------------------------------------------------------------
 (12) ___flmul                                            25    17      8    1744
                                             14 COMRAM    25    17      8
                           ___xxtofl (ARG)
 ---------------------------------------------------------------------------------
 (12) ___fldiv                                            25    17      8    1399
                                             55 COMRAM    25    17      8
                            ___fladd (ARG)
 ---------------------------------------------------------------------------------
 (12) ___fladd                                            16     8      8    2540
                                             39 COMRAM    16     8      8
                            ___flmul (ARG)
                           ___xxtofl (ARG)
 ---------------------------------------------------------------------------------
 (12) _ADC_GetConversionResult                             4     2      2       0
                                              0 COMRAM     4     2      2
 ---------------------------------------------------------------------------------
 (11) _ADC_DefaultInterruptHandler                         0     0      0       0
 ---------------------------------------------------------------------------------
 (11) Absolute function(Fake)                              0     0      0       0
 ---------------------------------------------------------------------------------
 Estimated maximum stack depth 12
 ---------------------------------------------------------------------------------

 Call Graph Graphs:

 _main (ROOT)
   _ADC_SetInterruptHandler
   _BusyXLCD
     _DelayFor18TCY
   _INT0_SetInterruptHandler
   _INT1_SetInterruptHandler
   _INT2_SetInterruptHandler
   _LCD_inicio_teste
     _BusyXLCD
       _DelayFor18TCY
     _OpenXLCD
       _BusyXLCD
         _DelayFor18TCY
       _DelayFor18TCY
       _DelayPORXLCD
       _DelayXLCD
       _WriteCmdXLCD
         _DelayFor18TCY
     _WriteCmdXLCD
       _DelayFor18TCY
     _putsXLCD
       _BusyXLCD
         _DelayFor18TCY
       _WriteDataXLCD
         _DelayFor18TCY
   _SYSTEM_Initialize
     _ADC_Initialize
       _ADC_SetInterruptHandler
     _EPWM1_Initialize
     _EXT_INT_Initialize
       _INT0_SetInterruptHandler
       _INT1_SetInterruptHandler
       _INT2_SetInterruptHandler
     _INTERRUPT_Initialize
     _OSCILLATOR_Initialize
     _PIN_MANAGER_Initialize
     _TMR0_Initialize
       _TMR0_SetInterruptHandler
     _TMR2_Initialize
   _TMR0_SetInterruptHandler
   _WriteCmdXLCD
     _DelayFor18TCY
   _putsXLCD
     _BusyXLCD
       _DelayFor18TCY
     _WriteDataXLCD
       _DelayFor18TCY
   _sprintf
     _vfprintf
       _vfpfcnvrt
         _dtoa
           ___aodiv
           ___aomod
           _abs
             ___aomod (ARG)
           _pad
             _fputc
               _putch
             _fputs
               _fputc
                 _putch
             _strlen
         _fputc
           _putch
   _strncat
     _strlen

 _INTERRUPT_InterruptManagerHigh (ROOT)
   _ADC_ISR
     Absolute function(Fake) *
     _ADC_DefaultInterruptHandler *
     _ADC_temperatura *
       _ADC_GetConversionResult
       ___fladd
         ___flmul (ARG)
           ___xxtofl (ARG)
         ___xxtofl (ARG)
       ___fldiv
         ___fladd (ARG)
           ___flmul (ARG)
             ___xxtofl (ARG)
           ___xxtofl (ARG)
       ___flmul
         ___xxtofl (ARG)
       ___fltol
         ___fladd (ARG)
           ___flmul (ARG)
             ___xxtofl (ARG)
           ___xxtofl (ARG)
         ___fldiv (ARG)
           ___fladd (ARG)
             ___flmul (ARG)
               ___xxtofl (ARG)
             ___xxtofl (ARG)
       ___xxtofl
   _INT0_ISR
     _INT0_CallBack
       Absolute function(Fake) *
       _INT0_DefaultInterruptHandler *
       _teclado_coluna_1 *
   _INT1_ISR
     _INT1_CallBack
       Absolute function(Fake) *
       _INT1_DefaultInterruptHandler *
       _teclado_coluna_2 *
   _INT2_ISR
     _INT2_CallBack
       Absolute function(Fake) *
       _INT2_DefaultInterruptHandler *
       _teclado_coluna_3 *
   _TMR0_ISR
     Absolute function(Fake) *
     _TMR0_DefaultInterruptHandler *
     _Timer_0 *
       _ADC_StartConversion

 Address spaces:
Name               Size   Autos  Total    Cost      Usage
BIGRAM             5FF      0       0      16        0.0%
EEDATA             100      0       0       0        0.0%
BITBANK5           100      0       0      14        0.0%
BANK5              100      0       0      15        0.0%
BITBANK4           100      0       0      12        0.0%
BANK4              100      0       0      13        0.0%
BITBANK3           100      0       0      10        0.0%
BANK3              100      0       0      11        0.0%
BITBANK2           100      0       0       7        0.0%
BANK2              100      0       0       8        0.0%
BITBANK1           100      0       0       5        0.0%
BANK1              100      2      26       6       14.8%
BITBANK0            A0      0       0       3        0.0%
BANK0               A0     6C      9B       4       96.9%
BITCOMRAM           5E      0       0       0        0.0%
COMRAM              5E     5E      5E       1      100.0%
BITSFR_1             0      0       0     200        0.0%
SFR_1                0      0       0     200        0.0%
BITSFR               0      0       0     200        0.0%
SFR                  0      0       0     200        0.0%
STACK                0      0       0       2        0.0%
NULL                 0      0       0       0        0.0%
ABS                  0      0     11F       9        0.0%
DATA                 0      0     11F      17        0.0%
CODE                 0      0       0       0        0.0%


Microchip Technology PIC18 Macro Assembler V2.10 build 88905656 
Symbol Table                                                                                   Tue Apr 28 14:22:14 2020

                            ___fldiv@aexp 0050                              ___fldiv@bexp 004F  
                            ___fldiv@sign 0048                                        l21 29A2  
                                      l43 2B86                                        l74 2BA4  
                                      l87 2B9A                           _timer0ReloadVal 00F1  
                        ?_ADC_temperatura 0001                              __CFG_CP0$OFF 000000  
                            __CFG_CP1$OFF 000000                              __CFG_CP2$OFF 000000  
                            __CFG_CP3$OFF 000000                               __CFG_LVP$ON 000000  
                                     l100 2B90                                       l106 28F6  
                                     l133 2B7C                                       l215 27A8  
                                     l231 2B52                                       l325 2BAE  
                                     l173 2AFA                                       l176 2B70  
                                     l514 2876                                       l267 2B1A  
                                     l604 1F64                                       l461 2AD8  
                                     l517 2832                                       l631 236C  
                                     l464 2B2E                                       l297 2AB2  
                                     l458 2B62                                       l634 23B0  
                                     l642 1362                                       l636 23EC  
                                     l644 136A                                       l485 206E  
                                     l806 1E34                                       l662 15A4  
                                     l488 27DC                                       l489 27EE  
                                     l499 2550                                       l675 267A  
                                     l676 2682                                       l669 1990  
                                     l793 1CCE                              __CFG_CPB$OFF 000000  
                                     _PR2 000FBB                              __CFG_CPD$OFF 000000  
              ??_INT0_SetInterruptHandler 0066                                       _abs 2878  
                                     _pad 2324                           __end_of_ADC_ISR 29D6  
                                     _pin 00E4           __end_of_ADC_SetInterruptHandler 2BB0  
                   __size_of_WriteCmdXLCD 0044                           _TMR2_Initialize 2B44  
                                     tosl 000FFD                                       wreg 000FE8  
                           _INT0_CallBack 2A36                              ___flmul@aexp 0020  
                            ___flmul@bexp 0021              ?_ADC_DefaultInterruptHandler 0001  
                            ___flmul@sign 001B                              ___flmul@temp 0026  
                            ___flmul@prod 0022                             _INT1_CallBack 2A06  
                            ___fltol@exp1 005A                                      ?_abs 0076  
                                    l1403 2464                                      l1354 28B0  
                                    l1357 28B8                                      l1384 26D4  
                                    l1369 2322                                      l1377 271C  
                                    l1393 2930                                      l5001 15A6  
                                    l1387 2BD2                                      l5011 15C8  
                                    l5003 15AA                                      l5101 17BC  
                                    l5021 1604                                      l5013 15D6  
                                    l5005 15AC                                      l5103 17BE  
                                    l5031 165E                                      l5023 1622  
                                    l5015 15E4                                      l5007 15B6  
                                    l5105 17C0                                      l5041 16A2  
                                    l5033 1672                                      l5025 1628  
                                    l5017 15F2                                      l5009 15BA  
                                    l4411 2288                                      l5051 16FA  
                                    l5043 16BE                                      l5035 1676  
                                    l5027 163C                                      l5019 1600  
                                    l4501 1C8E                                      l4413 22A6  
                                    l4405 2258                                      l4421 26E4  
                                    l5061 173E                                      l5053 1706  
                                    l5045 16C4                                      l5037 1688  
                                    l5029 164A                                      l4503 1CAE  
                                    l4511 1CE4                                      l4415 22DC  
                                    l4407 226C                                      l4423 26F6  
                                    l4431 290A                                      l5071 176E  
                                    l5063 174C                                      l5047 16D8  
                                    l5055 1712                                      l5039 1690  
                                    l4521 1D54                                      l4513 1D04  
                                    l4409 227E                                      l4425 26FC  
                                    l4433 2922                                      l4441 2348  
                                    l4601 1564                                      l5081 1788  
                                    l5073 1770                                      l5065 1760  
                                    l5057 1724                                      l5049 16E6  
                                    l4611 2B9C                                      l4531 1DCC  
                                    l4523 1D5C                                      l4515 1D08  
                                    l4507 1CD0                                      l4419 26D6  
                                    l4427 28F8                                      l4451 2392  
                                    l4443 2358                                      l4603 156C  
                                    l5091 17A2                                      l5083 178A  
                                    l5075 1772                                      l5059 172A  
                                    l5067 176A                                      l4621 284A  
                                    l4701 2822                                      l4613 2B92  
                                    l4533 1DDE                                      l4525 1D70  
                                    l4517 1D16                                      l4509 1CD6  
                                    l4461 2894                                      l4429 2904  
                                    l4453 23BE                                      l4445 2364  
                                    l4437 2324                                      l4605 157C  
                                    l5093 17A4                                      l5085 178C  
                                    l5077 1784                                      l5069 176C  
                                    ?_pad 0074                                      l4543 2B54  
                                    l4631 2858                                      l4623 284C  
                                    l4703 2826                                      l4615 2B88  
                                    l4471 1B7E                                      l4463 1B46  
                                    l4527 1D7E                                      l4535 1DE4  
                                    l4519 1D36                                      l4455 23D2  
                                    l4447 2378                                      l4439 2334  
                                    l4551 130C                                      l4711 17DA  
                                    l5095 17A6                                      l5087 179E  
                                    l5079 1786                                      l4633 2866  
                                    l4625 284E                                      l4705 2828  
                                    l4617 2BA6                                      l4609 2B7E  
                                    l4801 2B44                                      l4481 1BDA  
                                    l4473 1B8C                                      l4465 1B4C  
                                    l4537 1DF4                                      l4529 1DAC  
                                    l4449 238C                                      l4561 1372  
                                    l4553 132C                                      l4721 1846  
                                    l4713 17FE                                      l5097 17B8  
                                    l5089 17A0                                      l4651 27C6  
                                    l4643 27AA                                      l4635 286A  
                                    l4627 2852                                      l4619 2838  
                                    l4707 282C                                      l4811 251A  
                                    l4803 2B4C                                      l4491 1C44  
                                    l4483 1BE2                                      l4475 1BAC  
                                    l4467 1B5A                                      l4539 1E14  
                                    l4459 2878                                      l4571 13AA  
                                    l4563 1384                                      l4555 133A  
                                    l4547 12C2                                      l4731 190E  
                                    l4723 186A                                      l4715 180C  
                                    l5099 17BA                                      l4661 27D6  
                                    l4653 27C8                                      l4645 27AE  
                                    l4637 286C                                      l4629 2854  
                                    l4821 1F72                                      l4813 2520  
                                    l4805 24DE                                      l4493 1C64  
                                    l4485 1BF6                                      l4477 1BB0  
                                    l4469 1B7A                                      l4573 13B0  
                                    l4581 14A4                                      l4565 1392  
                                    l4557 133C                                      l4549 12E2  
                                    l4741 194C                                      l4733 191C  
                                    l4725 18B2                                      l4717 181E  
                                    l4901 2622                                      l4671 27E8  
                                    l4655 27CC                                      l4647 27B2  
                                    l4639 2870                                      l4831 1F7C  
                                    l4823 1F74                                      l4815 1F66  
                                    l4807 24E2                                      l4911 2ADE  
                                    l4495 1C66                                      l4487 1C04  
                                    l4479 1BBC                                      l4583 14C0  
                                    l4591 1520                                      l4575 1434  
                                    l4567 1398                                      l4559 1356  
                                    l4735 1930                                      l4719 1822  
                                    l4903 262A                                      l4673 27EA  
                                    l4657 27D2                                      l4649 27B8  
                                    l4841 1F90                                      l4833 1F82  
                                    l4825 1F76                                      l4817 1F6A  
                                    l4809 24F6                                      l4761 2990  
                                    l4753 296C                                      l4921 2AF2  
                                    l4913 2AE2                                      l4497 1C78  
                                    l4489 1C16                                      l4593 1532  
                                    l4585 14DE                                      l4577 143A  
                                    l4569 13A0                                      l4729 18EA  
                                    l4745 1958                                      l4905 2638  
                                    l4675 27EC                                      l4667 27DE  
                                    l4659 27D4                                      l4683 2B1C  
                                    l4851 1FA2                                      l4843 1F94  
                                    l4835 1F86                                      l4827 1F78  
                                    l4819 1F6E                                      l4691 2808  
                                    l4931 1E56                                      l4771 28CC  
                                    l4763 2992                                      l4755 296E  
                                    l4923 2AF6                                      l4915 2AE6  
                                    l4499 1C7E                                      l4595 1540  
                                    l4587 14F8                                      l4579 1440  
                                    l4747 197E                                      l4739 193E  
                                    l4907 265E                                      l4669 27E2  
                                    l4861 1FBA                                      l4853 1FA6  
                                    l4845 1F96                                      l4837 1F8A  
                                    l4829 1F7A                                      l4693 280A  
                                    l4941 1E9E                                      l4933 1E6A  
                                    l4925 1E36                                      l4781 28E4  
                                    l4773 28CE                                      l4765 299E  
                                    l4757 2976                                      l4917 2AEA  
                                    l4909 2ADA                                      l4597 1546  
                                    l4589 1512                                      l4679 2AB4  
                                    l4871 1FCE                                      l4863 1FC0  
                                    l4855 1FAC                                      l4847 1F9A  
                                    l4839 1F8E                                      l4695 280E  
                                    l4687 27F4                                      l4951 1EF4  
                                    l4943 1EA4                                      l4935 1E70  
                                    l4927 1E3C                                      l4783 28F4  
                                    l4775 28D0                                      l4767 28BA  
                                    l4791 2B64                                      l4759 298E  
                                    l4919 2AEE                                      l4599 1558  
                                    l4881 1FF2                                      l4873 1FD2  
                                    l4865 1FC6                                      l4857 1FB2  
                                    l4849 1F9E                                      l4697 2810  
                                    l4689 2806                                      l4961 1F2E  
                                    l4953 1EFA                                      l4945 1EB8  
                                    l4937 1E84                                      l4929 1E50  
                                    l4793 2A8E                                      l4777 28E0  
                                    l4769 28BE                                      l4785 2B72  
                                    l4891 203A                                      l4883 2006  
                                    l4875 1FD4                                      l4867 1FCA  
                                    l4859 1FB6                                      l4699 2814  
                                    l4963 1F42                                      l4955 1F0E  
                                    l4947 1EC6                                      l4939 1E8A  
                                    l4795 2AA2                                      l4779 28E2  
                                    l4787 2764                                      l4971 269E  
                                    l4893 204E                                      l4885 200C  
                                    l4877 1FD8                                      l4869 1FCC  
                                    l4965 1F50                                      l4957 1F14  
                                    l4949 1EDA                                      l4797 2AA4  
                                    l4789 27A6                                      l4973 26A6  
                                    l4981 23EE                                      l4895 2054  
                                    l4887 2020                                      l4879 1FEC  
                                    l4959 1F28                                      l4799 2AFC  
                                    l4975 26C2                                      l4967 2684  
                                    l4983 2408                                      l4991 242A  
                                    l4897 2068                                      l4889 2034  
                                    l4969 2696                                      l4993 243C  
                                    l4985 240E                                      l4995 2454  
                                    l4987 2422                                      l4979 23EE  
                                    l4997 2460                                      l4989 2426  
                                    STR_1 0633                                      STR_2 0601  
                                    STR_3 0626                                      STR_4 0616  
                                    _LATA 000F89                                      _LATB 000F8A  
                                    _LATC 000F8B                                      _LATD 000F8C  
                                    _LATE 000F8D                                      u5000 1760  
                                    u5001 175C                                      u4300 2334  
                                    u4301 2330                                      u4310 2358  
                                    u4311 2354                                      u4400 1C44  
                                    u4240 226C                                      u4320 23B0  
                                    u4401 1C40                                      u4241 2268  
                                    u4321 23AC                                      u4410 1C8E  
                                    u4250 227E                                      u4330 23BE  
                                    u5107 2ACE                                      u4411 1C8A  
                                    u4251 227A                                      u4331 23BA  
                                    u4420 1CE4                                      u4340 2894  
                                    u4260 22A6                                      u4500 130C  
                                    u5117 2B56                                      u4421 1CE0  
                                    u4341 2890                                      u4261 22A2  
                                    u4501 1308                                      u5037 177A  
                                    u4350 1B5A                                      u4430 1D16  
                                    u4270 22DC                                      u4510 133A  
                                    u5127 2B5C                                      u4351 1B56  
                                    u4431 1D12                                      u4271 22D8  
                                    u4511 1336                                      u5047 1794  
                                    u4360 1B8C                                      u4440 1D54  
                                    u4280 271C                                      u4600 1532  
                                    u4520 1356                                      u4361 1B88  
                                    u4441 1D50                                      u4281 2718  
                                    u4601 152E                                      u4521 1352  
                                    u5057 17AE                                      u4450 1D7E  
                                    u4290 2922                                      u4610 1540  
                                    u4530 1384                                      u4371 1BB6  
                                    u4451 1D7A                                      u4291 291E  
                                    u4611 153C                                      u4531 1380  
                                    u5067 17C8                                      u4700 2540  
                                    u4380 1BDA                                      u4460 1DAC  
                                    u4620 1558                                      u4540 1392  
                                    u5077 1EE6                                      u4381 1BD6  
                                    u4461 1DA8                                      u4621 1554  
                                    u4541 138E                                      u4630 27C6  
                                    u4710 2550                                      u4390 1C04  
                                    u4470 1DF4                                      u4550 14C0  
                                    u4631 27C2                                      u5087 2B24  
                                    u4711 254C                                      u4391 1C00  
                                    u4471 1DF0                                      u4551 14BC  
                                    u4720 1FEC                                      u4800 1E6A  
                                    u4560 14DE                                      u4480 12F4  
                                    u4640 17FE                                      u5097 2ABC  
                                    u4721 1FE8                                      u4801 1E66  
                                    u4561 14DA                                      u4481 12EE  
                                    u4641 17FA                                      u4730 2006  
                                    u4810 1E84                                      u4570 14F8  
                                    u4490 12F6                                      u4650 1846  
                                    u4731 2002                                      u4707 2536  
                                    u4811 1E80                                      u4571 14F4  
                                    u4651 1842                                      u4740 2020  
                                    u4820 1E9E                                      u4580 1512  
                                    u4660 186A                                      u4900 2454  
                                    u4741 201C                                      u4821 1E9A  
                                    u4581 150E                                      u4661 1866  
                                    u4901 2450                                      u4750 2034  
                                    u4830 1EB8                                      u4590 1520  
                                    u4670 190E                                      u4910 163C  
                                    u4751 2030                                      u4831 1EB4  
                                    u4591 151C                                      u4671 190A  
                                    u4911 1638                                      i2l40 296A  
                                    u4760 204E                                      u4680 24F6  
                                    u4840 1EDA                                      u4920 165E  
                                    u4761 204A                                      u4681 24F2  
                                    u4841 1ED6                                      u4921 165A  
                                    u4770 2068                                      u4690 2516  
                                    u4850 1F0E                                      u4930 1672  
                                    u4771 2064                                      u4851 1F0A  
                                    u4931 166E                                      u4860 1F28  
                                    u4780 267A                                      u4940 1688  
                                    u4861 1F24                                      u4781 2676  
                                    u4941 1684                                      i2l46 2BD4  
                                    u4870 1F42                                      u4790 1E50  
                                    u4950 16A2                                      i2l71 2A64  
                                    u4871 1F3E                                      u4791 1E4C  
                                    u4951 169E                                      i2l80 2BBE  
                                    u4880 1F64                                      u4960 16D8  
                                    u4697 250C                                      u4881 1F60  
                                    u4961 16D4                                      i2l90 2BD8  
                                    u4890 243C                                      u4970 16FA  
                                    i2l67 2BC6                                      u4891 2438  
                                    u4971 16F6                                      i2l84 2A34  
                                    u4980 1724                                      i2l77 2BDA  
                                    i2l93 2BB6                                      u4981 1720  
                                    u4990 173E                                      u4991 173A  
                                    i2l97 2A04                                      _TMR2 000FBC  
                                    _WPUB 000F61                             _INT2_CallBack 29D6  
                        _LCD_inicio_teste 1E36                                      abs@a 0076  
                                    _dbuf 0100                                      _main 15A6  
                                    _dtoa 12C2                                      _prec 00D0  
                                    _nout 00CC                                      pad@i 007B  
                                    pad@p 0078                                      fsr1h 000FE2  
                                    fsr2h 000FDA                                      indf1 000FE7  
                                    indf2 000FDF                                      fsr1l 000FE1  
                                    pad@w 007D                                      fsr2l 000FD9  
                                    btemp 005F                             __CFG_BORV$190 000000  
       __size_of_INT2_SetInterruptHandler 000A                 ?_INT2_SetInterruptHandler 0064  
                  __size_of_WriteDataXLCD 0044                                      prodh 000FF4  
                                    prodl 000FF3                                      start 00E2  
                           __CFG_IESO$OFF 000000                           ___fldiv@new_exp 0049  
                            ___param_bank 000000                                     ??_abs 0078  
                                   ??_pad 007A                              _WriteCmdXLCD 2834  
                 __end_of_TMR0_Initialize 29A4                          __end_of_INT0_ISR 2BC8  
                        __end_of_INT1_ISR 2BC0                          __end_of_INT2_ISR 2BB8  
          ??_TMR0_DefaultInterruptHandler 0001                           __end_of_Timer_0 2A8E  
          __size_of_OSCILLATOR_Initialize 000E             __end_of_OSCILLATOR_Initialize 2B72  
                           ___fltol@sign1 0059                           __end_of___aodiv 1CD0  
                         __end_of___fladd 0AFE                                     ?_main 0001  
                                   ?_dtoa 007F                           __end_of___aomod 1E36  
                         __end_of___fldiv 12C2                           __end_of___flmul 0F28  
                         __end_of___fltol 2176                                     _T0CON 000FD5  
                                   _T2CON 000FBA                            __CFG_DEBUG$OFF 000000  
                                   i2l103 2BD6                                     i2l140 0062  
                                   i2l142 0086                                     i2l303 2BD0  
                                   i2l143 00CE                                     i2l144 00AA  
                                   i2l322 29D4                                     i2l138 003E  
                                   i2l403 2A66                                     i2l148 00CE  
                                   i2l309 2B42                                     i2l405 2A8C  
                                   i2l408 2256                                     i2l328 2BDC  
                                   i2l530 25D2                                     i2l531 2616  
                                   i2l532 25EA                                     i2l540 256A  
                                   i2l541 25AE                                     i2l534 2602  
                                   i2l542 2582                                     i2l550 2486  
                                   i2l544 259A                                     i2l552 249C  
                                   i2l537 2620                                     i2l553 24DC  
                                   i2l554 24B2                                     i2l547 25B8  
                                   i2l557 24DC                                     i2l976 2174  
                            vfpfcnvrt@fmt 00A5                                     _TMR0H 000FD7  
                                   _TMR0L 000FD6                                     _PORTD 000F83  
                       ?_teclado_coluna_1 0001                         ?_teclado_coluna_2 0001  
                       ?_teclado_coluna_3 0001                                     _TRISA 000F92  
                                   _TRISB 000F93                            ?_INT0_CallBack 0001  
                                   _TRISC 000F94                                     _TRISD 000F95  
                                   _TRISE 000F96          __size_of_ADC_GetConversionResult 0014  
       __size_of_TMR0_SetInterruptHandler 000A                             __CFG_WRT0$OFF 000000  
                           __CFG_WRT1$OFF 000000                             __CFG_WRT2$OFF 000000  
               ?_TMR0_SetInterruptHandler 0064                             __CFG_WRT3$OFF 000000  
                          __CFG_EBTR0$OFF 000000                            __CFG_FCMEN$OFF 000000  
                          __CFG_EBTR1$OFF 000000                            __CFG_EBTR2$OFF 000000  
                          __CFG_EBTR3$OFF 000000                          __end_of_TMR0_ISR 296C  
                      ??_teclado_coluna_1 0001                        ??_teclado_coluna_2 0001  
                      ??_teclado_coluna_3 0001                             __CFG_WRTB$OFF 000000  
                           __CFG_WRTC$OFF 000000                             __CFG_WRTD$OFF 000000  
                          ?_INT1_CallBack 0001                            __CFG_EBTRB$OFF 000000  
                                   _flags 00D2            ??_INT1_DefaultInterruptHandler 0001  
                                   _fputc 2258                                     _fputs 26D6  
                      __CFG_MCLRE$EXTMCLR 000000                                     pad@fp 0074  
                                   _width 00CE                                     _putch 2BD2  
                                   dtoa@d 0081                                     dtoa@i 00A1  
                                   dtoa@n 0099                                     dtoa@p 0093  
                                   dtoa@s 0097                                     dtoa@w 0095  
                          ?_INT2_CallBack 0001                  _INT1_SetInterruptHandler 2B92  
                                   pclath 000FFA                                     tablat 000FF5  
                                   ttemp5 0060                                     ttemp6 0063  
                                   ttemp7 0067                                     status 000FD8  
                                   wtemp8 0060                           __end_of_sprintf 26D6  
                          __CFG_HFOFST$ON 000000                           __end_of_strncat 2466  
                          __CFG_PBADEN$ON 000000                           __initialization 271E  
                            __end_of_main 17DA                              __end_of_dtoa 15A6  
                        __end_of_BusyXLCD 27F0                        __size_of_DelayXLCD 0014  
                   __size_of_DelayPORXLCD 0026                   __end_of_TMR2_Initialize 2B54  
                               ??_ADC_ISR 005F                          __end_of_OpenXLCD 2070  
                                  ??_main 00CB                                    ??_dtoa 0089  
                           __activetblptr 000002                             _WriteDataXLCD 27F0  
                                  _ADCON0 000FC2                                    _ADCON1 000FC1  
                                  _ADCON2 000FC0                                    ?_fputc 0064  
                                  ?_fputs 006D                                    _ADRESH 000FC4  
                                  _ADRESL 000FC3                                    _CCPR1H 000FBF  
                                  _CCPR1L 000FBE                   main@contador_caracteres 0124  
                                  _ANSELA 000F38                                    ?_putch 0001  
                                  _ANSELB 000F39                                    _ANSELC 000F3A  
                                  _ANSELD 000F3B                                    _ANSELE 000F3C  
                                  i2l1300 0DB8                                    i2l1310 0EE8  
                                  i2l1302 0E30                                    i2l1207 082C  
                                  i2l1303 0E1E                                    i2l1224 0946  
                                  i2l1216 0AFC                                    i2l1208 081A  
                                  i2l1233 0A16                                    i2l1209 07E0  
                                  i2l1234 0A04                                    i2l1261 12C0  
                                  i2l1341 1A80                                    i2l1334 19E8  
                                  i2l1263 1120                                    i2l1272 1166  
                                  i2l1337 1B44                                    i2l1274 11DE  
                                  i2l1266 10E4                                    i2l1275 11CC  
                                  i2l1348 1ADC                                    i2l1293 0BC2  
                                  i2l3401 07C8                                    i2l3321 0658  
                                  i2l1297 0F26                                    i2l3145 2BCE  
                                  i2l3147 2B30                                    i2l3411 080C  
                                  i2l3403 07D8                                    i2l3331 068C  
                                  i2l3323 065A                                    i2l3251 2610  
                                  i2l3243 25BA                                    i2l3501 0ABC  
                                  i2l3413 080E                                    i2l3405 07EE  
                                  i2l3341 06BE                                    i2l3325 066A  
                                  i2l3333 0694                                    i2l3317 063E  
                                  i2l3245 25C8                                    i2l3261 25A8  
                                  i2l3253 2552                                    i2l4061 293E  
                          __CFG_WDTEN$OFF 000000                                    i2l3511 0ADC  
                                  i2l3503 0AC0                                    i2l3431 0896  
                                  i2l3423 085E                                    i2l3415 0818  
                                  i2l3407 07FA                                    i2l3351 06F4  
                                  i2l3343 06C4                                    i2l3335 06A4  
                                  i2l3327 067A                                    i2l3319 064A  
                                  i2l3247 25E0                                    i2l3255 2560  
                                  i2l4071 2BBA                                    i2l3271 24AA  
                                  i2l3263 2466                                    i2l4063 2950  
                                  i2l4055 2932                                    i2l3513 0AEA  
                                  i2l3505 0ACE                                    i2l3433 089A  
                                  i2l3425 086E                                    i2l3417 083A  
                                  i2l3441 08BA                                    i2l3409 07FE  
                                  i2l3361 0730                                    i2l3353 0704  
                                  i2l3345 06D2                                    i2l3337 06AA  
                                  i2l3329 068A                                    i2l3601 111E  
                                  i2l3521 0F34                                    i2l4081 29D2  
                                  i2l3249 25F8                                    i2l4065 2BC0  
                                  i2l3257 2578                                    i2l3273 24C0  
                                  i2l3265 2470                                    i2l4073 2BB0  
                                  i2l4057 2934                                    i2l3515 0AEC  
                                  i2l3507 0AD4                                    i2l3443 08E0  
                                  i2l3451 0936                                    i2l3435 08A8  
                                  i2l3427 087C                                    i2l3419 084A  
                                  i2l3371 074E                                    i2l3363 073E  
                                  i2l3355 0706                                    i2l3347 06D4  
                                  i2l3339 06BC                                    i2l3611 1164  
                                  i2l3603 1130                                    i2l3531 0F74  
                                  i2l3523 0F42                                    i2l4067 2BC2  
                                  i2l3259 2590                                    i2l3267 247E  
                                  i2l4075 2BB2                                    i2l4059 293A  
                                  i2l3509 0AD6                                    i2l3461 098A  
                                  i2l3453 095C                                    i2l3445 0914  
                                  i2l3437 08AA                                    i2l3429 088A  
                                  i2l3381 0762                                    i2l3373 0752  
                                  i2l3365 0742                                    i2l3349 06E4  
                                  i2l3357 070E                                    i2l3621 11C4  
                                  i2l3605 1146                                    i2l3613 1176  
                                  i2l3541 0F9A                                    i2l3533 0F76  
                                  i2l3525 0F44                                    i2l3701 0C0C  
                                  i2l4077 29A4                                    i2l4069 2BB8  
                                  i2l3269 2494                                    i2l4181 0028  
                                  i2l3471 09B4                                    i2l3463 0998  
                                  i2l3455 096C                                    i2l3447 0916  
                                  i2l3439 08B4                                    i2l3391 0776  
                                  i2l3383 0766                                    i2l3375 0756  
                                  i2l3367 0746                                    i2l3359 071E  
                                  i2l3631 1232                                    i2l3615 1184  
                                  i2l3607 114C                                    i2l3551 0FDA  
                                  i2l3543 0FA8                                    i2l3527 0F54  
                                  i2l3535 0F7E                                    i2l3519 0F28  
                                  i2l3711 0C5E                                    i2l3703 0C22  
                                  i2l4079 29B8                                    i2l4191 007E  
                                  i2l4183 0036                                    i2l3481 09E6  
                                  i2l3473 09C4                                    i2l3465 099A  
                                  i2l3449 0926                                    i2l3393 077A  
                                  i2l3385 076A                                    i2l3377 075A  
                                  i2l3369 074A                                    i2l3641 129C  
                                  i2l3625 11EE                                    i2l3633 1236  
                                  i2l3617 1188                                    i2l3609 1156  
                                  i2l3561 101A                                    i2l3553 0FDC  
                                  i2l3545 0FAA                                    i2l3537 0F8E  
                                  i2l3529 0F64                                    i2l3721 0CA4  
                                  i2l3713 0C6C                                    i2l3705 0C2E  
                                  i2l3801 20DA                                    i2l4193 0094  
                                  i2l4185 004C                                    i2l3491 0A40  
                                  i2l3483 09FC                                    i2l3467 09A8  
                                  i2l3459 0980                                    i2l3475 09C6  
                                  i2l3387 076E                                    i2l3379 075E  
                                  i2l3395 077E                                    i2l3643 12A0  
                                  i2l3635 1250                                    i2l3627 11FA  
                                  i2l3619 1196                                    i2l3571 104A  
                                  i2l3563 1022                                    i2l3547 0FBA  
                                  i2l3555 0FE4                                    i2l3539 0F94  
                                  i2l3731 0D12                                    i2l3723 0CBE  
                                  i2l3715 0C78                                    i2l3707 0C46  
                                  i2l3811 210A                                    i2l3803 20E8  
                                  i2l4195 00A2                                    i2l4187 005A  
                                  i2l4179 001A                                    i2l3493 0A7A  
                                  i2l3469 09B0                                    i2l3477 09D4  
                                  i2l3397 0782                                    i2l3389 0772  
                                  i2l3645 12AE                                    i2l3637 1266  
                                  i2l3629 1208                                    i2l3581 1088  
                                  i2l3573 104A                                    i2l3565 1026  
                                  i2l3557 0FF4                                    i2l3549 0FCA  
                                  i2l3741 0DA8                                    i2l3733 0D3C  
                                  i2l3725 0CCE                                    i2l3717 0C88  
                                  i2l3709 0C52                                    i2l3661 0B18  
                                  i2l3821 2134                                    i2l3813 2114  
                                  i2l3901 29EA                                    i2l4197 00B8  
                                  i2l4189 0070                                    i2l3487 0A26  
                                  i2l3495 0A7C                                    i2l3479 09D8  
                                  i2l3399 07AC                                    i2l3647 12B4  
                                  i2l3639 1280                                    i2l3591 10D4  
                                  i2l3583 1098                                    i2l3559 100A  
                                  i2l3751 0DE8                                    i2l3743 0DB6  
                                  i2l3735 0D72                                    i2l3727 0CEA  
                                  i2l3719 0C94                                    i2l3671 0B50  
                                  i2l3663 0B1A                                    i2l3823 2144  
                                  i2l3831 1994                                    i2l4199 00C6  
                                  i2l3497 0A8C                                    i2l3489 0A32  
                                  i2l3649 12B6                                    i2l3593 10E2  
                                  i2l3585 10A8                                    i2l3577 105E  
                                  i2l3569 103A                                    i2l3761 0E5A  
                                  i2l3753 0E16                                    i2l3745 0DC8  
                                  i2l3737 0D80                                    i2l3729 0CF6  
                                  i2l3681 0B7C                                    i2l3673 0B60  
                                  i2l3665 0B2A                                    i2l3657 0AFE  
                                  i2l3825 2154                                    i2l3809 2100  
                                  i2l3833 19A4                                    i2l3499 0A9C  
                                  i2l3595 10EE                                    i2l3587 10B0  
                                  i2l3579 1078                                    i2l3771 0ED0  
                                  i2l3763 0E84                                    i2l3747 0DD6  
                                  i2l3739 0D9E                                    i2l3691 0BD2  
                                  i2l3683 0B8C                                    i2l3675 0B66  
                                  i2l3667 0B3A                                    i2l3659 0B0A  
                                  i2l3827 2164                                    i2l3819 2128  
                                  i2l3851 1A6A                                    i2l3843 1A22  
                                  i2l3835 19B2                                    i2l3597 110C  
                                  i2l3589 10C0                                    i2l3773 0EEC  
                                  i2l3781 0F12                                    i2l3757 0E40  
                                  i2l3765 0E88                                    i2l3749 0DDA  
                                  i2l3693 0BE2                                    i2l3685 0B9C  
                                  i2l3677 0B6C                                    i2l3669 0B4A  
                                  i2l3861 1AEA                                    i2l3853 1A76  
                                  i2l3845 1A2A                                    i2l3837 19F8  
                                  i2l3941 2A66                                    i2l3599 110E  
                                  i2l3783 0F16                                    i2l3775 0EFC  
                                  i2l3767 0EA2                                    i2l3759 0E4C  
                                  i2l3687 0BAC                                    i2l3679 0B7A  
                                  i2l3871 1B32                                    i2l3863 1AEC  
                                  i2l3855 1AB2                                    i2l3847 1A36  
                                  i2l3839 1A0E                                    i2l3943 2A88  
                                  i2l3777 0F0A                                    i2l3769 0EB6  
                                  i2l3697 0BF6                                    i2l3689 0BB2  
                                  i2l3793 209A                                    i2l3873 1B34  
                                  i2l3865 1AF0                                    i2l3857 1ABE  
                                  i2l3849 1A68                                    i2l3945 2176  
                                  i2l3779 0F0C                                    i2l3699 0C02  
                                  i2l3795 20C4                                    i2l3787 2070  
                                  i2l3867 1B14                                    i2l3859 1ACC  
                                  i2l3947 2182                                    i2l3891 2A36  
                                  i2l3797 20C6                                    i2l3789 2086  
                                  i2l3869 1B24                                    i2l3949 21F2  
                                  i2l3893 2A4A                                    i2l3799 20D6  
                                  i2l3895 2A06                                    i2l3897 2A1A  
                                  i2l3899 29D6                                    _OSCCON 000FD3  
                       _temp_ambiente_LCD 0120                          __end_of___xxtofl 1B46  
                            _DelayPORXLCD 2AB4                            __CFG_XINST$OFF 000000  
                               ??_Timer_0 0001                              _CCPTMRS0bits 000F49  
                            vfprintf@cfmt 00B9      __size_of_ADC_DefaultInterruptHandler 0002  
        __size_of_ADC_SetInterruptHandler 000A                                 ??___aodiv 0074  
                               ??___fladd 0030                                 ??___aomod 0074  
                               ??___fldiv 0040                            __CFG_STVREN$ON 000000  
                               ??___flmul 0017                                 ??___fltol 0055  
                        ?_TMR0_Initialize 0001                                    clear_0 2744  
                                  clear_1 2750                                    pad@buf 0076  
                         ??_INT0_CallBack 0001                            ?_WriteDataXLCD 0001  
                                  dtoa@fp 007F                                    _strlen 28F8  
                                  fputc@c 0064      __end_of_INT2_DefaultInterruptHandler 2BD8  
   __size_of_INT2_DefaultInterruptHandler 0002              _INT2_DefaultInterruptHandler 2BD6  
                                  fputs@c 0071                                    fputs@i 0072  
                                  fputs@s 006D                           ??_INT1_CallBack 0001  
                            __mediumconst 0000                                    tblptrh 000FF7  
                                  tblptrl 000FF6                                    tblptru 000FF8  
                                  putch@c 0001                          __end_of_putsXLCD 2552  
                         ??_INT2_CallBack 0001                          __end_of_vfprintf 2684  
 ADC_SetInterruptHandler@InterruptHandler 0064  INT2_SetInterruptHandler@InterruptHandler 0064  
INT1_SetInterruptHandler@InterruptHandler 0064  INT0_SetInterruptHandler@InterruptHandler 0064  
TMR0_SetInterruptHandler@InterruptHandler 0064                                 ??_sprintf 00C1  
                               ??_strncat 006E             __size_of_INTERRUPT_Initialize 000C  
                       __end_of_DelayXLCD 2B30                              ___xxtofl@arg 000B  
                            ___xxtofl@exp 000A           ?_INTERRUPT_InterruptManagerHigh 0001  
        ??_INTERRUPT_InterruptManagerHigh 0060                         _SYSTEM_Initialize 2ADA  
                            ___xxtofl@val 0001                                __accesstop 0060  
                 __end_of__initialization 2756                                 ?_INT0_ISR 0001  
                               ?_INT1_ISR 0001                                 ?_INT2_ISR 0001  
                      ?_SYSTEM_Initialize 0001                             ___rparam_used 000001  
                              ___fltol@f1 0051                         ?_EPWM1_Initialize 0001  
            __size_of_ADC_StartConversion 0004                            __pcstackCOMRAM 0001  
                            __pidataBANK0 2BC8                       ??_SYSTEM_Initialize 0068  
                               ?_TMR0_ISR 0001                        ??_EPWM1_Initialize 0064  
                           __end_of_fputc 2324                             __end_of_fputs 271E  
                           __end_of_putch 2BD4                          ?_TMR2_Initialize 0001  
                __end_of_LCD_inicio_teste 1F66                   _ADC_GetConversionResult 2B30  
             __size_of_EXT_INT_Initialize 003E          __end_of_INT2_SetInterruptHandler 2B92  
         fp__INT2_DefaultInterruptHandler 0000             ?_INT2_DefaultInterruptHandler 0001  
                                 ??_fputc 0068                 __end_of_SYSTEM_Initialize 2AFC  
                                 ??_fputs 0071                    __size_of_DelayFor18TCY 0010  
                                 ??_putch 0064                                __pbssBANK0 00CC  
                              __pbssBANK1 0100                                 ?_BusyXLCD 0001  
                         __CFG_PLLCFG$OFF 000000                           WriteCmdXLCD@cmd 0064  
                   _INT0_InterruptHandler 00EF                                ??_INT0_ISR 0001  
                              ??_INT1_ISR 0001                                ??_INT2_ISR 0001  
                               ?_OpenXLCD 0001                        __CFG_CCP2MX$PORTC1 000000  
                       WriteDataXLCD@data 0064          __end_of_TMR0_SetInterruptHandler 2B88  
                              ??_TMR0_ISR 0002                        __CFG_CCP3MX$PORTB5 000000  
                                 _CCP1CON 000FBD                           ??_WriteDataXLCD 0064  
                                 _ECCP1AS 000FB6                                   _ADC_ISR 29A4  
                 __size_of_ADC_Initialize 0026                                   ?_strlen 0064  
              ??_INT1_SetInterruptHandler 0066                                 ?___xxtofl 0001  
                                 _OSCCON2 000FD2                        __size_of_vfpfcnvrt 01B8  
                                 _OSCTUNE 000F9B                                   _PWM1CON 000FB7  
                __size_of_ADC_temperatura 00E2                        fp__ADC_temperatura 0000  
                              ??_BusyXLCD 0064         __size_of_INT0_SetInterruptHandler 000A  
               __size_of_teclado_coluna_1 0068                 __size_of_teclado_coluna_2 0068  
               __size_of_teclado_coluna_3 0078                 ?_INT0_SetInterruptHandler 0064  
                              ??_OpenXLCD 0065                           __CFG_PWRTEN$OFF 000000  
                    _ADC_InterruptHandler 00E9                                   __Hparam 0000  
                 _ADC_SetInterruptHandler 2BA6                                   __Lparam 0000  
                                 _Timer_0 2A66                                   ___aodiv 1B46  
                                 ___fladd 063E                                   ___aomod 1CD0  
                                 ___fldiv 0F28                             _DelayFor18TCY 2B54  
                                 ___flmul 0AFE                                   ___fltol 2070  
                               ?_putsXLCD 0065                                 ?_vfprintf 00B3  
                            __psmallconst 0600                 ??_ADC_GetConversionResult 0003  
                                 __pcinit 271E                                   __ramtop 0600  
                                 __ptext0 15A6                                   __ptext1 23EE  
                                 __ptext2 2684                                   __ptext3 2622  
                                 __ptext4 17DA                                   __ptext5 12C2  
                                 __ptext6 2324                                   __ptext7 28F8  
                                 __ptext8 26D6                                   __ptext9 2258  
                               _T0CONbits 000FD5                           __size_of_strlen 003A  
                   _OSCILLATOR_Initialize 2B64                                 _T2CONbits 000FBA  
                            __size_of_abs 0042                              __size_of_pad 00CA  
                              ??___xxtofl 0005                                   _tecla_n 00E2  
                ??_PIN_MANAGER_Initialize 0064                __size_of_SYSTEM_Initialize 0022  
                                 _sprintf 2684                                   _strncat 23EE  
                    end_of_initialization 2756                  _INT2_SetInterruptHandler 2B88  
          ??_INT2_DefaultInterruptHandler 0001                                   fputc@fp 0066  
                           __Lmediumconst 0000                                   fputs@fp 006F  
                       __end_of_vfpfcnvrt 1992                      _ADC_temperatura$2330 005B  
                          ?_DelayFor18TCY 0001                                   postdec1 000FE5  
                                 postdec2 000FDD                                   postinc0 000FEE  
                                 postinc1 000FE6                                   postinc2 000FDE  
                              ??_putsXLCD 0067                                ??_vfprintf 00B9  
                              fp__Timer_0 0000                                   strlen@a 0066  
                                 strlen@s 0064                  _TMR0_SetInterruptHandler 2B7E  
                   _INT1_InterruptHandler 00ED                                 _PORTBbits 000F81  
                             ___fladd@grs 0037       __end_of_ADC_DefaultInterruptHandler 2BDE  
             _ADC_DefaultInterruptHandler 2BDC                             ___xxtofl@sign 0009  
                               _TRISDbits 000F95                       _ADC_StartConversion 2BCE  
                             ___fldiv@grs 004B                               ___fldiv@rem 0044  
                             ___flmul@grs 001C             ??_ADC_DefaultInterruptHandler 0001  
               ??_ADC_SetInterruptHandler 0066                               _CCP1CONbits 000FBD  
                       ??_ADC_temperatura 005B                                 _DelayXLCD 2B1C  
                       __size_of_INT0_ISR 0008                         __size_of_INT1_ISR 0008  
                       __size_of_INT2_ISR 0008                      ?_ADC_StartConversion 0001  
            __end_of_INTERRUPT_Initialize 2B7E      __end_of_INT0_DefaultInterruptHandler 2BDC  
   __size_of_INT0_DefaultInterruptHandler 0002              _INT0_DefaultInterruptHandler 2BDA  
                             vfpfcnvrt@ap 00A7                               vfpfcnvrt@fp 00A3  
                             vfpfcnvrt@ll 00AB                         __size_of_TMR0_ISR 003A  
                          _ADC_Initialize 2A8E                         ?_LCD_inicio_teste 0001  
                  ?_OSCILLATOR_Initialize 0001                     __end_of_INT0_CallBack 2A66  
                      ??_LCD_inicio_teste 0067                            __end_of_strlen 2932  
                     start_initialization 271E                 __size_of_EPWM1_Initialize 0020  
                __size_of_TMR0_Initialize 0038           __size_of_PIN_MANAGER_Initialize 0046  
                             __end_of_abs 28BA                     __end_of_INT1_CallBack 2A36  
                             __end_of_pad 23EE                             _tecla_premida 00E8  
                          _codigo_digital 00D6                     __end_of_INT2_CallBack 2A06  
                        _teclado_coluna_1 25BA                          _teclado_coluna_2 2552  
                        _teclado_coluna_3 2466                         __size_of_BusyXLCD 0046  
                              ?_DelayXLCD 0001                           ??_DelayFor18TCY 0064  
                   ??_ADC_StartConversion 0001                               vfprintf@fmt 00B5  
                       __size_of_OpenXLCD 010A                             ?_WriteCmdXLCD 0001  
                  __end_of_ADC_Initialize 2AB4                               __pdataBANK0 00F5  
                                ?_ADC_ISR 0001                __end_of_EXT_INT_Initialize 28F8  
         fp__INT0_DefaultInterruptHandler 0000             ?_INT0_DefaultInterruptHandler 0001  
                                ??_strlen 0066                                 ___fladd@a 002C  
                               ___fladd@b 0028                                 ___fldiv@a 003C  
                               ___fldiv@b 0038                                 ___flmul@a 0013  
                               ___flmul@b 000F          __end_of_INT0_SetInterruptHandler 2BA6  
                           __pcstackBANK0 0060                             __pcstackBANK1 0124  
                        ___aodiv@dividend 0064                  __size_of_TMR2_Initialize 0010  
                       __size_of___xxtofl 01B4                     _INT2_InterruptHandler 00EB  
                   _TMR0_InterruptHandler 00F3                                 __pnvBANK0 00E9  
                          putsXLCD@buffer 0065                    _PIN_MANAGER_Initialize 2764  
                               _dtoa$1517 0091                                  ?_Timer_0 0001  
                               __pintcode 0008                            ??_WriteCmdXLCD 0064  
                                ?___aodiv 0064                                  ?___fladd 0028  
                                ?___aomod 0064                                  ?___fldiv 0038  
                        ___aodiv@quotient 0076                                  ?___flmul 000F  
                                ?___fltol 0051                           ?_ADC_Initialize 0001  
                        __CFG_PRICLKEN$ON 000000                         __size_of_putsXLCD 0074  
                   __end_of_WriteDataXLCD 2834                         __size_of_vfprintf 0062  
                             __smallconst 0600                ??_INT2_SetInterruptHandler 0066  
                                ?_sprintf 00BB                            __size_of_fputc 00CC  
                          __size_of_fputs 0048                                  ?_strncat 0068  
                          __size_of_putch 0002                      _INTERRUPT_Initialize 2B72  
                       ??_TMR0_Initialize 0066                                  _INT0_ISR 2BC0  
                                _INT1_ISR 2BB8                                  _INT2_ISR 2BB0  
                                _LATAbits 000F89                                  _LATBbits 000F8A  
                                _LATDbits 000F8C         __size_of_INT1_SetInterruptHandler 000A  
               ?_INT1_SetInterruptHandler 0064                               ??_DelayXLCD 0064  
                                _IPR1bits 000F9F                                  _PIE1bits 000F9D  
                           ?_DelayPORXLCD 0001                                  i2u300_40 0A12  
                                i2u300_41 0A0E                                  i2u301_40 0A26  
                                i2u301_41 0A22                                  i2u302_40 0A40  
                                i2u310_40 0F54                                  i2u302_41 0A3C  
                                i2u310_41 0F50                                  i2u303_40 0A7A  
                                i2u311_40 0F64                                  i2u303_41 0A76  
                                i2u311_41 0F60                                  i2u304_40 0A8C  
                                i2u320_40 1130                                  i2u312_40 0FA8  
                                i2u304_41 0A88                                  i2u320_41 112C  
                                i2u312_41 0FA4                                  i2u305_40 0A9C  
                                i2u321_40 1146                                  i2u313_40 0FBA  
                                i2u305_41 0A98                                  i2u321_41 1142  
                                i2u313_41 0FB6                                  i2u306_40 0ABC  
                                i2u330_40 1280                                  i2u322_40 1164  
                                i2u314_40 0FCA                                  i2u410_40 00B8  
                                i2u402_40 0028                                  i2u306_41 0AB8  
                                i2u330_41 127C                                  i2u322_41 1160  
                                i2u314_41 0FC6                                  i2u410_41 00B4  
                                i2u402_41 0024                                  i2u307_40 0ACE  
                                i2u331_40 12AE                                  i2u323_40 1184  
                                i2u315_40 100A                                  i2u411_40 00C6  
                                i2u403_40 0036                                  i2u307_41 0ACA  
                                i2u331_41 12AA                                  i2u323_41 1180  
                                i2u315_41 1006                                  i2u411_41 00C2  
                                i2u403_41 0032                                  i2u308_40 0AEA  
                                i2u324_40 1196                                  i2u316_40 104A  
                                i2u340_40 0D5C                                  i2u332_40 0B18  
                                i2u260_40 2590                                  i2u404_40 004C  
                                i2u308_41 0AE6                                  i2u324_41 1192  
                                i2u316_41 1046                                  i2u332_41 0B14  
                                i2u260_41 258C                                  i2u404_41 0048  
                                i2u340_45 0D52                                  i2u325_40 11C4  
                                i2u317_40 10C0                                  i2u309_40 0F42  
                                i2u341_40 0DB6                                  i2u333_40 0B2A  
                                i2u261_40 25A8                                  i2u405_40 005A  
              ??_TMR0_SetInterruptHandler 0066                                  i2u325_41 11C0  
                                i2u317_41 10BC                                  i2u309_41 0F3E  
                                i2u341_41 0DB2                                  i2u333_41 0B26  
                                i2u261_41 25A4                                  i2u405_41 0056  
                                i2u270_40 0658                                  i2u326_40 11DA  
                                i2u318_40 10E2                                  i2u350_40 0F0A  
                                i2u342_40 0DD6                                  i2u334_40 0B3A  
                                i2u254_40 25C8                                  i2u262_40 247E  
                                i2u406_40 0070                                  i2u270_41 0654  
                                i2u326_41 11D6                                  i2u318_41 10DE  
                                i2u350_41 0F06                                  i2u342_41 0DD2  
                                i2u334_41 0B36                                  i2u254_41 25C4  
                                i2u262_41 247A                                  i2u406_41 006C  
                                i2u271_40 066A                                  i2u327_40 11EE  
                                i2u319_40 110C                                  i2u343_40 0DE8  
                                i2u335_40 0B7A                                  i2u351_40 2086  
                                i2u255_40 25E0                                  i2u263_40 2494  
                                i2u407_40 007E                                  i2u271_41 0666  
                                i2u327_41 11EA                                  i2u319_41 1108  
                                i2u343_41 0DE4                                  i2u335_41 0B76  
                                i2u351_41 2082                                  i2u255_41 25DC  
                                i2u263_41 2490                                  i2u407_41 007A  
                                i2u280_40 07C4                                  i2u272_40 067A  
                                i2u328_40 1208                                  i2u344_40 0E16  
                                i2u336_40 0B8C                                  i2u352_40 20BA  
                                i2u360_40 1A0E                                  i2u256_40 25F8  
                                i2u264_40 24AA                                  i2u408_40 0094  
                                i2u280_41 07BE                                  i2u272_41 0676  
                                i2u328_41 1204                                  i2u344_41 0E12  
                                i2u336_41 0B88                                  i2u360_41 1A0A  
                                i2u256_41 25F4                                  i2u264_41 24A6  
                                i2u408_41 0090                                  i2u352_45 20B0  
                                i2u281_40 07C6                                  i2u273_40 06BC  
                                i2u329_40 1250                                  i2u345_40 0E2C  
                                i2u337_40 0B9C                                  i2u353_40 20E8  
                                i2u361_40 1A64                                  i2u257_40 2610  
                                i2u265_40 24C0                                  i2u409_40 00A2  
                                i2u273_41 06B8                                  i2u329_41 124C  
                                i2u345_41 0E28                                  i2u337_41 0B98  
                                i2u353_41 20E4                                  i2u361_41 1A60  
                                i2u257_41 260C                                  i2u265_41 24BC  
                                i2u409_41 009E                                  _PIR1bits 000F9E  
                         OpenXLCD@lcdtype 0001                                  i2u290_40 08E0  
                                i2u282_40 07EE                                  i2u274_40 06D2  
                                i2u346_40 0E40                                  i2u338_40 0BD2  
                                i2u354_40 20FC                                  i2u362_40 1AAE  
                                i2u258_40 2560                                  i2u370_40 2A1A  
                                i2u290_41 08DC                                  i2u282_41 07EA  
                                i2u274_41 06CE                                  i2u346_41 0E3C  
                                i2u338_41 0BCE                                  i2u354_41 20F8  
                                i2u362_41 1AAA                                  i2u258_41 255C  
                                i2u370_41 2A16                                  i2u291_40 0926  
                                i2u283_40 080C                                  i2u275_40 06E4  
                                i2u347_40 0E5A                                  i2u339_40 0BE2  
                                i2u355_40 2124                                  i2u363_40 1ACC  
                                i2u259_40 2578                                  i2u291_41 0922  
                                i2u283_41 0808                                  i2u275_41 06E0  
                                i2u347_41 0E56                                  i2u339_41 0BDE  
                                i2u355_41 2120                                  i2u363_41 1AC8  
                                i2u259_41 2574                                  i2u292_40 095C  
                                i2u284_40 082C                                  i2u276_40 06F4  
                                i2u348_40 0EA2                                  i2u356_40 2144  
                                i2u364_40 1ADC                                  i2u371_48 2A20  
                                i2u372_40 29EA                                  i2u292_41 0958  
                                i2u284_41 0828                                  i2u276_41 06F0  
                                i2u348_41 0E9E                                  i2u356_41 2140  
                                i2u364_41 1AD8                                  i2u371_49 2A34  
                                i2u372_41 29E6                                  i2u293_40 096C  
                                i2u285_40 083A                                  i2u277_40 0730  
                                i2u349_40 0ED0                                  i2u357_40 2154  
                                i2u365_40 1AEA                                  i2u293_41 0968  
                                i2u285_41 0836                                  i2u277_41 072C  
                                i2u349_41 0ECC                                  i2u357_41 2150  
                                i2u365_41 1AE6                                  i2u294_40 0998  
                                i2u286_40 084A                                  i2u278_40 073E  
                                i2u366_40 1B24                                  i2u358_40 19A4  
                                i2u373_48 29F0                                  i2u374_40 2A76  
                                i2u294_41 0994                                  i2u286_41 0846  
                                i2u278_41 073A                                  i2u366_41 1B20  
                                i2u358_41 19A0                                  i2u373_49 2A04  
                                i2u374_41 2A70                                  i2u374_46 2A78  
                                i2u295_40 09A8                                  i2u287_40 087C  
                                i2u279_40 07AC                                  i2u367_40 1B32  
                                i2u359_40 19B2                                  i2u295_41 09A4  
                                i2u287_41 0878                                  i2u279_41 07A8  
                                i2u367_41 1B2E                                  i2u359_41 19AE  
                                i2u296_40 09C4                                  i2u288_40 088A  
                                i2u368_40 2A4A                                  i2u296_41 09C0  
                                i2u288_41 0886                                  i2u368_41 2A46  
                                i2u297_40 09D4                                  i2u289_40 08A8  
                                i2u297_41 09D0                                  i2u289_41 08A4  
                                i2u298_40 09E6                                  i2u369_48 2A50  
                                i2u386_40 2950                                  i2u298_41 09E2  
                                i2u369_49 2A64                                  i2u386_41 294C  
                                i2u299_40 09FC                                  i2u299_41 09F8  
                                i2u388_40 29B8                                  i2u387_48 2956  
                                i2u388_41 29B4                                  i2u387_49 296A  
                                i2u389_48 29BE                                  i2u389_49 29D2  
                               _temp_alar 00D8                                  _RCONbits 000FD0  
                        __CFG_WDTPS$32768 000000            fp__ADC_DefaultInterruptHandler 0000  
                                _TMR0_ISR 2932                                  _PSTR1CON 000FB9  
                               _vfpfcnvrt 17DA                          __size_of_ADC_ISR 0032  
                              _ADCON0bits 000FC2                             _temp_alar_int 00DA  
                           _temp_ambiente 00D4                          _EPWM1_Initialize 2AFC  
          ??_INT0_DefaultInterruptHandler 0001                           _ADC_temperatura 2176  
                             _INTCON2bits 000FF1                               _INTCON3bits 000FF0  
                               copy_data0 2732                     ?_INTERRUPT_Initialize 0001  
                _INT0_SetInterruptHandler 2B9C                                  _BusyXLCD 27AA  
                             _LCD_linha_1 00F7                               _LCD_linha_2 00F5  
                            _tecla_limpar 00E0                         ??_TMR2_Initialize 0064  
                          ??_DelayPORXLCD 0064                                  _OpenXLCD 1F66  
                                __Hrparam 0000                                vfprintf@ap 00B7  
                                __Lrparam 0000                                vfprintf@fp 00B3  
                ?_ADC_GetConversionResult 0001                       fp__teclado_coluna_1 0000  
                     fp__teclado_coluna_2 0000                       fp__teclado_coluna_3 0000  
                      __CFG_BOREN$SBORDIS 000000                          __size_of_Timer_0 0028  
                       __CFG_P2BMX$PORTD2 000000                   ??_OSCILLATOR_Initialize 0064  
                        __size_of___aodiv 018A                          __size_of___fladd 04C0  
                        __size_of___aomod 0166                          __size_of___fldiv 039A  
                        __size_of___flmul 042A                          __size_of___fltol 0106  
                              ?_vfpfcnvrt 00A3                           ___aodiv@divisor 006C  
                         ___aodiv@counter 0074                  __end_of_teclado_coluna_1 2622  
                __end_of_teclado_coluna_2 25BA                  __end_of_teclado_coluna_3 24DE  
                              sprintf@fmt 00BD                                  ___xxtofl 1992  
                                __ptext10 2BD2                                  __ptext11 2878  
                                __ptext20 2B72                                  __ptext12 1CD0  
                                __ptext21 28BA                                  __ptext13 1B46  
                                __ptext30 27F0                                  __ptext22 2B88  
                                __ptext14 2ADA                                  __ptext31 1F66  
                                __ptext23 2B92                                  __ptext15 2B44  
                                __ptext40 2A66                                  __ptext32 2834  
                                __ptext24 2B9C                                  __ptext16 296C  
                                __ptext41 2BCE                                  __ptext33 2B1C  
                                __ptext25 2AFC                                  __ptext17 2B7E  
                                __ptext50 2BC0                                  __ptext42 2BB0  
                                __ptext34 2AB4                                  __ptext26 2A8E  
                                __ptext18 2764                                  __ptext51 2A36  
                                __ptext43 29D6                                  __ptext35 27AA  
                                __ptext27 2BA6                                  __ptext19 2B64  
                                __ptext60 0F28                                  __ptext52 2BDA  
                                __ptext44 2BD6                                  __ptext36 2B54  
                                __ptext28 1E36                                  __ptext61 063E  
                                __ptext53 25BA                                  __ptext45 2466  
                                __ptext29 24DE                                  __ptext62 2B30  
                                __ptext54 29A4                                  __ptext46 2BB8  
                                __ptext38 2932                                  __ptext63 0000  
                                __ptext55 2BDC                                  __ptext47 2A06  
                                __ptext39 2BD4                                  __ptext56 2176  
                                __ptext48 2BD8                                  __ptext57 1992  
                                __ptext49 2552                                  __ptext58 2070  
                                __ptext59 0AFE                      __end_of_WriteCmdXLCD 2878  
                        __size_of_sprintf 0052                          __size_of_strncat 0078  
               __size_of_LCD_inicio_teste 0130                             __size_of_main 0234  
                           __size_of_dtoa 02E4      __end_of_TMR0_DefaultInterruptHandler 2BD6  
   __size_of_TMR0_DefaultInterruptHandler 0002              _TMR0_DefaultInterruptHandler 2BD4  
                                _pin_real 00DC                                  _pin_intr 00DE  
                                int$flags 005F                                  _putsXLCD 24DE  
                                _vfprintf 2622                   __end_of_ADC_temperatura 2258  
    __end_of_INT1_DefaultInterruptHandler 2BDA     __size_of_INT1_DefaultInterruptHandler 0002  
            _INT1_DefaultInterruptHandler 2BD8                          ___aomod@dividend 0064  
                              _INTCONbits 000FF2                      _contador_colunas_LCD 00F9  
                  ??_INTERRUPT_Initialize 0064                        _EXT_INT_Initialize 28BA  
                ?_ADC_SetInterruptHandler 0064                                  intlevel2 0000  
                               sprintf@ap 00C3               __end_of_ADC_StartConversion 2BD2  
                 ?_PIN_MANAGER_Initialize 0001           __end_of_ADC_GetConversionResult 2B44  
                     ?_EXT_INT_Initialize 0001                          ??_ADC_Initialize 0066  
                  __size_of_INT0_CallBack 0030           fp__TMR0_DefaultInterruptHandler 0000  
           ?_TMR0_DefaultInterruptHandler 0001                     __end_of_DelayFor18TCY 2B64  
                  __size_of_INT1_CallBack 0030                           ___aomod@divisor 006C  
                             ??_vfpfcnvrt 00A9                           ___aomod@counter 0074  
                  __size_of_INT2_CallBack 0030    __end_of_INTERRUPT_InterruptManagerHigh 00E2  
 __size_of_INTERRUPT_InterruptManagerHigh 00DA            _INTERRUPT_InterruptManagerHigh 0008  
                    ??_EXT_INT_Initialize 0066                                  sprintf@f 00C5  
                                sprintf@s 00BB           fp__INT1_DefaultInterruptHandler 0000  
           ?_INT1_DefaultInterruptHandler 0001                      __end_of_DelayPORXLCD 2ADA  
                         _TMR0_Initialize 296C                                  strncat@d 0068  
                                strncat@n 006C                                  strncat@s 006A  
        __end_of_INT1_SetInterruptHandler 2B9C                         __CFG_T3CMX$PORTC0 000000  
                           ___fladd@signs 0034                         __CFG_FOSC$ECMPIO6 000000  
                            ___aodiv@sign 0075            __end_of_PIN_MANAGER_Initialize 27AA  
                            ___fladd@aexp 0035                              ___fladd@bexp 0036  
                            ___aomod@sign 0075                  __end_of_EPWM1_Initialize 2B1C  
