

Microchip MPLAB XC8 Assembler V2.10 build 88905656 
                                                                                               Thu May 21 21:02:01 2020

Microchip MPLAB XC8 C Compiler v2.10 (Free license) build 20190730164152 Og1 
     1                           	processor	18F45K22
     2                           	fnconf	rparam,??,?,0
     3                           	opt	pw 120
     4                           	opt	flic
     5                           	psect	idataBANK1,global,class=CODE,delta=1,noexec
     6                           	psect	nvBANK0,global,class=BANK0,space=1,delta=1,lowdata,noexec
     7                           	psect	nvBANK1,global,class=BANK1,space=1,delta=1,lowdata,noexec
     8                           	psect	mediumconst,global,reloc=2,class=MEDIUMCONST,delta=1,noexec
     9                           	psect	cinit,global,reloc=2,class=CODE,delta=1
    10                           	psect	bssCOMRAM,global,class=COMRAM,space=1,delta=1,noexec
    11                           	psect	bssBANK0,global,class=BANK0,space=1,delta=1,lowdata,noexec
    12                           	psect	bssBANK1,global,class=BANK1,space=1,delta=1,lowdata,noexec
    13                           	psect	dataBANK1,global,class=BANK1,space=1,delta=1,lowdata,noexec
    14                           	psect	cstackBANK1,global,class=BANK1,space=1,delta=1,noexec
    15                           	psect	cstackBANK0,global,class=BANK0,space=1,delta=1,noexec
    16                           	psect	cstackCOMRAM,global,class=COMRAM,space=1,delta=1,noexec
    17                           	psect	text0,global,reloc=2,class=CODE,delta=1
    18                           	psect	text1,global,reloc=2,class=CODE,delta=1,group=2
    19                           	psect	text2,global,reloc=2,class=CODE,delta=1,group=2
    20                           	psect	text3,global,reloc=2,class=CODE,delta=1,group=2
    21                           	psect	text4,global,reloc=2,class=CODE,delta=1
    22                           	psect	text5,global,reloc=2,class=CODE,delta=1
    23                           	psect	text6,global,reloc=2,class=CODE,delta=1
    24                           	psect	text7,global,reloc=2,class=CODE,delta=1,group=2
    25                           	psect	text8,global,reloc=2,class=CODE,delta=1,group=1
    26                           	psect	text9,global,reloc=2,class=CODE,delta=1,group=1
    27                           	psect	text10,global,reloc=2,class=CODE,delta=1
    28                           	psect	text11,global,reloc=2,class=CODE,delta=1
    29                           	psect	text12,global,reloc=2,class=CODE,delta=1,group=2
    30                           	psect	text13,global,reloc=2,class=CODE,delta=1,group=2
    31                           	psect	text14,global,reloc=2,class=CODE,delta=1,group=2
    32                           	psect	text15,global,reloc=2,class=CODE,delta=1
    33                           	psect	text16,global,reloc=2,class=CODE,delta=1
    34                           	psect	text17,global,reloc=2,class=CODE,delta=1,group=2
    35                           	psect	text18,global,reloc=2,class=CODE,delta=1,group=2
    36                           	psect	text19,global,reloc=2,class=CODE,delta=1,group=2
    37                           	psect	text20,global,reloc=2,class=CODE,delta=1,group=1
    38                           	psect	text21,global,reloc=2,class=CODE,delta=1,group=2
    39                           	psect	text22,global,reloc=2,class=CODE,delta=1
    40                           	psect	text23,global,reloc=2,class=CODE,delta=1
    41                           	psect	text24,global,reloc=2,class=CODE,delta=1
    42                           	psect	text25,global,reloc=2,class=CODE,delta=1
    43                           	psect	text26,global,reloc=2,class=CODE,delta=1
    44                           	psect	text27,global,reloc=2,class=CODE,delta=1
    45                           	psect	text28,global,reloc=2,class=CODE,delta=1
    46                           	psect	text29,global,reloc=2,class=CODE,delta=1
    47                           	psect	text30,global,reloc=2,class=CODE,delta=1
    48                           	psect	text31,global,reloc=2,class=CODE,delta=1
    49                           	psect	text32,global,reloc=2,class=CODE,delta=1
    50                           	psect	text33,global,reloc=2,class=CODE,delta=1
    51                           	psect	text34,global,reloc=2,class=CODE,delta=1
    52                           	psect	text35,global,reloc=2,class=CODE,delta=1
    53                           	psect	text36,global,reloc=2,class=CODE,delta=1
    54                           	psect	text37,global,reloc=2,class=CODE,delta=1
    55                           	psect	text38,global,reloc=2,class=CODE,delta=1
    56                           	psect	text39,global,reloc=2,class=CODE,delta=1
    57                           	psect	text40,global,reloc=2,class=CODE,delta=1
    58                           	psect	text41,global,reloc=2,class=CODE,delta=1
    59                           	psect	text42,global,reloc=2,class=CODE,delta=1
    60                           	psect	text43,global,reloc=2,class=CODE,delta=1
    61                           	psect	text44,global,reloc=2,class=CODE,delta=1
    62                           	psect	text45,global,reloc=2,class=CODE,delta=1
    63                           	psect	text46,global,reloc=2,class=CODE,delta=1
    64                           	psect	text47,global,reloc=2,class=CODE,delta=1
    65                           	psect	text48,global,reloc=2,class=CODE,delta=1
    66                           	psect	text49,global,reloc=2,class=CODE,delta=1
    67                           	psect	text50,global,reloc=2,class=CODE,delta=1
    68                           	psect	text51,global,reloc=2,class=CODE,delta=1
    69                           	psect	intcode,global,reloc=2,class=CODE,delta=1
    70                           	psect	text53,global,reloc=2,class=CODE,delta=1
    71                           	psect	text54,global,reloc=2,class=CODE,delta=1
    72                           	psect	text55,global,reloc=2,class=CODE,delta=1
    73                           	psect	text56,global,reloc=2,class=CODE,delta=1
    74                           	psect	text57,global,reloc=2,class=CODE,delta=1
    75                           	psect	text58,global,reloc=2,class=CODE,delta=1
    76                           	psect	text59,global,reloc=2,class=CODE,delta=1
    77                           	psect	text60,global,reloc=2,class=CODE,delta=1
    78                           	psect	text61,global,reloc=2,class=CODE,delta=1
    79                           	psect	text62,global,reloc=2,class=CODE,delta=1
    80                           	psect	text63,global,reloc=2,class=CODE,delta=1
    81                           	psect	text64,global,reloc=2,class=CODE,delta=1
    82                           	psect	text65,global,reloc=2,class=CODE,delta=1
    83                           	psect	text66,global,reloc=2,class=CODE,delta=1
    84                           	psect	text67,global,reloc=2,class=CODE,delta=1
    85                           	psect	text68,global,reloc=2,class=CODE,delta=1
    86                           	psect	text69,global,reloc=2,class=CODE,delta=1
    87                           	psect	text70,global,reloc=2,class=CODE,delta=1
    88                           	psect	text71,global,reloc=2,class=CODE,delta=1
    89                           	psect	text72,global,reloc=2,class=CODE,delta=1
    90                           	psect	text73,global,reloc=2,class=CODE,delta=1
    91                           	psect	text74,global,reloc=2,class=CODE,delta=1
    92                           	psect	text75,global,reloc=2,class=CODE,delta=1
    93                           	psect	text76,global,reloc=2,class=CODE,delta=1
    94                           	psect	text77,global,reloc=2,class=CODE,delta=1,group=1
    95                           	psect	text78,global,reloc=2,class=CODE,delta=1,group=1
    96                           	psect	text79,global,reloc=2,class=CODE,delta=1,group=1
    97                           	psect	text80,global,reloc=2,class=CODE,delta=1,group=1
    98                           	psect	text81,global,reloc=2,class=CODE,delta=1,group=1
    99                           	psect	text82,global,reloc=2,class=CODE,delta=1
   100                           	psect	intsave_regs,global,class=BIGRAM,space=1,delta=1,noexec
   101                           	psect	text83,global,reloc=2,class=CODE,delta=1
   102                           	psect	rparam,global,class=COMRAM,space=1,delta=1,noexec
   103                           	psect	temp,global,ovrld,common,class=COMRAM,space=1,delta=1
   104  0000                     
   105                           ; Version 2.10
   106                           ; Generated 31/07/2019 GMT
   107                           ; 
   108                           ; Copyright Â© 2019, Microchip Technology Inc. and its subsidiaries ("Microchip")
   109                           ; All rights reserved.
   110                           ; 
   111                           ; This software is developed by Microchip Technology Inc. and its subsidiaries ("Microch
      +                          ip").
   112                           ; 
   113                           ; Redistribution and use in source and binary forms, with or without modification, are
   114                           ; permitted provided that the following conditions are met:
   115                           ; 
   116                           ;     1. Redistributions of source code must retain the above copyright notice, this lis
      +                          t of
   117                           ;        conditions and the following disclaimer.
   118                           ; 
   119                           ;     2. Redistributions in binary form must reproduce the above copyright notice, this 
      +                          list
   120                           ;        of conditions and the following disclaimer in the documentation and/or other
   121                           ;        materials provided with the distribution.
   122                           ; 
   123                           ;     3. Microchip's name may not be used to endorse or promote products derived from th
      +                          is
   124                           ;        software without specific prior written permission.
   125                           ; 
   126                           ; THIS SOFTWARE IS PROVIDED BY MICROCHIP "AS IS" AND ANY EXPRESS OR IMPLIED WARRANTIES,
   127                           ; INCLUDING, BUT NOT LIMITED TO, THE IMPLIED WARRANTIES OF MERCHANTABILITY AND FITNESS F
      +                          OR
   128                           ; PURPOSE ARE DISCLAIMED.  IN NO EVENT SHALL MICROCHIP BE LIABLE FOR ANY DIRECT, INDIREC
      +                          T,
   129                           ; INCIDENTAL, SPECIAL, EXEMPLARY, OR CONSEQUENTIAL DAMAGES (INCLUDING BUT NOT LIMITED TO
   130                           ; PROCUREMENT OF SUBSTITUTE GOODS OR SERVICES; LOSS OF USE, DATA OR PROFITS; OR BUSINESS
   131                           ; INTERRUPTION) HOWSOEVER CAUSED AND ON ANY THEORY OF LIABILITY, WHETHER IN CONTRACT, ST
      +                          RICT
   132                           ; LIABILITY, OR TORT (INCLUDING NEGLIGENCE OR OTHERWISE) ARISING IN ANY WAY OUT OF THE U
      +                          SE OF
   133                           ; THIS SOFTWARE, EVEN IF ADVISED OF THE POSSIBILITY OF SUCH DAMAGE.
   134                           ; 
   135                           ; 
   136                           ; Code-generator required, PIC18F45K22 Definitions
   137                           ; 
   138                           ; SFR Addresses
   139  0000                     
   140                           	psect	idataBANK1
   141  003A46                     __pidataBANK1:
   142                           	opt callstack 0
   143                           
   144                           ;initializer for _contador_colunas_LCD
   145  003A46  00C0               	dw	192
   146                           
   147                           	psect	nvBANK0
   148  0000F8                     __pnvBANK0:
   149                           	opt callstack 0
   150  0000F8                     _timer0ReloadVal:
   151                           	opt callstack 0
   152  0000F8                     	ds	2
   153                           
   154                           	psect	nvBANK1
   155  00019A                     __pnvBANK1:
   156                           	opt callstack 0
   157  00019A                     _EUSART1_ErrorHandler:
   158                           	opt callstack 0
   159  00019A                     	ds	2
   160  00019C                     _EUSART1_OverrunErrorHandler:
   161                           	opt callstack 0
   162  00019C                     	ds	2
   163  00019E                     _EUSART1_FramingErrorHandler:
   164                           	opt callstack 0
   165  00019E                     	ds	2
   166  0001A0                     _ADC_InterruptHandler:
   167                           	opt callstack 0
   168  0001A0                     	ds	2
   169  0001A2                     _EUSART1_RxDefaultInterruptHandler:
   170                           	opt callstack 0
   171  0001A2                     	ds	2
   172  0001A4                     _INT2_InterruptHandler:
   173                           	opt callstack 0
   174  0001A4                     	ds	2
   175  0001A6                     _INT1_InterruptHandler:
   176                           	opt callstack 0
   177  0001A6                     	ds	2
   178  0001A8                     _INT0_InterruptHandler:
   179                           	opt callstack 0
   180  0001A8                     	ds	2
   181  0001AA                     _TMR0_InterruptHandler:
   182                           	opt callstack 0
   183  0001AA                     	ds	2
   184  0000                     _CCPTMRS0bits	set	3913
   185  0000                     _ANSELA	set	3896
   186  0000                     _ANSELE	set	3900
   187  0000                     _ANSELB	set	3897
   188  0000                     _ANSELC	set	3898
   189  0000                     _ANSELD	set	3899
   190  0000                     _PORTBbits	set	3969
   191  0000                     _LATDbits	set	3980
   192  0000                     _TRISDbits	set	3989
   193  0000                     _PORTD	set	3971
   194  0000                     _LATBbits	set	3978
   195  0000                     _CCP1CONbits	set	4029
   196  0000                     _LATAbits	set	3977
   197  0000                     _RCREG1	set	4014
   198  0000                     _RCSTA1bits	set	4011
   199  0000                     _TXREG1	set	4013
   200  0000                     _TXSTA1bits	set	4012
   201  0000                     _SPBRGH1	set	4016
   202  0000                     _SPBRG1	set	4015
   203  0000                     _TXSTA1	set	4012
   204  0000                     _RCSTA1	set	4011
   205  0000                     _BAUDCON1	set	4024
   206  0000                     _ADCON0bits	set	4034
   207  0000                     _ADRESH	set	4036
   208  0000                     _ADRESL	set	4035
   209  0000                     _ADCON2	set	4032
   210  0000                     _ADCON1	set	4033
   211  0000                     _ADCON0	set	4034
   212  0000                     _CCPR1L	set	4030
   213  0000                     _CCPR1H	set	4031
   214  0000                     _PSTR1CON	set	4025
   215  0000                     _PWM1CON	set	4023
   216  0000                     _ECCP1AS	set	4022
   217  0000                     _CCP1CON	set	4029
   218  0000                     _T2CONbits	set	4026
   219  0000                     _T2CON	set	4026
   220  0000                     _TMR2	set	4028
   221  0000                     _PR2	set	4027
   222  0000                     _WPUB	set	3937
   223  0000                     _TRISD	set	3989
   224  0000                     _TRISC	set	3988
   225  0000                     _TRISB	set	3987
   226  0000                     _TRISA	set	3986
   227  0000                     _TRISE	set	3990
   228  0000                     _LATC	set	3979
   229  0000                     _LATB	set	3978
   230  0000                     _LATA	set	3977
   231  0000                     _LATD	set	3980
   232  0000                     _LATE	set	3981
   233  0000                     _OSCTUNE	set	3995
   234  0000                     _OSCCON2	set	4050
   235  0000                     _OSCCON	set	4051
   236  0000                     _PIR1bits	set	3998
   237  0000                     _PIE1bits	set	3997
   238  0000                     _IPR1bits	set	3999
   239  0000                     _RCONbits	set	4048
   240  0000                     _INTCON2bits	set	4081
   241  0000                     _INTCON3bits	set	4080
   242  0000                     _T0CON	set	4053
   243  0000                     _INTCONbits	set	4082
   244  0000                     _TMR0L	set	4054
   245  0000                     _TMR0H	set	4055
   246  0000                     _T0CONbits	set	4053
   247                           
   248                           	psect	mediumconst
   249  007DD0                     __pmediumconst:
   250                           	opt callstack 0
   251  007DD0  00                 	db	0
   252  007DD1                     STR_12:
   253  007DD1  0D                 	db	13
   254  007DD2  0A                 	db	10
   255  007DD3  0A                 	db	10
   256  007DD4  2D                 	db	45
   257  007DD5  2D                 	db	45
   258  007DD6  2D                 	db	45
   259  007DD7  2D                 	db	45
   260  007DD8  2D                 	db	45
   261  007DD9  2D                 	db	45
   262  007DDA  2D                 	db	45
   263  007DDB  2D                 	db	45
   264  007DDC  2D                 	db	45
   265  007DDD  2D                 	db	45
   266  007DDE  2D                 	db	45
   267  007DDF  2D                 	db	45
   268  007DE0  54                 	db	84	;'T'
   269  007DE1  45                 	db	69	;'E'
   270  007DE2  4D                 	db	77	;'M'
   271  007DE3  50                 	db	80	;'P'
   272  007DE4  45                 	db	69	;'E'
   273  007DE5  52                 	db	82	;'R'
   274  007DE6  41                 	db	65	;'A'
   275  007DE7  54                 	db	84	;'T'
   276  007DE8  55                 	db	85	;'U'
   277  007DE9  52                 	db	82	;'R'
   278  007DEA  41                 	db	65	;'A'
   279  007DEB  20                 	db	32
   280  007DEC  49                 	db	73	;'I'
   281  007DED  4E                 	db	78	;'N'
   282  007DEE  56                 	db	86	;'V'
   283  007DEF  C1                 	db	-63
   284  007DF0  4C                 	db	76	;'L'
   285  007DF1  49                 	db	73	;'I'
   286  007DF2  44                 	db	68	;'D'
   287  007DF3  41                 	db	65	;'A'
   288  007DF4  2D                 	db	45
   289  007DF5  2D                 	db	45
   290  007DF6  2D                 	db	45
   291  007DF7  2D                 	db	45
   292  007DF8  2D                 	db	45
   293  007DF9  2D                 	db	45
   294  007DFA  2D                 	db	45
   295  007DFB  2D                 	db	45
   296  007DFC  2D                 	db	45
   297  007DFD  2D                 	db	45
   298  007DFE  2D                 	db	45
   299  007DFF  2D                 	db	45
   300  007E00  00                 	db	0
   301  007E01                     STR_8:
   302  007E01  0D                 	db	13
   303  007E02  0A                 	db	10
   304  007E03  2D                 	db	45
   305  007E04  2D                 	db	45
   306  007E05  2D                 	db	45
   307  007E06  2D                 	db	45
   308  007E07  2D                 	db	45
   309  007E08  2D                 	db	45
   310  007E09  2D                 	db	45
   311  007E0A  2D                 	db	45
   312  007E0B  2D                 	db	45
   313  007E0C  2D                 	db	45
   314  007E0D  2D                 	db	45
   315  007E0E  2D                 	db	45
   316  007E0F  2D                 	db	45
   317  007E10  2D                 	db	45
   318  007E11  2D                 	db	45
   319  007E12  2D                 	db	45
   320  007E13  2D                 	db	45
   321  007E14  53                 	db	83	;'S'
   322  007E15  75                 	db	117	;'u'
   323  007E16  62                 	db	98	;'b'
   324  007E17  2D                 	db	45
   325  007E18  6D                 	db	109	;'m'
   326  007E19  65                 	db	101	;'e'
   327  007E1A  6E                 	db	110	;'n'
   328  007E1B  75                 	db	117	;'u'
   329  007E1C  2D                 	db	45
   330  007E1D  2D                 	db	45
   331  007E1E  2D                 	db	45
   332  007E1F  2D                 	db	45
   333  007E20  2D                 	db	45
   334  007E21  2D                 	db	45
   335  007E22  2D                 	db	45
   336  007E23  2D                 	db	45
   337  007E24  2D                 	db	45
   338  007E25  2D                 	db	45
   339  007E26  2D                 	db	45
   340  007E27  2D                 	db	45
   341  007E28  2D                 	db	45
   342  007E29  2D                 	db	45
   343  007E2A  2D                 	db	45
   344  007E2B  2D                 	db	45
   345  007E2C  2D                 	db	45
   346  007E2D  2D                 	db	45
   347  007E2E  2D                 	db	45
   348  007E2F  00                 	db	0
   349  007E30                     STR_2:
   350  007E30  0D                 	db	13
   351  007E31  0A                 	db	10
   352  007E32  2D                 	db	45
   353  007E33  2D                 	db	45
   354  007E34  2D                 	db	45
   355  007E35  2D                 	db	45
   356  007E36  2D                 	db	45
   357  007E37  2D                 	db	45
   358  007E38  2D                 	db	45
   359  007E39  2D                 	db	45
   360  007E3A  2D                 	db	45
   361  007E3B  2D                 	db	45
   362  007E3C  2D                 	db	45
   363  007E3D  2D                 	db	45
   364  007E3E  2D                 	db	45
   365  007E3F  2D                 	db	45
   366  007E40  2D                 	db	45
   367  007E41  4D                 	db	77	;'M'
   368  007E42  65                 	db	101	;'e'
   369  007E43  6E                 	db	110	;'n'
   370  007E44  75                 	db	117	;'u'
   371  007E45  20                 	db	32
   372  007E46  70                 	db	112	;'p'
   373  007E47  72                 	db	114	;'r'
   374  007E48  69                 	db	105	;'i'
   375  007E49  6E                 	db	110	;'n'
   376  007E4A  63                 	db	99	;'c'
   377  007E4B  69                 	db	105	;'i'
   378  007E4C  70                 	db	112	;'p'
   379  007E4D  61                 	db	97	;'a'
   380  007E4E  6C                 	db	108	;'l'
   381  007E4F  2D                 	db	45
   382  007E50  2D                 	db	45
   383  007E51  2D                 	db	45
   384  007E52  2D                 	db	45
   385  007E53  2D                 	db	45
   386  007E54  2D                 	db	45
   387  007E55  2D                 	db	45
   388  007E56  2D                 	db	45
   389  007E57  2D                 	db	45
   390  007E58  2D                 	db	45
   391  007E59  2D                 	db	45
   392  007E5A  2D                 	db	45
   393  007E5B  2D                 	db	45
   394  007E5C  2D                 	db	45
   395  007E5D  2D                 	db	45
   396  007E5E  00                 	db	0
   397  007E5F                     STR_10:
   398  007E5F  0D                 	db	13
   399  007E60  0A                 	db	10
   400  007E61  49                 	db	73	;'I'
   401  007E62  6E                 	db	110	;'n'
   402  007E63  74                 	db	116	;'t'
   403  007E64  72                 	db	114	;'r'
   404  007E65  6F                 	db	111	;'o'
   405  007E66  64                 	db	100	;'d'
   406  007E67  75                 	db	117	;'u'
   407  007E68  7A                 	db	122	;'z'
   408  007E69  61                 	db	97	;'a'
   409  007E6A  20                 	db	32
   410  007E6B  61                 	db	97	;'a'
   411  007E6C  20                 	db	32
   412  007E6D  6E                 	db	110	;'n'
   413  007E6E  6F                 	db	111	;'o'
   414  007E6F  76                 	db	118	;'v'
   415  007E70  61                 	db	97	;'a'
   416  007E71  20                 	db	32
   417  007E72  74                 	db	116	;'t'
   418  007E73  65                 	db	101	;'e'
   419  007E74  6D                 	db	109	;'m'
   420  007E75  70                 	db	112	;'p'
   421  007E76  65                 	db	101	;'e'
   422  007E77  72                 	db	114	;'r'
   423  007E78  61                 	db	97	;'a'
   424  007E79  74                 	db	116	;'t'
   425  007E7A  75                 	db	117	;'u'
   426  007E7B  72                 	db	114	;'r'
   427  007E7C  61                 	db	97	;'a'
   428  007E7D  20                 	db	32
   429  007E7E  64                 	db	100	;'d'
   430  007E7F  65                 	db	101	;'e'
   431  007E80  20                 	db	32
   432  007E81  61                 	db	97	;'a'
   433  007E82  6C                 	db	108	;'l'
   434  007E83  61                 	db	97	;'a'
   435  007E84  72                 	db	114	;'r'
   436  007E85  6D                 	db	109	;'m'
   437  007E86  65                 	db	101	;'e'
   438  007E87  3A                 	db	58	;':'
   439  007E88  20                 	db	32
   440  007E89  00                 	db	0
   441  007E8A                     STR_13:
   442  007E8A  0D                 	db	13
   443  007E8B  0A                 	db	10
   444  007E8C  0A                 	db	10
   445  007E8D  54                 	db	84	;'T'
   446  007E8E  65                 	db	101	;'e'
   447  007E8F  6D                 	db	109	;'m'
   448  007E90  70                 	db	112	;'p'
   449  007E91  65                 	db	101	;'e'
   450  007E92  72                 	db	114	;'r'
   451  007E93  61                 	db	97	;'a'
   452  007E94  74                 	db	116	;'t'
   453  007E95  75                 	db	117	;'u'
   454  007E96  72                 	db	114	;'r'
   455  007E97  61                 	db	97	;'a'
   456  007E98  20                 	db	32
   457  007E99  64                 	db	100	;'d'
   458  007E9A  65                 	db	101	;'e'
   459  007E9B  20                 	db	32
   460  007E9C  61                 	db	97	;'a'
   461  007E9D  6C                 	db	108	;'l'
   462  007E9E  61                 	db	97	;'a'
   463  007E9F  72                 	db	114	;'r'
   464  007EA0  6D                 	db	109	;'m'
   465  007EA1  65                 	db	101	;'e'
   466  007EA2  20                 	db	32
   467  007EA3  69                 	db	105	;'i'
   468  007EA4  6E                 	db	110	;'n'
   469  007EA5  76                 	db	118	;'v'
   470  007EA6  E1                 	db	-31
   471  007EA7  6C                 	db	108	;'l'
   472  007EA8  69                 	db	105	;'i'
   473  007EA9  64                 	db	100	;'d'
   474  007EAA  61                 	db	97	;'a'
   475  007EAB  3A                 	db	58	;':'
   476  007EAC  20                 	db	32
   477  007EAD  25                 	db	37
   478  007EAE  64                 	db	100	;'d'
   479  007EAF  BA                 	db	-70
   480  007EB0  43                 	db	67	;'C'
   481  007EB1  00                 	db	0
   482  007EB2                     STR_7:
   483  007EB2  0D                 	db	13
   484  007EB3  0A                 	db	10
   485  007EB4  41                 	db	65	;'A'
   486  007EB5  6C                 	db	108	;'l'
   487  007EB6  74                 	db	116	;'t'
   488  007EB7  65                 	db	101	;'e'
   489  007EB8  72                 	db	114	;'r'
   490  007EB9  61                 	db	97	;'a'
   491  007EBA  72                 	db	114	;'r'
   492  007EBB  20                 	db	32
   493  007EBC  74                 	db	116	;'t'
   494  007EBD  65                 	db	101	;'e'
   495  007EBE  6D                 	db	109	;'m'
   496  007EBF  70                 	db	112	;'p'
   497  007EC0  65                 	db	101	;'e'
   498  007EC1  72                 	db	114	;'r'
   499  007EC2  61                 	db	97	;'a'
   500  007EC3  74                 	db	116	;'t'
   501  007EC4  75                 	db	117	;'u'
   502  007EC5  72                 	db	114	;'r'
   503  007EC6  61                 	db	97	;'a'
   504  007EC7  20                 	db	32
   505  007EC8  64                 	db	100	;'d'
   506  007EC9  65                 	db	101	;'e'
   507  007ECA  20                 	db	32
   508  007ECB  61                 	db	97	;'a'
   509  007ECC  6C                 	db	108	;'l'
   510  007ECD  61                 	db	97	;'a'
   511  007ECE  72                 	db	114	;'r'
   512  007ECF  6D                 	db	109	;'m'
   513  007ED0  65                 	db	101	;'e'
   514  007ED1  3F                 	db	63	;'?'
   515  007ED2  20                 	db	32
   516  007ED3  5B                 	db	91	;'['
   517  007ED4  59                 	db	89	;'Y'
   518  007ED5  5D                 	db	93	;']'
   519  007ED6  3A                 	db	58	;':'
   520  007ED7  20                 	db	32
   521  007ED8  00                 	db	0
   522  007ED9                     STR_17:
   523  007ED9  54                 	db	84	;'T'
   524  007EDA  65                 	db	101	;'e'
   525  007EDB  6D                 	db	109	;'m'
   526  007EDC  70                 	db	112	;'p'
   527  007EDD  2E                 	db	46
   528  007EDE  20                 	db	32
   529  007EDF  61                 	db	97	;'a'
   530  007EE0  6C                 	db	108	;'l'
   531  007EE1  61                 	db	97	;'a'
   532  007EE2  72                 	db	114	;'r'
   533  007EE3  6D                 	db	109	;'m'
   534  007EE4  65                 	db	101	;'e'
   535  007EE5  20                 	db	32
   536  007EE6  3D                 	db	61	;'='
   537  007EE7  20                 	db	32
   538  007EE8  25                 	db	37
   539  007EE9  2E                 	db	46
   540  007EEA  30                 	db	48	;'0'
   541  007EEB  64                 	db	100	;'d'
   542  007EEC  20                 	db	32
   543  007EED  43                 	db	67	;'C'
   544  007EEE  20                 	db	32
   545  007EEF  20                 	db	32
   546  007EF0  20                 	db	32
   547  007EF1  20                 	db	32
   548  007EF2  20                 	db	32
   549  007EF3  20                 	db	32
   550  007EF4  20                 	db	32
   551  007EF5  20                 	db	32
   552  007EF6  20                 	db	32
   553  007EF7  20                 	db	32
   554  007EF8  20                 	db	32
   555  007EF9  20                 	db	32
   556  007EFA  00                 	db	0
   557  007EFB                     STR_16:
   558  007EFB  54                 	db	84	;'T'
   559  007EFC  65                 	db	101	;'e'
   560  007EFD  6D                 	db	109	;'m'
   561  007EFE  70                 	db	112	;'p'
   562  007EFF  2E                 	db	46
   563  007F00  20                 	db	32
   564  007F01  61                 	db	97	;'a'
   565  007F02  74                 	db	116	;'t'
   566  007F03  75                 	db	117	;'u'
   567  007F04  61                 	db	97	;'a'
   568  007F05  6C                 	db	108	;'l'
   569  007F06  20                 	db	32
   570  007F07  3D                 	db	61	;'='
   571  007F08  20                 	db	32
   572  007F09  25                 	db	37
   573  007F0A  2E                 	db	46
   574  007F0B  30                 	db	48	;'0'
   575  007F0C  64                 	db	100	;'d'
   576  007F0D  20                 	db	32
   577  007F0E  43                 	db	67	;'C'
   578  007F0F  20                 	db	32
   579  007F10  20                 	db	32
   580  007F11  20                 	db	32
   581  007F12  20                 	db	32
   582  007F13  20                 	db	32
   583  007F14  20                 	db	32
   584  007F15  20                 	db	32
   585  007F16  20                 	db	32
   586  007F17  20                 	db	32
   587  007F18  20                 	db	32
   588  007F19  20                 	db	32
   589  007F1A  20                 	db	32
   590  007F1B  00                 	db	0
   591  007F1C                     STR_6:
   592  007F1C  0D                 	db	13
   593  007F1D  0A                 	db	10
   594  007F1E  0A                 	db	10
   595  007F1F  54                 	db	84	;'T'
   596  007F20  65                 	db	101	;'e'
   597  007F21  6D                 	db	109	;'m'
   598  007F22  70                 	db	112	;'p'
   599  007F23  65                 	db	101	;'e'
   600  007F24  72                 	db	114	;'r'
   601  007F25  61                 	db	97	;'a'
   602  007F26  74                 	db	116	;'t'
   603  007F27  75                 	db	117	;'u'
   604  007F28  72                 	db	114	;'r'
   605  007F29  61                 	db	97	;'a'
   606  007F2A  20                 	db	32
   607  007F2B  64                 	db	100	;'d'
   608  007F2C  65                 	db	101	;'e'
   609  007F2D  20                 	db	32
   610  007F2E  61                 	db	97	;'a'
   611  007F2F  6C                 	db	108	;'l'
   612  007F30  61                 	db	97	;'a'
   613  007F31  72                 	db	114	;'r'
   614  007F32  6D                 	db	109	;'m'
   615  007F33  65                 	db	101	;'e'
   616  007F34  3A                 	db	58	;':'
   617  007F35  20                 	db	32
   618  007F36  25                 	db	37
   619  007F37  64                 	db	100	;'d'
   620  007F38  BA                 	db	-70
   621  007F39  43                 	db	67	;'C'
   622  007F3A  00                 	db	0
   623  007F3B                     STR_5:
   624  007F3B  0D                 	db	13
   625  007F3C  0A                 	db	10
   626  007F3D  45                 	db	69	;'E'
   627  007F3E  73                 	db	115	;'s'
   628  007F3F  74                 	db	116	;'t'
   629  007F40  61                 	db	97	;'a'
   630  007F41  64                 	db	100	;'d'
   631  007F42  6F                 	db	111	;'o'
   632  007F43  20                 	db	32
   633  007F44  64                 	db	100	;'d'
   634  007F45  6F                 	db	111	;'o'
   635  007F46  20                 	db	32
   636  007F47  61                 	db	97	;'a'
   637  007F48  6C                 	db	108	;'l'
   638  007F49  61                 	db	97	;'a'
   639  007F4A  72                 	db	114	;'r'
   640  007F4B  6D                 	db	109	;'m'
   641  007F4C  65                 	db	101	;'e'
   642  007F4D  3A                 	db	58	;':'
   643  007F4E  20                 	db	32
   644  007F4F  44                 	db	68	;'D'
   645  007F50  65                 	db	101	;'e'
   646  007F51  73                 	db	115	;'s'
   647  007F52  61                 	db	97	;'a'
   648  007F53  74                 	db	116	;'t'
   649  007F54  69                 	db	105	;'i'
   650  007F55  76                 	db	118	;'v'
   651  007F56  6F                 	db	111	;'o'
   652  007F57  00                 	db	0
   653  007F58                     STR_3:
   654  007F58  0D                 	db	13
   655  007F59  0A                 	db	10
   656  007F5A  0A                 	db	10
   657  007F5B  54                 	db	84	;'T'
   658  007F5C  65                 	db	101	;'e'
   659  007F5D  6D                 	db	109	;'m'
   660  007F5E  70                 	db	112	;'p'
   661  007F5F  65                 	db	101	;'e'
   662  007F60  72                 	db	114	;'r'
   663  007F61  61                 	db	97	;'a'
   664  007F62  74                 	db	116	;'t'
   665  007F63  75                 	db	117	;'u'
   666  007F64  72                 	db	114	;'r'
   667  007F65  61                 	db	97	;'a'
   668  007F66  20                 	db	32
   669  007F67  61                 	db	97	;'a'
   670  007F68  74                 	db	116	;'t'
   671  007F69  75                 	db	117	;'u'
   672  007F6A  61                 	db	97	;'a'
   673  007F6B  6C                 	db	108	;'l'
   674  007F6C  20                 	db	32
   675  007F6D  3D                 	db	61	;'='
   676  007F6E  20                 	db	32
   677  007F6F  25                 	db	37
   678  007F70  64                 	db	100	;'d'
   679  007F71  BA                 	db	-70
   680  007F72  43                 	db	67	;'C'
   681  007F73  00                 	db	0
   682  007F74                     STR_4:
   683  007F74  0D                 	db	13
   684  007F75  0A                 	db	10
   685  007F76  45                 	db	69	;'E'
   686  007F77  73                 	db	115	;'s'
   687  007F78  74                 	db	116	;'t'
   688  007F79  61                 	db	97	;'a'
   689  007F7A  64                 	db	100	;'d'
   690  007F7B  6F                 	db	111	;'o'
   691  007F7C  20                 	db	32
   692  007F7D  64                 	db	100	;'d'
   693  007F7E  6F                 	db	111	;'o'
   694  007F7F  20                 	db	32
   695  007F80  61                 	db	97	;'a'
   696  007F81  6C                 	db	108	;'l'
   697  007F82  61                 	db	97	;'a'
   698  007F83  72                 	db	114	;'r'
   699  007F84  6D                 	db	109	;'m'
   700  007F85  65                 	db	101	;'e'
   701  007F86  3A                 	db	58	;':'
   702  007F87  20                 	db	32
   703  007F88  41                 	db	65	;'A'
   704  007F89  74                 	db	116	;'t'
   705  007F8A  69                 	db	105	;'i'
   706  007F8B  76                 	db	118	;'v'
   707  007F8C  6F                 	db	111	;'o'
   708  007F8D  00                 	db	0
   709  007F8E                     STR_24:
   710  007F8E  4D                 	db	77	;'M'
   711  007F8F  49                 	db	73	;'I'
   712  007F90  47                 	db	71	;'G'
   713  007F91  55                 	db	85	;'U'
   714  007F92  45                 	db	69	;'E'
   715  007F93  4C                 	db	76	;'L'
   716  007F94  20                 	db	32
   717  007F95  52                 	db	82	;'R'
   718  007F96  49                 	db	73	;'I'
   719  007F97  42                 	db	66	;'B'
   720  007F98  45                 	db	69	;'E'
   721  007F99  49                 	db	73	;'I'
   722  007F9A  52                 	db	82	;'R'
   723  007F9B  4F                 	db	79	;'O'
   724  007F9C  20                 	db	32
   725  007F9D  32                 	db	50	;'2'
   726  007F9E  31                 	db	49	;'1'
   727  007F9F  39                 	db	57	;'9'
   728  007FA0  31                 	db	49	;'1'
   729  007FA1  35                 	db	53	;'5'
   730  007FA2  37                 	db	55	;'7'
   731  007FA3  38                 	db	56	;'8'
   732  007FA4  00                 	db	0
   733  007FA5                     STR_25:
   734  007FA5  4A                 	db	74	;'J'
   735  007FA6  4F                 	db	79	;'O'
   736  007FA7  41                 	db	65	;'A'
   737  007FA8  4F                 	db	79	;'O'
   738  007FA9  20                 	db	32
   739  007FAA  4D                 	db	77	;'M'
   740  007FAB  45                 	db	69	;'E'
   741  007FAC  44                 	db	68	;'D'
   742  007FAD  45                 	db	69	;'E'
   743  007FAE  49                 	db	73	;'I'
   744  007FAF  52                 	db	82	;'R'
   745  007FB0  4F                 	db	79	;'O'
   746  007FB1  53                 	db	83	;'S'
   747  007FB2  20                 	db	32
   748  007FB3  32                 	db	50	;'2'
   749  007FB4  31                 	db	49	;'1'
   750  007FB5  37                 	db	55	;'7'
   751  007FB6  32                 	db	50	;'2'
   752  007FB7  31                 	db	49	;'1'
   753  007FB8  35                 	db	53	;'5'
   754  007FB9  37                 	db	55	;'7'
   755  007FBA  00                 	db	0
   756  007FBB                     STR_22:
   757  007FBB  4D                 	db	77	;'M'
   758  007FBC  49                 	db	73	;'I'
   759  007FBD  43                 	db	67	;'C'
   760  007FBE  52                 	db	82	;'R'
   761  007FBF  4F                 	db	79	;'O'
   762  007FC0  50                 	db	80	;'P'
   763  007FC1  52                 	db	82	;'R'
   764  007FC2  4F                 	db	79	;'O'
   765  007FC3  43                 	db	67	;'C'
   766  007FC4  45                 	db	69	;'E'
   767  007FC5  53                 	db	83	;'S'
   768  007FC6  53                 	db	83	;'S'
   769  007FC7  41                 	db	65	;'A'
   770  007FC8  44                 	db	68	;'D'
   771  007FC9  4F                 	db	79	;'O'
   772  007FCA  52                 	db	82	;'R'
   773  007FCB  45                 	db	69	;'E'
   774  007FCC  53                 	db	83	;'S'
   775  007FCD  00                 	db	0
   776  007FCE                     STR_19:
   777  007FCE  4E                 	db	78	;'N'
   778  007FCF  6F                 	db	111	;'o'
   779  007FD0  76                 	db	118	;'v'
   780  007FD1  61                 	db	97	;'a'
   781  007FD2  20                 	db	32
   782  007FD3  74                 	db	116	;'t'
   783  007FD4  65                 	db	101	;'e'
   784  007FD5  6D                 	db	109	;'m'
   785  007FD6  70                 	db	112	;'p'
   786  007FD7  2E                 	db	46
   787  007FD8  3A                 	db	58	;':'
   788  007FD9  00                 	db	0
   789  007FDA                     STR_20:
   790  007FDA  54                 	db	84	;'T'
   791  007FDB  45                 	db	69	;'E'
   792  007FDC  4D                 	db	77	;'M'
   793  007FDD  50                 	db	80	;'P'
   794  007FDE  45                 	db	69	;'E'
   795  007FDF  52                 	db	82	;'R'
   796  007FE0  41                 	db	65	;'A'
   797  007FE1  54                 	db	84	;'T'
   798  007FE2  55                 	db	85	;'U'
   799  007FE3  52                 	db	82	;'R'
   800  007FE4  41                 	db	65	;'A'
   801  007FE5  00                 	db	0
   802  007FE6                     STR_23:
   803  007FE6  45                 	db	69	;'E'
   804  007FE7  41                 	db	65	;'A'
   805  007FE8  55                 	db	85	;'U'
   806  007FE9  20                 	db	32
   807  007FEA  2D                 	db	45
   808  007FEB  20                 	db	32
   809  007FEC  45                 	db	69	;'E'
   810  007FED  53                 	db	83	;'S'
   811  007FEE  54                 	db	84	;'T'
   812  007FEF  47                 	db	71	;'G'
   813  007FF0  00                 	db	0
   814  007FF1                     STR_21:
   815  007FF1  49                 	db	73	;'I'
   816  007FF2  4E                 	db	78	;'N'
   817  007FF3  56                 	db	86	;'V'
   818  007FF4  41                 	db	65	;'A'
   819  007FF5  4C                 	db	76	;'L'
   820  007FF6  49                 	db	73	;'I'
   821  007FF7  44                 	db	68	;'D'
   822  007FF8  41                 	db	65	;'A'
   823  007FF9  20                 	db	32
   824  007FFA  21                 	db	33
   825  007FFB  00                 	db	0
   826  007FFC                     STR_1:
   827  007FFC  25                 	db	37
   828  007FFD  63                 	db	99	;'c'
   829  007FFE  00                 	db	0
   830  0000                     
   831                           ; #config settings
   832  007FFF  00                 	db	0	; dummy byte at the end
   833  0000                     
   834                           	psect	cinit
   835  003454                     __pcinit:
   836                           	opt callstack 0
   837  003454                     start_initialization:
   838                           	opt callstack 0
   839  003454                     __initialization:
   840                           	opt callstack 0
   841                           
   842                           ; Initialize objects allocated to BANK1 (2 bytes)
   843                           ; load TBLPTR registers with __pidataBANK1
   844  003454  0E46               	movlw	low __pidataBANK1
   845  003456  6EF6               	movwf	tblptrl,c
   846  003458  0E3A               	movlw	high __pidataBANK1
   847  00345A  6EF7               	movwf	tblptrh,c
   848  00345C  0E00               	movlw	low (__pidataBANK1 shr (0+16))
   849  00345E  6EF8               	movwf	tblptru,c
   850  003460  0009               	tblrd		*+	;fetch initializer
   851  003462  CFF5 F1B1          	movff	tablat,__pdataBANK1
   852  003466  0009               	tblrd		*+	;fetch initializer
   853  003468  CFF5 F1B2          	movff	tablat,__pdataBANK1+1
   854                           
   855                           ; Clear objects allocated to BANK1 (154 bytes)
   856  00346C  EE01  F000         	lfsr	0,__pbssBANK1
   857  003470  0E9A               	movlw	154
   858  003472                     clear_0:
   859  003472  6AEE               	clrf	postinc0,c
   860  003474  06E8               	decf	wreg,f,c
   861  003476  E1FD               	bnz	clear_0
   862                           
   863                           ; Clear objects allocated to BANK0 (36 bytes)
   864  003478  EE00  F0D4         	lfsr	0,__pbssBANK0
   865  00347C  0E24               	movlw	36
   866  00347E                     clear_1:
   867  00347E  6AEE               	clrf	postinc0,c
   868  003480  06E8               	decf	wreg,f,c
   869  003482  E1FD               	bnz	clear_1
   870                           
   871                           ; Clear objects allocated to COMRAM (4 bytes)
   872  003484  6A5E               	clrf	(__pbssCOMRAM+3)& (0+255),c
   873  003486  6A5D               	clrf	(__pbssCOMRAM+2)& (0+255),c
   874  003488  6A5C               	clrf	(__pbssCOMRAM+1)& (0+255),c
   875  00348A  6A5B               	clrf	__pbssCOMRAM& (0+255),c
   876  00348C                     end_of_initialization:
   877                           	opt callstack 0
   878  00348C                     __end_of__initialization:
   879                           	opt callstack 0
   880  00348C  905F               	bcf	int$flags,0,c	;clear compiler interrupt flag (level 1)
   881  00348E  925F               	bcf	int$flags,1,c	;clear compiler interrupt flag (level 2)
   882  003490  0E00               	movlw	low (__Lmediumconst shr (0+16))
   883  003492  6EF8               	movwf	tblptru,c
   884  003494  0100               	movlb	0
   885  003496  EF99  F000         	goto	_main	;jump to C main() function
   886                           
   887                           	psect	bssCOMRAM
   888  00005B                     __pbssCOMRAM:
   889                           	opt callstack 0
   890  00005B                     _temp_ambiente:
   891                           	opt callstack 0
   892  00005B                     	ds	2
   893  00005D                     _digitos_introduzidos:
   894                           	opt callstack 0
   895  00005D                     	ds	2
   896                           
   897                           	psect	bssBANK0
   898  0000D4                     __pbssBANK0:
   899                           	opt callstack 0
   900  0000D4                     _tensao:
   901                           	opt callstack 0
   902  0000D4                     	ds	4
   903  0000D8                     _width:
   904                           	opt callstack 0
   905  0000D8                     	ds	2
   906  0000DA                     _prec:
   907                           	opt callstack 0
   908  0000DA                     	ds	2
   909  0000DC                     _flags:
   910                           	opt callstack 0
   911  0000DC                     	ds	2
   912  0000DE                     _enter:
   913                           	opt callstack 0
   914  0000DE                     	ds	2
   915  0000E0                     _menu_entrada:
   916                           	opt callstack 0
   917  0000E0                     	ds	2
   918  0000E2                     _menu_estado:
   919                           	opt callstack 0
   920  0000E2                     	ds	2
   921  0000E4                     _alarme_ativo:
   922                           	opt callstack 0
   923  0000E4                     	ds	2
   924  0000E6                     _update_temp_alarme:
   925                           	opt callstack 0
   926  0000E6                     	ds	2
   927  0000E8                     _temp_mudou:
   928                           	opt callstack 0
   929  0000E8                     	ds	2
   930  0000EA                     _temp_alarme:
   931                           	opt callstack 0
   932  0000EA                     	ds	2
   933  0000EC                     _temp_alarme_provisoria:
   934                           	opt callstack 0
   935  0000EC                     	ds	2
   936  0000EE                     _mudar_temp_alarme:
   937                           	opt callstack 0
   938  0000EE                     	ds	2
   939  0000F0                     _tecla_n:
   940                           	opt callstack 0
   941  0000F0                     	ds	2
   942  0000F2                     _eusart1RxLastError:
   943                           	opt callstack 0
   944  0000F2                     	ds	1
   945  0000F3                     _eusart1RxCount:
   946                           	opt callstack 0
   947  0000F3                     	ds	1
   948  0000F4                     _eusart1RxTail:
   949                           	opt callstack 0
   950  0000F4                     	ds	1
   951  0000F5                     _eusart1RxHead:
   952                           	opt callstack 0
   953  0000F5                     	ds	1
   954  0000F6                     _temp_alarme_intro:
   955                           	opt callstack 0
   956  0000F6                     	ds	1
   957  0000F7                     _tecla_premida:
   958                           	opt callstack 0
   959  0000F7                     	ds	1
   960                           
   961                           	psect	bssBANK1
   962  000100                     __pbssBANK1:
   963                           	opt callstack 0
   964  000100                     _eusart1RxStatusBuffer:
   965                           	opt callstack 0
   966  000100                     	ds	8
   967  000108                     _eusart1RxBuffer:
   968                           	opt callstack 0
   969  000108                     	ds	8
   970  000110                     _pin:
   971                           	opt callstack 0
   972  000110                     	ds	4
   973  000114                     _nout:
   974                           	opt callstack 0
   975  000114                     	ds	2
   976  000116                     _temp_valida:
   977                           	opt callstack 0
   978  000116                     	ds	2
   979  000118                     _limpar_terminal:
   980                           	opt callstack 0
   981  000118                     	ds	2
   982  00011A                     _temp_ambiente_anterior:
   983                           	opt callstack 0
   984  00011A                     	ds	2
   985  00011C                     _pin_real:
   986                           	opt callstack 0
   987  00011C                     	ds	2
   988  00011E                     _pin_intr:
   989                           	opt callstack 0
   990  00011E                     	ds	2
   991  000120                     _menu_estado_LCD:
   992                           	opt callstack 0
   993  000120                     	ds	2
   994  000122                     _tecla_limpar:
   995                           	opt callstack 0
   996  000122                     	ds	2
   997  000124                     _temp_ambiente_LCD:
   998                           	opt callstack 0
   999  000124                     	ds	40
  1000  00014C                     _temp_alarme_LCD:
  1001                           	opt callstack 0
  1002  00014C                     	ds	40
  1003  000174                     _dbuf:
  1004                           	opt callstack 0
  1005  000174                     	ds	32
  1006  000194                     _temp_alarme_string:
  1007                           	opt callstack 0
  1008  000194                     	ds	4
  1009  000198                     _codigo_digital:
  1010                           	opt callstack 0
  1011  000198                     	ds	2
  1012                           
  1013                           	psect	dataBANK1
  1014  0001B1                     __pdataBANK1:
  1015                           	opt callstack 0
  1016  0001B1                     _contador_colunas_LCD:
  1017                           	opt callstack 0
  1018  0001B1                     	ds	2
  1019                           
  1020                           	psect	cstackBANK1
  1021  0001AC                     __pcstackBANK1:
  1022                           	opt callstack 0
  1023  0001AC                     ??_main:
  1024                           
  1025                           ; 1 bytes @ 0x0
  1026  0001AC                     	ds	4
  1027  0001B0                     main@rxData:
  1028                           	opt callstack 0
  1029                           
  1030                           ; 1 bytes @ 0x4
  1031  0001B0                     	ds	1
  1032                           
  1033                           	psect	cstackBANK0
  1034  000060                     __pcstackBANK0:
  1035                           	opt callstack 0
  1036  000060                     ??_INTERRUPT_InterruptManagerHigh:
  1037                           
  1038                           ; 1 bytes @ 0x0
  1039  000060                     	ds	6
  1040  000066                     ??_DelayPORXLCD:
  1041  000066                     ??_DelayXLCD:
  1042  000066                     ?_strlen:
  1043                           	opt callstack 0
  1044  000066                     ?_isdigit:
  1045                           	opt callstack 0
  1046  000066                     ?_isspace:
  1047                           	opt callstack 0
  1048  000066                     ?___wmul:
  1049                           	opt callstack 0
  1050  000066                     ?___aodiv:
  1051                           	opt callstack 0
  1052  000066                     ?___aomod:
  1053                           	opt callstack 0
  1054  000066                     EUSART1_Read@readValue:
  1055                           	opt callstack 0
  1056  000066                     EUSART1_Write@txData:
  1057                           	opt callstack 0
  1058  000066                     WriteCmdXLCD@cmd:
  1059                           	opt callstack 0
  1060  000066                     WriteDataXLCD@data:
  1061                           	opt callstack 0
  1062  000066                     TMR0_SetInterruptHandler@InterruptHandler:
  1063                           	opt callstack 0
  1064  000066                     INT0_SetInterruptHandler@InterruptHandler:
  1065                           	opt callstack 0
  1066  000066                     INT1_SetInterruptHandler@InterruptHandler:
  1067                           	opt callstack 0
  1068  000066                     INT2_SetInterruptHandler@InterruptHandler:
  1069                           	opt callstack 0
  1070  000066                     ADC_SetInterruptHandler@InterruptHandler:
  1071                           	opt callstack 0
  1072  000066                     EUSART1_SetFramingErrorHandler@interruptHandler:
  1073                           	opt callstack 0
  1074  000066                     EUSART1_SetOverrunErrorHandler@interruptHandler:
  1075                           	opt callstack 0
  1076  000066                     EUSART1_SetErrorHandler@interruptHandler:
  1077                           	opt callstack 0
  1078  000066                     EUSART1_SetRxInterruptHandler@interruptHandler:
  1079                           	opt callstack 0
  1080  000066                     ___wmul@multiplier:
  1081                           	opt callstack 0
  1082  000066                     isdigit@c:
  1083                           	opt callstack 0
  1084  000066                     isspace@c:
  1085                           	opt callstack 0
  1086  000066                     memset@dest:
  1087                           	opt callstack 0
  1088  000066                     strlen@s:
  1089                           	opt callstack 0
  1090  000066                     ___aodiv@dividend:
  1091                           	opt callstack 0
  1092  000066                     ___aomod@dividend:
  1093                           	opt callstack 0
  1094                           
  1095                           ; 8 bytes @ 0x6
  1096  000066                     	ds	1
  1097  000067                     putch@txData:
  1098                           	opt callstack 0
  1099  000067                     putsXLCD@buffer:
  1100                           	opt callstack 0
  1101                           
  1102                           ; 2 bytes @ 0x7
  1103  000067                     	ds	1
  1104  000068                     ??_isdigit:
  1105  000068                     ??_isspace:
  1106  000068                     ??_TMR0_Initialize:
  1107  000068                     ___wmul@multiplicand:
  1108                           	opt callstack 0
  1109  000068                     memset@c:
  1110                           	opt callstack 0
  1111  000068                     fputc@c:
  1112                           	opt callstack 0
  1113  000068                     strlen@a:
  1114                           	opt callstack 0
  1115                           
  1116                           ; 2 bytes @ 0x8
  1117  000068                     	ds	1
  1118  000069                     ??_LCD_inicio_teste:
  1119  000069                     
  1120                           ; 1 bytes @ 0x9
  1121  000069                     	ds	1
  1122  00006A                     ___wmul@product:
  1123                           	opt callstack 0
  1124  00006A                     memset@n:
  1125                           	opt callstack 0
  1126  00006A                     fputc@fp:
  1127                           	opt callstack 0
  1128  00006A                     strncat@d:
  1129                           	opt callstack 0
  1130                           
  1131                           ; 2 bytes @ 0xA
  1132  00006A                     	ds	1
  1133  00006B                     LCD_inicio_teste@i:
  1134                           	opt callstack 0
  1135                           
  1136                           ; 2 bytes @ 0xB
  1137  00006B                     	ds	1
  1138  00006C                     ??_memset:
  1139  00006C                     ??_fputc:
  1140  00006C                     _isspace$2374:
  1141                           	opt callstack 0
  1142  00006C                     strncat@s:
  1143                           	opt callstack 0
  1144                           
  1145                           ; 2 bytes @ 0xC
  1146  00006C                     	ds	1
  1147  00006D                     ?_atoi:
  1148                           	opt callstack 0
  1149  00006D                     LCD_inicio_teste@j:
  1150                           	opt callstack 0
  1151  00006D                     atoi@s:
  1152                           	opt callstack 0
  1153                           
  1154                           ; 2 bytes @ 0xD
  1155  00006D                     	ds	1
  1156  00006E                     memset@k:
  1157                           	opt callstack 0
  1158  00006E                     strncat@n:
  1159                           	opt callstack 0
  1160  00006E                     ___aodiv@divisor:
  1161                           	opt callstack 0
  1162  00006E                     ___aomod@divisor:
  1163                           	opt callstack 0
  1164                           
  1165                           ; 8 bytes @ 0xE
  1166  00006E                     	ds	1
  1167  00006F                     ??_atoi:
  1168                           
  1169                           ; 1 bytes @ 0xF
  1170  00006F                     	ds	1
  1171  000070                     memset@s:
  1172                           	opt callstack 0
  1173                           
  1174                           ; 2 bytes @ 0x10
  1175  000070                     	ds	1
  1176  000071                     fputs@s:
  1177                           	opt callstack 0
  1178                           
  1179                           ; 2 bytes @ 0x11
  1180  000071                     	ds	2
  1181  000073                     atoi@neg:
  1182                           	opt callstack 0
  1183  000073                     fputs@fp:
  1184                           	opt callstack 0
  1185                           
  1186                           ; 2 bytes @ 0x13
  1187  000073                     	ds	2
  1188  000075                     fputs@c:
  1189                           	opt callstack 0
  1190  000075                     _atoi$2356:
  1191                           	opt callstack 0
  1192                           
  1193                           ; 2 bytes @ 0x15
  1194  000075                     	ds	1
  1195  000076                     ___aodiv@counter:
  1196                           	opt callstack 0
  1197  000076                     ___aomod@counter:
  1198                           	opt callstack 0
  1199  000076                     fputs@i:
  1200                           	opt callstack 0
  1201                           
  1202                           ; 2 bytes @ 0x16
  1203  000076                     	ds	1
  1204  000077                     ___aodiv@sign:
  1205                           	opt callstack 0
  1206  000077                     ___aomod@sign:
  1207                           	opt callstack 0
  1208  000077                     _atoi$2358:
  1209                           	opt callstack 0
  1210                           
  1211                           ; 2 bytes @ 0x17
  1212  000077                     	ds	1
  1213  000078                     ?_abs:
  1214                           	opt callstack 0
  1215  000078                     ?_pad:
  1216                           	opt callstack 0
  1217  000078                     pad@fp:
  1218                           	opt callstack 0
  1219  000078                     abs@a:
  1220                           	opt callstack 0
  1221  000078                     ___aodiv@quotient:
  1222                           	opt callstack 0
  1223                           
  1224                           ; 8 bytes @ 0x18
  1225  000078                     	ds	1
  1226  000079                     _atoi$2357:
  1227                           	opt callstack 0
  1228                           
  1229                           ; 1 bytes @ 0x19
  1230  000079                     	ds	1
  1231  00007A                     ??_abs:
  1232  00007A                     pad@buf:
  1233                           	opt callstack 0
  1234  00007A                     atoi@n:
  1235                           	opt callstack 0
  1236                           
  1237                           ; 2 bytes @ 0x1A
  1238  00007A                     	ds	2
  1239  00007C                     pad@p:
  1240                           	opt callstack 0
  1241                           
  1242                           ; 2 bytes @ 0x1C
  1243  00007C                     	ds	2
  1244  00007E                     ??_pad:
  1245                           
  1246                           ; 1 bytes @ 0x1E
  1247  00007E                     	ds	1
  1248  00007F                     pad@i:
  1249                           	opt callstack 0
  1250                           
  1251                           ; 2 bytes @ 0x1F
  1252  00007F                     	ds	2
  1253  000081                     pad@w:
  1254                           	opt callstack 0
  1255                           
  1256                           ; 2 bytes @ 0x21
  1257  000081                     	ds	2
  1258  000083                     ?_ctoa:
  1259                           	opt callstack 0
  1260  000083                     ?_dtoa:
  1261                           	opt callstack 0
  1262  000083                     ctoa@fp:
  1263                           	opt callstack 0
  1264  000083                     dtoa@fp:
  1265                           	opt callstack 0
  1266                           
  1267                           ; 2 bytes @ 0x23
  1268  000083                     	ds	2
  1269  000085                     ctoa@c:
  1270                           	opt callstack 0
  1271  000085                     dtoa@d:
  1272                           	opt callstack 0
  1273                           
  1274                           ; 8 bytes @ 0x25
  1275  000085                     	ds	1
  1276  000086                     ctoa@w:
  1277                           	opt callstack 0
  1278                           
  1279                           ; 2 bytes @ 0x26
  1280  000086                     	ds	7
  1281  00008D                     ??_dtoa:
  1282                           
  1283                           ; 1 bytes @ 0x2D
  1284  00008D                     	ds	8
  1285  000095                     _dtoa$1884:
  1286                           	opt callstack 0
  1287                           
  1288                           ; 2 bytes @ 0x35
  1289  000095                     	ds	2
  1290  000097                     dtoa@p:
  1291                           	opt callstack 0
  1292                           
  1293                           ; 2 bytes @ 0x37
  1294  000097                     	ds	2
  1295  000099                     dtoa@w:
  1296                           	opt callstack 0
  1297                           
  1298                           ; 2 bytes @ 0x39
  1299  000099                     	ds	2
  1300  00009B                     dtoa@s:
  1301                           	opt callstack 0
  1302                           
  1303                           ; 2 bytes @ 0x3B
  1304  00009B                     	ds	2
  1305  00009D                     dtoa@n:
  1306                           	opt callstack 0
  1307                           
  1308                           ; 8 bytes @ 0x3D
  1309  00009D                     	ds	8
  1310  0000A5                     dtoa@i:
  1311                           	opt callstack 0
  1312                           
  1313                           ; 2 bytes @ 0x45
  1314  0000A5                     	ds	2
  1315  0000A7                     ?_vfpfcnvrt:
  1316                           	opt callstack 0
  1317  0000A7                     vfpfcnvrt@fp:
  1318                           	opt callstack 0
  1319                           
  1320                           ; 2 bytes @ 0x47
  1321  0000A7                     	ds	2
  1322  0000A9                     vfpfcnvrt@fmt:
  1323                           	opt callstack 0
  1324                           
  1325                           ; 2 bytes @ 0x49
  1326  0000A9                     	ds	2
  1327  0000AB                     vfpfcnvrt@ap:
  1328                           	opt callstack 0
  1329                           
  1330                           ; 2 bytes @ 0x4B
  1331  0000AB                     	ds	2
  1332  0000AD                     ??_vfpfcnvrt:
  1333                           
  1334                           ; 1 bytes @ 0x4D
  1335  0000AD                     	ds	4
  1336  0000B1                     vfpfcnvrt@ll:
  1337                           	opt callstack 0
  1338                           
  1339                           ; 8 bytes @ 0x51
  1340  0000B1                     	ds	8
  1341  0000B9                     vfpfcnvrt@c:
  1342                           	opt callstack 0
  1343                           
  1344                           ; 1 bytes @ 0x59
  1345  0000B9                     	ds	1
  1346  0000BA                     _vfpfcnvrt$1898:
  1347                           	opt callstack 0
  1348                           
  1349                           ; 2 bytes @ 0x5A
  1350  0000BA                     	ds	2
  1351  0000BC                     ?_vfprintf:
  1352                           	opt callstack 0
  1353  0000BC                     vfprintf@fp:
  1354                           	opt callstack 0
  1355                           
  1356                           ; 2 bytes @ 0x5C
  1357  0000BC                     	ds	2
  1358  0000BE                     vfprintf@fmt:
  1359                           	opt callstack 0
  1360                           
  1361                           ; 2 bytes @ 0x5E
  1362  0000BE                     	ds	2
  1363  0000C0                     vfprintf@ap:
  1364                           	opt callstack 0
  1365                           
  1366                           ; 2 bytes @ 0x60
  1367  0000C0                     	ds	2
  1368  0000C2                     vfprintf@cfmt:
  1369                           	opt callstack 0
  1370                           
  1371                           ; 2 bytes @ 0x62
  1372  0000C2                     	ds	2
  1373  0000C4                     ?_printf:
  1374                           	opt callstack 0
  1375  0000C4                     ?_sprintf:
  1376                           	opt callstack 0
  1377  0000C4                     sprintf@s:
  1378                           	opt callstack 0
  1379  0000C4                     printf@fmt:
  1380                           	opt callstack 0
  1381                           
  1382                           ; 2 bytes @ 0x64
  1383  0000C4                     	ds	2
  1384  0000C6                     sprintf@fmt:
  1385                           	opt callstack 0
  1386                           
  1387                           ; 2 bytes @ 0x66
  1388  0000C6                     	ds	2
  1389  0000C8                     
  1390                           ; 1 bytes @ 0x68
  1391  0000C8                     	ds	2
  1392  0000CA                     printf@ap:
  1393                           	opt callstack 0
  1394                           
  1395                           ; 2 bytes @ 0x6A
  1396  0000CA                     	ds	2
  1397  0000CC                     sprintf@ap:
  1398                           	opt callstack 0
  1399                           
  1400                           ; 2 bytes @ 0x6C
  1401  0000CC                     	ds	2
  1402  0000CE                     sprintf@f:
  1403                           	opt callstack 0
  1404                           
  1405                           ; 6 bytes @ 0x6E
  1406  0000CE                     	ds	6
  1407                           
  1408                           	psect	cstackCOMRAM
  1409  000001                     __pcstackCOMRAM:
  1410                           	opt callstack 0
  1411  000001                     ??_Timer_0:
  1412  000001                     ?_ADC_GetConversionResult:
  1413                           	opt callstack 0
  1414  000001                     ?___xxtofl:
  1415                           	opt callstack 0
  1416  000001                     ___xxtofl@val:
  1417                           	opt callstack 0
  1418                           
  1419                           ; 4 bytes @ 0x0
  1420  000001                     	ds	1
  1421  000002                     
  1422                           ; 1 bytes @ 0x1
  1423  000002                     	ds	1
  1424  000003                     ??_ADC_GetConversionResult:
  1425                           
  1426                           ; 1 bytes @ 0x2
  1427  000003                     	ds	2
  1428  000005                     ??___xxtofl:
  1429                           
  1430                           ; 1 bytes @ 0x4
  1431  000005                     	ds	4
  1432  000009                     ___xxtofl@sign:
  1433                           	opt callstack 0
  1434                           
  1435                           ; 1 bytes @ 0x8
  1436  000009                     	ds	1
  1437  00000A                     ___xxtofl@exp:
  1438                           	opt callstack 0
  1439                           
  1440                           ; 1 bytes @ 0x9
  1441  00000A                     	ds	1
  1442  00000B                     ___xxtofl@arg:
  1443                           	opt callstack 0
  1444                           
  1445                           ; 4 bytes @ 0xA
  1446  00000B                     	ds	4
  1447  00000F                     ?___fldiv:
  1448                           	opt callstack 0
  1449  00000F                     ___fldiv@b:
  1450                           	opt callstack 0
  1451                           
  1452                           ; 4 bytes @ 0xE
  1453  00000F                     	ds	4
  1454  000013                     ___fldiv@a:
  1455                           	opt callstack 0
  1456                           
  1457                           ; 4 bytes @ 0x12
  1458  000013                     	ds	4
  1459  000017                     ??___fldiv:
  1460                           
  1461                           ; 1 bytes @ 0x16
  1462  000017                     	ds	4
  1463  00001B                     ___fldiv@rem:
  1464                           	opt callstack 0
  1465                           
  1466                           ; 4 bytes @ 0x1A
  1467  00001B                     	ds	4
  1468  00001F                     ___fldiv@sign:
  1469                           	opt callstack 0
  1470                           
  1471                           ; 1 bytes @ 0x1E
  1472  00001F                     	ds	1
  1473  000020                     ___fldiv@new_exp:
  1474                           	opt callstack 0
  1475                           
  1476                           ; 2 bytes @ 0x1F
  1477  000020                     	ds	2
  1478  000022                     ___fldiv@grs:
  1479                           	opt callstack 0
  1480                           
  1481                           ; 4 bytes @ 0x21
  1482  000022                     	ds	4
  1483  000026                     ___fldiv@bexp:
  1484                           	opt callstack 0
  1485                           
  1486                           ; 1 bytes @ 0x25
  1487  000026                     	ds	1
  1488  000027                     ___fldiv@aexp:
  1489                           	opt callstack 0
  1490                           
  1491                           ; 1 bytes @ 0x26
  1492  000027                     	ds	1
  1493  000028                     ?___flmul:
  1494                           	opt callstack 0
  1495  000028                     ___flmul@b:
  1496                           	opt callstack 0
  1497                           
  1498                           ; 4 bytes @ 0x27
  1499  000028                     	ds	4
  1500  00002C                     ___flmul@a:
  1501                           	opt callstack 0
  1502                           
  1503                           ; 4 bytes @ 0x2B
  1504  00002C                     	ds	4
  1505  000030                     ??___flmul:
  1506                           
  1507                           ; 1 bytes @ 0x2F
  1508  000030                     	ds	4
  1509  000034                     ___flmul@sign:
  1510                           	opt callstack 0
  1511                           
  1512                           ; 1 bytes @ 0x33
  1513  000034                     	ds	1
  1514  000035                     ___flmul@grs:
  1515                           	opt callstack 0
  1516                           
  1517                           ; 4 bytes @ 0x34
  1518  000035                     	ds	4
  1519  000039                     ___flmul@aexp:
  1520                           	opt callstack 0
  1521                           
  1522                           ; 1 bytes @ 0x38
  1523  000039                     	ds	1
  1524  00003A                     ___flmul@bexp:
  1525                           	opt callstack 0
  1526                           
  1527                           ; 1 bytes @ 0x39
  1528  00003A                     	ds	1
  1529  00003B                     ___flmul@prod:
  1530                           	opt callstack 0
  1531                           
  1532                           ; 4 bytes @ 0x3A
  1533  00003B                     	ds	4
  1534  00003F                     ___flmul@temp:
  1535                           	opt callstack 0
  1536                           
  1537                           ; 2 bytes @ 0x3E
  1538  00003F                     	ds	2
  1539  000041                     ?___fladd:
  1540                           	opt callstack 0
  1541  000041                     ___fladd@b:
  1542                           	opt callstack 0
  1543                           
  1544                           ; 4 bytes @ 0x40
  1545  000041                     	ds	4
  1546  000045                     ___fladd@a:
  1547                           	opt callstack 0
  1548                           
  1549                           ; 4 bytes @ 0x44
  1550  000045                     	ds	4
  1551  000049                     ??___fladd:
  1552                           
  1553                           ; 1 bytes @ 0x48
  1554  000049                     	ds	4
  1555  00004D                     ___fladd@signs:
  1556                           	opt callstack 0
  1557                           
  1558                           ; 1 bytes @ 0x4C
  1559  00004D                     	ds	1
  1560  00004E                     ___fladd@aexp:
  1561                           	opt callstack 0
  1562                           
  1563                           ; 1 bytes @ 0x4D
  1564  00004E                     	ds	1
  1565  00004F                     ___fladd@bexp:
  1566                           	opt callstack 0
  1567                           
  1568                           ; 1 bytes @ 0x4E
  1569  00004F                     	ds	1
  1570  000050                     ___fladd@grs:
  1571                           	opt callstack 0
  1572                           
  1573                           ; 1 bytes @ 0x4F
  1574  000050                     	ds	1
  1575  000051                     ?___fltol:
  1576                           	opt callstack 0
  1577  000051                     ___fltol@f1:
  1578                           	opt callstack 0
  1579                           
  1580                           ; 4 bytes @ 0x50
  1581  000051                     	ds	4
  1582  000055                     ??___fltol:
  1583                           
  1584                           ; 1 bytes @ 0x54
  1585  000055                     	ds	4
  1586  000059                     ___fltol@sign1:
  1587                           	opt callstack 0
  1588                           
  1589                           ; 1 bytes @ 0x58
  1590  000059                     	ds	1
  1591  00005A                     ___fltol@exp1:
  1592                           	opt callstack 0
  1593                           
  1594                           ; 1 bytes @ 0x59
  1595  00005A                     	ds	1
  1596  00005B                     
  1597                           ; 1 bytes @ 0x5A
  1598 ;;
  1599 ;;Main: autosize = 0, tempsize = 2, incstack = 0, save=0
  1600 ;;
  1601 ;; *************** function _main *****************
  1602 ;; Defined at:
  1603 ;;		line 127 in file "main.c"
  1604 ;; Parameters:    Size  Location     Type
  1605 ;;		None
  1606 ;; Auto vars:     Size  Location     Type
  1607 ;;  contador_car    2    0        int 
  1608 ;;  rxData          1    4[BANK1 ] unsigned char 
  1609 ;; Return value:  Size  Location     Type
  1610 ;;                  1    wreg      void 
  1611 ;; Registers used:
  1612 ;;		wreg, fsr1l, fsr1h, fsr2l, fsr2h, status,2, status,0, tblptrl, tblptrh, tblptru, prodl, prodh, cstack
  1613 ;; Tracked objects:
  1614 ;;		On entry : 0/0
  1615 ;;		On exit  : 0/0
  1616 ;;		Unchanged: 0/0
  1617 ;; Data sizes:     COMRAM   BANK0   BANK1   BANK2   BANK3   BANK4   BANK5
  1618 ;;      Params:         0       0       0       0       0       0       0
  1619 ;;      Locals:         0       0       3       0       0       0       0
  1620 ;;      Temps:          0       0       2       0       0       0       0
  1621 ;;      Totals:         0       0       5       0       0       0       0
  1622 ;;Total ram usage:        5 bytes
  1623 ;; Hardware stack levels required when called:   13
  1624 ;; This function calls:
  1625 ;;		_ADC_SetInterruptHandler
  1626 ;;		_BusyXLCD
  1627 ;;		_EUSART1_Read
  1628 ;;		_EUSART1_Write
  1629 ;;		_EUSART1_is_rx_ready
  1630 ;;		_INT0_SetInterruptHandler
  1631 ;;		_INT1_SetInterruptHandler
  1632 ;;		_INT2_SetInterruptHandler
  1633 ;;		_LCD_inicio_teste
  1634 ;;		_SYSTEM_Initialize
  1635 ;;		_TMR0_SetInterruptHandler
  1636 ;;		_WriteCmdXLCD
  1637 ;;		_atoi
  1638 ;;		_memset
  1639 ;;		_printf
  1640 ;;		_putsXLCD
  1641 ;;		_sprintf
  1642 ;;		_strncat
  1643 ;; This function is called by:
  1644 ;;		Startup code after reset
  1645 ;; This function uses a non-reentrant model
  1646 ;;
  1647                           
  1648                           	psect	text0
  1649  000132                     __ptext0:
  1650                           	opt callstack 0
  1651  000132                     _main:
  1652                           	opt callstack 18
  1653  000132                     
  1654                           ;main.c: 130:     SYSTEM_Initialize();
  1655  000132  EC48  F01C         	call	_SYSTEM_Initialize	;wreg free
  1656  000136                     
  1657                           ;main.c: 132:     uint8_t rxData;;main.c: 142:     (INTCONbits.GIEH = 1);
  1658  000136  8EF2               	bsf	242,7,c	;volatile
  1659  000138                     
  1660                           ;main.c: 176:     CCP1CONbits.CCP1M = 0000;
  1661  000138  0EF0               	movlw	-16
  1662  00013A  16BD               	andwf	189,f,c	;volatile
  1663  00013C                     
  1664                           ;main.c: 179:     LCD_inicio_teste();
  1665  00013C  EC88  F00F         	call	_LCD_inicio_teste	;wreg free
  1666  000140                     
  1667                           ;main.c: 182:     TMR0_SetInterruptHandler (Timer_0);
  1668  000140  0E6A               	movlw	low _Timer_0
  1669  000142  0100               	movlb	0	; () banked
  1670  000144  6F66               	movwf	TMR0_SetInterruptHandler@InterruptHandler& (0+255),b
  1671  000146  0E36               	movlw	high _Timer_0
  1672  000148  6F67               	movwf	(TMR0_SetInterruptHandler@InterruptHandler+1)& (0+255),b
  1673  00014A  ECE2  F01C         	call	_TMR0_SetInterruptHandler	;wreg free
  1674  00014E                     
  1675                           ;main.c: 185:     INT0_SetInterruptHandler (teclado_coluna_1);
  1676  00014E  0EEA               	movlw	low _teclado_coluna_1
  1677  000150  0100               	movlb	0	; () banked
  1678  000152  6F66               	movwf	INT0_SetInterruptHandler@InterruptHandler& (0+255),b
  1679  000154  0E31               	movlw	high _teclado_coluna_1
  1680  000156  6F67               	movwf	(INT0_SetInterruptHandler@InterruptHandler+1)& (0+255),b
  1681  000158  ECF1  F01C         	call	_INT0_SetInterruptHandler	;wreg free
  1682  00015C                     
  1683                           ;main.c: 186:     INT1_SetInterruptHandler (teclado_coluna_2);
  1684  00015C  0E82               	movlw	low _teclado_coluna_2
  1685  00015E  0100               	movlb	0	; () banked
  1686  000160  6F66               	movwf	INT1_SetInterruptHandler@InterruptHandler& (0+255),b
  1687  000162  0E31               	movlw	high _teclado_coluna_2
  1688  000164  6F67               	movwf	(INT1_SetInterruptHandler@InterruptHandler+1)& (0+255),b
  1689  000166  ECEC  F01C         	call	_INT1_SetInterruptHandler	;wreg free
  1690  00016A                     
  1691                           ;main.c: 187:     INT2_SetInterruptHandler (teclado_coluna_3);
  1692  00016A  0EAE               	movlw	low _teclado_coluna_3
  1693  00016C  0100               	movlb	0	; () banked
  1694  00016E  6F66               	movwf	INT2_SetInterruptHandler@InterruptHandler& (0+255),b
  1695  000170  0E2F               	movlw	high _teclado_coluna_3
  1696  000172  6F67               	movwf	(INT2_SetInterruptHandler@InterruptHandler+1)& (0+255),b
  1697  000174  ECE7  F01C         	call	_INT2_SetInterruptHandler	;wreg free
  1698  000178                     
  1699                           ;main.c: 190:     ADC_SetInterruptHandler(ADC_temperatura);
  1700  000178  0E2C               	movlw	low _ADC_temperatura
  1701  00017A  0100               	movlb	0	; () banked
  1702  00017C  6F66               	movwf	ADC_SetInterruptHandler@InterruptHandler& (0+255),b
  1703  00017E  0E23               	movlw	high _ADC_temperatura
  1704  000180  6F67               	movwf	(ADC_SetInterruptHandler@InterruptHandler+1)& (0+255),b
  1705  000182  EC0A  F01D         	call	_ADC_SetInterruptHandler	;wreg free
  1706  000186                     
  1707                           ;main.c: 194:     temp_alarme = 25;
  1708  000186  0E00               	movlw	0
  1709  000188  0100               	movlb	0	; () banked
  1710  00018A  6FEB               	movwf	(_temp_alarme+1)& (0+255),b
  1711  00018C  0E19               	movlw	25
  1712  00018E  6FEA               	movwf	_temp_alarme& (0+255),b
  1713  000190                     
  1714                           ; BSR set to: 0
  1715                           ;main.c: 196:     menu_estado = 1;
  1716  000190  0E00               	movlw	0
  1717  000192  6FE3               	movwf	(_menu_estado+1)& (0+255),b
  1718  000194  0E01               	movlw	1
  1719  000196  6FE2               	movwf	_menu_estado& (0+255),b
  1720  000198                     
  1721                           ; BSR set to: 0
  1722                           ;main.c: 198:     menu_estado_LCD = 1;
  1723  000198  0E00               	movlw	0
  1724  00019A  0101               	movlb	1	; () banked
  1725  00019C  6F21               	movwf	(_menu_estado_LCD+1)& (0+255),b
  1726  00019E  0E01               	movlw	1
  1727  0001A0  6F20               	movwf	_menu_estado_LCD& (0+255),b
  1728  0001A2                     
  1729                           ; BSR set to: 1
  1730                           ;main.c: 200:     menu_entrada = 0;
  1731  0001A2  0E00               	movlw	0
  1732  0001A4  0100               	movlb	0	; () banked
  1733  0001A6  6FE1               	movwf	(_menu_entrada+1)& (0+255),b
  1734  0001A8  0E00               	movlw	0
  1735  0001AA  6FE0               	movwf	_menu_entrada& (0+255),b
  1736  0001AC                     
  1737                           ; BSR set to: 0
  1738                           ;main.c: 202:     enter = 1;
  1739  0001AC  0E00               	movlw	0
  1740  0001AE  6FDF               	movwf	(_enter+1)& (0+255),b
  1741  0001B0  0E01               	movlw	1
  1742  0001B2  6FDE               	movwf	_enter& (0+255),b
  1743  0001B4                     
  1744                           ; BSR set to: 0
  1745                           ;main.c: 204:     mudar_temp_alarme = 0;
  1746  0001B4  0E00               	movlw	0
  1747  0001B6  6FEF               	movwf	(_mudar_temp_alarme+1)& (0+255),b
  1748  0001B8  0E00               	movlw	0
  1749  0001BA  6FEE               	movwf	_mudar_temp_alarme& (0+255),b
  1750  0001BC                     
  1751                           ; BSR set to: 0
  1752                           ;main.c: 206:     digitos_introduzidos = 0;
  1753  0001BC  0E00               	movlw	0
  1754  0001BE  6E5E               	movwf	(_digitos_introduzidos+1)^0,c
  1755  0001C0  0E00               	movlw	0
  1756  0001C2  6E5D               	movwf	_digitos_introduzidos^0,c
  1757  0001C4                     
  1758                           ; BSR set to: 0
  1759                           ;main.c: 208:     update_temp_alarme = 0;
  1760  0001C4  0E00               	movlw	0
  1761  0001C6  6FE7               	movwf	(_update_temp_alarme+1)& (0+255),b
  1762  0001C8  0E00               	movlw	0
  1763  0001CA  6FE6               	movwf	_update_temp_alarme& (0+255),b
  1764  0001CC                     l6769:
  1765                           
  1766                           ;main.c: 212:     {;main.c: 214:         if ((temp_ambiente >= temp_alarme && enter == 1
      +                          ) || (update_temp_alarme == 1 && temp_ambiente >= temp_alarme)){
  1767  0001CC  0100               	movlb	0	; () banked
  1768  0001CE  51EA               	movf	_temp_alarme& (0+255),w,b
  1769  0001D0  5C5B               	subwf	_temp_ambiente^0,w,c
  1770  0001D2  505C               	movf	(_temp_ambiente+1)^0,w,c
  1771  0001D4  0A80               	xorlw	128
  1772  0001D6  0101               	movlb	1	; () banked
  1773  0001D8  6FAC               	movwf	??_main& (0+255),b
  1774  0001DA  0100               	movlb	0	; () banked
  1775  0001DC  51EB               	movf	(_temp_alarme+1)& (0+255),w,b
  1776  0001DE  0A80               	xorlw	128
  1777  0001E0  0101               	movlb	1	; () banked
  1778  0001E2  59AC               	subwfb	??_main& (0+255),w,b
  1779  0001E4  A0D8               	btfss	status,0,c
  1780  0001E6  EFF7  F000         	goto	u7631
  1781  0001EA  EFF9  F000         	goto	u7630
  1782  0001EE                     u7631:
  1783  0001EE  EF03  F001         	goto	l6773
  1784  0001F2                     u7630:
  1785  0001F2                     
  1786                           ; BSR set to: 1
  1787  0001F2  0100               	movlb	0	; () banked
  1788  0001F4  05DE               	decf	_enter& (0+255),w,b
  1789  0001F6  11DF               	iorwf	(_enter+1)& (0+255),w,b
  1790  0001F8  B4D8               	btfsc	status,2,c
  1791  0001FA  EF01  F001         	goto	u7641
  1792  0001FE  EF03  F001         	goto	u7640
  1793  000202                     u7641:
  1794  000202  EF1F  F001         	goto	l6777
  1795  000206                     u7640:
  1796  000206                     l6773:
  1797  000206  0100               	movlb	0	; () banked
  1798  000208  05E6               	decf	_update_temp_alarme& (0+255),w,b
  1799  00020A  11E7               	iorwf	(_update_temp_alarme+1)& (0+255),w,b
  1800  00020C  A4D8               	btfss	status,2,c
  1801  00020E  EF0B  F001         	goto	u7651
  1802  000212  EF0D  F001         	goto	u7650
  1803  000216                     u7651:
  1804  000216  EF2A  F001         	goto	l6779
  1805  00021A                     u7650:
  1806  00021A                     
  1807                           ; BSR set to: 0
  1808  00021A  51EA               	movf	_temp_alarme& (0+255),w,b
  1809  00021C  5C5B               	subwf	_temp_ambiente^0,w,c
  1810  00021E  505C               	movf	(_temp_ambiente+1)^0,w,c
  1811  000220  0A80               	xorlw	128
  1812  000222  0101               	movlb	1	; () banked
  1813  000224  6FAC               	movwf	??_main& (0+255),b
  1814  000226  0100               	movlb	0	; () banked
  1815  000228  51EB               	movf	(_temp_alarme+1)& (0+255),w,b
  1816  00022A  0A80               	xorlw	128
  1817  00022C  0101               	movlb	1	; () banked
  1818  00022E  59AC               	subwfb	??_main& (0+255),w,b
  1819  000230  A0D8               	btfss	status,0,c
  1820  000232  EF1D  F001         	goto	u7661
  1821  000236  EF1F  F001         	goto	u7660
  1822  00023A                     u7661:
  1823  00023A  EF2A  F001         	goto	l6779
  1824  00023E                     u7660:
  1825  00023E                     l6777:
  1826                           
  1827                           ;main.c: 216:             CCP1CONbits.CCP1M = 1100;
  1828  00023E  50BD               	movf	189,w,c	;volatile
  1829  000240  0BF0               	andlw	-16
  1830  000242  090C               	iorlw	12
  1831  000244  6EBD               	movwf	189,c	;volatile
  1832                           
  1833                           ;main.c: 217:             alarme_ativo = 1;
  1834  000246  0E00               	movlw	0
  1835  000248  0100               	movlb	0	; () banked
  1836  00024A  6FE5               	movwf	(_alarme_ativo+1)& (0+255),b
  1837  00024C  0E01               	movlw	1
  1838  00024E  6FE4               	movwf	_alarme_ativo& (0+255),b
  1839                           
  1840                           ;main.c: 219:         }
  1841  000250  EF6B  F001         	goto	l6791
  1842  000254                     l6779:
  1843  000254  0100               	movlb	0	; () banked
  1844  000256  51EA               	movf	_temp_alarme& (0+255),w,b
  1845  000258  5C5B               	subwf	_temp_ambiente^0,w,c
  1846  00025A  505C               	movf	(_temp_ambiente+1)^0,w,c
  1847  00025C  0A80               	xorlw	128
  1848  00025E  0101               	movlb	1	; () banked
  1849  000260  6FAC               	movwf	??_main& (0+255),b
  1850  000262  0100               	movlb	0	; () banked
  1851  000264  51EB               	movf	(_temp_alarme+1)& (0+255),w,b
  1852  000266  0A80               	xorlw	128
  1853  000268  0101               	movlb	1	; () banked
  1854  00026A  59AC               	subwfb	??_main& (0+255),w,b
  1855  00026C  B0D8               	btfsc	status,0,c
  1856  00026E  EF3B  F001         	goto	u7671
  1857  000272  EF3D  F001         	goto	u7670
  1858  000276                     u7671:
  1859  000276  EF47  F001         	goto	l6783
  1860  00027A                     u7670:
  1861  00027A                     
  1862                           ; BSR set to: 1
  1863  00027A  0100               	movlb	0	; () banked
  1864  00027C  05DE               	decf	_enter& (0+255),w,b
  1865  00027E  11DF               	iorwf	(_enter+1)& (0+255),w,b
  1866  000280  B4D8               	btfsc	status,2,c
  1867  000282  EF45  F001         	goto	u7681
  1868  000286  EF47  F001         	goto	u7680
  1869  00028A                     u7681:
  1870  00028A  EF63  F001         	goto	l6787
  1871  00028E                     u7680:
  1872  00028E                     l6783:
  1873  00028E  0100               	movlb	0	; () banked
  1874  000290  05E6               	decf	_update_temp_alarme& (0+255),w,b
  1875  000292  11E7               	iorwf	(_update_temp_alarme+1)& (0+255),w,b
  1876  000294  A4D8               	btfss	status,2,c
  1877  000296  EF4F  F001         	goto	u7691
  1878  00029A  EF51  F001         	goto	u7690
  1879  00029E                     u7691:
  1880  00029E  EF6B  F001         	goto	l6791
  1881  0002A2                     u7690:
  1882  0002A2                     
  1883                           ; BSR set to: 0
  1884  0002A2  51EA               	movf	_temp_alarme& (0+255),w,b
  1885  0002A4  5C5B               	subwf	_temp_ambiente^0,w,c
  1886  0002A6  505C               	movf	(_temp_ambiente+1)^0,w,c
  1887  0002A8  0A80               	xorlw	128
  1888  0002AA  0101               	movlb	1	; () banked
  1889  0002AC  6FAC               	movwf	??_main& (0+255),b
  1890  0002AE  0100               	movlb	0	; () banked
  1891  0002B0  51EB               	movf	(_temp_alarme+1)& (0+255),w,b
  1892  0002B2  0A80               	xorlw	128
  1893  0002B4  0101               	movlb	1	; () banked
  1894  0002B6  59AC               	subwfb	??_main& (0+255),w,b
  1895  0002B8  B0D8               	btfsc	status,0,c
  1896  0002BA  EF61  F001         	goto	u7701
  1897  0002BE  EF63  F001         	goto	u7700
  1898  0002C2                     u7701:
  1899  0002C2  EF6B  F001         	goto	l6791
  1900  0002C6                     u7700:
  1901  0002C6                     l6787:
  1902                           
  1903                           ;main.c: 222:             CCP1CONbits.CCP1M = 0000;
  1904  0002C6  0EF0               	movlw	-16
  1905  0002C8  16BD               	andwf	189,f,c	;volatile
  1906                           
  1907                           ;main.c: 223:             alarme_ativo = 0;
  1908  0002CA  0E00               	movlw	0
  1909  0002CC  0100               	movlb	0	; () banked
  1910  0002CE  6FE5               	movwf	(_alarme_ativo+1)& (0+255),b
  1911  0002D0  0E00               	movlw	0
  1912  0002D2  6FE4               	movwf	_alarme_ativo& (0+255),b
  1913  0002D4                     
  1914                           ; BSR set to: 0
  1915                           ;main.c: 224:             LATAbits.LATA1 = 0;
  1916  0002D4  9289               	bcf	137,1,c	;volatile
  1917  0002D6                     l6791:
  1918                           
  1919                           ;main.c: 230:         if ((menu_estado == 1 && menu_entrada == 1 && update_temp_alarme =
      +                          = 1) || (menu_estado == 1 && temp_mudou == 1)){
  1920  0002D6  0100               	movlb	0	; () banked
  1921  0002D8  05E2               	decf	_menu_estado& (0+255),w,b
  1922  0002DA  11E3               	iorwf	(_menu_estado+1)& (0+255),w,b
  1923  0002DC  A4D8               	btfss	status,2,c
  1924  0002DE  EF73  F001         	goto	u7711
  1925  0002E2  EF75  F001         	goto	u7710
  1926  0002E6                     u7711:
  1927  0002E6  EF87  F001         	goto	l6797
  1928  0002EA                     u7710:
  1929  0002EA                     
  1930                           ; BSR set to: 0
  1931  0002EA  05E0               	decf	_menu_entrada& (0+255),w,b
  1932  0002EC  11E1               	iorwf	(_menu_entrada+1)& (0+255),w,b
  1933  0002EE  A4D8               	btfss	status,2,c
  1934  0002F0  EF7C  F001         	goto	u7721
  1935  0002F4  EF7E  F001         	goto	u7720
  1936  0002F8                     u7721:
  1937  0002F8  EF87  F001         	goto	l6797
  1938  0002FC                     u7720:
  1939  0002FC                     
  1940                           ; BSR set to: 0
  1941  0002FC  05E6               	decf	_update_temp_alarme& (0+255),w,b
  1942  0002FE  11E7               	iorwf	(_update_temp_alarme+1)& (0+255),w,b
  1943  000300  B4D8               	btfsc	status,2,c
  1944  000302  EF85  F001         	goto	u7731
  1945  000306  EF87  F001         	goto	u7730
  1946  00030A                     u7731:
  1947  00030A  EF99  F001         	goto	l6801
  1948  00030E                     u7730:
  1949  00030E                     l6797:
  1950                           
  1951                           ; BSR set to: 0
  1952  00030E  05E2               	decf	_menu_estado& (0+255),w,b
  1953  000310  11E3               	iorwf	(_menu_estado+1)& (0+255),w,b
  1954  000312  A4D8               	btfss	status,2,c
  1955  000314  EF8E  F001         	goto	u7741
  1956  000318  EF90  F001         	goto	u7740
  1957  00031C                     u7741:
  1958  00031C  EFF0  F001         	goto	l6815
  1959  000320                     u7740:
  1960  000320                     
  1961                           ; BSR set to: 0
  1962  000320  05E8               	decf	_temp_mudou& (0+255),w,b
  1963  000322  11E9               	iorwf	(_temp_mudou+1)& (0+255),w,b
  1964  000324  A4D8               	btfss	status,2,c
  1965  000326  EF97  F001         	goto	u7751
  1966  00032A  EF99  F001         	goto	u7750
  1967  00032E                     u7751:
  1968  00032E  EFF0  F001         	goto	l6815
  1969  000332                     u7750:
  1970  000332                     l6801:
  1971                           
  1972                           ; BSR set to: 0
  1973                           ;main.c: 231:             printf("%c" , 12);
  1974  000332  0EFC               	movlw	low STR_1
  1975  000334  6FC4               	movwf	printf@fmt& (0+255),b
  1976  000336  0E7F               	movlw	high STR_1
  1977  000338  6FC5               	movwf	(printf@fmt+1)& (0+255),b
  1978  00033A  0E00               	movlw	0
  1979  00033C  6FC7               	movwf	(?_printf+3)& (0+255),b
  1980  00033E  0E0C               	movlw	12
  1981  000340  6FC6               	movwf	(?_printf+2)& (0+255),b
  1982  000342  EC20  F01C         	call	_printf	;wreg free
  1983                           
  1984                           ;main.c: 232:             printf("\r\n---------------Menu principal---------------");
  1985  000346  0E30               	movlw	low STR_2
  1986  000348  0100               	movlb	0	; () banked
  1987  00034A  6FC4               	movwf	printf@fmt& (0+255),b
  1988  00034C  0E7E               	movlw	high STR_2
  1989  00034E  6FC5               	movwf	(printf@fmt+1)& (0+255),b
  1990  000350  EC20  F01C         	call	_printf	;wreg free
  1991                           
  1992                           ;main.c: 233:             printf("\r\n\nTemperatura atual = %dºC", temp_ambiente);
  1993  000354  0E58               	movlw	low STR_3
  1994  000356  0100               	movlb	0	; () banked
  1995  000358  6FC4               	movwf	printf@fmt& (0+255),b
  1996  00035A  0E7F               	movlw	high STR_3
  1997  00035C  6FC5               	movwf	(printf@fmt+1)& (0+255),b
  1998  00035E  C05B  F0C6         	movff	_temp_ambiente,?_printf+2
  1999  000362  C05C  F0C7         	movff	_temp_ambiente+1,?_printf+3
  2000  000366  EC20  F01C         	call	_printf	;wreg free
  2001  00036A                     
  2002                           ;main.c: 234:             if (alarme_ativo == 1){
  2003  00036A  0100               	movlb	0	; () banked
  2004  00036C  05E4               	decf	_alarme_ativo& (0+255),w,b
  2005  00036E  11E5               	iorwf	(_alarme_ativo+1)& (0+255),w,b
  2006  000370  A4D8               	btfss	status,2,c
  2007  000372  EFBD  F001         	goto	u7761
  2008  000376  EFBF  F001         	goto	u7760
  2009  00037A                     u7761:
  2010  00037A  EFC5  F001         	goto	l6807
  2011  00037E                     u7760:
  2012  00037E                     
  2013                           ; BSR set to: 0
  2014                           ;main.c: 235:                 printf("\r\nEstado do alarme: Ativo");
  2015  00037E  0E74               	movlw	low STR_4
  2016  000380  6FC4               	movwf	printf@fmt& (0+255),b
  2017  000382  0E7F               	movlw	high STR_4
  2018  000384  6FC5               	movwf	(printf@fmt+1)& (0+255),b
  2019  000386  EC20  F01C         	call	_printf	;wreg free
  2020  00038A                     l6807:
  2021                           
  2022                           ;main.c: 237:             if (alarme_ativo == 0){
  2023  00038A  0100               	movlb	0	; () banked
  2024  00038C  51E4               	movf	_alarme_ativo& (0+255),w,b
  2025  00038E  11E5               	iorwf	(_alarme_ativo+1)& (0+255),w,b
  2026  000390  A4D8               	btfss	status,2,c
  2027  000392  EFCD  F001         	goto	u7771
  2028  000396  EFCF  F001         	goto	u7770
  2029  00039A                     u7771:
  2030  00039A  EFD5  F001         	goto	l608
  2031  00039E                     u7770:
  2032  00039E                     
  2033                           ; BSR set to: 0
  2034                           ;main.c: 238:                 printf("\r\nEstado do alarme: Desativo");
  2035  00039E  0E3B               	movlw	low STR_5
  2036  0003A0  6FC4               	movwf	printf@fmt& (0+255),b
  2037  0003A2  0E7F               	movlw	high STR_5
  2038  0003A4  6FC5               	movwf	(printf@fmt+1)& (0+255),b
  2039  0003A6  EC20  F01C         	call	_printf	;wreg free
  2040  0003AA                     l608:
  2041                           
  2042                           ;main.c: 241:             printf("\r\n\nTemperatura de alarme: %dºC", temp_alarme);
  2043  0003AA  0E1C               	movlw	low STR_6
  2044  0003AC  0100               	movlb	0	; () banked
  2045  0003AE  6FC4               	movwf	printf@fmt& (0+255),b
  2046  0003B0  0E7F               	movlw	high STR_6
  2047  0003B2  6FC5               	movwf	(printf@fmt+1)& (0+255),b
  2048  0003B4  C0EA  F0C6         	movff	_temp_alarme,?_printf+2
  2049  0003B8  C0EB  F0C7         	movff	_temp_alarme+1,?_printf+3
  2050  0003BC  EC20  F01C         	call	_printf	;wreg free
  2051                           
  2052                           ;main.c: 243:             printf ("\r\nAlterar temperatura de alarme? [Y]: ");
  2053  0003C0  0EB2               	movlw	low STR_7
  2054  0003C2  0100               	movlb	0	; () banked
  2055  0003C4  6FC4               	movwf	printf@fmt& (0+255),b
  2056  0003C6  0E7E               	movlw	high STR_7
  2057  0003C8  6FC5               	movwf	(printf@fmt+1)& (0+255),b
  2058  0003CA  EC20  F01C         	call	_printf	;wreg free
  2059  0003CE                     
  2060                           ;main.c: 245:             menu_entrada = 0;
  2061  0003CE  0E00               	movlw	0
  2062  0003D0  0100               	movlb	0	; () banked
  2063  0003D2  6FE1               	movwf	(_menu_entrada+1)& (0+255),b
  2064  0003D4  0E00               	movlw	0
  2065  0003D6  6FE0               	movwf	_menu_entrada& (0+255),b
  2066  0003D8                     
  2067                           ; BSR set to: 0
  2068                           ;main.c: 247:             update_temp_alarme = 0;
  2069  0003D8  0E00               	movlw	0
  2070  0003DA  6FE7               	movwf	(_update_temp_alarme+1)& (0+255),b
  2071  0003DC  0E00               	movlw	0
  2072  0003DE  6FE6               	movwf	_update_temp_alarme& (0+255),b
  2073  0003E0                     l6815:
  2074                           
  2075                           ; BSR set to: 0
  2076                           ;main.c: 250:         if (menu_estado == 0 && menu_entrada == 1){
  2077  0003E0  51E2               	movf	_menu_estado& (0+255),w,b
  2078  0003E2  11E3               	iorwf	(_menu_estado+1)& (0+255),w,b
  2079  0003E4  A4D8               	btfss	status,2,c
  2080  0003E6  EFF7  F001         	goto	u7781
  2081  0003EA  EFF9  F001         	goto	u7780
  2082  0003EE                     u7781:
  2083  0003EE  EF1F  F002         	goto	l6823
  2084  0003F2                     u7780:
  2085  0003F2                     
  2086                           ; BSR set to: 0
  2087  0003F2  05E0               	decf	_menu_entrada& (0+255),w,b
  2088  0003F4  11E1               	iorwf	(_menu_entrada+1)& (0+255),w,b
  2089  0003F6  A4D8               	btfss	status,2,c
  2090  0003F8  EF00  F002         	goto	u7791
  2091  0003FC  EF02  F002         	goto	u7790
  2092  000400                     u7791:
  2093  000400  EF1F  F002         	goto	l6823
  2094  000404                     u7790:
  2095  000404                     
  2096                           ; BSR set to: 0
  2097                           ;main.c: 251:             printf("\r\n-----------------Sub-menu-------------------");
  2098  000404  0E01               	movlw	low STR_8
  2099  000406  6FC4               	movwf	printf@fmt& (0+255),b
  2100  000408  0E7E               	movlw	high STR_8
  2101  00040A  6FC5               	movwf	(printf@fmt+1)& (0+255),b
  2102  00040C  EC20  F01C         	call	_printf	;wreg free
  2103                           
  2104                           ;main.c: 252:             printf("\r\n\nTemperatura de alarme: %dºC", temp_alarme);
  2105  000410  0E1C               	movlw	low STR_6
  2106  000412  0100               	movlb	0	; () banked
  2107  000414  6FC4               	movwf	printf@fmt& (0+255),b
  2108  000416  0E7F               	movlw	high STR_6
  2109  000418  6FC5               	movwf	(printf@fmt+1)& (0+255),b
  2110  00041A  C0EA  F0C6         	movff	_temp_alarme,?_printf+2
  2111  00041E  C0EB  F0C7         	movff	_temp_alarme+1,?_printf+3
  2112  000422  EC20  F01C         	call	_printf	;wreg free
  2113                           
  2114                           ;main.c: 253:             printf("\r\nIntroduza a nova temperatura de alarme: ");
  2115  000426  0E5F               	movlw	low STR_10
  2116  000428  0100               	movlb	0	; () banked
  2117  00042A  6FC4               	movwf	printf@fmt& (0+255),b
  2118  00042C  0E7E               	movlw	high STR_10
  2119  00042E  6FC5               	movwf	(printf@fmt+1)& (0+255),b
  2120  000430  EC20  F01C         	call	_printf	;wreg free
  2121  000434                     
  2122                           ;main.c: 255:             menu_entrada = 0;
  2123  000434  0E00               	movlw	0
  2124  000436  0100               	movlb	0	; () banked
  2125  000438  6FE1               	movwf	(_menu_entrada+1)& (0+255),b
  2126  00043A  0E00               	movlw	0
  2127  00043C  6FE0               	movwf	_menu_entrada& (0+255),b
  2128  00043E                     l6823:
  2129                           
  2130                           ; BSR set to: 0
  2131                           ;main.c: 259:         if (EUSART1_is_rx_ready()){
  2132  00043E  EC9D  F01C         	call	_EUSART1_is_rx_ready	;wreg free
  2133  000442  0900               	iorlw	0
  2134  000444  B4D8               	btfsc	status,2,c
  2135  000446  EF27  F002         	goto	u7801
  2136  00044A  EF29  F002         	goto	u7800
  2137  00044E                     u7801:
  2138  00044E  EF73  F003         	goto	l6895
  2139  000452                     u7800:
  2140  000452                     
  2141                           ;main.c: 261:             enter = 0;
  2142  000452  0E00               	movlw	0
  2143  000454  0100               	movlb	0	; () banked
  2144  000456  6FDF               	movwf	(_enter+1)& (0+255),b
  2145  000458  0E00               	movlw	0
  2146  00045A  6FDE               	movwf	_enter& (0+255),b
  2147  00045C                     
  2148                           ; BSR set to: 0
  2149                           ;main.c: 263:             rxData = EUSART1_Read();
  2150  00045C  ECDD  F019         	call	_EUSART1_Read	;wreg free
  2151  000460  0101               	movlb	1	; () banked
  2152  000462  6FB0               	movwf	main@rxData& (0+255),b
  2153  000464                     
  2154                           ; BSR set to: 1
  2155                           ;main.c: 265:             if (rxData == 13 && menu_estado == 0){
  2156  000464  0E0D               	movlw	13
  2157  000466  19B0               	xorwf	main@rxData& (0+255),w,b
  2158  000468  A4D8               	btfss	status,2,c
  2159  00046A  EF39  F002         	goto	u7811
  2160  00046E  EF3B  F002         	goto	u7810
  2161  000472                     u7811:
  2162  000472  EFBA  F002         	goto	l6851
  2163  000476                     u7810:
  2164  000476                     
  2165                           ; BSR set to: 1
  2166  000476  0100               	movlb	0	; () banked
  2167  000478  51E2               	movf	_menu_estado& (0+255),w,b
  2168  00047A  11E3               	iorwf	(_menu_estado+1)& (0+255),w,b
  2169  00047C  A4D8               	btfss	status,2,c
  2170  00047E  EF43  F002         	goto	u7821
  2171  000482  EF45  F002         	goto	u7820
  2172  000486                     u7821:
  2173  000486  EFBA  F002         	goto	l6851
  2174  00048A                     u7820:
  2175  00048A                     
  2176                           ; BSR set to: 0
  2177                           ;main.c: 267:                 printf("%c", 12);
  2178  00048A  0EFC               	movlw	low STR_1
  2179  00048C  6FC4               	movwf	printf@fmt& (0+255),b
  2180  00048E  0E7F               	movlw	high STR_1
  2181  000490  6FC5               	movwf	(printf@fmt+1)& (0+255),b
  2182  000492  0E00               	movlw	0
  2183  000494  6FC7               	movwf	(?_printf+3)& (0+255),b
  2184  000496  0E0C               	movlw	12
  2185  000498  6FC6               	movwf	(?_printf+2)& (0+255),b
  2186  00049A  EC20  F01C         	call	_printf	;wreg free
  2187  00049E                     
  2188                           ;main.c: 269:                 if (temp_alarme_provisoria >=10 && temp_alarme_provisoria 
      +                          <=50){
  2189  00049E  0100               	movlb	0	; () banked
  2190  0004A0  BFED               	btfsc	(_temp_alarme_provisoria+1)& (0+255),7,b
  2191  0004A2  EF5C  F002         	goto	u7831
  2192  0004A6  51ED               	movf	(_temp_alarme_provisoria+1)& (0+255),w,b
  2193  0004A8  E109               	bnz	u7830
  2194  0004AA  0E0A               	movlw	10
  2195  0004AC  5DEC               	subwf	_temp_alarme_provisoria& (0+255),w,b
  2196  0004AE  A0D8               	btfss	status,0,c
  2197  0004B0  EF5C  F002         	goto	u7831
  2198  0004B4  EF5E  F002         	goto	u7830
  2199  0004B8                     u7831:
  2200  0004B8  EFA0  F002         	goto	l6847
  2201  0004BC                     u7830:
  2202  0004BC                     
  2203                           ; BSR set to: 0
  2204  0004BC  BFED               	btfsc	(_temp_alarme_provisoria+1)& (0+255),7,b
  2205  0004BE  EF6C  F002         	goto	u7840
  2206  0004C2  51ED               	movf	(_temp_alarme_provisoria+1)& (0+255),w,b
  2207  0004C4  E107               	bnz	u7841
  2208  0004C6  0E33               	movlw	51
  2209  0004C8  5DEC               	subwf	_temp_alarme_provisoria& (0+255),w,b
  2210  0004CA  B0D8               	btfsc	status,0,c
  2211  0004CC  EF6A  F002         	goto	u7841
  2212  0004D0  EF6C  F002         	goto	u7840
  2213  0004D4                     u7841:
  2214  0004D4  EFA0  F002         	goto	l6847
  2215  0004D8                     u7840:
  2216  0004D8                     
  2217                           ; BSR set to: 0
  2218                           ;main.c: 271:                     temp_alarme = temp_alarme_provisoria;
  2219  0004D8  C0EC  F0EA         	movff	_temp_alarme_provisoria,_temp_alarme
  2220  0004DC  C0ED  F0EB         	movff	_temp_alarme_provisoria+1,_temp_alarme+1
  2221  0004E0                     
  2222                           ; BSR set to: 0
  2223                           ;main.c: 273:                     if (menu_estado == 0){
  2224  0004E0  51E2               	movf	_menu_estado& (0+255),w,b
  2225  0004E2  11E3               	iorwf	(_menu_estado+1)& (0+255),w,b
  2226  0004E4  A4D8               	btfss	status,2,c
  2227  0004E6  EF77  F002         	goto	u7851
  2228  0004EA  EF79  F002         	goto	u7850
  2229  0004EE                     u7851:
  2230  0004EE  EF81  F002         	goto	l613
  2231  0004F2                     u7850:
  2232  0004F2                     
  2233                           ; BSR set to: 0
  2234                           ;main.c: 274:                         menu_estado = 1;
  2235  0004F2  0E00               	movlw	0
  2236  0004F4  6FE3               	movwf	(_menu_estado+1)& (0+255),b
  2237  0004F6  0E01               	movlw	1
  2238  0004F8  6FE2               	movwf	_menu_estado& (0+255),b
  2239                           
  2240                           ;main.c: 275:                         menu_entrada = 1;
  2241  0004FA  0E00               	movlw	0
  2242  0004FC  6FE1               	movwf	(_menu_entrada+1)& (0+255),b
  2243  0004FE  0E01               	movlw	1
  2244  000500  6FE0               	movwf	_menu_entrada& (0+255),b
  2245  000502                     l613:
  2246                           
  2247                           ; BSR set to: 0
  2248                           ;main.c: 277:                     limpar_terminal = 1;
  2249  000502  0E00               	movlw	0
  2250  000504  0101               	movlb	1	; () banked
  2251  000506  6F19               	movwf	(_limpar_terminal+1)& (0+255),b
  2252  000508  0E01               	movlw	1
  2253  00050A  6F18               	movwf	_limpar_terminal& (0+255),b
  2254                           
  2255                           ;main.c: 279:                     enter = 1;
  2256  00050C  0E00               	movlw	0
  2257  00050E  0100               	movlb	0	; () banked
  2258  000510  6FDF               	movwf	(_enter+1)& (0+255),b
  2259  000512  0E01               	movlw	1
  2260  000514  6FDE               	movwf	_enter& (0+255),b
  2261                           
  2262                           ;main.c: 281:                     update_temp_alarme = 1;
  2263  000516  0E00               	movlw	0
  2264  000518  6FE7               	movwf	(_update_temp_alarme+1)& (0+255),b
  2265  00051A  0E01               	movlw	1
  2266  00051C  6FE6               	movwf	_update_temp_alarme& (0+255),b
  2267  00051E                     l6845:
  2268                           
  2269                           ;main.c: 283:                     memset(temp_alarme_string, '\0', sizeof temp_alarme_st
      +                          ring);
  2270  00051E  0E94               	movlw	low _temp_alarme_string
  2271  000520  0100               	movlb	0	; () banked
  2272  000522  6F66               	movwf	memset@dest& (0+255),b
  2273  000524  0E01               	movlw	high _temp_alarme_string
  2274  000526  6F67               	movwf	(memset@dest+1)& (0+255),b
  2275  000528  0E00               	movlw	0
  2276  00052A  6F69               	movwf	(memset@c+1)& (0+255),b
  2277  00052C  0E00               	movlw	0
  2278  00052E  6F68               	movwf	memset@c& (0+255),b
  2279  000530  0E00               	movlw	0
  2280  000532  6F6B               	movwf	(memset@n+1)& (0+255),b
  2281  000534  0E04               	movlw	4
  2282  000536  6F6A               	movwf	memset@n& (0+255),b
  2283  000538  EC31  F014         	call	_memset	;wreg free
  2284                           
  2285                           ;main.c: 285:                 }
  2286  00053C  EFBA  F002         	goto	l6851
  2287  000540                     l6847:
  2288                           
  2289                           ; BSR set to: 0
  2290                           ;main.c: 287:                     printf("\r\n\n------------TEMPERATURA INVÁLIDA--------
      +                          ----");
  2291  000540  0ED1               	movlw	low STR_12
  2292  000542  6FC4               	movwf	printf@fmt& (0+255),b
  2293  000544  0E7D               	movlw	high STR_12
  2294  000546  6FC5               	movwf	(printf@fmt+1)& (0+255),b
  2295  000548  EC20  F01C         	call	_printf	;wreg free
  2296                           
  2297                           ;main.c: 288:                     printf("\r\n\nTemperatura de alarme inválida: %dºC", t
      +                          emp_alarme);
  2298  00054C  0E8A               	movlw	low STR_13
  2299  00054E  0100               	movlb	0	; () banked
  2300  000550  6FC4               	movwf	printf@fmt& (0+255),b
  2301  000552  0E7E               	movlw	high STR_13
  2302  000554  6FC5               	movwf	(printf@fmt+1)& (0+255),b
  2303  000556  C0EA  F0C6         	movff	_temp_alarme,?_printf+2
  2304  00055A  C0EB  F0C7         	movff	_temp_alarme+1,?_printf+3
  2305  00055E  EC20  F01C         	call	_printf	;wreg free
  2306                           
  2307                           ;main.c: 289:                     printf("\r\nIntroduza a nova temperatura de alarme: ")
      +                          ;
  2308  000562  0E5F               	movlw	low STR_10
  2309  000564  0100               	movlb	0	; () banked
  2310  000566  6FC4               	movwf	printf@fmt& (0+255),b
  2311  000568  0E7E               	movlw	high STR_10
  2312  00056A  6FC5               	movwf	(printf@fmt+1)& (0+255),b
  2313  00056C  EC20  F01C         	call	_printf	;wreg free
  2314  000570  EF8F  F002         	goto	l6845
  2315  000574                     l6851:
  2316                           
  2317                           ;main.c: 293:             if (rxData == 'Y' || rxData == 'y'){
  2318  000574  0E59               	movlw	89
  2319  000576  0101               	movlb	1	; () banked
  2320  000578  19B0               	xorwf	main@rxData& (0+255),w,b
  2321  00057A  B4D8               	btfsc	status,2,c
  2322  00057C  EFC2  F002         	goto	u7861
  2323  000580  EFC4  F002         	goto	u7860
  2324  000584                     u7861:
  2325  000584  EFCD  F002         	goto	l6855
  2326  000588                     u7860:
  2327  000588                     
  2328                           ; BSR set to: 1
  2329  000588  0E79               	movlw	121
  2330  00058A  19B0               	xorwf	main@rxData& (0+255),w,b
  2331  00058C  A4D8               	btfss	status,2,c
  2332  00058E  EFCB  F002         	goto	u7871
  2333  000592  EFCD  F002         	goto	u7870
  2334  000596                     u7871:
  2335  000596  EFEF  F002         	goto	l6865
  2336  00059A                     u7870:
  2337  00059A                     l6855:
  2338                           
  2339                           ; BSR set to: 1
  2340                           ;main.c: 295:                 if (menu_estado == 1){
  2341  00059A  0100               	movlb	0	; () banked
  2342  00059C  05E2               	decf	_menu_estado& (0+255),w,b
  2343  00059E  11E3               	iorwf	(_menu_estado+1)& (0+255),w,b
  2344  0005A0  A4D8               	btfss	status,2,c
  2345  0005A2  EFD5  F002         	goto	u7881
  2346  0005A6  EFD7  F002         	goto	u7880
  2347  0005AA                     u7881:
  2348  0005AA  EFEA  F002         	goto	l6863
  2349  0005AE                     u7880:
  2350  0005AE                     
  2351                           ; BSR set to: 0
  2352                           ;main.c: 296:                     printf("%c", 12);
  2353  0005AE  0EFC               	movlw	low STR_1
  2354  0005B0  6FC4               	movwf	printf@fmt& (0+255),b
  2355  0005B2  0E7F               	movlw	high STR_1
  2356  0005B4  6FC5               	movwf	(printf@fmt+1)& (0+255),b
  2357  0005B6  0E00               	movlw	0
  2358  0005B8  6FC7               	movwf	(?_printf+3)& (0+255),b
  2359  0005BA  0E0C               	movlw	12
  2360  0005BC  6FC6               	movwf	(?_printf+2)& (0+255),b
  2361  0005BE  EC20  F01C         	call	_printf	;wreg free
  2362  0005C2                     
  2363                           ;main.c: 297:                     menu_estado = 0;
  2364  0005C2  0E00               	movlw	0
  2365  0005C4  0100               	movlb	0	; () banked
  2366  0005C6  6FE3               	movwf	(_menu_estado+1)& (0+255),b
  2367  0005C8  0E00               	movlw	0
  2368  0005CA  6FE2               	movwf	_menu_estado& (0+255),b
  2369  0005CC                     
  2370                           ; BSR set to: 0
  2371                           ;main.c: 298:                     menu_entrada = 1;
  2372  0005CC  0E00               	movlw	0
  2373  0005CE  6FE1               	movwf	(_menu_entrada+1)& (0+255),b
  2374  0005D0  0E01               	movlw	1
  2375  0005D2  6FE0               	movwf	_menu_entrada& (0+255),b
  2376  0005D4                     l6863:
  2377                           
  2378                           ; BSR set to: 0
  2379                           ;main.c: 300:                 limpar_terminal = 1;
  2380  0005D4  0E00               	movlw	0
  2381  0005D6  0101               	movlb	1	; () banked
  2382  0005D8  6F19               	movwf	(_limpar_terminal+1)& (0+255),b
  2383  0005DA  0E01               	movlw	1
  2384  0005DC  6F18               	movwf	_limpar_terminal& (0+255),b
  2385  0005DE                     l6865:
  2386                           
  2387                           ; BSR set to: 1
  2388                           ;main.c: 303:             if ((rxData == '0' || rxData == '1' || rxData == '2' || rxData
      +                           == '3' || rxData == '4' || rxData == '5' || rxData == '6' || rxData == '7' || rxData ==
      +                           '8' || rxData == '9') && menu_estado == 0){
  2389  0005DE  0E30               	movlw	48
  2390  0005E0  19B0               	xorwf	main@rxData& (0+255),w,b
  2391  0005E2  B4D8               	btfsc	status,2,c
  2392  0005E4  EFF6  F002         	goto	u7891
  2393  0005E8  EFF8  F002         	goto	u7890
  2394  0005EC                     u7891:
  2395  0005EC  EF49  F003         	goto	l6885
  2396  0005F0                     u7890:
  2397  0005F0                     
  2398                           ; BSR set to: 1
  2399  0005F0  0E31               	movlw	49
  2400  0005F2  19B0               	xorwf	main@rxData& (0+255),w,b
  2401  0005F4  B4D8               	btfsc	status,2,c
  2402  0005F6  EFFF  F002         	goto	u7901
  2403  0005FA  EF01  F003         	goto	u7900
  2404  0005FE                     u7901:
  2405  0005FE  EF49  F003         	goto	l6885
  2406  000602                     u7900:
  2407  000602                     
  2408                           ; BSR set to: 1
  2409  000602  0E32               	movlw	50
  2410  000604  19B0               	xorwf	main@rxData& (0+255),w,b
  2411  000606  B4D8               	btfsc	status,2,c
  2412  000608  EF08  F003         	goto	u7911
  2413  00060C  EF0A  F003         	goto	u7910
  2414  000610                     u7911:
  2415  000610  EF49  F003         	goto	l6885
  2416  000614                     u7910:
  2417  000614                     
  2418                           ; BSR set to: 1
  2419  000614  0E33               	movlw	51
  2420  000616  19B0               	xorwf	main@rxData& (0+255),w,b
  2421  000618  B4D8               	btfsc	status,2,c
  2422  00061A  EF11  F003         	goto	u7921
  2423  00061E  EF13  F003         	goto	u7920
  2424  000622                     u7921:
  2425  000622  EF49  F003         	goto	l6885
  2426  000626                     u7920:
  2427  000626                     
  2428                           ; BSR set to: 1
  2429  000626  0E34               	movlw	52
  2430  000628  19B0               	xorwf	main@rxData& (0+255),w,b
  2431  00062A  B4D8               	btfsc	status,2,c
  2432  00062C  EF1A  F003         	goto	u7931
  2433  000630  EF1C  F003         	goto	u7930
  2434  000634                     u7931:
  2435  000634  EF49  F003         	goto	l6885
  2436  000638                     u7930:
  2437  000638                     
  2438                           ; BSR set to: 1
  2439  000638  0E35               	movlw	53
  2440  00063A  19B0               	xorwf	main@rxData& (0+255),w,b
  2441  00063C  B4D8               	btfsc	status,2,c
  2442  00063E  EF23  F003         	goto	u7941
  2443  000642  EF25  F003         	goto	u7940
  2444  000646                     u7941:
  2445  000646  EF49  F003         	goto	l6885
  2446  00064A                     u7940:
  2447  00064A                     
  2448                           ; BSR set to: 1
  2449  00064A  0E36               	movlw	54
  2450  00064C  19B0               	xorwf	main@rxData& (0+255),w,b
  2451  00064E  B4D8               	btfsc	status,2,c
  2452  000650  EF2C  F003         	goto	u7951
  2453  000654  EF2E  F003         	goto	u7950
  2454  000658                     u7951:
  2455  000658  EF49  F003         	goto	l6885
  2456  00065C                     u7950:
  2457  00065C                     
  2458                           ; BSR set to: 1
  2459  00065C  0E37               	movlw	55
  2460  00065E  19B0               	xorwf	main@rxData& (0+255),w,b
  2461  000660  B4D8               	btfsc	status,2,c
  2462  000662  EF35  F003         	goto	u7961
  2463  000666  EF37  F003         	goto	u7960
  2464  00066A                     u7961:
  2465  00066A  EF49  F003         	goto	l6885
  2466  00066E                     u7960:
  2467  00066E                     
  2468                           ; BSR set to: 1
  2469  00066E  0E38               	movlw	56
  2470  000670  19B0               	xorwf	main@rxData& (0+255),w,b
  2471  000672  B4D8               	btfsc	status,2,c
  2472  000674  EF3E  F003         	goto	u7971
  2473  000678  EF40  F003         	goto	u7970
  2474  00067C                     u7971:
  2475  00067C  EF49  F003         	goto	l6885
  2476  000680                     u7970:
  2477  000680                     
  2478                           ; BSR set to: 1
  2479  000680  0E39               	movlw	57
  2480  000682  19B0               	xorwf	main@rxData& (0+255),w,b
  2481  000684  A4D8               	btfss	status,2,c
  2482  000686  EF47  F003         	goto	u7981
  2483  00068A  EF49  F003         	goto	u7980
  2484  00068E                     u7981:
  2485  00068E  EF73  F003         	goto	l6895
  2486  000692                     u7980:
  2487  000692                     l6885:
  2488                           
  2489                           ; BSR set to: 1
  2490  000692  0100               	movlb	0	; () banked
  2491  000694  51E2               	movf	_menu_estado& (0+255),w,b
  2492  000696  11E3               	iorwf	(_menu_estado+1)& (0+255),w,b
  2493  000698  A4D8               	btfss	status,2,c
  2494  00069A  EF51  F003         	goto	u7991
  2495  00069E  EF53  F003         	goto	u7990
  2496  0006A2                     u7991:
  2497  0006A2  EF73  F003         	goto	l6895
  2498  0006A6                     u7990:
  2499  0006A6                     
  2500                           ; BSR set to: 0
  2501                           ;main.c: 305:                 temp_alarme_intro = rxData;
  2502  0006A6  C1B0  F0F6         	movff	main@rxData,_temp_alarme_intro
  2503  0006AA                     
  2504                           ; BSR set to: 0
  2505                           ;main.c: 306:                  EUSART1_Write(rxData);
  2506  0006AA  0101               	movlb	1	; () banked
  2507  0006AC  51B0               	movf	main@rxData& (0+255),w,b
  2508  0006AE  EC91  F01C         	call	_EUSART1_Write
  2509  0006B2                     
  2510                           ;main.c: 308:                  strncat(temp_alarme_string, &temp_alarme_intro, 1);
  2511  0006B2  0E94               	movlw	low _temp_alarme_string
  2512  0006B4  0100               	movlb	0	; () banked
  2513  0006B6  6F6A               	movwf	strncat@d& (0+255),b
  2514  0006B8  0E01               	movlw	high _temp_alarme_string
  2515  0006BA  6F6B               	movwf	(strncat@d+1)& (0+255),b
  2516  0006BC  0EF6               	movlw	low _temp_alarme_intro
  2517  0006BE  6F6C               	movwf	strncat@s& (0+255),b
  2518  0006C0  0E00               	movlw	high _temp_alarme_intro
  2519  0006C2  6F6D               	movwf	(strncat@s+1)& (0+255),b
  2520  0006C4  0E00               	movlw	0
  2521  0006C6  6F6F               	movwf	(strncat@n+1)& (0+255),b
  2522  0006C8  0E01               	movlw	1
  2523  0006CA  6F6E               	movwf	strncat@n& (0+255),b
  2524  0006CC  EC16  F018         	call	_strncat	;wreg free
  2525  0006D0                     
  2526                           ;main.c: 310:                  temp_alarme_provisoria = atoi (temp_alarme_string);
  2527  0006D0  0E94               	movlw	low _temp_alarme_string
  2528  0006D2  0100               	movlb	0	; () banked
  2529  0006D4  6F6D               	movwf	atoi@s& (0+255),b
  2530  0006D6  0E01               	movlw	high _temp_alarme_string
  2531  0006D8  6F6E               	movwf	(atoi@s+1)& (0+255),b
  2532  0006DA  EC93  F010         	call	_atoi	;wreg free
  2533  0006DE  C06D  F0EC         	movff	?_atoi,_temp_alarme_provisoria
  2534  0006E2  C06E  F0ED         	movff	?_atoi+1,_temp_alarme_provisoria+1
  2535  0006E6                     l6895:
  2536                           
  2537                           ;main.c: 319:         if (tecla_n == 1 && tecla_premida == '*' && mudar_temp_alarme == 0
      +                          ){
  2538  0006E6  0100               	movlb	0	; () banked
  2539  0006E8  05F0               	decf	_tecla_n& (0+255),w,b
  2540  0006EA  11F1               	iorwf	(_tecla_n+1)& (0+255),w,b
  2541  0006EC  A4D8               	btfss	status,2,c
  2542  0006EE  EF7B  F003         	goto	u8001
  2543  0006F2  EF7D  F003         	goto	u8000
  2544  0006F6                     u8001:
  2545  0006F6  EFA7  F003         	goto	l6909
  2546  0006FA                     u8000:
  2547  0006FA                     
  2548                           ; BSR set to: 0
  2549  0006FA  0E2A               	movlw	42
  2550  0006FC  19F7               	xorwf	_tecla_premida& (0+255),w,b
  2551  0006FE  A4D8               	btfss	status,2,c
  2552  000700  EF84  F003         	goto	u8011
  2553  000704  EF86  F003         	goto	u8010
  2554  000708                     u8011:
  2555  000708  EFA7  F003         	goto	l6909
  2556  00070C                     u8010:
  2557  00070C                     
  2558                           ; BSR set to: 0
  2559  00070C  51EE               	movf	_mudar_temp_alarme& (0+255),w,b
  2560  00070E  11EF               	iorwf	(_mudar_temp_alarme+1)& (0+255),w,b
  2561  000710  A4D8               	btfss	status,2,c
  2562  000712  EF8D  F003         	goto	u8021
  2563  000716  EF8F  F003         	goto	u8020
  2564  00071A                     u8021:
  2565  00071A  EFA7  F003         	goto	l6909
  2566  00071E                     u8020:
  2567  00071E                     
  2568                           ; BSR set to: 0
  2569                           ;main.c: 320:             mudar_temp_alarme = 1;
  2570  00071E  0E00               	movlw	0
  2571  000720  6FEF               	movwf	(_mudar_temp_alarme+1)& (0+255),b
  2572  000722  0E01               	movlw	1
  2573  000724  6FEE               	movwf	_mudar_temp_alarme& (0+255),b
  2574  000726                     
  2575                           ; BSR set to: 0
  2576                           ;main.c: 321:             WriteCmdXLCD(0b00000001);
  2577  000726  0E01               	movlw	1
  2578  000728  ECB5  F01A         	call	_WriteCmdXLCD
  2579  00072C                     l6905:
  2580  00072C  EC70  F01A         	call	_BusyXLCD	;wreg free
  2581  000730  0900               	iorlw	0
  2582  000732  A4D8               	btfss	status,2,c
  2583  000734  EF9E  F003         	goto	u8031
  2584  000738  EFA0  F003         	goto	u8030
  2585  00073C                     u8031:
  2586  00073C  EF96  F003         	goto	l6905
  2587  000740                     u8030:
  2588  000740                     l6907:
  2589                           
  2590                           ;main.c: 323:             tecla_n =0;
  2591  000740  0E00               	movlw	0
  2592  000742  0100               	movlb	0	; () banked
  2593  000744  6FF1               	movwf	(_tecla_n+1)& (0+255),b
  2594  000746  0E00               	movlw	0
  2595  000748  6FF0               	movwf	_tecla_n& (0+255),b
  2596                           
  2597                           ;main.c: 324:         }
  2598  00074A  EFD5  F003         	goto	l6923
  2599  00074E                     l6909:
  2600                           
  2601                           ; BSR set to: 0
  2602  00074E  05F0               	decf	_tecla_n& (0+255),w,b
  2603  000750  11F1               	iorwf	(_tecla_n+1)& (0+255),w,b
  2604  000752  A4D8               	btfss	status,2,c
  2605  000754  EFAE  F003         	goto	u8041
  2606  000758  EFB0  F003         	goto	u8040
  2607  00075C                     u8041:
  2608  00075C  EFD5  F003         	goto	l6923
  2609  000760                     u8040:
  2610  000760                     
  2611                           ; BSR set to: 0
  2612  000760  0E2A               	movlw	42
  2613  000762  19F7               	xorwf	_tecla_premida& (0+255),w,b
  2614  000764  A4D8               	btfss	status,2,c
  2615  000766  EFB7  F003         	goto	u8051
  2616  00076A  EFB9  F003         	goto	u8050
  2617  00076E                     u8051:
  2618  00076E  EFD5  F003         	goto	l6923
  2619  000772                     u8050:
  2620  000772                     
  2621                           ; BSR set to: 0
  2622  000772  05EE               	decf	_mudar_temp_alarme& (0+255),w,b
  2623  000774  11EF               	iorwf	(_mudar_temp_alarme+1)& (0+255),w,b
  2624  000776  A4D8               	btfss	status,2,c
  2625  000778  EFC0  F003         	goto	u8061
  2626  00077C  EFC2  F003         	goto	u8060
  2627  000780                     u8061:
  2628  000780  EFD5  F003         	goto	l6923
  2629  000784                     u8060:
  2630  000784                     
  2631                           ; BSR set to: 0
  2632                           ;main.c: 326:             mudar_temp_alarme = 0;
  2633  000784  0E00               	movlw	0
  2634  000786  6FEF               	movwf	(_mudar_temp_alarme+1)& (0+255),b
  2635  000788  0E00               	movlw	0
  2636  00078A  6FEE               	movwf	_mudar_temp_alarme& (0+255),b
  2637  00078C                     
  2638                           ; BSR set to: 0
  2639                           ;main.c: 327:             WriteCmdXLCD(0b00000001);
  2640  00078C  0E01               	movlw	1
  2641  00078E  ECB5  F01A         	call	_WriteCmdXLCD
  2642  000792                     l6919:
  2643  000792  EC70  F01A         	call	_BusyXLCD	;wreg free
  2644  000796  0900               	iorlw	0
  2645  000798  A4D8               	btfss	status,2,c
  2646  00079A  EFD1  F003         	goto	u8071
  2647  00079E  EFD3  F003         	goto	u8070
  2648  0007A2                     u8071:
  2649  0007A2  EFC9  F003         	goto	l6919
  2650  0007A6                     u8070:
  2651  0007A6  EFA0  F003         	goto	l6907
  2652  0007AA                     l6923:
  2653                           
  2654                           ; BSR set to: 0
  2655                           ;main.c: 333:         if (mudar_temp_alarme == 0 && temp_mudou == 1){
  2656  0007AA  51EE               	movf	_mudar_temp_alarme& (0+255),w,b
  2657  0007AC  11EF               	iorwf	(_mudar_temp_alarme+1)& (0+255),w,b
  2658  0007AE  A4D8               	btfss	status,2,c
  2659  0007B0  EFDC  F003         	goto	u8081
  2660  0007B4  EFDE  F003         	goto	u8080
  2661  0007B8                     u8081:
  2662  0007B8  EF40  F004         	goto	l6947
  2663  0007BC                     u8080:
  2664  0007BC                     
  2665                           ; BSR set to: 0
  2666  0007BC  05E8               	decf	_temp_mudou& (0+255),w,b
  2667  0007BE  11E9               	iorwf	(_temp_mudou+1)& (0+255),w,b
  2668  0007C0  A4D8               	btfss	status,2,c
  2669  0007C2  EFE5  F003         	goto	u8091
  2670  0007C6  EFE7  F003         	goto	u8090
  2671  0007CA                     u8091:
  2672  0007CA  EF40  F004         	goto	l6947
  2673  0007CE                     u8090:
  2674  0007CE                     
  2675                           ; BSR set to: 0
  2676                           ;main.c: 335:             sprintf(temp_ambiente_LCD, "Temp. atual = %.0d C            ",
      +                           temp_ambiente);
  2677  0007CE  0E24               	movlw	low _temp_ambiente_LCD
  2678  0007D0  6FC4               	movwf	sprintf@s& (0+255),b
  2679  0007D2  0E01               	movlw	high _temp_ambiente_LCD
  2680  0007D4  6FC5               	movwf	(sprintf@s+1)& (0+255),b
  2681  0007D6  0EFB               	movlw	low STR_16
  2682  0007D8  6FC6               	movwf	sprintf@fmt& (0+255),b
  2683  0007DA  0E7E               	movlw	high STR_16
  2684  0007DC  6FC7               	movwf	(sprintf@fmt+1)& (0+255),b
  2685  0007DE  C05B  F0C8         	movff	_temp_ambiente,?_sprintf+4
  2686  0007E2  C05C  F0C9         	movff	_temp_ambiente+1,?_sprintf+5
  2687  0007E6  ECB4  F019         	call	_sprintf	;wreg free
  2688  0007EA                     
  2689                           ;main.c: 336:             WriteCmdXLCD(128);
  2690  0007EA  0E80               	movlw	128
  2691  0007EC  ECB5  F01A         	call	_WriteCmdXLCD
  2692  0007F0                     l6931:
  2693  0007F0  EC70  F01A         	call	_BusyXLCD	;wreg free
  2694  0007F4  0900               	iorlw	0
  2695  0007F6  A4D8               	btfss	status,2,c
  2696  0007F8  EF00  F004         	goto	u8101
  2697  0007FC  EF02  F004         	goto	u8100
  2698  000800                     u8101:
  2699  000800  EFF8  F003         	goto	l6931
  2700  000804                     u8100:
  2701  000804                     
  2702                           ;main.c: 343:             putsXLCD(temp_ambiente_LCD);
  2703  000804  0E24               	movlw	low _temp_ambiente_LCD
  2704  000806  0100               	movlb	0	; () banked
  2705  000808  6F67               	movwf	putsXLCD@buffer& (0+255),b
  2706  00080A  0E01               	movlw	high _temp_ambiente_LCD
  2707  00080C  6F68               	movwf	(putsXLCD@buffer+1)& (0+255),b
  2708  00080E  EC52  F018         	call	_putsXLCD	;wreg free
  2709  000812                     l6935:
  2710  000812  EC70  F01A         	call	_BusyXLCD	;wreg free
  2711  000816  0900               	iorlw	0
  2712  000818  A4D8               	btfss	status,2,c
  2713  00081A  EF11  F004         	goto	u8111
  2714  00081E  EF13  F004         	goto	u8110
  2715  000822                     u8111:
  2716  000822  EF09  F004         	goto	l6935
  2717  000826                     u8110:
  2718  000826                     
  2719                           ;main.c: 347:             sprintf(temp_alarme_LCD, "Temp. alarme = %.0d C            ", 
      +                          temp_alarme);
  2720  000826  0E4C               	movlw	low _temp_alarme_LCD
  2721  000828  0100               	movlb	0	; () banked
  2722  00082A  6FC4               	movwf	sprintf@s& (0+255),b
  2723  00082C  0E01               	movlw	high _temp_alarme_LCD
  2724  00082E  6FC5               	movwf	(sprintf@s+1)& (0+255),b
  2725  000830  0ED9               	movlw	low STR_17
  2726  000832  6FC6               	movwf	sprintf@fmt& (0+255),b
  2727  000834  0E7E               	movlw	high STR_17
  2728  000836  6FC7               	movwf	(sprintf@fmt+1)& (0+255),b
  2729  000838  C0EA  F0C8         	movff	_temp_alarme,?_sprintf+4
  2730  00083C  C0EB  F0C9         	movff	_temp_alarme+1,?_sprintf+5
  2731  000840  ECB4  F019         	call	_sprintf	;wreg free
  2732  000844                     
  2733                           ;main.c: 348:             WriteCmdXLCD(192);
  2734  000844  0EC0               	movlw	192
  2735  000846  ECB5  F01A         	call	_WriteCmdXLCD
  2736  00084A                     l6941:
  2737  00084A  EC70  F01A         	call	_BusyXLCD	;wreg free
  2738  00084E  0900               	iorlw	0
  2739  000850  A4D8               	btfss	status,2,c
  2740  000852  EF2D  F004         	goto	u8121
  2741  000856  EF2F  F004         	goto	u8120
  2742  00085A                     u8121:
  2743  00085A  EF25  F004         	goto	l6941
  2744  00085E                     u8120:
  2745  00085E                     
  2746                           ;main.c: 355:             putsXLCD(temp_alarme_LCD);
  2747  00085E  0E4C               	movlw	low _temp_alarme_LCD
  2748  000860  0100               	movlb	0	; () banked
  2749  000862  6F67               	movwf	putsXLCD@buffer& (0+255),b
  2750  000864  0E01               	movlw	high _temp_alarme_LCD
  2751  000866  6F68               	movwf	(putsXLCD@buffer+1)& (0+255),b
  2752  000868  EC52  F018         	call	_putsXLCD	;wreg free
  2753  00086C                     l6945:
  2754  00086C  EC70  F01A         	call	_BusyXLCD	;wreg free
  2755  000870  0900               	iorlw	0
  2756  000872  A4D8               	btfss	status,2,c
  2757  000874  EF3E  F004         	goto	u8131
  2758  000878  EF40  F004         	goto	u8130
  2759  00087C                     u8131:
  2760  00087C  EF36  F004         	goto	l6945
  2761  000880                     u8130:
  2762  000880                     l6947:
  2763                           
  2764                           ;main.c: 358:         if (mudar_temp_alarme == 1){
  2765  000880  0100               	movlb	0	; () banked
  2766  000882  05EE               	decf	_mudar_temp_alarme& (0+255),w,b
  2767  000884  11EF               	iorwf	(_mudar_temp_alarme+1)& (0+255),w,b
  2768  000886  A4D8               	btfss	status,2,c
  2769  000888  EF48  F004         	goto	u8141
  2770  00088C  EF4A  F004         	goto	u8140
  2771  000890                     u8141:
  2772  000890  EF94  F004         	goto	l6967
  2773  000894                     u8140:
  2774  000894                     
  2775                           ; BSR set to: 0
  2776                           ;main.c: 361:             sprintf(temp_alarme_LCD, "Temp. alarme = %.0d C            ", 
      +                          temp_alarme);
  2777  000894  0E4C               	movlw	low _temp_alarme_LCD
  2778  000896  6FC4               	movwf	sprintf@s& (0+255),b
  2779  000898  0E01               	movlw	high _temp_alarme_LCD
  2780  00089A  6FC5               	movwf	(sprintf@s+1)& (0+255),b
  2781  00089C  0ED9               	movlw	low STR_17
  2782  00089E  6FC6               	movwf	sprintf@fmt& (0+255),b
  2783  0008A0  0E7E               	movlw	high STR_17
  2784  0008A2  6FC7               	movwf	(sprintf@fmt+1)& (0+255),b
  2785  0008A4  C0EA  F0C8         	movff	_temp_alarme,?_sprintf+4
  2786  0008A8  C0EB  F0C9         	movff	_temp_alarme+1,?_sprintf+5
  2787  0008AC  ECB4  F019         	call	_sprintf	;wreg free
  2788  0008B0                     
  2789                           ;main.c: 362:             WriteCmdXLCD(128);
  2790  0008B0  0E80               	movlw	128
  2791  0008B2  ECB5  F01A         	call	_WriteCmdXLCD
  2792  0008B6                     l6953:
  2793  0008B6  EC70  F01A         	call	_BusyXLCD	;wreg free
  2794  0008BA  0900               	iorlw	0
  2795  0008BC  A4D8               	btfss	status,2,c
  2796  0008BE  EF63  F004         	goto	u8151
  2797  0008C2  EF65  F004         	goto	u8150
  2798  0008C6                     u8151:
  2799  0008C6  EF5B  F004         	goto	l6953
  2800  0008CA                     u8150:
  2801  0008CA                     
  2802                           ;main.c: 369:             putsXLCD(temp_alarme_LCD);
  2803  0008CA  0E4C               	movlw	low _temp_alarme_LCD
  2804  0008CC  0100               	movlb	0	; () banked
  2805  0008CE  6F67               	movwf	putsXLCD@buffer& (0+255),b
  2806  0008D0  0E01               	movlw	high _temp_alarme_LCD
  2807  0008D2  6F68               	movwf	(putsXLCD@buffer+1)& (0+255),b
  2808  0008D4  EC52  F018         	call	_putsXLCD	;wreg free
  2809  0008D8                     l6957:
  2810  0008D8  EC70  F01A         	call	_BusyXLCD	;wreg free
  2811  0008DC  0900               	iorlw	0
  2812  0008DE  A4D8               	btfss	status,2,c
  2813  0008E0  EF74  F004         	goto	u8161
  2814  0008E4  EF76  F004         	goto	u8160
  2815  0008E8                     u8161:
  2816  0008E8  EF6C  F004         	goto	l6957
  2817  0008EC                     u8160:
  2818  0008EC                     
  2819                           ;main.c: 372:             WriteCmdXLCD(192);
  2820  0008EC  0EC0               	movlw	192
  2821  0008EE  ECB5  F01A         	call	_WriteCmdXLCD
  2822  0008F2                     l6961:
  2823  0008F2  EC70  F01A         	call	_BusyXLCD	;wreg free
  2824  0008F6  0900               	iorlw	0
  2825  0008F8  A4D8               	btfss	status,2,c
  2826  0008FA  EF81  F004         	goto	u8171
  2827  0008FE  EF83  F004         	goto	u8170
  2828  000902                     u8171:
  2829  000902  EF79  F004         	goto	l6961
  2830  000906                     u8170:
  2831  000906                     
  2832                           ;main.c: 379:             putsXLCD("Nova temp.:");
  2833  000906  0ECE               	movlw	low STR_19
  2834  000908  0100               	movlb	0	; () banked
  2835  00090A  6F67               	movwf	putsXLCD@buffer& (0+255),b
  2836  00090C  0E7F               	movlw	high STR_19
  2837  00090E  6F68               	movwf	(putsXLCD@buffer+1)& (0+255),b
  2838  000910  EC52  F018         	call	_putsXLCD	;wreg free
  2839  000914                     l6965:
  2840  000914  EC70  F01A         	call	_BusyXLCD	;wreg free
  2841  000918  0900               	iorlw	0
  2842  00091A  A4D8               	btfss	status,2,c
  2843  00091C  EF92  F004         	goto	u8181
  2844  000920  EF94  F004         	goto	u8180
  2845  000924                     u8181:
  2846  000924  EF8A  F004         	goto	l6965
  2847  000928                     u8180:
  2848  000928                     l6967:
  2849                           
  2850                           ;main.c: 385:         if ((mudar_temp_alarme == 1 && tecla_n == 1) && (tecla_premida == 
      +                          '1' || tecla_premida == '2' || tecla_premida == '3' || tecla_premida == '4' || tecla_pre
      +                          mida == '5' || tecla_premida == '6' || tecla_premida == '7' || tecla_premida == '8' || t
      +                          ecla_premida == '9' || tecla_premida == '0')){
  2851  000928  0100               	movlb	0	; () banked
  2852  00092A  05EE               	decf	_mudar_temp_alarme& (0+255),w,b
  2853  00092C  11EF               	iorwf	(_mudar_temp_alarme+1)& (0+255),w,b
  2854  00092E  A4D8               	btfss	status,2,c
  2855  000930  EF9C  F004         	goto	u8191
  2856  000934  EF9E  F004         	goto	u8190
  2857  000938                     u8191:
  2858  000938  EFFB  F005         	goto	l7049
  2859  00093C                     u8190:
  2860  00093C                     
  2861                           ; BSR set to: 0
  2862  00093C  05F0               	decf	_tecla_n& (0+255),w,b
  2863  00093E  11F1               	iorwf	(_tecla_n+1)& (0+255),w,b
  2864  000940  A4D8               	btfss	status,2,c
  2865  000942  EFA5  F004         	goto	u8201
  2866  000946  EFA7  F004         	goto	u8200
  2867  00094A                     u8201:
  2868  00094A  EFFB  F005         	goto	l7049
  2869  00094E                     u8200:
  2870  00094E                     
  2871                           ; BSR set to: 0
  2872  00094E  0E31               	movlw	49
  2873  000950  19F7               	xorwf	_tecla_premida& (0+255),w,b
  2874  000952  B4D8               	btfsc	status,2,c
  2875  000954  EFAE  F004         	goto	u8211
  2876  000958  EFB0  F004         	goto	u8210
  2877  00095C                     u8211:
  2878  00095C  EF01  F005         	goto	l6991
  2879  000960                     u8210:
  2880  000960                     
  2881                           ; BSR set to: 0
  2882  000960  0E32               	movlw	50
  2883  000962  19F7               	xorwf	_tecla_premida& (0+255),w,b
  2884  000964  B4D8               	btfsc	status,2,c
  2885  000966  EFB7  F004         	goto	u8221
  2886  00096A  EFB9  F004         	goto	u8220
  2887  00096E                     u8221:
  2888  00096E  EF01  F005         	goto	l6991
  2889  000972                     u8220:
  2890  000972                     
  2891                           ; BSR set to: 0
  2892  000972  0E33               	movlw	51
  2893  000974  19F7               	xorwf	_tecla_premida& (0+255),w,b
  2894  000976  B4D8               	btfsc	status,2,c
  2895  000978  EFC0  F004         	goto	u8231
  2896  00097C  EFC2  F004         	goto	u8230
  2897  000980                     u8231:
  2898  000980  EF01  F005         	goto	l6991
  2899  000984                     u8230:
  2900  000984                     
  2901                           ; BSR set to: 0
  2902  000984  0E34               	movlw	52
  2903  000986  19F7               	xorwf	_tecla_premida& (0+255),w,b
  2904  000988  B4D8               	btfsc	status,2,c
  2905  00098A  EFC9  F004         	goto	u8241
  2906  00098E  EFCB  F004         	goto	u8240
  2907  000992                     u8241:
  2908  000992  EF01  F005         	goto	l6991
  2909  000996                     u8240:
  2910  000996                     
  2911                           ; BSR set to: 0
  2912  000996  0E35               	movlw	53
  2913  000998  19F7               	xorwf	_tecla_premida& (0+255),w,b
  2914  00099A  B4D8               	btfsc	status,2,c
  2915  00099C  EFD2  F004         	goto	u8251
  2916  0009A0  EFD4  F004         	goto	u8250
  2917  0009A4                     u8251:
  2918  0009A4  EF01  F005         	goto	l6991
  2919  0009A8                     u8250:
  2920  0009A8                     
  2921                           ; BSR set to: 0
  2922  0009A8  0E36               	movlw	54
  2923  0009AA  19F7               	xorwf	_tecla_premida& (0+255),w,b
  2924  0009AC  B4D8               	btfsc	status,2,c
  2925  0009AE  EFDB  F004         	goto	u8261
  2926  0009B2  EFDD  F004         	goto	u8260
  2927  0009B6                     u8261:
  2928  0009B6  EF01  F005         	goto	l6991
  2929  0009BA                     u8260:
  2930  0009BA                     
  2931                           ; BSR set to: 0
  2932  0009BA  0E37               	movlw	55
  2933  0009BC  19F7               	xorwf	_tecla_premida& (0+255),w,b
  2934  0009BE  B4D8               	btfsc	status,2,c
  2935  0009C0  EFE4  F004         	goto	u8271
  2936  0009C4  EFE6  F004         	goto	u8270
  2937  0009C8                     u8271:
  2938  0009C8  EF01  F005         	goto	l6991
  2939  0009CC                     u8270:
  2940  0009CC                     
  2941                           ; BSR set to: 0
  2942  0009CC  0E38               	movlw	56
  2943  0009CE  19F7               	xorwf	_tecla_premida& (0+255),w,b
  2944  0009D0  B4D8               	btfsc	status,2,c
  2945  0009D2  EFED  F004         	goto	u8281
  2946  0009D6  EFEF  F004         	goto	u8280
  2947  0009DA                     u8281:
  2948  0009DA  EF01  F005         	goto	l6991
  2949  0009DE                     u8280:
  2950  0009DE                     
  2951                           ; BSR set to: 0
  2952  0009DE  0E39               	movlw	57
  2953  0009E0  19F7               	xorwf	_tecla_premida& (0+255),w,b
  2954  0009E2  B4D8               	btfsc	status,2,c
  2955  0009E4  EFF6  F004         	goto	u8291
  2956  0009E8  EFF8  F004         	goto	u8290
  2957  0009EC                     u8291:
  2958  0009EC  EF01  F005         	goto	l6991
  2959  0009F0                     u8290:
  2960  0009F0                     
  2961                           ; BSR set to: 0
  2962  0009F0  0E30               	movlw	48
  2963  0009F2  19F7               	xorwf	_tecla_premida& (0+255),w,b
  2964  0009F4  A4D8               	btfss	status,2,c
  2965  0009F6  EFFF  F004         	goto	u8301
  2966  0009FA  EF01  F005         	goto	u8300
  2967  0009FE                     u8301:
  2968  0009FE  EFFB  F005         	goto	l7049
  2969  000A02                     u8300:
  2970  000A02                     l6991:
  2971                           
  2972                           ; BSR set to: 0
  2973                           ;main.c: 387:                 strncat(temp_alarme_string, &tecla_premida, 1);
  2974  000A02  0E94               	movlw	low _temp_alarme_string
  2975  000A04  6F6A               	movwf	strncat@d& (0+255),b
  2976  000A06  0E01               	movlw	high _temp_alarme_string
  2977  000A08  6F6B               	movwf	(strncat@d+1)& (0+255),b
  2978  000A0A  0EF7               	movlw	low _tecla_premida
  2979  000A0C  6F6C               	movwf	strncat@s& (0+255),b
  2980  000A0E  0E00               	movlw	high _tecla_premida
  2981  000A10  6F6D               	movwf	(strncat@s+1)& (0+255),b
  2982  000A12  0E00               	movlw	0
  2983  000A14  6F6F               	movwf	(strncat@n+1)& (0+255),b
  2984  000A16  0E01               	movlw	1
  2985  000A18  6F6E               	movwf	strncat@n& (0+255),b
  2986  000A1A  EC16  F018         	call	_strncat	;wreg free
  2987  000A1E                     
  2988                           ;main.c: 388:                 WriteCmdXLCD(203);
  2989  000A1E  0ECB               	movlw	203
  2990  000A20  ECB5  F01A         	call	_WriteCmdXLCD
  2991  000A24                     l6995:
  2992  000A24  EC70  F01A         	call	_BusyXLCD	;wreg free
  2993  000A28  0900               	iorlw	0
  2994  000A2A  A4D8               	btfss	status,2,c
  2995  000A2C  EF1A  F005         	goto	u8311
  2996  000A30  EF1C  F005         	goto	u8310
  2997  000A34                     u8311:
  2998  000A34  EF12  F005         	goto	l6995
  2999  000A38                     u8310:
  3000  000A38                     
  3001                           ;main.c: 395:                 putsXLCD(temp_alarme_string);
  3002  000A38  0E94               	movlw	low _temp_alarme_string
  3003  000A3A  0100               	movlb	0	; () banked
  3004  000A3C  6F67               	movwf	putsXLCD@buffer& (0+255),b
  3005  000A3E  0E01               	movlw	high _temp_alarme_string
  3006  000A40  6F68               	movwf	(putsXLCD@buffer+1)& (0+255),b
  3007  000A42  EC52  F018         	call	_putsXLCD	;wreg free
  3008  000A46                     l6999:
  3009  000A46  EC70  F01A         	call	_BusyXLCD	;wreg free
  3010  000A4A  0900               	iorlw	0
  3011  000A4C  A4D8               	btfss	status,2,c
  3012  000A4E  EF2B  F005         	goto	u8321
  3013  000A52  EF2D  F005         	goto	u8320
  3014  000A56                     u8321:
  3015  000A56  EF23  F005         	goto	l6999
  3016  000A5A                     u8320:
  3017  000A5A                     
  3018                           ;main.c: 398:                 digitos_introduzidos++;
  3019  000A5A  4A5D               	infsnz	_digitos_introduzidos^0,f,c
  3020  000A5C  2A5E               	incf	(_digitos_introduzidos+1)^0,f,c
  3021  000A5E                     
  3022                           ;main.c: 402:             if (digitos_introduzidos == 2){
  3023  000A5E  0E02               	movlw	2
  3024  000A60  185D               	xorwf	_digitos_introduzidos^0,w,c
  3025  000A62  105E               	iorwf	(_digitos_introduzidos+1)^0,w,c
  3026  000A64  A4D8               	btfss	status,2,c
  3027  000A66  EF37  F005         	goto	u8331
  3028  000A6A  EF39  F005         	goto	u8330
  3029  000A6E                     u8331:
  3030  000A6E  EFF6  F005         	goto	l7047
  3031  000A72                     u8330:
  3032  000A72                     
  3033                           ;main.c: 404:                 WriteCmdXLCD(0b00000001);
  3034  000A72  0E01               	movlw	1
  3035  000A74  ECB5  F01A         	call	_WriteCmdXLCD
  3036  000A78                     l7007:
  3037  000A78  EC70  F01A         	call	_BusyXLCD	;wreg free
  3038  000A7C  0900               	iorlw	0
  3039  000A7E  A4D8               	btfss	status,2,c
  3040  000A80  EF44  F005         	goto	u8341
  3041  000A84  EF46  F005         	goto	u8340
  3042  000A88                     u8341:
  3043  000A88  EF3C  F005         	goto	l7007
  3044  000A8C                     u8340:
  3045  000A8C                     
  3046                           ;main.c: 408:                 temp_alarme_provisoria = atoi (temp_alarme_string);
  3047  000A8C  0E94               	movlw	low _temp_alarme_string
  3048  000A8E  0100               	movlb	0	; () banked
  3049  000A90  6F6D               	movwf	atoi@s& (0+255),b
  3050  000A92  0E01               	movlw	high _temp_alarme_string
  3051  000A94  6F6E               	movwf	(atoi@s+1)& (0+255),b
  3052  000A96  EC93  F010         	call	_atoi	;wreg free
  3053  000A9A  C06D  F0EC         	movff	?_atoi,_temp_alarme_provisoria
  3054  000A9E  C06E  F0ED         	movff	?_atoi+1,_temp_alarme_provisoria+1
  3055  000AA2                     
  3056                           ;main.c: 410:                 digitos_introduzidos = 0;
  3057  000AA2  0E00               	movlw	0
  3058  000AA4  6E5E               	movwf	(_digitos_introduzidos+1)^0,c
  3059  000AA6  0E00               	movlw	0
  3060  000AA8  6E5D               	movwf	_digitos_introduzidos^0,c
  3061  000AAA                     
  3062                           ;main.c: 412:                 if (temp_alarme_provisoria >= 10 && temp_alarme_provisoria
      +                           <= 50){
  3063  000AAA  0100               	movlb	0	; () banked
  3064  000AAC  BFED               	btfsc	(_temp_alarme_provisoria+1)& (0+255),7,b
  3065  000AAE  EF62  F005         	goto	u8351
  3066  000AB2  51ED               	movf	(_temp_alarme_provisoria+1)& (0+255),w,b
  3067  000AB4  E109               	bnz	u8350
  3068  000AB6  0E0A               	movlw	10
  3069  000AB8  5DEC               	subwf	_temp_alarme_provisoria& (0+255),w,b
  3070  000ABA  A0D8               	btfss	status,0,c
  3071  000ABC  EF62  F005         	goto	u8351
  3072  000AC0  EF64  F005         	goto	u8350
  3073  000AC4                     u8351:
  3074  000AC4  EF92  F005         	goto	l7023
  3075  000AC8                     u8350:
  3076  000AC8                     
  3077                           ; BSR set to: 0
  3078  000AC8  BFED               	btfsc	(_temp_alarme_provisoria+1)& (0+255),7,b
  3079  000ACA  EF72  F005         	goto	u8360
  3080  000ACE  51ED               	movf	(_temp_alarme_provisoria+1)& (0+255),w,b
  3081  000AD0  E107               	bnz	u8361
  3082  000AD2  0E33               	movlw	51
  3083  000AD4  5DEC               	subwf	_temp_alarme_provisoria& (0+255),w,b
  3084  000AD6  B0D8               	btfsc	status,0,c
  3085  000AD8  EF70  F005         	goto	u8361
  3086  000ADC  EF72  F005         	goto	u8360
  3087  000AE0                     u8361:
  3088  000AE0  EF92  F005         	goto	l7023
  3089  000AE4                     u8360:
  3090  000AE4                     
  3091                           ; BSR set to: 0
  3092                           ;main.c: 414:                     temp_alarme = temp_alarme_provisoria;
  3093  000AE4  C0EC  F0EA         	movff	_temp_alarme_provisoria,_temp_alarme
  3094  000AE8  C0ED  F0EB         	movff	_temp_alarme_provisoria+1,_temp_alarme+1
  3095  000AEC                     
  3096                           ; BSR set to: 0
  3097                           ;main.c: 416:                     mudar_temp_alarme = 0;
  3098  000AEC  0E00               	movlw	0
  3099  000AEE  6FEF               	movwf	(_mudar_temp_alarme+1)& (0+255),b
  3100  000AF0  0E00               	movlw	0
  3101  000AF2  6FEE               	movwf	_mudar_temp_alarme& (0+255),b
  3102                           
  3103                           ;main.c: 418:                     menu_entrada = 1;
  3104  000AF4  0E00               	movlw	0
  3105  000AF6  6FE1               	movwf	(_menu_entrada+1)& (0+255),b
  3106  000AF8  0E01               	movlw	1
  3107  000AFA  6FE0               	movwf	_menu_entrada& (0+255),b
  3108                           
  3109                           ;main.c: 420:                     update_temp_alarme = 1;
  3110  000AFC  0E00               	movlw	0
  3111  000AFE  6FE7               	movwf	(_update_temp_alarme+1)& (0+255),b
  3112  000B00  0E01               	movlw	1
  3113  000B02  6FE6               	movwf	_update_temp_alarme& (0+255),b
  3114  000B04                     
  3115                           ; BSR set to: 0
  3116                           ;main.c: 421:                     memset(temp_alarme_string, '\0', sizeof temp_alarme_st
      +                          ring);
  3117  000B04  0E94               	movlw	low _temp_alarme_string
  3118  000B06  6F66               	movwf	memset@dest& (0+255),b
  3119  000B08  0E01               	movlw	high _temp_alarme_string
  3120  000B0A  6F67               	movwf	(memset@dest+1)& (0+255),b
  3121  000B0C  0E00               	movlw	0
  3122  000B0E  6F69               	movwf	(memset@c+1)& (0+255),b
  3123  000B10  0E00               	movlw	0
  3124  000B12  6F68               	movwf	memset@c& (0+255),b
  3125  000B14  0E00               	movlw	0
  3126  000B16  6F6B               	movwf	(memset@n+1)& (0+255),b
  3127  000B18  0E04               	movlw	4
  3128  000B1A  6F6A               	movwf	memset@n& (0+255),b
  3129  000B1C  EC31  F014         	call	_memset	;wreg free
  3130                           
  3131                           ;main.c: 423:                 }
  3132  000B20  EFF6  F005         	goto	l7047
  3133  000B24                     l7023:
  3134                           
  3135                           ; BSR set to: 0
  3136                           ;main.c: 426:                     memset(temp_alarme_string, '\0', sizeof temp_alarme_st
      +                          ring);
  3137  000B24  0E94               	movlw	low _temp_alarme_string
  3138  000B26  6F66               	movwf	memset@dest& (0+255),b
  3139  000B28  0E01               	movlw	high _temp_alarme_string
  3140  000B2A  6F67               	movwf	(memset@dest+1)& (0+255),b
  3141  000B2C  0E00               	movlw	0
  3142  000B2E  6F69               	movwf	(memset@c+1)& (0+255),b
  3143  000B30  0E00               	movlw	0
  3144  000B32  6F68               	movwf	memset@c& (0+255),b
  3145  000B34  0E00               	movlw	0
  3146  000B36  6F6B               	movwf	(memset@n+1)& (0+255),b
  3147  000B38  0E04               	movlw	4
  3148  000B3A  6F6A               	movwf	memset@n& (0+255),b
  3149  000B3C  EC31  F014         	call	_memset	;wreg free
  3150  000B40                     
  3151                           ;main.c: 429:                     WriteCmdXLCD(132);
  3152  000B40  0E84               	movlw	132
  3153  000B42  ECB5  F01A         	call	_WriteCmdXLCD
  3154  000B46                     l7027:
  3155  000B46  EC70  F01A         	call	_BusyXLCD	;wreg free
  3156  000B4A  0900               	iorlw	0
  3157  000B4C  A4D8               	btfss	status,2,c
  3158  000B4E  EFAB  F005         	goto	u8371
  3159  000B52  EFAD  F005         	goto	u8370
  3160  000B56                     u8371:
  3161  000B56  EFA3  F005         	goto	l7027
  3162  000B5A                     u8370:
  3163  000B5A                     
  3164                           ;main.c: 436:                     putsXLCD("TEMPERATURA");
  3165  000B5A  0EDA               	movlw	low STR_20
  3166  000B5C  0100               	movlb	0	; () banked
  3167  000B5E  6F67               	movwf	putsXLCD@buffer& (0+255),b
  3168  000B60  0E7F               	movlw	high STR_20
  3169  000B62  6F68               	movwf	(putsXLCD@buffer+1)& (0+255),b
  3170  000B64  EC52  F018         	call	_putsXLCD	;wreg free
  3171  000B68                     l7031:
  3172  000B68  EC70  F01A         	call	_BusyXLCD	;wreg free
  3173  000B6C  0900               	iorlw	0
  3174  000B6E  A4D8               	btfss	status,2,c
  3175  000B70  EFBC  F005         	goto	u8381
  3176  000B74  EFBE  F005         	goto	u8380
  3177  000B78                     u8381:
  3178  000B78  EFB4  F005         	goto	l7031
  3179  000B7C                     u8380:
  3180  000B7C                     
  3181                           ;main.c: 439:                     WriteCmdXLCD(197);
  3182  000B7C  0EC5               	movlw	197
  3183  000B7E  ECB5  F01A         	call	_WriteCmdXLCD
  3184  000B82                     l7035:
  3185  000B82  EC70  F01A         	call	_BusyXLCD	;wreg free
  3186  000B86  0900               	iorlw	0
  3187  000B88  A4D8               	btfss	status,2,c
  3188  000B8A  EFC9  F005         	goto	u8391
  3189  000B8E  EFCB  F005         	goto	u8390
  3190  000B92                     u8391:
  3191  000B92  EFC1  F005         	goto	l7035
  3192  000B96                     u8390:
  3193  000B96                     
  3194                           ;main.c: 446:                     putsXLCD("INVALIDA !");
  3195  000B96  0EF1               	movlw	low STR_21
  3196  000B98  0100               	movlb	0	; () banked
  3197  000B9A  6F67               	movwf	putsXLCD@buffer& (0+255),b
  3198  000B9C  0E7F               	movlw	high STR_21
  3199  000B9E  6F68               	movwf	(putsXLCD@buffer+1)& (0+255),b
  3200  000BA0  EC52  F018         	call	_putsXLCD	;wreg free
  3201  000BA4                     l7039:
  3202  000BA4  EC70  F01A         	call	_BusyXLCD	;wreg free
  3203  000BA8  0900               	iorlw	0
  3204  000BAA  A4D8               	btfss	status,2,c
  3205  000BAC  EFDA  F005         	goto	u8401
  3206  000BB0  EFDC  F005         	goto	u8400
  3207  000BB4                     u8401:
  3208  000BB4  EFD2  F005         	goto	l7039
  3209  000BB8                     u8400:
  3210  000BB8                     
  3211                           ;main.c: 449:                     _delay((unsigned long)((2000)*(6000000/4000.0)));
  3212  000BB8  0E10               	movlw	16
  3213  000BBA  0101               	movlb	1	; () banked
  3214  000BBC  6FAD               	movwf	(??_main+1)& (0+255),b
  3215  000BBE  0E39               	movlw	57
  3216  000BC0  6FAC               	movwf	??_main& (0+255),b
  3217  000BC2  0E0D               	movlw	13
  3218  000BC4                     u8447:
  3219  000BC4  2EE8               	decfsz	wreg,f,c
  3220  000BC6  D7FE               	bra	u8447
  3221  000BC8  2FAC               	decfsz	??_main& (0+255),f,b
  3222  000BCA  D7FC               	bra	u8447
  3223  000BCC  2FAD               	decfsz	(??_main+1)& (0+255),f,b
  3224  000BCE  D7FA               	bra	u8447
  3225  000BD0  D000               	nop2	
  3226  000BD2                     
  3227                           ;main.c: 451:                     WriteCmdXLCD(0b00000001);
  3228  000BD2  0E01               	movlw	1
  3229  000BD4  ECB5  F01A         	call	_WriteCmdXLCD
  3230  000BD8                     l7045:
  3231  000BD8  EC70  F01A         	call	_BusyXLCD	;wreg free
  3232  000BDC  0900               	iorlw	0
  3233  000BDE  A4D8               	btfss	status,2,c
  3234  000BE0  EFF4  F005         	goto	u8411
  3235  000BE4  EFF6  F005         	goto	u8410
  3236  000BE8                     u8411:
  3237  000BE8  EFEC  F005         	goto	l7045
  3238  000BEC                     u8410:
  3239  000BEC                     l7047:
  3240                           
  3241                           ;main.c: 456:             tecla_n = 0;
  3242  000BEC  0E00               	movlw	0
  3243  000BEE  0100               	movlb	0	; () banked
  3244  000BF0  6FF1               	movwf	(_tecla_n+1)& (0+255),b
  3245  000BF2  0E00               	movlw	0
  3246  000BF4  6FF0               	movwf	_tecla_n& (0+255),b
  3247  000BF6                     l7049:
  3248                           
  3249                           ; BSR set to: 0
  3250                           ;main.c: 502:         LATBbits.LATB3 = 0;
  3251  000BF6  968A               	bcf	138,3,c	;volatile
  3252  000BF8                     
  3253                           ; BSR set to: 0
  3254                           ;main.c: 503:         LATBbits.LATB4 = 1;
  3255  000BF8  888A               	bsf	138,4,c	;volatile
  3256  000BFA                     
  3257                           ; BSR set to: 0
  3258                           ;main.c: 504:         LATBbits.LATB5 = 1;
  3259  000BFA  8A8A               	bsf	138,5,c	;volatile
  3260  000BFC                     
  3261                           ; BSR set to: 0
  3262                           ;main.c: 505:         LATBbits.LATB6 = 1;
  3263  000BFC  8C8A               	bsf	138,6,c	;volatile
  3264  000BFE                     
  3265                           ; BSR set to: 0
  3266                           ;main.c: 507:         _delay((unsigned long)((40)*(6000000/4000.0)));
  3267  000BFE  0E4E               	movlw	78
  3268  000C00  0101               	movlb	1	; () banked
  3269  000C02  6FAC               	movwf	??_main& (0+255),b
  3270  000C04  0EEB               	movlw	235
  3271  000C06                     u8457:
  3272  000C06  2EE8               	decfsz	wreg,f,c
  3273  000C08  D7FE               	bra	u8457
  3274  000C0A  2FAC               	decfsz	??_main& (0+255),f,b
  3275  000C0C  D7FC               	bra	u8457
  3276  000C0E                     
  3277                           ;main.c: 510:         LATBbits.LATB3 = 1;
  3278  000C0E  868A               	bsf	138,3,c	;volatile
  3279  000C10                     
  3280                           ;main.c: 511:         LATBbits.LATB4 = 0;
  3281  000C10  988A               	bcf	138,4,c	;volatile
  3282  000C12                     
  3283                           ;main.c: 512:         LATBbits.LATB5 = 1;
  3284  000C12  8A8A               	bsf	138,5,c	;volatile
  3285  000C14                     
  3286                           ;main.c: 513:         LATBbits.LATB6 = 1;
  3287  000C14  8C8A               	bsf	138,6,c	;volatile
  3288  000C16                     
  3289                           ;main.c: 515:         _delay((unsigned long)((40)*(6000000/4000.0)));
  3290  000C16  0E4E               	movlw	78
  3291  000C18  0101               	movlb	1	; () banked
  3292  000C1A  6FAC               	movwf	??_main& (0+255),b
  3293  000C1C  0EEB               	movlw	235
  3294  000C1E                     u8467:
  3295  000C1E  2EE8               	decfsz	wreg,f,c
  3296  000C20  D7FE               	bra	u8467
  3297  000C22  2FAC               	decfsz	??_main& (0+255),f,b
  3298  000C24  D7FC               	bra	u8467
  3299  000C26                     
  3300                           ;main.c: 518:         LATBbits.LATB3 = 1;
  3301  000C26  868A               	bsf	138,3,c	;volatile
  3302  000C28                     
  3303                           ;main.c: 519:         LATBbits.LATB4 = 1;
  3304  000C28  888A               	bsf	138,4,c	;volatile
  3305  000C2A                     
  3306                           ;main.c: 520:         LATBbits.LATB5 = 0;
  3307  000C2A  9A8A               	bcf	138,5,c	;volatile
  3308  000C2C                     
  3309                           ;main.c: 521:         LATBbits.LATB6 = 1;
  3310  000C2C  8C8A               	bsf	138,6,c	;volatile
  3311  000C2E                     
  3312                           ;main.c: 523:         _delay((unsigned long)((40)*(6000000/4000.0)));
  3313  000C2E  0E4E               	movlw	78
  3314  000C30  0101               	movlb	1	; () banked
  3315  000C32  6FAC               	movwf	??_main& (0+255),b
  3316  000C34  0EEB               	movlw	235
  3317  000C36                     u8477:
  3318  000C36  2EE8               	decfsz	wreg,f,c
  3319  000C38  D7FE               	bra	u8477
  3320  000C3A  2FAC               	decfsz	??_main& (0+255),f,b
  3321  000C3C  D7FC               	bra	u8477
  3322  000C3E                     
  3323                           ;main.c: 526:         LATBbits.LATB3 = 1;
  3324  000C3E  868A               	bsf	138,3,c	;volatile
  3325  000C40                     
  3326                           ;main.c: 527:         LATBbits.LATB4 = 1;
  3327  000C40  888A               	bsf	138,4,c	;volatile
  3328  000C42                     
  3329                           ;main.c: 528:         LATBbits.LATB5 = 1;
  3330  000C42  8A8A               	bsf	138,5,c	;volatile
  3331  000C44                     
  3332                           ;main.c: 529:         LATBbits.LATB6 = 0;
  3333  000C44  9C8A               	bcf	138,6,c	;volatile
  3334  000C46                     
  3335                           ;main.c: 531:         _delay((unsigned long)((40)*(6000000/4000.0)));
  3336  000C46  0E4E               	movlw	78
  3337  000C48  0101               	movlb	1	; () banked
  3338  000C4A  6FAC               	movwf	??_main& (0+255),b
  3339  000C4C  0EEB               	movlw	235
  3340  000C4E                     u8487:
  3341  000C4E  2EE8               	decfsz	wreg,f,c
  3342  000C50  D7FE               	bra	u8487
  3343  000C52  2FAC               	decfsz	??_main& (0+255),f,b
  3344  000C54  D7FC               	bra	u8487
  3345  000C56  EFE6  F000         	goto	l6769
  3346  000C5A  EF97  F000         	goto	start
  3347  000C5E                     __end_of_main:
  3348                           	opt callstack 0
  3349                           
  3350 ;; *************** function _strncat *****************
  3351 ;; Defined at:
  3352 ;;		line 3 in file "C:\Program Files (x86)\Microchip\xc8\v2.10\pic\sources\c99\common\strncat.c"
  3353 ;; Parameters:    Size  Location     Type
  3354 ;;  d               2   10[BANK0 ] PTR unsigned char 
  3355 ;;		 -> temp_alarme_string(4), 
  3356 ;;  s               2   12[BANK0 ] PTR const unsigned char 
  3357 ;;		 -> tecla_premida(1), temp_alarme_intro(1), 
  3358 ;;  n               2   14[BANK0 ] unsigned int 
  3359 ;; Auto vars:     Size  Location     Type
  3360 ;;  a               2    0        PTR unsigned char 
  3361 ;;		 -> temp_alarme_string(4), 
  3362 ;; Return value:  Size  Location     Type
  3363 ;;                  2   10[BANK0 ] PTR unsigned char 
  3364 ;; Registers used:
  3365 ;;		wreg, fsr1l, fsr1h, fsr2l, fsr2h, status,2, status,0, cstack
  3366 ;; Tracked objects:
  3367 ;;		On entry : 0/0
  3368 ;;		On exit  : 0/0
  3369 ;;		Unchanged: 0/0
  3370 ;; Data sizes:     COMRAM   BANK0   BANK1   BANK2   BANK3   BANK4   BANK5
  3371 ;;      Params:         0       6       0       0       0       0       0
  3372 ;;      Locals:         0       2       0       0       0       0       0
  3373 ;;      Temps:          0       0       0       0       0       0       0
  3374 ;;      Totals:         0       8       0       0       0       0       0
  3375 ;;Total ram usage:        8 bytes
  3376 ;; Hardware stack levels used:    1
  3377 ;; Hardware stack levels required when called:    5
  3378 ;; This function calls:
  3379 ;;		_strlen
  3380 ;; This function is called by:
  3381 ;;		_main
  3382 ;; This function uses a non-reentrant model
  3383 ;;
  3384                           
  3385                           	psect	text1
  3386  00302C                     __ptext1:
  3387                           	opt callstack 0
  3388  00302C                     _strncat:
  3389                           	opt callstack 25
  3390  00302C  C06A  F066         	movff	strncat@d,strlen@s
  3391  003030  C06B  F067         	movff	strncat@d+1,strlen@s+1
  3392  003034  EC53  F01B         	call	_strlen	;wreg free
  3393  003038  0100               	movlb	0	; () banked
  3394  00303A  5166               	movf	?_strlen& (0+255),w,b
  3395  00303C  276A               	addwf	strncat@d& (0+255),f,b
  3396  00303E  5167               	movf	(?_strlen+1)& (0+255),w,b
  3397  003040  236B               	addwfc	(strncat@d+1)& (0+255),f,b
  3398  003042  EF34  F018         	goto	l6707
  3399  003046                     l6699:
  3400                           
  3401                           ; BSR set to: 0
  3402  003046  076E               	decf	strncat@n& (0+255),f,b
  3403  003048  A0D8               	btfss	status,0,c
  3404  00304A  076F               	decf	(strncat@n+1)& (0+255),f,b
  3405  00304C                     
  3406                           ; BSR set to: 0
  3407  00304C  C06C  FFD9         	movff	strncat@s,fsr2l
  3408  003050  C06D  FFDA         	movff	strncat@s+1,fsr2h
  3409  003054  C06A  FFE1         	movff	strncat@d,fsr1l
  3410  003058  C06B  FFE2         	movff	strncat@d+1,fsr1h
  3411  00305C  CFDF FFE7          	movff	indf2,indf1
  3412  003060                     
  3413                           ; BSR set to: 0
  3414  003060  4B6C               	infsnz	strncat@s& (0+255),f,b
  3415  003062  2B6D               	incf	(strncat@s+1)& (0+255),f,b
  3416  003064                     
  3417                           ; BSR set to: 0
  3418  003064  4B6A               	infsnz	strncat@d& (0+255),f,b
  3419  003066  2B6B               	incf	(strncat@d+1)& (0+255),f,b
  3420  003068                     l6707:
  3421                           
  3422                           ; BSR set to: 0
  3423  003068  516E               	movf	strncat@n& (0+255),w,b
  3424  00306A  116F               	iorwf	(strncat@n+1)& (0+255),w,b
  3425  00306C  B4D8               	btfsc	status,2,c
  3426  00306E  EF3B  F018         	goto	u7611
  3427  003072  EF3D  F018         	goto	u7610
  3428  003076                     u7611:
  3429  003076  EF49  F018         	goto	l6711
  3430  00307A                     u7610:
  3431  00307A                     
  3432                           ; BSR set to: 0
  3433  00307A  C06C  FFD9         	movff	strncat@s,fsr2l
  3434  00307E  C06D  FFDA         	movff	strncat@s+1,fsr2h
  3435  003082  50DF               	movf	indf2,w,c
  3436  003084  A4D8               	btfss	status,2,c
  3437  003086  EF47  F018         	goto	u7621
  3438  00308A  EF49  F018         	goto	u7620
  3439  00308E                     u7621:
  3440  00308E  EF23  F018         	goto	l6699
  3441  003092                     u7620:
  3442  003092                     l6711:
  3443                           
  3444                           ; BSR set to: 0
  3445  003092  C06A  FFD9         	movff	strncat@d,fsr2l
  3446  003096  C06B  FFDA         	movff	strncat@d+1,fsr2h
  3447  00309A  0E00               	movlw	0
  3448  00309C  6EDF               	movwf	indf2,c
  3449  00309E                     
  3450                           ; BSR set to: 0
  3451  00309E  4B6A               	infsnz	strncat@d& (0+255),f,b
  3452  0030A0  2B6B               	incf	(strncat@d+1)& (0+255),f,b
  3453  0030A2                     
  3454                           ; BSR set to: 0
  3455  0030A2  0012               	return		;funcret
  3456  0030A4                     __end_of_strncat:
  3457                           	opt callstack 0
  3458                           
  3459 ;; *************** function _sprintf *****************
  3460 ;; Defined at:
  3461 ;;		line 9 in file "C:\Program Files (x86)\Microchip\xc8\v2.10\pic\sources\c99\common\nf_sprintf.c"
  3462 ;; Parameters:    Size  Location     Type
  3463 ;;  s               2  100[BANK0 ] PTR unsigned char 
  3464 ;;		 -> temp_alarme_LCD(40), temp_ambiente_LCD(40), 
  3465 ;;  fmt             2  102[BANK0 ] PTR const unsigned char 
  3466 ;;		 -> STR_18(34), STR_17(34), STR_16(33), 
  3467 ;; Auto vars:     Size  Location     Type
  3468 ;;  f               6  110[BANK0 ] struct _IO_FILE
  3469 ;;  ap              2  108[BANK0 ] PTR void [1]
  3470 ;;		 -> ?_printf(2), ?_sprintf(2), 
  3471 ;;  ret             2    0        int 
  3472 ;; Return value:  Size  Location     Type
  3473 ;;                  2  100[BANK0 ] int 
  3474 ;; Registers used:
  3475 ;;		wreg, fsr1l, fsr1h, fsr2l, fsr2h, status,2, status,0, tblptrl, tblptrh, tblptru, prodl, prodh, cstack
  3476 ;; Tracked objects:
  3477 ;;		On entry : 0/0
  3478 ;;		On exit  : 0/0
  3479 ;;		Unchanged: 0/0
  3480 ;; Data sizes:     COMRAM   BANK0   BANK1   BANK2   BANK3   BANK4   BANK5
  3481 ;;      Params:         0       6       0       0       0       0       0
  3482 ;;      Locals:         0      10       0       0       0       0       0
  3483 ;;      Temps:          0       0       0       0       0       0       0
  3484 ;;      Totals:         0      16       0       0       0       0       0
  3485 ;;Total ram usage:       16 bytes
  3486 ;; Hardware stack levels used:    1
  3487 ;; Hardware stack levels required when called:   12
  3488 ;; This function calls:
  3489 ;;		_vfprintf
  3490 ;; This function is called by:
  3491 ;;		_main
  3492 ;; This function uses a non-reentrant model
  3493 ;;
  3494                           
  3495                           	psect	text2
  3496  003368                     __ptext2:
  3497                           	opt callstack 0
  3498  003368                     _sprintf:
  3499                           	opt callstack 18
  3500  003368  0EC8               	movlw	low (?_sprintf+4)
  3501  00336A  0100               	movlb	0	; () banked
  3502  00336C  6FCC               	movwf	sprintf@ap& (0+255),b
  3503  00336E  0E00               	movlw	high (?_sprintf+4)
  3504  003370  6FCD               	movwf	(sprintf@ap+1)& (0+255),b
  3505  003372  C0C4  F0CE         	movff	sprintf@s,sprintf@f
  3506  003376  C0C5  F0CF         	movff	sprintf@s+1,sprintf@f+1
  3507  00337A                     
  3508                           ; BSR set to: 0
  3509  00337A  0E00               	movlw	0
  3510  00337C  6FD1               	movwf	(sprintf@f+3)& (0+255),b
  3511  00337E  0E00               	movlw	0
  3512  003380  6FD0               	movwf	(sprintf@f+2)& (0+255),b
  3513  003382                     
  3514                           ; BSR set to: 0
  3515  003382  0E00               	movlw	0
  3516  003384  6FD3               	movwf	(sprintf@f+5)& (0+255),b
  3517  003386  0E00               	movlw	0
  3518  003388  6FD2               	movwf	(sprintf@f+4)& (0+255),b
  3519  00338A                     
  3520                           ; BSR set to: 0
  3521  00338A  0ECE               	movlw	low sprintf@f
  3522  00338C  6FBC               	movwf	vfprintf@fp& (0+255),b
  3523  00338E  0E00               	movlw	high sprintf@f
  3524  003390  6FBD               	movwf	(vfprintf@fp+1)& (0+255),b
  3525  003392  C0C6  F0BE         	movff	sprintf@fmt,vfprintf@fmt
  3526  003396  C0C7  F0BF         	movff	sprintf@fmt+1,vfprintf@fmt+1
  3527  00339A  0ECC               	movlw	low sprintf@ap
  3528  00339C  6FC0               	movwf	vfprintf@ap& (0+255),b
  3529  00339E  0E00               	movlw	high sprintf@ap
  3530  0033A0  6FC1               	movwf	(vfprintf@ap+1)& (0+255),b
  3531  0033A2  EC8C  F018         	call	_vfprintf	;wreg free
  3532  0033A6  0100               	movlb	0	; () banked
  3533  0033A8  51D0               	movf	(sprintf@f+2)& (0+255),w,b
  3534  0033AA  25C4               	addwf	sprintf@s& (0+255),w,b
  3535  0033AC  6ED9               	movwf	fsr2l,c
  3536  0033AE  51D1               	movf	(sprintf@f+3)& (0+255),w,b
  3537  0033B0  21C5               	addwfc	(sprintf@s+1)& (0+255),w,b
  3538  0033B2  6EDA               	movwf	fsr2h,c
  3539  0033B4  0E00               	movlw	0
  3540  0033B6  6EDF               	movwf	indf2,c
  3541  0033B8                     
  3542                           ; BSR set to: 0
  3543  0033B8  0012               	return		;funcret
  3544  0033BA                     __end_of_sprintf:
  3545                           	opt callstack 0
  3546                           
  3547 ;; *************** function _printf *****************
  3548 ;; Defined at:
  3549 ;;		line 5 in file "C:\Program Files (x86)\Microchip\xc8\v2.10\pic\sources\c99\common\printf.c"
  3550 ;; Parameters:    Size  Location     Type
  3551 ;;  fmt             2  100[BANK0 ] PTR const unsigned char 
  3552 ;;		 -> STR_15(3), STR_14(43), STR_13(40), STR_12(48), 
  3553 ;;		 -> STR_11(3), STR_10(43), STR_9(31), STR_8(47), 
  3554 ;;		 -> STR_7(39), STR_6(31), STR_5(29), STR_4(26), 
  3555 ;;		 -> STR_3(28), STR_2(47), STR_1(3), 
  3556 ;; Auto vars:     Size  Location     Type
  3557 ;;  ap              2  106[BANK0 ] PTR void [1]
  3558 ;;		 -> ?_printf(2), ?_sprintf(2), 
  3559 ;;  ret             2    0        int 
  3560 ;; Return value:  Size  Location     Type
  3561 ;;                  2  100[BANK0 ] int 
  3562 ;; Registers used:
  3563 ;;		wreg, fsr1l, fsr1h, fsr2l, fsr2h, status,2, status,0, tblptrl, tblptrh, tblptru, prodl, prodh, cstack
  3564 ;; Tracked objects:
  3565 ;;		On entry : 0/0
  3566 ;;		On exit  : 0/0
  3567 ;;		Unchanged: 0/0
  3568 ;; Data sizes:     COMRAM   BANK0   BANK1   BANK2   BANK3   BANK4   BANK5
  3569 ;;      Params:         0       4       0       0       0       0       0
  3570 ;;      Locals:         0       4       0       0       0       0       0
  3571 ;;      Temps:          0       0       0       0       0       0       0
  3572 ;;      Totals:         0       8       0       0       0       0       0
  3573 ;;Total ram usage:        8 bytes
  3574 ;; Hardware stack levels used:    1
  3575 ;; Hardware stack levels required when called:   12
  3576 ;; This function calls:
  3577 ;;		_vfprintf
  3578 ;; This function is called by:
  3579 ;;		_main
  3580 ;; This function uses a non-reentrant model
  3581 ;;
  3582                           
  3583                           	psect	text3
  3584  003840                     __ptext3:
  3585                           	opt callstack 0
  3586  003840                     _printf:
  3587                           	opt callstack 18
  3588  003840  0EC6               	movlw	low (?_printf+2)
  3589  003842  0100               	movlb	0	; () banked
  3590  003844  6FCA               	movwf	printf@ap& (0+255),b
  3591  003846  0E00               	movlw	high (?_printf+2)
  3592  003848  6FCB               	movwf	(printf@ap+1)& (0+255),b
  3593  00384A                     
  3594                           ; BSR set to: 0
  3595  00384A  0E00               	movlw	0
  3596  00384C  6FBC               	movwf	vfprintf@fp& (0+255),b
  3597  00384E  0E00               	movlw	0
  3598  003850  6FBD               	movwf	(vfprintf@fp+1)& (0+255),b
  3599  003852  C0C4  F0BE         	movff	printf@fmt,vfprintf@fmt
  3600  003856  C0C5  F0BF         	movff	printf@fmt+1,vfprintf@fmt+1
  3601  00385A  0ECA               	movlw	low printf@ap
  3602  00385C  6FC0               	movwf	vfprintf@ap& (0+255),b
  3603  00385E  0E00               	movlw	high printf@ap
  3604  003860  6FC1               	movwf	(vfprintf@ap+1)& (0+255),b
  3605  003862  EC8C  F018         	call	_vfprintf	;wreg free
  3606  003866  0012               	return		;funcret
  3607  003868                     __end_of_printf:
  3608                           	opt callstack 0
  3609                           
  3610 ;; *************** function _vfprintf *****************
  3611 ;; Defined at:
  3612 ;;		line 1368 in file "C:\Program Files (x86)\Microchip\xc8\v2.10\pic\sources\c99\common\doprnt.c"
  3613 ;; Parameters:    Size  Location     Type
  3614 ;;  fp              2   92[BANK0 ] PTR struct _IO_FILE
  3615 ;;		 -> sprintf@f(6), NULL(0), 
  3616 ;;  fmt             2   94[BANK0 ] PTR const unsigned char 
  3617 ;;		 -> STR_18(34), STR_17(34), STR_16(33), STR_15(3), 
  3618 ;;		 -> STR_14(43), STR_13(40), STR_12(48), STR_11(3), 
  3619 ;;		 -> STR_10(43), STR_9(31), STR_8(47), STR_7(39), 
  3620 ;;		 -> STR_6(31), STR_5(29), STR_4(26), STR_3(28), 
  3621 ;;		 -> STR_2(47), STR_1(3), 
  3622 ;;  ap              2   96[BANK0 ] PTR PTR void 
  3623 ;;		 -> printf@ap(2), sprintf@ap(2), 
  3624 ;; Auto vars:     Size  Location     Type
  3625 ;;  cfmt            2   98[BANK0 ] PTR unsigned char 
  3626 ;;		 -> STR_18(34), STR_17(34), STR_16(33), STR_15(3), 
  3627 ;;		 -> STR_14(43), STR_13(40), STR_12(48), STR_11(3), 
  3628 ;;		 -> STR_10(43), STR_9(31), STR_8(47), STR_7(39), 
  3629 ;;		 -> STR_6(31), STR_5(29), STR_4(26), STR_3(28), 
  3630 ;;		 -> STR_2(47), STR_1(3), 
  3631 ;; Return value:  Size  Location     Type
  3632 ;;                  2   92[BANK0 ] int 
  3633 ;; Registers used:
  3634 ;;		wreg, fsr1l, fsr1h, fsr2l, fsr2h, status,2, status,0, tblptrl, tblptrh, tblptru, prodl, prodh, cstack
  3635 ;; Tracked objects:
  3636 ;;		On entry : 0/0
  3637 ;;		On exit  : 0/0
  3638 ;;		Unchanged: 0/0
  3639 ;; Data sizes:     COMRAM   BANK0   BANK1   BANK2   BANK3   BANK4   BANK5
  3640 ;;      Params:         0       6       0       0       0       0       0
  3641 ;;      Locals:         0       2       0       0       0       0       0
  3642 ;;      Temps:          0       0       0       0       0       0       0
  3643 ;;      Totals:         0       8       0       0       0       0       0
  3644 ;;Total ram usage:        8 bytes
  3645 ;; Hardware stack levels used:    1
  3646 ;; Hardware stack levels required when called:   11
  3647 ;; This function calls:
  3648 ;;		_vfpfcnvrt
  3649 ;; This function is called by:
  3650 ;;		_sprintf
  3651 ;;		_printf
  3652 ;; This function uses a non-reentrant model
  3653 ;;
  3654                           
  3655                           	psect	text4
  3656  003118                     __ptext4:
  3657                           	opt callstack 0
  3658  003118                     _vfprintf:
  3659                           	opt callstack 18
  3660  003118                     
  3661                           ;C:\Program Files (x86)\Microchip\xc8\v2.10\pic\sources\c99\common\doprnt.c: 1368: int v
      +                          fprintf(FILE *fp, const char *fmt, va_list ap);C:\Program Files (x86)\Microchip\xc8\v2.1
      +                          0\pic\sources\c99\common\doprnt.c: 1369: {;C:\Program Files (x86)\Microchip\xc8\v2.10\pi
      +                          c\sources\c99\common\doprnt.c: 1371:     char *cfmt;;C:\Program Files (x86)\Microchip\xc
      +                          8\v2.10\pic\sources\c99\common\doprnt.c: 1373:     cfmt = (char *)fmt;
  3662  003118  C0BE  F0C2         	movff	vfprintf@fmt,vfprintf@cfmt
  3663  00311C  C0BF  F0C3         	movff	vfprintf@fmt+1,vfprintf@cfmt+1
  3664  003120                     
  3665                           ;C:\Program Files (x86)\Microchip\xc8\v2.10\pic\sources\c99\common\doprnt.c: 1374:     n
      +                          out = 0;
  3666  003120  0E00               	movlw	0
  3667  003122  0101               	movlb	1	; () banked
  3668  003124  6F15               	movwf	(_nout+1)& (0+255),b
  3669  003126  0E00               	movlw	0
  3670  003128  6F14               	movwf	_nout& (0+255),b
  3671                           
  3672                           ;C:\Program Files (x86)\Microchip\xc8\v2.10\pic\sources\c99\common\doprnt.c: 1375:     w
      +                          hile (*cfmt) {
  3673  00312A  EFAE  F018         	goto	l6531
  3674  00312E                     l6529:
  3675                           
  3676                           ; BSR set to: 1
  3677                           ;C:\Program Files (x86)\Microchip\xc8\v2.10\pic\sources\c99\common\doprnt.c: 1376:      
      +                             nout += vfpfcnvrt(fp, &cfmt, ap);
  3678  00312E  C0BC  F0A7         	movff	vfprintf@fp,vfpfcnvrt@fp
  3679  003132  C0BD  F0A8         	movff	vfprintf@fp+1,vfpfcnvrt@fp+1
  3680  003136  0EC2               	movlw	low vfprintf@cfmt
  3681  003138  0100               	movlb	0	; () banked
  3682  00313A  6FA9               	movwf	vfpfcnvrt@fmt& (0+255),b
  3683  00313C  0E00               	movlw	high vfprintf@cfmt
  3684  00313E  6FAA               	movwf	(vfpfcnvrt@fmt+1)& (0+255),b
  3685  003140  C0C0  F0AB         	movff	vfprintf@ap,vfpfcnvrt@ap
  3686  003144  C0C1  F0AC         	movff	vfprintf@ap+1,vfpfcnvrt@ap+1
  3687  003148  EC71  F00C         	call	_vfpfcnvrt	;wreg free
  3688  00314C  0100               	movlb	0	; () banked
  3689  00314E  51A7               	movf	?_vfpfcnvrt& (0+255),w,b
  3690  003150  0101               	movlb	1	; () banked
  3691  003152  2714               	addwf	_nout& (0+255),f,b
  3692  003154  0100               	movlb	0	; () banked
  3693  003156  51A8               	movf	(?_vfpfcnvrt+1)& (0+255),w,b
  3694  003158  0101               	movlb	1	; () banked
  3695  00315A  2315               	addwfc	(_nout+1)& (0+255),f,b
  3696  00315C                     l6531:
  3697                           
  3698                           ; BSR set to: 1
  3699                           ;C:\Program Files (x86)\Microchip\xc8\v2.10\pic\sources\c99\common\doprnt.c: 1375:     w
      +                          hile (*cfmt) {
  3700  00315C  C0C2  FFF6         	movff	vfprintf@cfmt,tblptrl
  3701  003160  C0C3  FFF7         	movff	vfprintf@cfmt+1,tblptrh
  3702  003164                     	if	0	;tblptru may be non-zero
  3703  003164                     	endif
  3704  003164                     	if	0	;tblptru may be non-zero
  3705  003164                     	endif
  3706  003164  0008               	tblrd		*
  3707  003166  50F5               	movf	tablat,w,c
  3708  003168  0900               	iorlw	0
  3709  00316A  A4D8               	btfss	status,2,c
  3710  00316C  EFBA  F018         	goto	u7381
  3711  003170  EFBC  F018         	goto	u7380
  3712  003174                     u7381:
  3713  003174  EF97  F018         	goto	l6529
  3714  003178                     u7380:
  3715  003178                     
  3716                           ; BSR set to: 1
  3717                           ;C:\Program Files (x86)\Microchip\xc8\v2.10\pic\sources\c99\common\doprnt.c: 1378:     r
      +                          eturn nout;
  3718  003178  C114  F0BC         	movff	_nout,?_vfprintf
  3719  00317C  C115  F0BD         	movff	_nout+1,?_vfprintf+1
  3720  003180                     
  3721                           ; BSR set to: 1
  3722  003180  0012               	return		;funcret
  3723  003182                     __end_of_vfprintf:
  3724                           	opt callstack 0
  3725                           
  3726 ;; *************** function _vfpfcnvrt *****************
  3727 ;; Defined at:
  3728 ;;		line 670 in file "C:\Program Files (x86)\Microchip\xc8\v2.10\pic\sources\c99\common\doprnt.c"
  3729 ;; Parameters:    Size  Location     Type
  3730 ;;  fp              2   71[BANK0 ] PTR struct _IO_FILE
  3731 ;;		 -> sprintf@f(6), NULL(0), 
  3732 ;;  fmt             2   73[BANK0 ] PTR PTR unsigned char 
  3733 ;;		 -> vfprintf@cfmt(2), 
  3734 ;;  ap              2   75[BANK0 ] PTR PTR void 
  3735 ;;		 -> printf@ap(2), sprintf@ap(2), 
  3736 ;; Auto vars:     Size  Location     Type
  3737 ;;  ll              8   81[BANK0 ] long long 
  3738 ;;  llu             8    0        unsigned long long 
  3739 ;;  f               4    0        unsigned long long 
  3740 ;;  vp              3    0        PTR void 
  3741 ;;  ct              3    0        unsigned char [3]
  3742 ;;  cp              3    0        PTR unsigned char 
  3743 ;;  i               2    0        int 
  3744 ;;  done            2    0        int 
  3745 ;;  c               1   89[BANK0 ] unsigned char 
  3746 ;; Return value:  Size  Location     Type
  3747 ;;                  2   71[BANK0 ] int 
  3748 ;; Registers used:
  3749 ;;		wreg, fsr1l, fsr1h, fsr2l, fsr2h, status,2, status,0, tblptrl, tblptrh, tblptru, prodl, prodh, cstack
  3750 ;; Tracked objects:
  3751 ;;		On entry : 0/0
  3752 ;;		On exit  : 0/0
  3753 ;;		Unchanged: 0/0
  3754 ;; Data sizes:     COMRAM   BANK0   BANK1   BANK2   BANK3   BANK4   BANK5
  3755 ;;      Params:         0       6       0       0       0       0       0
  3756 ;;      Locals:         0      11       0       0       0       0       0
  3757 ;;      Temps:          0       4       0       0       0       0       0
  3758 ;;      Totals:         0      21       0       0       0       0       0
  3759 ;;Total ram usage:       21 bytes
  3760 ;; Hardware stack levels used:    1
  3761 ;; Hardware stack levels required when called:   10
  3762 ;; This function calls:
  3763 ;;		_atoi
  3764 ;;		_ctoa
  3765 ;;		_dtoa
  3766 ;;		_fputc
  3767 ;;		_isdigit
  3768 ;; This function is called by:
  3769 ;;		_vfprintf
  3770 ;; This function uses a non-reentrant model
  3771 ;;
  3772                           
  3773                           	psect	text5
  3774  0018E2                     __ptext5:
  3775                           	opt callstack 0
  3776  0018E2                     _vfpfcnvrt:
  3777                           	opt callstack 18
  3778  0018E2                     
  3779                           ;C:\Program Files (x86)\Microchip\xc8\v2.10\pic\sources\c99\common\doprnt.c: 670: static
      +                           int vfpfcnvrt(FILE *fp, char *fmt[], va_list ap);C:\Program Files (x86)\Microchip\xc8\v
      +                          2.10\pic\sources\c99\common\doprnt.c: 671: {;C:\Program Files (x86)\Microchip\xc8\v2.10\
      +                          pic\sources\c99\common\doprnt.c: 672:     char c, *cp, ct[3];;C:\Program Files (x86)\Mic
      +                          rochip\xc8\v2.10\pic\sources\c99\common\doprnt.c: 673:     int done, i;;C:\Program Files
      +                           (x86)\Microchip\xc8\v2.10\pic\sources\c99\common\doprnt.c: 674:     long long ll;
  3780  0018E2  C0A9  FFD9         	movff	vfpfcnvrt@fmt,fsr2l
  3781  0018E6  C0AA  FFDA         	movff	vfpfcnvrt@fmt+1,fsr2h
  3782  0018EA  CFDE FFF6          	movff	postinc2,tblptrl
  3783  0018EE  CFDD FFF7          	movff	postdec2,tblptrh
  3784  0018F2                     	if	0	;tblptru may be non-zero
  3785  0018F2                     	endif
  3786  0018F2                     	if	0	;tblptru may be non-zero
  3787  0018F2                     	endif
  3788  0018F2  0008               	tblrd		*
  3789  0018F4  50F5               	movf	tablat,w,c
  3790  0018F6  0A25               	xorlw	37
  3791  0018F8  A4D8               	btfss	status,2,c
  3792  0018FA  EF81  F00C         	goto	u7181
  3793  0018FE  EF83  F00C         	goto	u7180
  3794  001902                     u7181:
  3795  001902  EFF9  F00D         	goto	l6347
  3796  001906                     u7180:
  3797  001906                     
  3798                           ;C:\Program Files (x86)\Microchip\xc8\v2.10\pic\sources\c99\common\doprnt.c: 681:       
      +                            ++*fmt;
  3799  001906  C0A9  FFD9         	movff	vfpfcnvrt@fmt,fsr2l
  3800  00190A  C0AA  FFDA         	movff	vfpfcnvrt@fmt+1,fsr2h
  3801  00190E  2ADE               	incf	postinc2,f,c
  3802  001910  0E00               	movlw	0
  3803  001912  22DD               	addwfc	postdec2,f,c
  3804  001914                     
  3805                           ;C:\Program Files (x86)\Microchip\xc8\v2.10\pic\sources\c99\common\doprnt.c: 683:       
      +                            flags = width = 0;
  3806  001914  0E00               	movlw	0
  3807  001916  0100               	movlb	0	; () banked
  3808  001918  6FD9               	movwf	(_width+1)& (0+255),b
  3809  00191A  0E00               	movlw	0
  3810  00191C  6FD8               	movwf	_width& (0+255),b
  3811  00191E  C0D8  F0DC         	movff	_width,_flags
  3812  001922  C0D9  F0DD         	movff	_width+1,_flags+1
  3813  001926                     
  3814                           ; BSR set to: 0
  3815                           ;C:\Program Files (x86)\Microchip\xc8\v2.10\pic\sources\c99\common\doprnt.c: 684:       
      +                            prec = -1;
  3816  001926  69DA               	setf	_prec& (0+255),b
  3817  001928  69DB               	setf	(_prec+1)& (0+255),b
  3818  00192A                     
  3819                           ; BSR set to: 0
  3820                           ;C:\Program Files (x86)\Microchip\xc8\v2.10\pic\sources\c99\common\doprnt.c: 740:       
      +                            if ((*fmt)[0] == '.') {
  3821  00192A  C0A9  FFD9         	movff	vfpfcnvrt@fmt,fsr2l
  3822  00192E  C0AA  FFDA         	movff	vfpfcnvrt@fmt+1,fsr2h
  3823  001932  CFDE FFF6          	movff	postinc2,tblptrl
  3824  001936  CFDD FFF7          	movff	postdec2,tblptrh
  3825  00193A                     	if	0	;tblptru may be non-zero
  3826  00193A                     	endif
  3827  00193A                     	if	0	;tblptru may be non-zero
  3828  00193A                     	endif
  3829  00193A  0008               	tblrd		*
  3830  00193C  50F5               	movf	tablat,w,c
  3831  00193E  0A2E               	xorlw	46
  3832  001940  A4D8               	btfss	status,2,c
  3833  001942  EFA5  F00C         	goto	u7191
  3834  001946  EFA7  F00C         	goto	u7190
  3835  00194A                     u7191:
  3836  00194A  EF25  F00D         	goto	l6313
  3837  00194E                     u7190:
  3838  00194E                     
  3839                           ; BSR set to: 0
  3840                           ;C:\Program Files (x86)\Microchip\xc8\v2.10\pic\sources\c99\common\doprnt.c: 741:       
      +                                prec = 0;
  3841  00194E  0E00               	movlw	0
  3842  001950  6FDB               	movwf	(_prec+1)& (0+255),b
  3843  001952  0E00               	movlw	0
  3844  001954  6FDA               	movwf	_prec& (0+255),b
  3845  001956                     
  3846                           ; BSR set to: 0
  3847                           ;C:\Program Files (x86)\Microchip\xc8\v2.10\pic\sources\c99\common\doprnt.c: 742:       
      +                                ++*fmt;
  3848  001956  C0A9  FFD9         	movff	vfpfcnvrt@fmt,fsr2l
  3849  00195A  C0AA  FFDA         	movff	vfpfcnvrt@fmt+1,fsr2h
  3850  00195E  2ADE               	incf	postinc2,f,c
  3851  001960  0E00               	movlw	0
  3852  001962  22DD               	addwfc	postdec2,f,c
  3853  001964                     
  3854                           ; BSR set to: 0
  3855                           ;C:\Program Files (x86)\Microchip\xc8\v2.10\pic\sources\c99\common\doprnt.c: 743:       
      +                                if ((*fmt)[0] == '*') {
  3856  001964  C0A9  FFD9         	movff	vfpfcnvrt@fmt,fsr2l
  3857  001968  C0AA  FFDA         	movff	vfpfcnvrt@fmt+1,fsr2h
  3858  00196C  CFDE FFF6          	movff	postinc2,tblptrl
  3859  001970  CFDD FFF7          	movff	postdec2,tblptrh
  3860  001974                     	if	0	;tblptru may be non-zero
  3861  001974                     	endif
  3862  001974                     	if	0	;tblptru may be non-zero
  3863  001974                     	endif
  3864  001974  0008               	tblrd		*
  3865  001976  50F5               	movf	tablat,w,c
  3866  001978  0A2A               	xorlw	42
  3867  00197A  A4D8               	btfss	status,2,c
  3868  00197C  EFC2  F00C         	goto	u7201
  3869  001980  EFC4  F00C         	goto	u7200
  3870  001984                     u7201:
  3871  001984  EFE1  F00C         	goto	l6303
  3872  001988                     u7200:
  3873  001988                     
  3874                           ; BSR set to: 0
  3875                           ;C:\Program Files (x86)\Microchip\xc8\v2.10\pic\sources\c99\common\doprnt.c: 744:       
      +                                    ++*fmt;
  3876  001988  C0A9  FFD9         	movff	vfpfcnvrt@fmt,fsr2l
  3877  00198C  C0AA  FFDA         	movff	vfpfcnvrt@fmt+1,fsr2h
  3878  001990  2ADE               	incf	postinc2,f,c
  3879  001992  0E00               	movlw	0
  3880  001994  22DD               	addwfc	postdec2,f,c
  3881                           
  3882                           ;C:\Program Files (x86)\Microchip\xc8\v2.10\pic\sources\c99\common\doprnt.c: 745:       
      +                                    prec = (*(int *)__va_arg(*(int **)ap, (int)0));
  3883  001996  C0AB  FFD9         	movff	vfpfcnvrt@ap,fsr2l
  3884  00199A  C0AC  FFDA         	movff	vfpfcnvrt@ap+1,fsr2h
  3885  00199E  CFDF F0AD          	movff	indf2,??_vfpfcnvrt
  3886  0019A2  0E02               	movlw	2
  3887  0019A4  26DE               	addwf	postinc2,f,c
  3888  0019A6  CFDF F0AE          	movff	indf2,??_vfpfcnvrt+1
  3889  0019AA  0E00               	movlw	0
  3890  0019AC  22DD               	addwfc	postdec2,f,c
  3891  0019AE  C0AD  FFD9         	movff	??_vfpfcnvrt,fsr2l
  3892  0019B2  C0AE  FFDA         	movff	??_vfpfcnvrt+1,fsr2h
  3893  0019B6  CFDE F0DA          	movff	postinc2,_prec
  3894  0019BA  CFDD F0DB          	movff	postdec2,_prec+1
  3895                           
  3896                           ;C:\Program Files (x86)\Microchip\xc8\v2.10\pic\sources\c99\common\doprnt.c: 746:       
      +                                } else {
  3897  0019BE  EF25  F00D         	goto	l6313
  3898  0019C2                     l6303:
  3899                           
  3900                           ; BSR set to: 0
  3901                           ;C:\Program Files (x86)\Microchip\xc8\v2.10\pic\sources\c99\common\doprnt.c: 747:       
      +                                    prec = atoi(*fmt);
  3902  0019C2  C0A9  FFD9         	movff	vfpfcnvrt@fmt,fsr2l
  3903  0019C6  C0AA  FFDA         	movff	vfpfcnvrt@fmt+1,fsr2h
  3904  0019CA  CFDE F06D          	movff	postinc2,atoi@s
  3905  0019CE  CFDD F06E          	movff	postdec2,atoi@s+1
  3906  0019D2  EC93  F010         	call	_atoi	;wreg free
  3907  0019D6  C06D  F0DA         	movff	?_atoi,_prec
  3908  0019DA  C06E  F0DB         	movff	?_atoi+1,_prec+1
  3909                           
  3910                           ;C:\Program Files (x86)\Microchip\xc8\v2.10\pic\sources\c99\common\doprnt.c: 748:       
      +                                    while ((0 ? isdigit((*fmt)[0]) : ((unsigned)((*fmt)[0])-'0') < 10)) {
  3911  0019DE  EFF8  F00C         	goto	l6307
  3912  0019E2                     l6305:
  3913                           
  3914                           ; BSR set to: 0
  3915                           ;C:\Program Files (x86)\Microchip\xc8\v2.10\pic\sources\c99\common\doprnt.c: 749:       
      +                                        ++*fmt;
  3916  0019E2  C0A9  FFD9         	movff	vfpfcnvrt@fmt,fsr2l
  3917  0019E6  C0AA  FFDA         	movff	vfpfcnvrt@fmt+1,fsr2h
  3918  0019EA  2ADE               	incf	postinc2,f,c
  3919  0019EC  0E00               	movlw	0
  3920  0019EE  22DD               	addwfc	postdec2,f,c
  3921  0019F0                     l6307:
  3922  0019F0  0ED0               	movlw	208
  3923  0019F2  0100               	movlb	0	; () banked
  3924  0019F4  6FAD               	movwf	??_vfpfcnvrt& (0+255),b
  3925  0019F6  0EFF               	movlw	255
  3926  0019F8  6FAE               	movwf	(??_vfpfcnvrt+1)& (0+255),b
  3927  0019FA  C0A9  FFD9         	movff	vfpfcnvrt@fmt,fsr2l
  3928  0019FE  C0AA  FFDA         	movff	vfpfcnvrt@fmt+1,fsr2h
  3929  001A02  CFDE FFF6          	movff	postinc2,tblptrl
  3930  001A06  CFDD FFF7          	movff	postdec2,tblptrh
  3931  001A0A                     	if	0	;tblptru may be non-zero
  3932  001A0A                     	endif
  3933  001A0A                     	if	0	;tblptru may be non-zero
  3934  001A0A                     	endif
  3935  001A0A  0008               	tblrd		*
  3936  001A0C  50F5               	movf	tablat,w,c
  3937  001A0E  6FAF               	movwf	(??_vfpfcnvrt+2)& (0+255),b
  3938  001A10  6BB0               	clrf	(??_vfpfcnvrt+3)& (0+255),b
  3939  001A12  51AD               	movf	??_vfpfcnvrt& (0+255),w,b
  3940  001A14  27AF               	addwf	(??_vfpfcnvrt+2)& (0+255),f,b
  3941  001A16  51AE               	movf	(??_vfpfcnvrt+1)& (0+255),w,b
  3942  001A18  23B0               	addwfc	(??_vfpfcnvrt+3)& (0+255),f,b
  3943  001A1A  51B0               	movf	(??_vfpfcnvrt+3)& (0+255),w,b
  3944  001A1C  E10A               	bnz	u7210
  3945  001A1E  0E0A               	movlw	10
  3946  001A20  5DAF               	subwf	(??_vfpfcnvrt+2)& (0+255),w,b
  3947  001A22  A0D8               	btfss	status,0,c
  3948  001A24  EF16  F00D         	goto	u7211
  3949  001A28  EF19  F00D         	goto	u7210
  3950  001A2C                     u7211:
  3951  001A2C  0E01               	movlw	1
  3952  001A2E  EF1A  F00D         	goto	u7220
  3953  001A32                     u7210:
  3954  001A32  0E00               	movlw	0
  3955  001A34                     u7220:
  3956  001A34  6FBA               	movwf	_vfpfcnvrt$1898& (0+255),b
  3957  001A36  6BBB               	clrf	(_vfpfcnvrt$1898+1)& (0+255),b
  3958  001A38                     
  3959                           ; BSR set to: 0
  3960  001A38  51BA               	movf	_vfpfcnvrt$1898& (0+255),w,b
  3961  001A3A  11BB               	iorwf	(_vfpfcnvrt$1898+1)& (0+255),w,b
  3962  001A3C  A4D8               	btfss	status,2,c
  3963  001A3E  EF23  F00D         	goto	u7231
  3964  001A42  EF25  F00D         	goto	u7230
  3965  001A46                     u7231:
  3966  001A46  EFF1  F00C         	goto	l6305
  3967  001A4A                     u7230:
  3968  001A4A                     l6313:
  3969                           
  3970                           ; BSR set to: 0
  3971                           ;C:\Program Files (x86)\Microchip\xc8\v2.10\pic\sources\c99\common\doprnt.c: 792:       
      +                            if (*fmt[0] == 'c') {
  3972  001A4A  C0A9  FFD9         	movff	vfpfcnvrt@fmt,fsr2l
  3973  001A4E  C0AA  FFDA         	movff	vfpfcnvrt@fmt+1,fsr2h
  3974  001A52  CFDE FFF6          	movff	postinc2,tblptrl
  3975  001A56  CFDD FFF7          	movff	postdec2,tblptrh
  3976  001A5A                     	if	0	;tblptru may be non-zero
  3977  001A5A                     	endif
  3978  001A5A                     	if	0	;tblptru may be non-zero
  3979  001A5A                     	endif
  3980  001A5A  0008               	tblrd		*
  3981  001A5C  50F5               	movf	tablat,w,c
  3982  001A5E  0A63               	xorlw	99
  3983  001A60  A4D8               	btfss	status,2,c
  3984  001A62  EF35  F00D         	goto	u7241
  3985  001A66  EF37  F00D         	goto	u7240
  3986  001A6A                     u7241:
  3987  001A6A  EF5E  F00D         	goto	l6321
  3988  001A6E                     u7240:
  3989  001A6E                     
  3990                           ; BSR set to: 0
  3991                           ;C:\Program Files (x86)\Microchip\xc8\v2.10\pic\sources\c99\common\doprnt.c: 793:       
      +                                ++*fmt;
  3992  001A6E  C0A9  FFD9         	movff	vfpfcnvrt@fmt,fsr2l
  3993  001A72  C0AA  FFDA         	movff	vfpfcnvrt@fmt+1,fsr2h
  3994  001A76  2ADE               	incf	postinc2,f,c
  3995  001A78  0E00               	movlw	0
  3996  001A7A  22DD               	addwfc	postdec2,f,c
  3997                           
  3998                           ;C:\Program Files (x86)\Microchip\xc8\v2.10\pic\sources\c99\common\doprnt.c: 794:       
      +                                c = (unsigned char)(*(int *)__va_arg(*(int **)ap, (int)0));
  3999  001A7C  C0AB  FFD9         	movff	vfpfcnvrt@ap,fsr2l
  4000  001A80  C0AC  FFDA         	movff	vfpfcnvrt@ap+1,fsr2h
  4001  001A84  CFDF F0AD          	movff	indf2,??_vfpfcnvrt
  4002  001A88  0E02               	movlw	2
  4003  001A8A  26DE               	addwf	postinc2,f,c
  4004  001A8C  CFDF F0AE          	movff	indf2,??_vfpfcnvrt+1
  4005  001A90  0E00               	movlw	0
  4006  001A92  22DD               	addwfc	postdec2,f,c
  4007  001A94  C0AD  FFD9         	movff	??_vfpfcnvrt,fsr2l
  4008  001A98  C0AE  FFDA         	movff	??_vfpfcnvrt+1,fsr2h
  4009  001A9C  50DF               	movf	indf2,w,c
  4010  001A9E  6FB9               	movwf	vfpfcnvrt@c& (0+255),b
  4011  001AA0                     
  4012                           ; BSR set to: 0
  4013                           ;C:\Program Files (x86)\Microchip\xc8\v2.10\pic\sources\c99\common\doprnt.c: 795:       
      +                                return ctoa(fp, c);
  4014  001AA0  C0A7  F083         	movff	vfpfcnvrt@fp,ctoa@fp
  4015  001AA4  C0A8  F084         	movff	vfpfcnvrt@fp+1,ctoa@fp+1
  4016  001AA8  C0B9  F085         	movff	vfpfcnvrt@c,ctoa@c
  4017  001AAC  EC5B  F019         	call	_ctoa	;wreg free
  4018  001AB0  C083  F0A7         	movff	?_ctoa,?_vfpfcnvrt
  4019  001AB4  C084  F0A8         	movff	?_ctoa+1,?_vfpfcnvrt+1
  4020  001AB8  EF15  F00E         	goto	l941
  4021  001ABC                     l6321:
  4022                           
  4023                           ; BSR set to: 0
  4024                           ;C:\Program Files (x86)\Microchip\xc8\v2.10\pic\sources\c99\common\doprnt.c: 825:       
      +                            if ((*fmt[0] == 'd') || (*fmt[0] == 'i')) {
  4025  001ABC  C0A9  FFD9         	movff	vfpfcnvrt@fmt,fsr2l
  4026  001AC0  C0AA  FFDA         	movff	vfpfcnvrt@fmt+1,fsr2h
  4027  001AC4  CFDE FFF6          	movff	postinc2,tblptrl
  4028  001AC8  CFDD FFF7          	movff	postdec2,tblptrh
  4029  001ACC                     	if	0	;tblptru may be non-zero
  4030  001ACC                     	endif
  4031  001ACC                     	if	0	;tblptru may be non-zero
  4032  001ACC                     	endif
  4033  001ACC  0008               	tblrd		*
  4034  001ACE  50F5               	movf	tablat,w,c
  4035  001AD0  0A64               	xorlw	100
  4036  001AD2  B4D8               	btfsc	status,2,c
  4037  001AD4  EF6E  F00D         	goto	u7251
  4038  001AD8  EF70  F00D         	goto	u7250
  4039  001ADC                     u7251:
  4040  001ADC  EF82  F00D         	goto	l6325
  4041  001AE0                     u7250:
  4042  001AE0                     
  4043                           ; BSR set to: 0
  4044  001AE0  C0A9  FFD9         	movff	vfpfcnvrt@fmt,fsr2l
  4045  001AE4  C0AA  FFDA         	movff	vfpfcnvrt@fmt+1,fsr2h
  4046  001AE8  CFDE FFF6          	movff	postinc2,tblptrl
  4047  001AEC  CFDD FFF7          	movff	postdec2,tblptrh
  4048  001AF0                     	if	0	;tblptru may be non-zero
  4049  001AF0                     	endif
  4050  001AF0                     	if	0	;tblptru may be non-zero
  4051  001AF0                     	endif
  4052  001AF0  0008               	tblrd		*
  4053  001AF2  50F5               	movf	tablat,w,c
  4054  001AF4  0A69               	xorlw	105
  4055  001AF6  A4D8               	btfss	status,2,c
  4056  001AF8  EF80  F00D         	goto	u7261
  4057  001AFC  EF82  F00D         	goto	u7260
  4058  001B00                     u7261:
  4059  001B00  EFC2  F00D         	goto	l6331
  4060  001B04                     u7260:
  4061  001B04                     l6325:
  4062                           
  4063                           ; BSR set to: 0
  4064                           ;C:\Program Files (x86)\Microchip\xc8\v2.10\pic\sources\c99\common\doprnt.c: 827:       
      +                                ++*fmt;
  4065  001B04  C0A9  FFD9         	movff	vfpfcnvrt@fmt,fsr2l
  4066  001B08  C0AA  FFDA         	movff	vfpfcnvrt@fmt+1,fsr2h
  4067  001B0C  2ADE               	incf	postinc2,f,c
  4068  001B0E  0E00               	movlw	0
  4069  001B10  22DD               	addwfc	postdec2,f,c
  4070                           
  4071                           ;C:\Program Files (x86)\Microchip\xc8\v2.10\pic\sources\c99\common\doprnt.c: 828:       
      +                                ll = (long long)(*(int *)__va_arg(*(int **)ap, (int)0));
  4072  001B12  C0AB  FFD9         	movff	vfpfcnvrt@ap,fsr2l
  4073  001B16  C0AC  FFDA         	movff	vfpfcnvrt@ap+1,fsr2h
  4074  001B1A  CFDF F0AD          	movff	indf2,??_vfpfcnvrt
  4075  001B1E  0E02               	movlw	2
  4076  001B20  26DE               	addwf	postinc2,f,c
  4077  001B22  CFDF F0AE          	movff	indf2,??_vfpfcnvrt+1
  4078  001B26  0E00               	movlw	0
  4079  001B28  22DD               	addwfc	postdec2,f,c
  4080  001B2A  C0AD  FFD9         	movff	??_vfpfcnvrt,fsr2l
  4081  001B2E  C0AE  FFDA         	movff	??_vfpfcnvrt+1,fsr2h
  4082  001B32  CFDE F0B1          	movff	postinc2,vfpfcnvrt@ll
  4083  001B36  CFDD F0B2          	movff	postdec2,vfpfcnvrt@ll+1
  4084  001B3A  0E00               	movlw	0
  4085  001B3C  BFB2               	btfsc	(vfpfcnvrt@ll+1)& (0+255),7,b
  4086  001B3E  0EFF               	movlw	-1
  4087  001B40  6FB3               	movwf	(vfpfcnvrt@ll+2)& (0+255),b
  4088  001B42  6FB4               	movwf	(vfpfcnvrt@ll+3)& (0+255),b
  4089  001B44  6FB5               	movwf	(vfpfcnvrt@ll+4)& (0+255),b
  4090  001B46  6FB6               	movwf	(vfpfcnvrt@ll+5)& (0+255),b
  4091  001B48  6FB7               	movwf	(vfpfcnvrt@ll+6)& (0+255),b
  4092  001B4A  6FB8               	movwf	(vfpfcnvrt@ll+7)& (0+255),b
  4093  001B4C                     
  4094                           ; BSR set to: 0
  4095                           ;C:\Program Files (x86)\Microchip\xc8\v2.10\pic\sources\c99\common\doprnt.c: 830:       
      +                                return dtoa(fp, ll);
  4096  001B4C  C0A7  F083         	movff	vfpfcnvrt@fp,dtoa@fp
  4097  001B50  C0A8  F084         	movff	vfpfcnvrt@fp+1,dtoa@fp+1
  4098  001B54  C0B1  F085         	movff	vfpfcnvrt@ll,dtoa@d
  4099  001B58  C0B2  F086         	movff	vfpfcnvrt@ll+1,dtoa@d+1
  4100  001B5C  C0B3  F087         	movff	vfpfcnvrt@ll+2,dtoa@d+2
  4101  001B60  C0B4  F088         	movff	vfpfcnvrt@ll+3,dtoa@d+3
  4102  001B64  C0B5  F089         	movff	vfpfcnvrt@ll+4,dtoa@d+4
  4103  001B68  C0B6  F08A         	movff	vfpfcnvrt@ll+5,dtoa@d+5
  4104  001B6C  C0B7  F08B         	movff	vfpfcnvrt@ll+6,dtoa@d+6
  4105  001B70  C0B8  F08C         	movff	vfpfcnvrt@ll+7,dtoa@d+7
  4106  001B74  EC16  F00E         	call	_dtoa	;wreg free
  4107  001B78  C083  F0A7         	movff	?_dtoa,?_vfpfcnvrt
  4108  001B7C  C084  F0A8         	movff	?_dtoa+1,?_vfpfcnvrt+1
  4109  001B80  EF15  F00E         	goto	l941
  4110  001B84                     l6331:
  4111                           
  4112                           ; BSR set to: 0
  4113                           ;C:\Program Files (x86)\Microchip\xc8\v2.10\pic\sources\c99\common\doprnt.c: 1350:      
      +                             if ((*fmt)[0] == '%') {
  4114  001B84  C0A9  FFD9         	movff	vfpfcnvrt@fmt,fsr2l
  4115  001B88  C0AA  FFDA         	movff	vfpfcnvrt@fmt+1,fsr2h
  4116  001B8C  CFDE FFF6          	movff	postinc2,tblptrl
  4117  001B90  CFDD FFF7          	movff	postdec2,tblptrh
  4118  001B94                     	if	0	;tblptru may be non-zero
  4119  001B94                     	endif
  4120  001B94                     	if	0	;tblptru may be non-zero
  4121  001B94                     	endif
  4122  001B94  0008               	tblrd		*
  4123  001B96  50F5               	movf	tablat,w,c
  4124  001B98  0A25               	xorlw	37
  4125  001B9A  A4D8               	btfss	status,2,c
  4126  001B9C  EFD2  F00D         	goto	u7271
  4127  001BA0  EFD4  F00D         	goto	u7270
  4128  001BA4                     u7271:
  4129  001BA4  EFEC  F00D         	goto	l6341
  4130  001BA8                     u7270:
  4131  001BA8                     
  4132                           ; BSR set to: 0
  4133                           ;C:\Program Files (x86)\Microchip\xc8\v2.10\pic\sources\c99\common\doprnt.c: 1351:      
      +                                 ++*fmt;
  4134  001BA8  C0A9  FFD9         	movff	vfpfcnvrt@fmt,fsr2l
  4135  001BAC  C0AA  FFDA         	movff	vfpfcnvrt@fmt+1,fsr2h
  4136  001BB0  2ADE               	incf	postinc2,f,c
  4137  001BB2  0E00               	movlw	0
  4138  001BB4  22DD               	addwfc	postdec2,f,c
  4139  001BB6                     
  4140                           ; BSR set to: 0
  4141                           ;C:\Program Files (x86)\Microchip\xc8\v2.10\pic\sources\c99\common\doprnt.c: 1352:      
      +                                 fputc((int)'%', fp);
  4142  001BB6  0E00               	movlw	0
  4143  001BB8  6F69               	movwf	(fputc@c+1)& (0+255),b
  4144  001BBA  0E25               	movlw	37
  4145  001BBC  6F68               	movwf	fputc@c& (0+255),b
  4146  001BBE  C0A7  F06A         	movff	vfpfcnvrt@fp,fputc@fp
  4147  001BC2  C0A8  F06B         	movff	vfpfcnvrt@fp+1,fputc@fp+1
  4148  001BC6  ECA8  F016         	call	_fputc	;wreg free
  4149  001BCA                     l6337:
  4150                           
  4151                           ;C:\Program Files (x86)\Microchip\xc8\v2.10\pic\sources\c99\common\doprnt.c: 1353:      
      +                                 return 1;
  4152  001BCA  0E00               	movlw	0
  4153  001BCC  0100               	movlb	0	; () banked
  4154  001BCE  6FA8               	movwf	(?_vfpfcnvrt+1)& (0+255),b
  4155  001BD0  0E01               	movlw	1
  4156  001BD2  6FA7               	movwf	?_vfpfcnvrt& (0+255),b
  4157  001BD4  EF15  F00E         	goto	l941
  4158  001BD8                     l6341:
  4159                           
  4160                           ; BSR set to: 0
  4161                           ;C:\Program Files (x86)\Microchip\xc8\v2.10\pic\sources\c99\common\doprnt.c: 1357:      
      +                             ++*fmt;
  4162  001BD8  C0A9  FFD9         	movff	vfpfcnvrt@fmt,fsr2l
  4163  001BDC  C0AA  FFDA         	movff	vfpfcnvrt@fmt+1,fsr2h
  4164  001BE0  2ADE               	incf	postinc2,f,c
  4165  001BE2  0E00               	movlw	0
  4166  001BE4  22DD               	addwfc	postdec2,f,c
  4167  001BE6                     
  4168                           ; BSR set to: 0
  4169                           ;C:\Program Files (x86)\Microchip\xc8\v2.10\pic\sources\c99\common\doprnt.c: 1358:      
      +                             return 0;
  4170  001BE6  0E00               	movlw	0
  4171  001BE8  6FA8               	movwf	(?_vfpfcnvrt+1)& (0+255),b
  4172  001BEA  0E00               	movlw	0
  4173  001BEC  6FA7               	movwf	?_vfpfcnvrt& (0+255),b
  4174  001BEE  EF15  F00E         	goto	l941
  4175  001BF2                     l6347:
  4176                           
  4177                           ;C:\Program Files (x86)\Microchip\xc8\v2.10\pic\sources\c99\common\doprnt.c: 1362:     f
      +                          putc((int)(*fmt)[0], fp);
  4178  001BF2  C0A9  FFD9         	movff	vfpfcnvrt@fmt,fsr2l
  4179  001BF6  C0AA  FFDA         	movff	vfpfcnvrt@fmt+1,fsr2h
  4180  001BFA  CFDE FFF6          	movff	postinc2,tblptrl
  4181  001BFE  CFDD FFF7          	movff	postdec2,tblptrh
  4182  001C02                     	if	0	;tblptru may be non-zero
  4183  001C02                     	endif
  4184  001C02                     	if	0	;tblptru may be non-zero
  4185  001C02                     	endif
  4186  001C02  0008               	tblrd		*
  4187  001C04  50F5               	movf	tablat,w,c
  4188  001C06  0100               	movlb	0	; () banked
  4189  001C08  6F68               	movwf	fputc@c& (0+255),b
  4190  001C0A  6B69               	clrf	(fputc@c+1)& (0+255),b
  4191  001C0C  C0A7  F06A         	movff	vfpfcnvrt@fp,fputc@fp
  4192  001C10  C0A8  F06B         	movff	vfpfcnvrt@fp+1,fputc@fp+1
  4193  001C14  ECA8  F016         	call	_fputc	;wreg free
  4194  001C18                     
  4195                           ;C:\Program Files (x86)\Microchip\xc8\v2.10\pic\sources\c99\common\doprnt.c: 1363:     +
      +                          +*fmt;
  4196  001C18  C0A9  FFD9         	movff	vfpfcnvrt@fmt,fsr2l
  4197  001C1C  C0AA  FFDA         	movff	vfpfcnvrt@fmt+1,fsr2h
  4198  001C20  2ADE               	incf	postinc2,f,c
  4199  001C22  0E00               	movlw	0
  4200  001C24  22DD               	addwfc	postdec2,f,c
  4201  001C26  EFE5  F00D         	goto	l6337
  4202  001C2A                     l941:
  4203  001C2A  0012               	return		;funcret
  4204  001C2C                     __end_of_vfpfcnvrt:
  4205                           	opt callstack 0
  4206                           
  4207 ;; *************** function _dtoa *****************
  4208 ;; Defined at:
  4209 ;;		line 274 in file "C:\Program Files (x86)\Microchip\xc8\v2.10\pic\sources\c99\common\doprnt.c"
  4210 ;; Parameters:    Size  Location     Type
  4211 ;;  fp              2   35[BANK0 ] PTR struct _IO_FILE
  4212 ;;		 -> sprintf@f(6), NULL(0), 
  4213 ;;  d               8   37[BANK0 ] long long 
  4214 ;; Auto vars:     Size  Location     Type
  4215 ;;  n               8   61[BANK0 ] long long 
  4216 ;;  i               2   69[BANK0 ] int 
  4217 ;;  s               2   59[BANK0 ] int 
  4218 ;;  w               2   57[BANK0 ] int 
  4219 ;;  p               2   55[BANK0 ] int 
  4220 ;; Return value:  Size  Location     Type
  4221 ;;                  2   35[BANK0 ] int 
  4222 ;; Registers used:
  4223 ;;		wreg, fsr1l, fsr1h, fsr2l, fsr2h, status,2, status,0, cstack
  4224 ;; Tracked objects:
  4225 ;;		On entry : 0/0
  4226 ;;		On exit  : 0/0
  4227 ;;		Unchanged: 0/0
  4228 ;; Data sizes:     COMRAM   BANK0   BANK1   BANK2   BANK3   BANK4   BANK5
  4229 ;;      Params:         0      10       0       0       0       0       0
  4230 ;;      Locals:         0      18       0       0       0       0       0
  4231 ;;      Temps:          0       8       0       0       0       0       0
  4232 ;;      Totals:         0      36       0       0       0       0       0
  4233 ;;Total ram usage:       36 bytes
  4234 ;; Hardware stack levels used:    1
  4235 ;; Hardware stack levels required when called:    9
  4236 ;; This function calls:
  4237 ;;		___aodiv
  4238 ;;		___aomod
  4239 ;;		_abs
  4240 ;;		_pad
  4241 ;; This function is called by:
  4242 ;;		_vfpfcnvrt
  4243 ;; This function uses a non-reentrant model
  4244 ;;
  4245                           
  4246                           	psect	text6
  4247  001C2C                     __ptext6:
  4248                           	opt callstack 0
  4249  001C2C                     _dtoa:
  4250                           	opt callstack 18
  4251  001C2C                     
  4252                           ;C:\Program Files (x86)\Microchip\xc8\v2.10\pic\sources\c99\common\doprnt.c: 274: static
      +                           int dtoa(FILE *fp, long long d);C:\Program Files (x86)\Microchip\xc8\v2.10\pic\sources\
      +                          c99\common\doprnt.c: 275: {;C:\Program Files (x86)\Microchip\xc8\v2.10\pic\sources\c99\c
      +                          ommon\doprnt.c: 276:     int i, p, s, w;;C:\Program Files (x86)\Microchip\xc8\v2.10\pic\
      +                          sources\c99\common\doprnt.c: 277:     long long n;;C:\Program Files (x86)\Microchip\xc8\
      +                          v2.10\pic\sources\c99\common\doprnt.c: 280:     n = d;
  4253  001C2C  C085  F09D         	movff	dtoa@d,dtoa@n
  4254  001C30  C086  F09E         	movff	dtoa@d+1,dtoa@n+1
  4255  001C34  C087  F09F         	movff	dtoa@d+2,dtoa@n+2
  4256  001C38  C088  F0A0         	movff	dtoa@d+3,dtoa@n+3
  4257  001C3C  C089  F0A1         	movff	dtoa@d+4,dtoa@n+4
  4258  001C40  C08A  F0A2         	movff	dtoa@d+5,dtoa@n+5
  4259  001C44  C08B  F0A3         	movff	dtoa@d+6,dtoa@n+6
  4260  001C48  C08C  F0A4         	movff	dtoa@d+7,dtoa@n+7
  4261  001C4C                     
  4262                           ;C:\Program Files (x86)\Microchip\xc8\v2.10\pic\sources\c99\common\doprnt.c: 281:     s 
      +                          = n < 0 ? 1 : 0;
  4263  001C4C  0100               	movlb	0	; () banked
  4264  001C4E  BFA4               	btfsc	(dtoa@n+7)& (0+255),7,b
  4265  001C50  EF2C  F00E         	goto	u7021
  4266  001C54  EF2F  F00E         	goto	u7020
  4267  001C58                     u7021:
  4268  001C58  0E01               	movlw	1
  4269  001C5A  EF30  F00E         	goto	u7030
  4270  001C5E                     u7020:
  4271  001C5E  0E00               	movlw	0
  4272  001C60                     u7030:
  4273  001C60  6F9B               	movwf	dtoa@s& (0+255),b
  4274  001C62  6B9C               	clrf	(dtoa@s+1)& (0+255),b
  4275                           
  4276                           ;C:\Program Files (x86)\Microchip\xc8\v2.10\pic\sources\c99\common\doprnt.c: 282:     if
      +                           (s) {
  4277  001C64  519B               	movf	dtoa@s& (0+255),w,b
  4278  001C66  119C               	iorwf	(dtoa@s+1)& (0+255),w,b
  4279  001C68  B4D8               	btfsc	status,2,c
  4280  001C6A  EF39  F00E         	goto	u7041
  4281  001C6E  EF3B  F00E         	goto	u7040
  4282  001C72                     u7041:
  4283  001C72  EF4B  F00E         	goto	l6119
  4284  001C76                     u7040:
  4285  001C76                     
  4286                           ; BSR set to: 0
  4287                           ;C:\Program Files (x86)\Microchip\xc8\v2.10\pic\sources\c99\common\doprnt.c: 283:       
      +                            n = -n;
  4288  001C76  1FA4               	comf	(dtoa@n+7)& (0+255),f,b
  4289  001C78  1FA3               	comf	(dtoa@n+6)& (0+255),f,b
  4290  001C7A  1FA2               	comf	(dtoa@n+5)& (0+255),f,b
  4291  001C7C  1FA1               	comf	(dtoa@n+4)& (0+255),f,b
  4292  001C7E  1FA0               	comf	(dtoa@n+3)& (0+255),f,b
  4293  001C80  1F9F               	comf	(dtoa@n+2)& (0+255),f,b
  4294  001C82  1F9E               	comf	(dtoa@n+1)& (0+255),f,b
  4295  001C84  6D9D               	negf	dtoa@n& (0+255),b
  4296  001C86  0E00               	movlw	0
  4297  001C88  239E               	addwfc	(dtoa@n+1)& (0+255),f,b
  4298  001C8A  239F               	addwfc	(dtoa@n+2)& (0+255),f,b
  4299  001C8C  23A0               	addwfc	(dtoa@n+3)& (0+255),f,b
  4300  001C8E  23A1               	addwfc	(dtoa@n+4)& (0+255),f,b
  4301  001C90  23A2               	addwfc	(dtoa@n+5)& (0+255),f,b
  4302  001C92  23A3               	addwfc	(dtoa@n+6)& (0+255),f,b
  4303  001C94  23A4               	addwfc	(dtoa@n+7)& (0+255),f,b
  4304  001C96                     l6119:
  4305                           
  4306                           ; BSR set to: 0
  4307                           ;C:\Program Files (x86)\Microchip\xc8\v2.10\pic\sources\c99\common\doprnt.c: 287:     if
      +                           (!(prec < 0)) {
  4308  001C96  BFDB               	btfsc	(_prec+1)& (0+255),7,b
  4309  001C98  EF50  F00E         	goto	u7051
  4310  001C9C  EF52  F00E         	goto	u7050
  4311  001CA0                     u7051:
  4312  001CA0  EF53  F00E         	goto	l6123
  4313  001CA4                     u7050:
  4314  001CA4                     
  4315                           ; BSR set to: 0
  4316                           ;C:\Program Files (x86)\Microchip\xc8\v2.10\pic\sources\c99\common\doprnt.c: 288:       
      +                            flags &= ~(1 << 1);
  4317  001CA4  93DC               	bcf	_flags& (0+255),1,b
  4318  001CA6                     l6123:
  4319                           
  4320                           ; BSR set to: 0
  4321                           ;C:\Program Files (x86)\Microchip\xc8\v2.10\pic\sources\c99\common\doprnt.c: 290:     p 
      +                          = (0 < prec) ? prec : 1;
  4322  001CA6  BFDB               	btfsc	(_prec+1)& (0+255),7,b
  4323  001CA8  EF60  F00E         	goto	u7060
  4324  001CAC  51DB               	movf	(_prec+1)& (0+255),w,b
  4325  001CAE  E106               	bnz	u7061
  4326  001CB0  05DA               	decf	_prec& (0+255),w,b
  4327  001CB2  B0D8               	btfsc	status,0,c
  4328  001CB4  EF5E  F00E         	goto	u7061
  4329  001CB8  EF60  F00E         	goto	u7060
  4330  001CBC                     u7061:
  4331  001CBC  EF66  F00E         	goto	l906
  4332  001CC0                     u7060:
  4333  001CC0                     
  4334                           ; BSR set to: 0
  4335  001CC0  0E00               	movlw	0
  4336  001CC2  6F98               	movwf	(dtoa@p+1)& (0+255),b
  4337  001CC4  0E01               	movlw	1
  4338  001CC6  6F97               	movwf	dtoa@p& (0+255),b
  4339  001CC8  EF6A  F00E         	goto	l908
  4340  001CCC                     l906:
  4341                           
  4342                           ; BSR set to: 0
  4343  001CCC  C0DA  F097         	movff	_prec,dtoa@p
  4344  001CD0  C0DB  F098         	movff	_prec+1,dtoa@p+1
  4345  001CD4                     l908:
  4346                           
  4347                           ; BSR set to: 0
  4348                           ;C:\Program Files (x86)\Microchip\xc8\v2.10\pic\sources\c99\common\doprnt.c: 291:     w 
      +                          = width;
  4349  001CD4  C0D8  F099         	movff	_width,dtoa@w
  4350  001CD8  C0D9  F09A         	movff	_width+1,dtoa@w+1
  4351  001CDC                     
  4352                           ; BSR set to: 0
  4353                           ;C:\Program Files (x86)\Microchip\xc8\v2.10\pic\sources\c99\common\doprnt.c: 292:     if
      +                           (s || (flags & (1 << 2))) {
  4354  001CDC  519B               	movf	dtoa@s& (0+255),w,b
  4355  001CDE  119C               	iorwf	(dtoa@s+1)& (0+255),w,b
  4356  001CE0  A4D8               	btfss	status,2,c
  4357  001CE2  EF75  F00E         	goto	u7071
  4358  001CE6  EF77  F00E         	goto	u7070
  4359  001CEA                     u7071:
  4360  001CEA  EF7E  F00E         	goto	l6131
  4361  001CEE                     u7070:
  4362  001CEE                     
  4363                           ; BSR set to: 0
  4364  001CEE  A5DC               	btfss	_flags& (0+255),2,b
  4365  001CF0  EF7C  F00E         	goto	u7081
  4366  001CF4  EF7E  F00E         	goto	u7080
  4367  001CF8                     u7081:
  4368  001CF8  EF81  F00E         	goto	l6133
  4369  001CFC                     u7080:
  4370  001CFC                     l6131:
  4371                           
  4372                           ; BSR set to: 0
  4373                           ;C:\Program Files (x86)\Microchip\xc8\v2.10\pic\sources\c99\common\doprnt.c: 293:       
      +                            --w;
  4374  001CFC  0799               	decf	dtoa@w& (0+255),f,b
  4375  001CFE  A0D8               	btfss	status,0,c
  4376  001D00  079A               	decf	(dtoa@w+1)& (0+255),f,b
  4377  001D02                     l6133:
  4378                           
  4379                           ; BSR set to: 0
  4380                           ;C:\Program Files (x86)\Microchip\xc8\v2.10\pic\sources\c99\common\doprnt.c: 297:     i 
      +                          = sizeof(dbuf) - 1;
  4381  001D02  0E00               	movlw	0
  4382  001D04  6FA6               	movwf	(dtoa@i+1)& (0+255),b
  4383  001D06  0E1F               	movlw	31
  4384  001D08  6FA5               	movwf	dtoa@i& (0+255),b
  4385  001D0A                     
  4386                           ; BSR set to: 0
  4387                           ;C:\Program Files (x86)\Microchip\xc8\v2.10\pic\sources\c99\common\doprnt.c: 298:     db
      +                          uf[i] = '\0';
  4388  001D0A  0E00               	movlw	0
  4389  001D0C  0101               	movlb	1	; () banked
  4390  001D0E  6F93               	movwf	(_dbuf+31)& (0+255),b
  4391                           
  4392                           ;C:\Program Files (x86)\Microchip\xc8\v2.10\pic\sources\c99\common\doprnt.c: 299:     wh
      +                          ile (!(i < 1) && (n || (0 < p) || ((0 < w) && (flags & (1 << 1))))) {
  4393  001D10  EF07  F00F         	goto	l6147
  4394  001D14                     l6137:
  4395                           
  4396                           ; BSR set to: 0
  4397                           ;C:\Program Files (x86)\Microchip\xc8\v2.10\pic\sources\c99\common\doprnt.c: 300:       
      +                            --i;
  4398  001D14  07A5               	decf	dtoa@i& (0+255),f,b
  4399  001D16  A0D8               	btfss	status,0,c
  4400  001D18  07A6               	decf	(dtoa@i+1)& (0+255),f,b
  4401  001D1A                     
  4402                           ; BSR set to: 0
  4403                           ;C:\Program Files (x86)\Microchip\xc8\v2.10\pic\sources\c99\common\doprnt.c: 301:       
      +                            dbuf[i] = '0' + abs(n % 10);
  4404  001D1A  0E74               	movlw	low _dbuf
  4405  001D1C  25A5               	addwf	dtoa@i& (0+255),w,b
  4406  001D1E  6ED9               	movwf	fsr2l,c
  4407  001D20  0E01               	movlw	high _dbuf
  4408  001D22  21A6               	addwfc	(dtoa@i+1)& (0+255),w,b
  4409  001D24  6EDA               	movwf	fsr2h,c
  4410  001D26  C09D  F066         	movff	dtoa@n,___aomod@dividend
  4411  001D2A  C09E  F067         	movff	dtoa@n+1,___aomod@dividend+1
  4412  001D2E  C09F  F068         	movff	dtoa@n+2,___aomod@dividend+2
  4413  001D32  C0A0  F069         	movff	dtoa@n+3,___aomod@dividend+3
  4414  001D36  C0A1  F06A         	movff	dtoa@n+4,___aomod@dividend+4
  4415  001D3A  C0A2  F06B         	movff	dtoa@n+5,___aomod@dividend+5
  4416  001D3E  C0A3  F06C         	movff	dtoa@n+6,___aomod@dividend+6
  4417  001D42  C0A4  F06D         	movff	dtoa@n+7,___aomod@dividend+7
  4418  001D46  0E0A               	movlw	10
  4419  001D48  6F6E               	movwf	___aomod@divisor& (0+255),b
  4420  001D4A  0E00               	movlw	0
  4421  001D4C  6F6F               	movwf	(___aomod@divisor+1)& (0+255),b
  4422  001D4E  0E00               	movlw	0
  4423  001D50  6F70               	movwf	(___aomod@divisor+2)& (0+255),b
  4424  001D52  0E00               	movlw	0
  4425  001D54  6F71               	movwf	(___aomod@divisor+3)& (0+255),b
  4426  001D56  0E00               	movlw	0
  4427  001D58  6F72               	movwf	(___aomod@divisor+4)& (0+255),b
  4428  001D5A  0E00               	movlw	0
  4429  001D5C  6F73               	movwf	(___aomod@divisor+5)& (0+255),b
  4430  001D5E  0E00               	movlw	0
  4431  001D60  6F74               	movwf	(___aomod@divisor+6)& (0+255),b
  4432  001D62  0E00               	movlw	0
  4433  001D64  6F75               	movwf	(___aomod@divisor+7)& (0+255),b
  4434  001D66  ECED  F014         	call	___aomod	;wreg free
  4435  001D6A  C066  F08D         	movff	?___aomod,??_dtoa
  4436  001D6E  C067  F08E         	movff	?___aomod+1,??_dtoa+1
  4437  001D72  C068  F08F         	movff	?___aomod+2,??_dtoa+2
  4438  001D76  C069  F090         	movff	?___aomod+3,??_dtoa+3
  4439  001D7A  C06A  F091         	movff	?___aomod+4,??_dtoa+4
  4440  001D7E  C06B  F092         	movff	?___aomod+5,??_dtoa+5
  4441  001D82  C06C  F093         	movff	?___aomod+6,??_dtoa+6
  4442  001D86  C06D  F094         	movff	?___aomod+7,??_dtoa+7
  4443  001D8A  C08D  F078         	movff	??_dtoa,abs@a
  4444  001D8E  C08F  F079         	movff	??_dtoa+2,abs@a+1
  4445  001D92  ECD7  F01A         	call	_abs	;wreg free
  4446  001D96  0100               	movlb	0	; () banked
  4447  001D98  5178               	movf	?_abs& (0+255),w,b
  4448  001D9A  0F30               	addlw	48
  4449  001D9C  6EDF               	movwf	indf2,c
  4450  001D9E                     
  4451                           ; BSR set to: 0
  4452                           ;C:\Program Files (x86)\Microchip\xc8\v2.10\pic\sources\c99\common\doprnt.c: 302:       
      +                            --p;
  4453  001D9E  0797               	decf	dtoa@p& (0+255),f,b
  4454  001DA0  A0D8               	btfss	status,0,c
  4455  001DA2  0798               	decf	(dtoa@p+1)& (0+255),f,b
  4456  001DA4                     
  4457                           ; BSR set to: 0
  4458                           ;C:\Program Files (x86)\Microchip\xc8\v2.10\pic\sources\c99\common\doprnt.c: 303:       
      +                            --w;
  4459  001DA4  0799               	decf	dtoa@w& (0+255),f,b
  4460  001DA6  A0D8               	btfss	status,0,c
  4461  001DA8  079A               	decf	(dtoa@w+1)& (0+255),f,b
  4462  001DAA                     
  4463                           ; BSR set to: 0
  4464                           ;C:\Program Files (x86)\Microchip\xc8\v2.10\pic\sources\c99\common\doprnt.c: 304:       
      +                            n = n / 10;
  4465  001DAA  C09D  F066         	movff	dtoa@n,___aodiv@dividend
  4466  001DAE  C09E  F067         	movff	dtoa@n+1,___aodiv@dividend+1
  4467  001DB2  C09F  F068         	movff	dtoa@n+2,___aodiv@dividend+2
  4468  001DB6  C0A0  F069         	movff	dtoa@n+3,___aodiv@dividend+3
  4469  001DBA  C0A1  F06A         	movff	dtoa@n+4,___aodiv@dividend+4
  4470  001DBE  C0A2  F06B         	movff	dtoa@n+5,___aodiv@dividend+5
  4471  001DC2  C0A3  F06C         	movff	dtoa@n+6,___aodiv@dividend+6
  4472  001DC6  C0A4  F06D         	movff	dtoa@n+7,___aodiv@dividend+7
  4473  001DCA  0E0A               	movlw	10
  4474  001DCC  6F6E               	movwf	___aodiv@divisor& (0+255),b
  4475  001DCE  0E00               	movlw	0
  4476  001DD0  6F6F               	movwf	(___aodiv@divisor+1)& (0+255),b
  4477  001DD2  0E00               	movlw	0
  4478  001DD4  6F70               	movwf	(___aodiv@divisor+2)& (0+255),b
  4479  001DD6  0E00               	movlw	0
  4480  001DD8  6F71               	movwf	(___aodiv@divisor+3)& (0+255),b
  4481  001DDA  0E00               	movlw	0
  4482  001DDC  6F72               	movwf	(___aodiv@divisor+4)& (0+255),b
  4483  001DDE  0E00               	movlw	0
  4484  001DE0  6F73               	movwf	(___aodiv@divisor+5)& (0+255),b
  4485  001DE2  0E00               	movlw	0
  4486  001DE4  6F74               	movwf	(___aodiv@divisor+6)& (0+255),b
  4487  001DE6  0E00               	movlw	0
  4488  001DE8  6F75               	movwf	(___aodiv@divisor+7)& (0+255),b
  4489  001DEA  EC6C  F013         	call	___aodiv	;wreg free
  4490  001DEE  C066  F09D         	movff	?___aodiv,dtoa@n
  4491  001DF2  C067  F09E         	movff	?___aodiv+1,dtoa@n+1
  4492  001DF6  C068  F09F         	movff	?___aodiv+2,dtoa@n+2
  4493  001DFA  C069  F0A0         	movff	?___aodiv+3,dtoa@n+3
  4494  001DFE  C06A  F0A1         	movff	?___aodiv+4,dtoa@n+4
  4495  001E02  C06B  F0A2         	movff	?___aodiv+5,dtoa@n+5
  4496  001E06  C06C  F0A3         	movff	?___aodiv+6,dtoa@n+6
  4497  001E0A  C06D  F0A4         	movff	?___aodiv+7,dtoa@n+7
  4498  001E0E                     l6147:
  4499                           
  4500                           ;C:\Program Files (x86)\Microchip\xc8\v2.10\pic\sources\c99\common\doprnt.c: 299:     wh
      +                          ile (!(i < 1) && (n || (0 < p) || ((0 < w) && (flags & (1 << 1))))) {
  4501  001E0E  0100               	movlb	0	; () banked
  4502  001E10  BFA6               	btfsc	(dtoa@i+1)& (0+255),7,b
  4503  001E12  EF13  F00F         	goto	u7091
  4504  001E16  51A6               	movf	(dtoa@i+1)& (0+255),w,b
  4505  001E18  E108               	bnz	u7090
  4506  001E1A  05A5               	decf	dtoa@i& (0+255),w,b
  4507  001E1C  A0D8               	btfss	status,0,c
  4508  001E1E  EF13  F00F         	goto	u7091
  4509  001E22  EF15  F00F         	goto	u7090
  4510  001E26                     u7091:
  4511  001E26  EF45  F00F         	goto	l6157
  4512  001E2A                     u7090:
  4513  001E2A                     
  4514                           ; BSR set to: 0
  4515  001E2A  519D               	movf	dtoa@n& (0+255),w,b
  4516  001E2C  119E               	iorwf	(dtoa@n+1)& (0+255),w,b
  4517  001E2E  119F               	iorwf	(dtoa@n+2)& (0+255),w,b
  4518  001E30  11A0               	iorwf	(dtoa@n+3)& (0+255),w,b
  4519  001E32  11A1               	iorwf	(dtoa@n+4)& (0+255),w,b
  4520  001E34  11A2               	iorwf	(dtoa@n+5)& (0+255),w,b
  4521  001E36  11A3               	iorwf	(dtoa@n+6)& (0+255),w,b
  4522  001E38  11A4               	iorwf	(dtoa@n+7)& (0+255),w,b
  4523  001E3A  A4D8               	btfss	status,2,c
  4524  001E3C  EF22  F00F         	goto	u7101
  4525  001E40  EF24  F00F         	goto	u7100
  4526  001E44                     u7101:
  4527  001E44  EF8A  F00E         	goto	l6137
  4528  001E48                     u7100:
  4529  001E48                     
  4530                           ; BSR set to: 0
  4531  001E48  BF98               	btfsc	(dtoa@p+1)& (0+255),7,b
  4532  001E4A  EF31  F00F         	goto	u7110
  4533  001E4E  5198               	movf	(dtoa@p+1)& (0+255),w,b
  4534  001E50  E106               	bnz	u7111
  4535  001E52  0597               	decf	dtoa@p& (0+255),w,b
  4536  001E54  B0D8               	btfsc	status,0,c
  4537  001E56  EF2F  F00F         	goto	u7111
  4538  001E5A  EF31  F00F         	goto	u7110
  4539  001E5E                     u7111:
  4540  001E5E  EF8A  F00E         	goto	l6137
  4541  001E62                     u7110:
  4542  001E62                     
  4543                           ; BSR set to: 0
  4544  001E62  BF9A               	btfsc	(dtoa@w+1)& (0+255),7,b
  4545  001E64  EF3C  F00F         	goto	u7121
  4546  001E68  519A               	movf	(dtoa@w+1)& (0+255),w,b
  4547  001E6A  E108               	bnz	u7120
  4548  001E6C  0599               	decf	dtoa@w& (0+255),w,b
  4549  001E6E  A0D8               	btfss	status,0,c
  4550  001E70  EF3C  F00F         	goto	u7121
  4551  001E74  EF3E  F00F         	goto	u7120
  4552  001E78                     u7121:
  4553  001E78  EF45  F00F         	goto	l6157
  4554  001E7C                     u7120:
  4555  001E7C                     
  4556                           ; BSR set to: 0
  4557  001E7C  B3DC               	btfsc	_flags& (0+255),1,b
  4558  001E7E  EF43  F00F         	goto	u7131
  4559  001E82  EF45  F00F         	goto	u7130
  4560  001E86                     u7131:
  4561  001E86  EF8A  F00E         	goto	l6137
  4562  001E8A                     u7130:
  4563  001E8A                     l6157:
  4564                           
  4565                           ; BSR set to: 0
  4566                           ;C:\Program Files (x86)\Microchip\xc8\v2.10\pic\sources\c99\common\doprnt.c: 308:     if
      +                           (s || (flags & (1 << 2))) {
  4567  001E8A  519B               	movf	dtoa@s& (0+255),w,b
  4568  001E8C  119C               	iorwf	(dtoa@s+1)& (0+255),w,b
  4569  001E8E  A4D8               	btfss	status,2,c
  4570  001E90  EF4C  F00F         	goto	u7141
  4571  001E94  EF4E  F00F         	goto	u7140
  4572  001E98                     u7141:
  4573  001E98  EF55  F00F         	goto	l6161
  4574  001E9C                     u7140:
  4575  001E9C                     
  4576                           ; BSR set to: 0
  4577  001E9C  A5DC               	btfss	_flags& (0+255),2,b
  4578  001E9E  EF53  F00F         	goto	u7151
  4579  001EA2  EF55  F00F         	goto	u7150
  4580  001EA6                     u7151:
  4581  001EA6  EF73  F00F         	goto	l6171
  4582  001EAA                     u7150:
  4583  001EAA                     l6161:
  4584                           
  4585                           ; BSR set to: 0
  4586                           ;C:\Program Files (x86)\Microchip\xc8\v2.10\pic\sources\c99\common\doprnt.c: 309:       
      +                            --i;
  4587  001EAA  07A5               	decf	dtoa@i& (0+255),f,b
  4588  001EAC  A0D8               	btfss	status,0,c
  4589  001EAE  07A6               	decf	(dtoa@i+1)& (0+255),f,b
  4590  001EB0                     
  4591                           ; BSR set to: 0
  4592                           ;C:\Program Files (x86)\Microchip\xc8\v2.10\pic\sources\c99\common\doprnt.c: 310:       
      +                            dbuf[i] = s ? '-' : '+';
  4593  001EB0  519B               	movf	dtoa@s& (0+255),w,b
  4594  001EB2  119C               	iorwf	(dtoa@s+1)& (0+255),w,b
  4595  001EB4  A4D8               	btfss	status,2,c
  4596  001EB6  EF5F  F00F         	goto	u7161
  4597  001EBA  EF61  F00F         	goto	u7160
  4598  001EBE                     u7161:
  4599  001EBE  EF67  F00F         	goto	l6167
  4600  001EC2                     u7160:
  4601  001EC2                     
  4602                           ; BSR set to: 0
  4603  001EC2  0E00               	movlw	0
  4604  001EC4  6F96               	movwf	(_dtoa$1884+1)& (0+255),b
  4605  001EC6  0E2B               	movlw	43
  4606  001EC8  6F95               	movwf	_dtoa$1884& (0+255),b
  4607  001ECA  EF6B  F00F         	goto	l6169
  4608  001ECE                     l6167:
  4609                           
  4610                           ; BSR set to: 0
  4611  001ECE  0E00               	movlw	0
  4612  001ED0  6F96               	movwf	(_dtoa$1884+1)& (0+255),b
  4613  001ED2  0E2D               	movlw	45
  4614  001ED4  6F95               	movwf	_dtoa$1884& (0+255),b
  4615  001ED6                     l6169:
  4616                           
  4617                           ; BSR set to: 0
  4618  001ED6  0E74               	movlw	low _dbuf
  4619  001ED8  25A5               	addwf	dtoa@i& (0+255),w,b
  4620  001EDA  6ED9               	movwf	fsr2l,c
  4621  001EDC  0E01               	movlw	high _dbuf
  4622  001EDE  21A6               	addwfc	(dtoa@i+1)& (0+255),w,b
  4623  001EE0  6EDA               	movwf	fsr2h,c
  4624  001EE2  C095  FFDF         	movff	_dtoa$1884,indf2
  4625  001EE6                     l6171:
  4626                           
  4627                           ; BSR set to: 0
  4628                           ;C:\Program Files (x86)\Microchip\xc8\v2.10\pic\sources\c99\common\doprnt.c: 314:     re
      +                          turn pad(fp, &dbuf[i], w);
  4629  001EE6  C083  F078         	movff	dtoa@fp,pad@fp
  4630  001EEA  C084  F079         	movff	dtoa@fp+1,pad@fp+1
  4631  001EEE  0E74               	movlw	low _dbuf
  4632  001EF0  25A5               	addwf	dtoa@i& (0+255),w,b
  4633  001EF2  6F7A               	movwf	pad@buf& (0+255),b
  4634  001EF4  0E01               	movlw	high _dbuf
  4635  001EF6  21A6               	addwfc	(dtoa@i+1)& (0+255),w,b
  4636  001EF8  6F7B               	movwf	(pad@buf+1)& (0+255),b
  4637  001EFA  C099  F07C         	movff	dtoa@w,pad@p
  4638  001EFE  C09A  F07D         	movff	dtoa@w+1,pad@p+1
  4639  001F02  EC0E  F017         	call	_pad	;wreg free
  4640  001F06  C078  F083         	movff	?_pad,?_dtoa
  4641  001F0A  C079  F084         	movff	?_pad+1,?_dtoa+1
  4642  001F0E  0012               	return		;funcret
  4643  001F10                     __end_of_dtoa:
  4644                           	opt callstack 0
  4645                           
  4646 ;; *************** function _abs *****************
  4647 ;; Defined at:
  4648 ;;		line 1 in file "C:\Program Files (x86)\Microchip\xc8\v2.10\pic\sources\c99\common\abs.c"
  4649 ;; Parameters:    Size  Location     Type
  4650 ;;  a               2   24[BANK0 ] int 
  4651 ;; Auto vars:     Size  Location     Type
  4652 ;;		None
  4653 ;; Return value:  Size  Location     Type
  4654 ;;                  2   24[BANK0 ] int 
  4655 ;; Registers used:
  4656 ;;		wreg, status,2, status,0
  4657 ;; Tracked objects:
  4658 ;;		On entry : 0/0
  4659 ;;		On exit  : 0/0
  4660 ;;		Unchanged: 0/0
  4661 ;; Data sizes:     COMRAM   BANK0   BANK1   BANK2   BANK3   BANK4   BANK5
  4662 ;;      Params:         0       2       0       0       0       0       0
  4663 ;;      Locals:         0       0       0       0       0       0       0
  4664 ;;      Temps:          0       2       0       0       0       0       0
  4665 ;;      Totals:         0       4       0       0       0       0       0
  4666 ;;Total ram usage:        4 bytes
  4667 ;; Hardware stack levels used:    1
  4668 ;; Hardware stack levels required when called:    4
  4669 ;; This function calls:
  4670 ;;		Nothing
  4671 ;; This function is called by:
  4672 ;;		_dtoa
  4673 ;; This function uses a non-reentrant model
  4674 ;;
  4675                           
  4676                           	psect	text7
  4677  0035AE                     __ptext7:
  4678                           	opt callstack 0
  4679  0035AE                     _abs:
  4680                           	opt callstack 22
  4681  0035AE  0100               	movlb	0	; () banked
  4682  0035B0  BF79               	btfsc	(abs@a+1)& (0+255),7,b
  4683  0035B2  EFE5  F01A         	goto	u6710
  4684  0035B6  5179               	movf	(abs@a+1)& (0+255),w,b
  4685  0035B8  E106               	bnz	u6711
  4686  0035BA  0578               	decf	abs@a& (0+255),w,b
  4687  0035BC  B0D8               	btfsc	status,0,c
  4688  0035BE  EFE3  F01A         	goto	u6711
  4689  0035C2  EFE5  F01A         	goto	u6710
  4690  0035C6                     u6711:
  4691  0035C6  EFF3  F01A         	goto	l1629
  4692  0035CA                     u6710:
  4693  0035CA                     
  4694                           ; BSR set to: 0
  4695  0035CA  C078  F07A         	movff	abs@a,??_abs
  4696  0035CE  C079  F07B         	movff	abs@a+1,??_abs+1
  4697  0035D2  1F7A               	comf	??_abs& (0+255),f,b
  4698  0035D4  1F7B               	comf	(??_abs+1)& (0+255),f,b
  4699  0035D6  4B7A               	infsnz	??_abs& (0+255),f,b
  4700  0035D8  2B7B               	incf	(??_abs+1)& (0+255),f,b
  4701  0035DA  C07A  F078         	movff	??_abs,?_abs
  4702  0035DE  C07B  F079         	movff	??_abs+1,?_abs+1
  4703  0035E2  EFF7  F01A         	goto	l1632
  4704  0035E6                     l1629:
  4705                           
  4706                           ; BSR set to: 0
  4707  0035E6  C078  F078         	movff	abs@a,?_abs
  4708  0035EA  C079  F079         	movff	abs@a+1,?_abs+1
  4709  0035EE                     l1632:
  4710                           
  4711                           ; BSR set to: 0
  4712  0035EE  0012               	return		;funcret
  4713  0035F0                     __end_of_abs:
  4714                           	opt callstack 0
  4715                           
  4716 ;; *************** function ___aomod *****************
  4717 ;; Defined at:
  4718 ;;		line 9 in file "C:\Program Files (x86)\Microchip\xc8\v2.10\pic\sources\c99\common\aomod.c"
  4719 ;; Parameters:    Size  Location     Type
  4720 ;;  dividend        8    6[BANK0 ] long long 
  4721 ;;  divisor         8   14[BANK0 ] long long 
  4722 ;; Auto vars:     Size  Location     Type
  4723 ;;  sign            1   23[BANK0 ] unsigned char 
  4724 ;;  counter         1   22[BANK0 ] unsigned char 
  4725 ;; Return value:  Size  Location     Type
  4726 ;;                  8    6[BANK0 ] long long 
  4727 ;; Registers used:
  4728 ;;		wreg, status,2, status,0
  4729 ;; Tracked objects:
  4730 ;;		On entry : 0/0
  4731 ;;		On exit  : 0/0
  4732 ;;		Unchanged: 0/0
  4733 ;; Data sizes:     COMRAM   BANK0   BANK1   BANK2   BANK3   BANK4   BANK5
  4734 ;;      Params:         0      16       0       0       0       0       0
  4735 ;;      Locals:         0       2       0       0       0       0       0
  4736 ;;      Temps:          0       0       0       0       0       0       0
  4737 ;;      Totals:         0      18       0       0       0       0       0
  4738 ;;Total ram usage:       18 bytes
  4739 ;; Hardware stack levels used:    1
  4740 ;; Hardware stack levels required when called:    4
  4741 ;; This function calls:
  4742 ;;		Nothing
  4743 ;; This function is called by:
  4744 ;;		_dtoa
  4745 ;; This function uses a non-reentrant model
  4746 ;;
  4747                           
  4748                           	psect	text8
  4749  0029DA                     __ptext8:
  4750                           	opt callstack 0
  4751  0029DA                     ___aomod:
  4752                           	opt callstack 22
  4753  0029DA  0E00               	movlw	0
  4754  0029DC  0100               	movlb	0	; () banked
  4755  0029DE  6F77               	movwf	___aomod@sign& (0+255),b
  4756  0029E0                     
  4757                           ; BSR set to: 0
  4758  0029E0  BF6D               	btfsc	(___aomod@dividend+7)& (0+255),7,b
  4759  0029E2  EFF7  F014         	goto	u6810
  4760  0029E6  EFF5  F014         	goto	u6811
  4761  0029EA                     u6811:
  4762  0029EA  EF09  F015         	goto	l6013
  4763  0029EE                     u6810:
  4764  0029EE                     
  4765                           ; BSR set to: 0
  4766  0029EE  1F6D               	comf	(___aomod@dividend+7)& (0+255),f,b
  4767  0029F0  1F6C               	comf	(___aomod@dividend+6)& (0+255),f,b
  4768  0029F2  1F6B               	comf	(___aomod@dividend+5)& (0+255),f,b
  4769  0029F4  1F6A               	comf	(___aomod@dividend+4)& (0+255),f,b
  4770  0029F6  1F69               	comf	(___aomod@dividend+3)& (0+255),f,b
  4771  0029F8  1F68               	comf	(___aomod@dividend+2)& (0+255),f,b
  4772  0029FA  1F67               	comf	(___aomod@dividend+1)& (0+255),f,b
  4773  0029FC  6D66               	negf	___aomod@dividend& (0+255),b
  4774  0029FE  0E00               	movlw	0
  4775  002A00  2367               	addwfc	(___aomod@dividend+1)& (0+255),f,b
  4776  002A02  2368               	addwfc	(___aomod@dividend+2)& (0+255),f,b
  4777  002A04  2369               	addwfc	(___aomod@dividend+3)& (0+255),f,b
  4778  002A06  236A               	addwfc	(___aomod@dividend+4)& (0+255),f,b
  4779  002A08  236B               	addwfc	(___aomod@dividend+5)& (0+255),f,b
  4780  002A0A  236C               	addwfc	(___aomod@dividend+6)& (0+255),f,b
  4781  002A0C  236D               	addwfc	(___aomod@dividend+7)& (0+255),f,b
  4782  002A0E                     
  4783                           ; BSR set to: 0
  4784  002A0E  0E01               	movlw	1
  4785  002A10  6F77               	movwf	___aomod@sign& (0+255),b
  4786  002A12                     l6013:
  4787                           
  4788                           ; BSR set to: 0
  4789  002A12  BF75               	btfsc	(___aomod@divisor+7)& (0+255),7,b
  4790  002A14  EF10  F015         	goto	u6820
  4791  002A18  EF0E  F015         	goto	u6821
  4792  002A1C                     u6821:
  4793  002A1C  EF20  F015         	goto	l6017
  4794  002A20                     u6820:
  4795  002A20                     
  4796                           ; BSR set to: 0
  4797  002A20  1F75               	comf	(___aomod@divisor+7)& (0+255),f,b
  4798  002A22  1F74               	comf	(___aomod@divisor+6)& (0+255),f,b
  4799  002A24  1F73               	comf	(___aomod@divisor+5)& (0+255),f,b
  4800  002A26  1F72               	comf	(___aomod@divisor+4)& (0+255),f,b
  4801  002A28  1F71               	comf	(___aomod@divisor+3)& (0+255),f,b
  4802  002A2A  1F70               	comf	(___aomod@divisor+2)& (0+255),f,b
  4803  002A2C  1F6F               	comf	(___aomod@divisor+1)& (0+255),f,b
  4804  002A2E  6D6E               	negf	___aomod@divisor& (0+255),b
  4805  002A30  0E00               	movlw	0
  4806  002A32  236F               	addwfc	(___aomod@divisor+1)& (0+255),f,b
  4807  002A34  2370               	addwfc	(___aomod@divisor+2)& (0+255),f,b
  4808  002A36  2371               	addwfc	(___aomod@divisor+3)& (0+255),f,b
  4809  002A38  2372               	addwfc	(___aomod@divisor+4)& (0+255),f,b
  4810  002A3A  2373               	addwfc	(___aomod@divisor+5)& (0+255),f,b
  4811  002A3C  2374               	addwfc	(___aomod@divisor+6)& (0+255),f,b
  4812  002A3E  2375               	addwfc	(___aomod@divisor+7)& (0+255),f,b
  4813  002A40                     l6017:
  4814                           
  4815                           ; BSR set to: 0
  4816  002A40  516E               	movf	___aomod@divisor& (0+255),w,b
  4817  002A42  116F               	iorwf	(___aomod@divisor+1)& (0+255),w,b
  4818  002A44  1170               	iorwf	(___aomod@divisor+2)& (0+255),w,b
  4819  002A46  1171               	iorwf	(___aomod@divisor+3)& (0+255),w,b
  4820  002A48  1172               	iorwf	(___aomod@divisor+4)& (0+255),w,b
  4821  002A4A  1173               	iorwf	(___aomod@divisor+5)& (0+255),w,b
  4822  002A4C  1174               	iorwf	(___aomod@divisor+6)& (0+255),w,b
  4823  002A4E  1175               	iorwf	(___aomod@divisor+7)& (0+255),w,b
  4824  002A50  B4D8               	btfsc	status,2,c
  4825  002A52  EF2D  F015         	goto	u6831
  4826  002A56  EF2F  F015         	goto	u6830
  4827  002A5A                     u6831:
  4828  002A5A  EF77  F015         	goto	l6033
  4829  002A5E                     u6830:
  4830  002A5E                     
  4831                           ; BSR set to: 0
  4832  002A5E  0E01               	movlw	1
  4833  002A60  6F76               	movwf	___aomod@counter& (0+255),b
  4834  002A62  EF3D  F015         	goto	l6023
  4835  002A66                     l6021:
  4836                           
  4837                           ; BSR set to: 0
  4838  002A66  90D8               	bcf	status,0,c
  4839  002A68  376E               	rlcf	___aomod@divisor& (0+255),f,b
  4840  002A6A  376F               	rlcf	(___aomod@divisor+1)& (0+255),f,b
  4841  002A6C  3770               	rlcf	(___aomod@divisor+2)& (0+255),f,b
  4842  002A6E  3771               	rlcf	(___aomod@divisor+3)& (0+255),f,b
  4843  002A70  3772               	rlcf	(___aomod@divisor+4)& (0+255),f,b
  4844  002A72  3773               	rlcf	(___aomod@divisor+5)& (0+255),f,b
  4845  002A74  3774               	rlcf	(___aomod@divisor+6)& (0+255),f,b
  4846  002A76  3775               	rlcf	(___aomod@divisor+7)& (0+255),f,b
  4847  002A78  2B76               	incf	___aomod@counter& (0+255),f,b
  4848  002A7A                     l6023:
  4849                           
  4850                           ; BSR set to: 0
  4851  002A7A  AF75               	btfss	(___aomod@divisor+7)& (0+255),7,b
  4852  002A7C  EF42  F015         	goto	u6841
  4853  002A80  EF44  F015         	goto	u6840
  4854  002A84                     u6841:
  4855  002A84  EF33  F015         	goto	l6021
  4856  002A88                     u6840:
  4857  002A88                     l6025:
  4858                           
  4859                           ; BSR set to: 0
  4860  002A88  516E               	movf	___aomod@divisor& (0+255),w,b
  4861  002A8A  5D66               	subwf	___aomod@dividend& (0+255),w,b
  4862  002A8C  516F               	movf	(___aomod@divisor+1)& (0+255),w,b
  4863  002A8E  5967               	subwfb	(___aomod@dividend+1)& (0+255),w,b
  4864  002A90  5170               	movf	(___aomod@divisor+2)& (0+255),w,b
  4865  002A92  5968               	subwfb	(___aomod@dividend+2)& (0+255),w,b
  4866  002A94  5171               	movf	(___aomod@divisor+3)& (0+255),w,b
  4867  002A96  5969               	subwfb	(___aomod@dividend+3)& (0+255),w,b
  4868  002A98  5172               	movf	(___aomod@divisor+4)& (0+255),w,b
  4869  002A9A  596A               	subwfb	(___aomod@dividend+4)& (0+255),w,b
  4870  002A9C  5173               	movf	(___aomod@divisor+5)& (0+255),w,b
  4871  002A9E  596B               	subwfb	(___aomod@dividend+5)& (0+255),w,b
  4872  002AA0  5174               	movf	(___aomod@divisor+6)& (0+255),w,b
  4873  002AA2  596C               	subwfb	(___aomod@dividend+6)& (0+255),w,b
  4874  002AA4  5175               	movf	(___aomod@divisor+7)& (0+255),w,b
  4875  002AA6  596D               	subwfb	(___aomod@dividend+7)& (0+255),w,b
  4876  002AA8  A0D8               	btfss	status,0,c
  4877  002AAA  EF59  F015         	goto	u6851
  4878  002AAE  EF5B  F015         	goto	u6850
  4879  002AB2                     u6851:
  4880  002AB2  EF6B  F015         	goto	l6029
  4881  002AB6                     u6850:
  4882  002AB6                     
  4883                           ; BSR set to: 0
  4884  002AB6  516E               	movf	___aomod@divisor& (0+255),w,b
  4885  002AB8  5F66               	subwf	___aomod@dividend& (0+255),f,b
  4886  002ABA  516F               	movf	(___aomod@divisor+1)& (0+255),w,b
  4887  002ABC  5B67               	subwfb	(___aomod@dividend+1)& (0+255),f,b
  4888  002ABE  5170               	movf	(___aomod@divisor+2)& (0+255),w,b
  4889  002AC0  5B68               	subwfb	(___aomod@dividend+2)& (0+255),f,b
  4890  002AC2  5171               	movf	(___aomod@divisor+3)& (0+255),w,b
  4891  002AC4  5B69               	subwfb	(___aomod@dividend+3)& (0+255),f,b
  4892  002AC6  5172               	movf	(___aomod@divisor+4)& (0+255),w,b
  4893  002AC8  5B6A               	subwfb	(___aomod@dividend+4)& (0+255),f,b
  4894  002ACA  5173               	movf	(___aomod@divisor+5)& (0+255),w,b
  4895  002ACC  5B6B               	subwfb	(___aomod@dividend+5)& (0+255),f,b
  4896  002ACE  5174               	movf	(___aomod@divisor+6)& (0+255),w,b
  4897  002AD0  5B6C               	subwfb	(___aomod@dividend+6)& (0+255),f,b
  4898  002AD2  5175               	movf	(___aomod@divisor+7)& (0+255),w,b
  4899  002AD4  5B6D               	subwfb	(___aomod@dividend+7)& (0+255),f,b
  4900  002AD6                     l6029:
  4901                           
  4902                           ; BSR set to: 0
  4903  002AD6  90D8               	bcf	status,0,c
  4904  002AD8  3375               	rrcf	(___aomod@divisor+7)& (0+255),f,b
  4905  002ADA  3374               	rrcf	(___aomod@divisor+6)& (0+255),f,b
  4906  002ADC  3373               	rrcf	(___aomod@divisor+5)& (0+255),f,b
  4907  002ADE  3372               	rrcf	(___aomod@divisor+4)& (0+255),f,b
  4908  002AE0  3371               	rrcf	(___aomod@divisor+3)& (0+255),f,b
  4909  002AE2  3370               	rrcf	(___aomod@divisor+2)& (0+255),f,b
  4910  002AE4  336F               	rrcf	(___aomod@divisor+1)& (0+255),f,b
  4911  002AE6  336E               	rrcf	___aomod@divisor& (0+255),f,b
  4912  002AE8                     
  4913                           ; BSR set to: 0
  4914  002AE8  2F76               	decfsz	___aomod@counter& (0+255),f,b
  4915  002AEA  EF44  F015         	goto	l6025
  4916  002AEE                     l6033:
  4917                           
  4918                           ; BSR set to: 0
  4919  002AEE  5177               	movf	___aomod@sign& (0+255),w,b
  4920  002AF0  B4D8               	btfsc	status,2,c
  4921  002AF2  EF7D  F015         	goto	u6861
  4922  002AF6  EF7F  F015         	goto	u6860
  4923  002AFA                     u6861:
  4924  002AFA  EF8F  F015         	goto	l6037
  4925  002AFE                     u6860:
  4926  002AFE                     
  4927                           ; BSR set to: 0
  4928  002AFE  1F6D               	comf	(___aomod@dividend+7)& (0+255),f,b
  4929  002B00  1F6C               	comf	(___aomod@dividend+6)& (0+255),f,b
  4930  002B02  1F6B               	comf	(___aomod@dividend+5)& (0+255),f,b
  4931  002B04  1F6A               	comf	(___aomod@dividend+4)& (0+255),f,b
  4932  002B06  1F69               	comf	(___aomod@dividend+3)& (0+255),f,b
  4933  002B08  1F68               	comf	(___aomod@dividend+2)& (0+255),f,b
  4934  002B0A  1F67               	comf	(___aomod@dividend+1)& (0+255),f,b
  4935  002B0C  6D66               	negf	___aomod@dividend& (0+255),b
  4936  002B0E  0E00               	movlw	0
  4937  002B10  2367               	addwfc	(___aomod@dividend+1)& (0+255),f,b
  4938  002B12  2368               	addwfc	(___aomod@dividend+2)& (0+255),f,b
  4939  002B14  2369               	addwfc	(___aomod@dividend+3)& (0+255),f,b
  4940  002B16  236A               	addwfc	(___aomod@dividend+4)& (0+255),f,b
  4941  002B18  236B               	addwfc	(___aomod@dividend+5)& (0+255),f,b
  4942  002B1A  236C               	addwfc	(___aomod@dividend+6)& (0+255),f,b
  4943  002B1C  236D               	addwfc	(___aomod@dividend+7)& (0+255),f,b
  4944  002B1E                     l6037:
  4945                           
  4946                           ; BSR set to: 0
  4947  002B1E  C066  F066         	movff	___aomod@dividend,?___aomod
  4948  002B22  C067  F067         	movff	___aomod@dividend+1,?___aomod+1
  4949  002B26  C068  F068         	movff	___aomod@dividend+2,?___aomod+2
  4950  002B2A  C069  F069         	movff	___aomod@dividend+3,?___aomod+3
  4951  002B2E  C06A  F06A         	movff	___aomod@dividend+4,?___aomod+4
  4952  002B32  C06B  F06B         	movff	___aomod@dividend+5,?___aomod+5
  4953  002B36  C06C  F06C         	movff	___aomod@dividend+6,?___aomod+6
  4954  002B3A  C06D  F06D         	movff	___aomod@dividend+7,?___aomod+7
  4955  002B3E                     
  4956                           ; BSR set to: 0
  4957  002B3E  0012               	return		;funcret
  4958  002B40                     __end_of___aomod:
  4959                           	opt callstack 0
  4960                           
  4961 ;; *************** function ___aodiv *****************
  4962 ;; Defined at:
  4963 ;;		line 9 in file "C:\Program Files (x86)\Microchip\xc8\v2.10\pic\sources\c99\common\aodiv.c"
  4964 ;; Parameters:    Size  Location     Type
  4965 ;;  dividend        8    6[BANK0 ] long long 
  4966 ;;  divisor         8   14[BANK0 ] long long 
  4967 ;; Auto vars:     Size  Location     Type
  4968 ;;  quotient        8   24[BANK0 ] long long 
  4969 ;;  sign            1   23[BANK0 ] unsigned char 
  4970 ;;  counter         1   22[BANK0 ] unsigned char 
  4971 ;; Return value:  Size  Location     Type
  4972 ;;                  8    6[BANK0 ] long long 
  4973 ;; Registers used:
  4974 ;;		wreg, fsr2l, fsr2h, status,2, status,0
  4975 ;; Tracked objects:
  4976 ;;		On entry : 0/0
  4977 ;;		On exit  : 0/0
  4978 ;;		Unchanged: 0/0
  4979 ;; Data sizes:     COMRAM   BANK0   BANK1   BANK2   BANK3   BANK4   BANK5
  4980 ;;      Params:         0      16       0       0       0       0       0
  4981 ;;      Locals:         0      10       0       0       0       0       0
  4982 ;;      Temps:          0       0       0       0       0       0       0
  4983 ;;      Totals:         0      26       0       0       0       0       0
  4984 ;;Total ram usage:       26 bytes
  4985 ;; Hardware stack levels used:    1
  4986 ;; Hardware stack levels required when called:    4
  4987 ;; This function calls:
  4988 ;;		Nothing
  4989 ;; This function is called by:
  4990 ;;		_dtoa
  4991 ;; This function uses a non-reentrant model
  4992 ;;
  4993                           
  4994                           	psect	text9
  4995  0026D8                     __ptext9:
  4996                           	opt callstack 0
  4997  0026D8                     ___aodiv:
  4998                           	opt callstack 22
  4999  0026D8  0E00               	movlw	0
  5000  0026DA  0100               	movlb	0	; () banked
  5001  0026DC  6F77               	movwf	___aodiv@sign& (0+255),b
  5002  0026DE                     
  5003                           ; BSR set to: 0
  5004  0026DE  BF75               	btfsc	(___aodiv@divisor+7)& (0+255),7,b
  5005  0026E0  EF76  F013         	goto	u6740
  5006  0026E4  EF74  F013         	goto	u6741
  5007  0026E8                     u6741:
  5008  0026E8  EF88  F013         	goto	l5969
  5009  0026EC                     u6740:
  5010  0026EC                     
  5011                           ; BSR set to: 0
  5012  0026EC  1F75               	comf	(___aodiv@divisor+7)& (0+255),f,b
  5013  0026EE  1F74               	comf	(___aodiv@divisor+6)& (0+255),f,b
  5014  0026F0  1F73               	comf	(___aodiv@divisor+5)& (0+255),f,b
  5015  0026F2  1F72               	comf	(___aodiv@divisor+4)& (0+255),f,b
  5016  0026F4  1F71               	comf	(___aodiv@divisor+3)& (0+255),f,b
  5017  0026F6  1F70               	comf	(___aodiv@divisor+2)& (0+255),f,b
  5018  0026F8  1F6F               	comf	(___aodiv@divisor+1)& (0+255),f,b
  5019  0026FA  6D6E               	negf	___aodiv@divisor& (0+255),b
  5020  0026FC  0E00               	movlw	0
  5021  0026FE  236F               	addwfc	(___aodiv@divisor+1)& (0+255),f,b
  5022  002700  2370               	addwfc	(___aodiv@divisor+2)& (0+255),f,b
  5023  002702  2371               	addwfc	(___aodiv@divisor+3)& (0+255),f,b
  5024  002704  2372               	addwfc	(___aodiv@divisor+4)& (0+255),f,b
  5025  002706  2373               	addwfc	(___aodiv@divisor+5)& (0+255),f,b
  5026  002708  2374               	addwfc	(___aodiv@divisor+6)& (0+255),f,b
  5027  00270A  2375               	addwfc	(___aodiv@divisor+7)& (0+255),f,b
  5028  00270C                     
  5029                           ; BSR set to: 0
  5030  00270C  0E01               	movlw	1
  5031  00270E  6F77               	movwf	___aodiv@sign& (0+255),b
  5032  002710                     l5969:
  5033                           
  5034                           ; BSR set to: 0
  5035  002710  BF6D               	btfsc	(___aodiv@dividend+7)& (0+255),7,b
  5036  002712  EF8F  F013         	goto	u6750
  5037  002716  EF8D  F013         	goto	u6751
  5038  00271A                     u6751:
  5039  00271A  EFA1  F013         	goto	l5975
  5040  00271E                     u6750:
  5041  00271E                     
  5042                           ; BSR set to: 0
  5043  00271E  1F6D               	comf	(___aodiv@dividend+7)& (0+255),f,b
  5044  002720  1F6C               	comf	(___aodiv@dividend+6)& (0+255),f,b
  5045  002722  1F6B               	comf	(___aodiv@dividend+5)& (0+255),f,b
  5046  002724  1F6A               	comf	(___aodiv@dividend+4)& (0+255),f,b
  5047  002726  1F69               	comf	(___aodiv@dividend+3)& (0+255),f,b
  5048  002728  1F68               	comf	(___aodiv@dividend+2)& (0+255),f,b
  5049  00272A  1F67               	comf	(___aodiv@dividend+1)& (0+255),f,b
  5050  00272C  6D66               	negf	___aodiv@dividend& (0+255),b
  5051  00272E  0E00               	movlw	0
  5052  002730  2367               	addwfc	(___aodiv@dividend+1)& (0+255),f,b
  5053  002732  2368               	addwfc	(___aodiv@dividend+2)& (0+255),f,b
  5054  002734  2369               	addwfc	(___aodiv@dividend+3)& (0+255),f,b
  5055  002736  236A               	addwfc	(___aodiv@dividend+4)& (0+255),f,b
  5056  002738  236B               	addwfc	(___aodiv@dividend+5)& (0+255),f,b
  5057  00273A  236C               	addwfc	(___aodiv@dividend+6)& (0+255),f,b
  5058  00273C  236D               	addwfc	(___aodiv@dividend+7)& (0+255),f,b
  5059  00273E                     
  5060                           ; BSR set to: 0
  5061  00273E  0E01               	movlw	1
  5062  002740  1B77               	xorwf	___aodiv@sign& (0+255),f,b
  5063  002742                     l5975:
  5064                           
  5065                           ; BSR set to: 0
  5066  002742  EE20  F078         	lfsr	2,___aodiv@quotient
  5067  002746  0E07               	movlw	7
  5068  002748                     u6761:
  5069  002748  6ADE               	clrf	postinc2,c
  5070  00274A  06E8               	decf	wreg,f,c
  5071  00274C  E2FD               	bc	u6761
  5072  00274E                     
  5073                           ; BSR set to: 0
  5074  00274E  516E               	movf	___aodiv@divisor& (0+255),w,b
  5075  002750  116F               	iorwf	(___aodiv@divisor+1)& (0+255),w,b
  5076  002752  1170               	iorwf	(___aodiv@divisor+2)& (0+255),w,b
  5077  002754  1171               	iorwf	(___aodiv@divisor+3)& (0+255),w,b
  5078  002756  1172               	iorwf	(___aodiv@divisor+4)& (0+255),w,b
  5079  002758  1173               	iorwf	(___aodiv@divisor+5)& (0+255),w,b
  5080  00275A  1174               	iorwf	(___aodiv@divisor+6)& (0+255),w,b
  5081  00275C  1175               	iorwf	(___aodiv@divisor+7)& (0+255),w,b
  5082  00275E  B4D8               	btfsc	status,2,c
  5083  002760  EFB4  F013         	goto	u6771
  5084  002764  EFB6  F013         	goto	u6770
  5085  002768                     u6771:
  5086  002768  EF08  F014         	goto	l5997
  5087  00276C                     u6770:
  5088  00276C                     
  5089                           ; BSR set to: 0
  5090  00276C  0E01               	movlw	1
  5091  00276E  6F76               	movwf	___aodiv@counter& (0+255),b
  5092  002770  EFC4  F013         	goto	l5983
  5093  002774                     l5981:
  5094                           
  5095                           ; BSR set to: 0
  5096  002774  90D8               	bcf	status,0,c
  5097  002776  376E               	rlcf	___aodiv@divisor& (0+255),f,b
  5098  002778  376F               	rlcf	(___aodiv@divisor+1)& (0+255),f,b
  5099  00277A  3770               	rlcf	(___aodiv@divisor+2)& (0+255),f,b
  5100  00277C  3771               	rlcf	(___aodiv@divisor+3)& (0+255),f,b
  5101  00277E  3772               	rlcf	(___aodiv@divisor+4)& (0+255),f,b
  5102  002780  3773               	rlcf	(___aodiv@divisor+5)& (0+255),f,b
  5103  002782  3774               	rlcf	(___aodiv@divisor+6)& (0+255),f,b
  5104  002784  3775               	rlcf	(___aodiv@divisor+7)& (0+255),f,b
  5105  002786  2B76               	incf	___aodiv@counter& (0+255),f,b
  5106  002788                     l5983:
  5107                           
  5108                           ; BSR set to: 0
  5109  002788  AF75               	btfss	(___aodiv@divisor+7)& (0+255),7,b
  5110  00278A  EFC9  F013         	goto	u6781
  5111  00278E  EFCB  F013         	goto	u6780
  5112  002792                     u6781:
  5113  002792  EFBA  F013         	goto	l5981
  5114  002796                     u6780:
  5115  002796                     l5985:
  5116                           
  5117                           ; BSR set to: 0
  5118  002796  90D8               	bcf	status,0,c
  5119  002798  3778               	rlcf	___aodiv@quotient& (0+255),f,b
  5120  00279A  3779               	rlcf	(___aodiv@quotient+1)& (0+255),f,b
  5121  00279C  377A               	rlcf	(___aodiv@quotient+2)& (0+255),f,b
  5122  00279E  377B               	rlcf	(___aodiv@quotient+3)& (0+255),f,b
  5123  0027A0  377C               	rlcf	(___aodiv@quotient+4)& (0+255),f,b
  5124  0027A2  377D               	rlcf	(___aodiv@quotient+5)& (0+255),f,b
  5125  0027A4  377E               	rlcf	(___aodiv@quotient+6)& (0+255),f,b
  5126  0027A6  377F               	rlcf	(___aodiv@quotient+7)& (0+255),f,b
  5127  0027A8                     
  5128                           ; BSR set to: 0
  5129  0027A8  516E               	movf	___aodiv@divisor& (0+255),w,b
  5130  0027AA  5D66               	subwf	___aodiv@dividend& (0+255),w,b
  5131  0027AC  516F               	movf	(___aodiv@divisor+1)& (0+255),w,b
  5132  0027AE  5967               	subwfb	(___aodiv@dividend+1)& (0+255),w,b
  5133  0027B0  5170               	movf	(___aodiv@divisor+2)& (0+255),w,b
  5134  0027B2  5968               	subwfb	(___aodiv@dividend+2)& (0+255),w,b
  5135  0027B4  5171               	movf	(___aodiv@divisor+3)& (0+255),w,b
  5136  0027B6  5969               	subwfb	(___aodiv@dividend+3)& (0+255),w,b
  5137  0027B8  5172               	movf	(___aodiv@divisor+4)& (0+255),w,b
  5138  0027BA  596A               	subwfb	(___aodiv@dividend+4)& (0+255),w,b
  5139  0027BC  5173               	movf	(___aodiv@divisor+5)& (0+255),w,b
  5140  0027BE  596B               	subwfb	(___aodiv@dividend+5)& (0+255),w,b
  5141  0027C0  5174               	movf	(___aodiv@divisor+6)& (0+255),w,b
  5142  0027C2  596C               	subwfb	(___aodiv@dividend+6)& (0+255),w,b
  5143  0027C4  5175               	movf	(___aodiv@divisor+7)& (0+255),w,b
  5144  0027C6  596D               	subwfb	(___aodiv@dividend+7)& (0+255),w,b
  5145  0027C8  A0D8               	btfss	status,0,c
  5146  0027CA  EFE9  F013         	goto	u6791
  5147  0027CE  EFEB  F013         	goto	u6790
  5148  0027D2                     u6791:
  5149  0027D2  EFFC  F013         	goto	l5993
  5150  0027D6                     u6790:
  5151  0027D6                     
  5152                           ; BSR set to: 0
  5153  0027D6  516E               	movf	___aodiv@divisor& (0+255),w,b
  5154  0027D8  5F66               	subwf	___aodiv@dividend& (0+255),f,b
  5155  0027DA  516F               	movf	(___aodiv@divisor+1)& (0+255),w,b
  5156  0027DC  5B67               	subwfb	(___aodiv@dividend+1)& (0+255),f,b
  5157  0027DE  5170               	movf	(___aodiv@divisor+2)& (0+255),w,b
  5158  0027E0  5B68               	subwfb	(___aodiv@dividend+2)& (0+255),f,b
  5159  0027E2  5171               	movf	(___aodiv@divisor+3)& (0+255),w,b
  5160  0027E4  5B69               	subwfb	(___aodiv@dividend+3)& (0+255),f,b
  5161  0027E6  5172               	movf	(___aodiv@divisor+4)& (0+255),w,b
  5162  0027E8  5B6A               	subwfb	(___aodiv@dividend+4)& (0+255),f,b
  5163  0027EA  5173               	movf	(___aodiv@divisor+5)& (0+255),w,b
  5164  0027EC  5B6B               	subwfb	(___aodiv@dividend+5)& (0+255),f,b
  5165  0027EE  5174               	movf	(___aodiv@divisor+6)& (0+255),w,b
  5166  0027F0  5B6C               	subwfb	(___aodiv@dividend+6)& (0+255),f,b
  5167  0027F2  5175               	movf	(___aodiv@divisor+7)& (0+255),w,b
  5168  0027F4  5B6D               	subwfb	(___aodiv@dividend+7)& (0+255),f,b
  5169  0027F6                     
  5170                           ; BSR set to: 0
  5171  0027F6  8178               	bsf	___aodiv@quotient& (0+255),0,b
  5172  0027F8                     l5993:
  5173                           
  5174                           ; BSR set to: 0
  5175  0027F8  90D8               	bcf	status,0,c
  5176  0027FA  3375               	rrcf	(___aodiv@divisor+7)& (0+255),f,b
  5177  0027FC  3374               	rrcf	(___aodiv@divisor+6)& (0+255),f,b
  5178  0027FE  3373               	rrcf	(___aodiv@divisor+5)& (0+255),f,b
  5179  002800  3372               	rrcf	(___aodiv@divisor+4)& (0+255),f,b
  5180  002802  3371               	rrcf	(___aodiv@divisor+3)& (0+255),f,b
  5181  002804  3370               	rrcf	(___aodiv@divisor+2)& (0+255),f,b
  5182  002806  336F               	rrcf	(___aodiv@divisor+1)& (0+255),f,b
  5183  002808  336E               	rrcf	___aodiv@divisor& (0+255),f,b
  5184  00280A                     
  5185                           ; BSR set to: 0
  5186  00280A  2F76               	decfsz	___aodiv@counter& (0+255),f,b
  5187  00280C  EFCB  F013         	goto	l5985
  5188  002810                     l5997:
  5189                           
  5190                           ; BSR set to: 0
  5191  002810  5177               	movf	___aodiv@sign& (0+255),w,b
  5192  002812  B4D8               	btfsc	status,2,c
  5193  002814  EF0E  F014         	goto	u6801
  5194  002818  EF10  F014         	goto	u6800
  5195  00281C                     u6801:
  5196  00281C  EF20  F014         	goto	l6001
  5197  002820                     u6800:
  5198  002820                     
  5199                           ; BSR set to: 0
  5200  002820  1F7F               	comf	(___aodiv@quotient+7)& (0+255),f,b
  5201  002822  1F7E               	comf	(___aodiv@quotient+6)& (0+255),f,b
  5202  002824  1F7D               	comf	(___aodiv@quotient+5)& (0+255),f,b
  5203  002826  1F7C               	comf	(___aodiv@quotient+4)& (0+255),f,b
  5204  002828  1F7B               	comf	(___aodiv@quotient+3)& (0+255),f,b
  5205  00282A  1F7A               	comf	(___aodiv@quotient+2)& (0+255),f,b
  5206  00282C  1F79               	comf	(___aodiv@quotient+1)& (0+255),f,b
  5207  00282E  6D78               	negf	___aodiv@quotient& (0+255),b
  5208  002830  0E00               	movlw	0
  5209  002832  2379               	addwfc	(___aodiv@quotient+1)& (0+255),f,b
  5210  002834  237A               	addwfc	(___aodiv@quotient+2)& (0+255),f,b
  5211  002836  237B               	addwfc	(___aodiv@quotient+3)& (0+255),f,b
  5212  002838  237C               	addwfc	(___aodiv@quotient+4)& (0+255),f,b
  5213  00283A  237D               	addwfc	(___aodiv@quotient+5)& (0+255),f,b
  5214  00283C  237E               	addwfc	(___aodiv@quotient+6)& (0+255),f,b
  5215  00283E  237F               	addwfc	(___aodiv@quotient+7)& (0+255),f,b
  5216  002840                     l6001:
  5217                           
  5218                           ; BSR set to: 0
  5219  002840  C078  F066         	movff	___aodiv@quotient,?___aodiv
  5220  002844  C079  F067         	movff	___aodiv@quotient+1,?___aodiv+1
  5221  002848  C07A  F068         	movff	___aodiv@quotient+2,?___aodiv+2
  5222  00284C  C07B  F069         	movff	___aodiv@quotient+3,?___aodiv+3
  5223  002850  C07C  F06A         	movff	___aodiv@quotient+4,?___aodiv+4
  5224  002854  C07D  F06B         	movff	___aodiv@quotient+5,?___aodiv+5
  5225  002858  C07E  F06C         	movff	___aodiv@quotient+6,?___aodiv+6
  5226  00285C  C07F  F06D         	movff	___aodiv@quotient+7,?___aodiv+7
  5227  002860                     
  5228                           ; BSR set to: 0
  5229  002860  0012               	return		;funcret
  5230  002862                     __end_of___aodiv:
  5231                           	opt callstack 0
  5232                           
  5233 ;; *************** function _ctoa *****************
  5234 ;; Defined at:
  5235 ;;		line 259 in file "C:\Program Files (x86)\Microchip\xc8\v2.10\pic\sources\c99\common\doprnt.c"
  5236 ;; Parameters:    Size  Location     Type
  5237 ;;  fp              2   35[BANK0 ] PTR struct _IO_FILE
  5238 ;;		 -> sprintf@f(6), NULL(0), 
  5239 ;;  c               1   37[BANK0 ] unsigned char 
  5240 ;; Auto vars:     Size  Location     Type
  5241 ;;  w               2   38[BANK0 ] int 
  5242 ;;  l               2    0        int 
  5243 ;; Return value:  Size  Location     Type
  5244 ;;                  2   35[BANK0 ] int 
  5245 ;; Registers used:
  5246 ;;		wreg, fsr1l, fsr1h, fsr2l, fsr2h, status,2, status,0, cstack
  5247 ;; Tracked objects:
  5248 ;;		On entry : 0/0
  5249 ;;		On exit  : 0/0
  5250 ;;		Unchanged: 0/0
  5251 ;; Data sizes:     COMRAM   BANK0   BANK1   BANK2   BANK3   BANK4   BANK5
  5252 ;;      Params:         0       3       0       0       0       0       0
  5253 ;;      Locals:         0       2       0       0       0       0       0
  5254 ;;      Temps:          0       0       0       0       0       0       0
  5255 ;;      Totals:         0       5       0       0       0       0       0
  5256 ;;Total ram usage:        5 bytes
  5257 ;; Hardware stack levels used:    1
  5258 ;; Hardware stack levels required when called:    9
  5259 ;; This function calls:
  5260 ;;		_pad
  5261 ;; This function is called by:
  5262 ;;		_vfpfcnvrt
  5263 ;; This function uses a non-reentrant model
  5264 ;;
  5265                           
  5266                           	psect	text10
  5267  0032B6                     __ptext10:
  5268                           	opt callstack 0
  5269  0032B6                     _ctoa:
  5270                           	opt callstack 18
  5271  0032B6                     
  5272                           ;C:\Program Files (x86)\Microchip\xc8\v2.10\pic\sources\c99\common\doprnt.c: 259: static
      +                           int ctoa(FILE *fp, char c);C:\Program Files (x86)\Microchip\xc8\v2.10\pic\sources\c99\c
      +                          ommon\doprnt.c: 260: {;C:\Program Files (x86)\Microchip\xc8\v2.10\pic\sources\c99\common
      +                          \doprnt.c: 261:     int l, w;;C:\Program Files (x86)\Microchip\xc8\v2.10\pic\sources\c99
      +                          \common\doprnt.c: 264:     w = width ? width - 1 : width;
  5273  0032B6  0100               	movlb	0	; () banked
  5274  0032B8  51D8               	movf	_width& (0+255),w,b
  5275  0032BA  11D9               	iorwf	(_width+1)& (0+255),w,b
  5276  0032BC  A4D8               	btfss	status,2,c
  5277  0032BE  EF63  F019         	goto	u7011
  5278  0032C2  EF65  F019         	goto	u7010
  5279  0032C6                     u7011:
  5280  0032C6  EF6B  F019         	goto	l6103
  5281  0032CA                     u7010:
  5282  0032CA                     
  5283                           ; BSR set to: 0
  5284  0032CA  C0D8  F086         	movff	_width,ctoa@w
  5285  0032CE  C0D9  F087         	movff	_width+1,ctoa@w+1
  5286  0032D2  EF71  F019         	goto	l6105
  5287  0032D6                     l6103:
  5288                           
  5289                           ; BSR set to: 0
  5290  0032D6  0EFF               	movlw	255
  5291  0032D8  25D8               	addwf	_width& (0+255),w,b
  5292  0032DA  6F86               	movwf	ctoa@w& (0+255),b
  5293  0032DC  0EFF               	movlw	255
  5294  0032DE  21D9               	addwfc	(_width+1)& (0+255),w,b
  5295  0032E0  6F87               	movwf	(ctoa@w+1)& (0+255),b
  5296  0032E2                     l6105:
  5297                           
  5298                           ; BSR set to: 0
  5299                           ;C:\Program Files (x86)\Microchip\xc8\v2.10\pic\sources\c99\common\doprnt.c: 267:     db
      +                          uf[0] = c;
  5300  0032E2  C085  F174         	movff	ctoa@c,_dbuf
  5301  0032E6                     
  5302                           ; BSR set to: 0
  5303                           ;C:\Program Files (x86)\Microchip\xc8\v2.10\pic\sources\c99\common\doprnt.c: 268:     db
      +                          uf[1] = '\0';
  5304  0032E6  0E00               	movlw	0
  5305  0032E8  0101               	movlb	1	; () banked
  5306  0032EA  6F75               	movwf	(_dbuf+1)& (0+255),b
  5307  0032EC                     
  5308                           ; BSR set to: 1
  5309                           ;C:\Program Files (x86)\Microchip\xc8\v2.10\pic\sources\c99\common\doprnt.c: 269:     re
      +                          turn pad(fp, &dbuf[0], w);
  5310  0032EC  C083  F078         	movff	ctoa@fp,pad@fp
  5311  0032F0  C084  F079         	movff	ctoa@fp+1,pad@fp+1
  5312  0032F4  0E74               	movlw	low _dbuf
  5313  0032F6  0100               	movlb	0	; () banked
  5314  0032F8  6F7A               	movwf	pad@buf& (0+255),b
  5315  0032FA  0E01               	movlw	high _dbuf
  5316  0032FC  6F7B               	movwf	(pad@buf+1)& (0+255),b
  5317  0032FE  C086  F07C         	movff	ctoa@w,pad@p
  5318  003302  C087  F07D         	movff	ctoa@w+1,pad@p+1
  5319  003306  EC0E  F017         	call	_pad	;wreg free
  5320  00330A  C078  F083         	movff	?_pad,?_ctoa
  5321  00330E  C079  F084         	movff	?_pad+1,?_ctoa+1
  5322  003312  0012               	return		;funcret
  5323  003314                     __end_of_ctoa:
  5324                           	opt callstack 0
  5325                           
  5326 ;; *************** function _pad *****************
  5327 ;; Defined at:
  5328 ;;		line 72 in file "C:\Program Files (x86)\Microchip\xc8\v2.10\pic\sources\c99\common\doprnt.c"
  5329 ;; Parameters:    Size  Location     Type
  5330 ;;  fp              2   24[BANK0 ] PTR struct _IO_FILE
  5331 ;;		 -> sprintf@f(6), NULL(0), 
  5332 ;;  buf             2   26[BANK0 ] PTR unsigned char 
  5333 ;;		 -> dbuf(32), 
  5334 ;;  p               2   28[BANK0 ] int 
  5335 ;; Auto vars:     Size  Location     Type
  5336 ;;  w               2   33[BANK0 ] int 
  5337 ;;  i               2   31[BANK0 ] int 
  5338 ;; Return value:  Size  Location     Type
  5339 ;;                  2   24[BANK0 ] int 
  5340 ;; Registers used:
  5341 ;;		wreg, fsr1l, fsr1h, fsr2l, fsr2h, status,2, status,0, cstack
  5342 ;; Tracked objects:
  5343 ;;		On entry : 0/0
  5344 ;;		On exit  : 0/0
  5345 ;;		Unchanged: 0/0
  5346 ;; Data sizes:     COMRAM   BANK0   BANK1   BANK2   BANK3   BANK4   BANK5
  5347 ;;      Params:         0       6       0       0       0       0       0
  5348 ;;      Locals:         0       4       0       0       0       0       0
  5349 ;;      Temps:          0       1       0       0       0       0       0
  5350 ;;      Totals:         0      11       0       0       0       0       0
  5351 ;;Total ram usage:       11 bytes
  5352 ;; Hardware stack levels used:    1
  5353 ;; Hardware stack levels required when called:    8
  5354 ;; This function calls:
  5355 ;;		_fputc
  5356 ;;		_fputs
  5357 ;;		_strlen
  5358 ;; This function is called by:
  5359 ;;		_ctoa
  5360 ;;		_dtoa
  5361 ;; This function uses a non-reentrant model
  5362 ;;
  5363                           
  5364                           	psect	text11
  5365  002E1C                     __ptext11:
  5366                           	opt callstack 0
  5367  002E1C                     _pad:
  5368                           	opt callstack 18
  5369  002E1C                     
  5370                           ;C:\Program Files (x86)\Microchip\xc8\v2.10\pic\sources\c99\common\doprnt.c: 72: static 
      +                          int pad(FILE *fp, char *buf, int p);C:\Program Files (x86)\Microchip\xc8\v2.10\pic\sourc
      +                          es\c99\common\doprnt.c: 73: {;C:\Program Files (x86)\Microchip\xc8\v2.10\pic\sources\c99
      +                          \common\doprnt.c: 74:     int i, w;;C:\Program Files (x86)\Microchip\xc8\v2.10\pic\sourc
      +                          es\c99\common\doprnt.c: 77:     if (flags & (1 << 0)) {
  5371  002E1C  0100               	movlb	0	; () banked
  5372  002E1E  A1DC               	btfss	_flags& (0+255),0,b
  5373  002E20  EF14  F017         	goto	u6671
  5374  002E24  EF16  F017         	goto	u6670
  5375  002E28                     u6671:
  5376  002E28  EF20  F017         	goto	l5929
  5377  002E2C                     u6670:
  5378  002E2C                     
  5379                           ; BSR set to: 0
  5380                           ;C:\Program Files (x86)\Microchip\xc8\v2.10\pic\sources\c99\common\doprnt.c: 78:        
      +                           fputs((const char *)buf, fp);
  5381  002E2C  C07A  F071         	movff	pad@buf,fputs@s
  5382  002E30  C07B  F072         	movff	pad@buf+1,fputs@s+1
  5383  002E34  C078  F073         	movff	pad@fp,fputs@fp
  5384  002E38  C079  F074         	movff	pad@fp+1,fputs@fp+1
  5385  002E3C  EC06  F01A         	call	_fputs	;wreg free
  5386  002E40                     l5929:
  5387                           
  5388                           ;C:\Program Files (x86)\Microchip\xc8\v2.10\pic\sources\c99\common\doprnt.c: 82:     w =
      +                           (p < 0) ? 0 : p;
  5389  002E40  0100               	movlb	0	; () banked
  5390  002E42  BF7D               	btfsc	(pad@p+1)& (0+255),7,b
  5391  002E44  EF26  F017         	goto	u6681
  5392  002E48  EF28  F017         	goto	u6680
  5393  002E4C                     u6681:
  5394  002E4C  EF2E  F017         	goto	l5933
  5395  002E50                     u6680:
  5396  002E50                     
  5397                           ; BSR set to: 0
  5398  002E50  C07C  F081         	movff	pad@p,pad@w
  5399  002E54  C07D  F082         	movff	pad@p+1,pad@w+1
  5400  002E58  EF32  F017         	goto	l888
  5401  002E5C                     l5933:
  5402                           
  5403                           ; BSR set to: 0
  5404  002E5C  0E00               	movlw	0
  5405  002E5E  6F82               	movwf	(pad@w+1)& (0+255),b
  5406  002E60  0E00               	movlw	0
  5407  002E62  6F81               	movwf	pad@w& (0+255),b
  5408  002E64                     l888:
  5409                           
  5410                           ; BSR set to: 0
  5411                           ;C:\Program Files (x86)\Microchip\xc8\v2.10\pic\sources\c99\common\doprnt.c: 83:     i =
      +                           0;
  5412  002E64  0E00               	movlw	0
  5413  002E66  6F80               	movwf	(pad@i+1)& (0+255),b
  5414  002E68  0E00               	movlw	0
  5415  002E6A  6F7F               	movwf	pad@i& (0+255),b
  5416                           
  5417                           ;C:\Program Files (x86)\Microchip\xc8\v2.10\pic\sources\c99\common\doprnt.c: 84:     whi
      +                          le (i < w) {
  5418  002E6C  EF45  F017         	goto	l5939
  5419  002E70                     l5935:
  5420                           
  5421                           ; BSR set to: 0
  5422                           ;C:\Program Files (x86)\Microchip\xc8\v2.10\pic\sources\c99\common\doprnt.c: 85:        
      +                           fputc(' ', fp);
  5423  002E70  0E00               	movlw	0
  5424  002E72  6F69               	movwf	(fputc@c+1)& (0+255),b
  5425  002E74  0E20               	movlw	32
  5426  002E76  6F68               	movwf	fputc@c& (0+255),b
  5427  002E78  C078  F06A         	movff	pad@fp,fputc@fp
  5428  002E7C  C079  F06B         	movff	pad@fp+1,fputc@fp+1
  5429  002E80  ECA8  F016         	call	_fputc	;wreg free
  5430  002E84                     
  5431                           ;C:\Program Files (x86)\Microchip\xc8\v2.10\pic\sources\c99\common\doprnt.c: 86:        
      +                           ++i;
  5432  002E84  0100               	movlb	0	; () banked
  5433  002E86  4B7F               	infsnz	pad@i& (0+255),f,b
  5434  002E88  2B80               	incf	(pad@i+1)& (0+255),f,b
  5435  002E8A                     l5939:
  5436                           
  5437                           ; BSR set to: 0
  5438                           ;C:\Program Files (x86)\Microchip\xc8\v2.10\pic\sources\c99\common\doprnt.c: 84:     whi
      +                          le (i < w) {
  5439  002E8A  5181               	movf	pad@w& (0+255),w,b
  5440  002E8C  5D7F               	subwf	pad@i& (0+255),w,b
  5441  002E8E  5180               	movf	(pad@i+1)& (0+255),w,b
  5442  002E90  0A80               	xorlw	128
  5443  002E92  6F7E               	movwf	??_pad& (0+255),b
  5444  002E94  5182               	movf	(pad@w+1)& (0+255),w,b
  5445  002E96  0A80               	xorlw	128
  5446  002E98  597E               	subwfb	??_pad& (0+255),w,b
  5447  002E9A  A0D8               	btfss	status,0,c
  5448  002E9C  EF52  F017         	goto	u6691
  5449  002EA0  EF54  F017         	goto	u6690
  5450  002EA4                     u6691:
  5451  002EA4  EF38  F017         	goto	l5935
  5452  002EA8                     u6690:
  5453  002EA8                     
  5454                           ; BSR set to: 0
  5455                           ;C:\Program Files (x86)\Microchip\xc8\v2.10\pic\sources\c99\common\doprnt.c: 90:     if 
      +                          (!(flags & (1 << 0))) {
  5456  002EA8  B1DC               	btfsc	_flags& (0+255),0,b
  5457  002EAA  EF59  F017         	goto	u6701
  5458  002EAE  EF5B  F017         	goto	u6700
  5459  002EB2                     u6701:
  5460  002EB2  EF65  F017         	goto	l5943
  5461  002EB6                     u6700:
  5462  002EB6                     
  5463                           ; BSR set to: 0
  5464                           ;C:\Program Files (x86)\Microchip\xc8\v2.10\pic\sources\c99\common\doprnt.c: 91:        
      +                           fputs((const char *)buf, fp);
  5465  002EB6  C07A  F071         	movff	pad@buf,fputs@s
  5466  002EBA  C07B  F072         	movff	pad@buf+1,fputs@s+1
  5467  002EBE  C078  F073         	movff	pad@fp,fputs@fp
  5468  002EC2  C079  F074         	movff	pad@fp+1,fputs@fp+1
  5469  002EC6  EC06  F01A         	call	_fputs	;wreg free
  5470  002ECA                     l5943:
  5471                           
  5472                           ;C:\Program Files (x86)\Microchip\xc8\v2.10\pic\sources\c99\common\doprnt.c: 94:     ret
      +                          urn strlen(buf) + w;
  5473  002ECA  C07A  F066         	movff	pad@buf,strlen@s
  5474  002ECE  C07B  F067         	movff	pad@buf+1,strlen@s+1
  5475  002ED2  EC53  F01B         	call	_strlen	;wreg free
  5476  002ED6  0100               	movlb	0	; () banked
  5477  002ED8  5181               	movf	pad@w& (0+255),w,b
  5478  002EDA  2566               	addwf	?_strlen& (0+255),w,b
  5479  002EDC  6F78               	movwf	?_pad& (0+255),b
  5480  002EDE  5182               	movf	(pad@w+1)& (0+255),w,b
  5481  002EE0  2167               	addwfc	(?_strlen+1)& (0+255),w,b
  5482  002EE2  6F79               	movwf	(?_pad+1)& (0+255),b
  5483  002EE4                     
  5484                           ; BSR set to: 0
  5485  002EE4  0012               	return		;funcret
  5486  002EE6                     __end_of_pad:
  5487                           	opt callstack 0
  5488                           
  5489 ;; *************** function _strlen *****************
  5490 ;; Defined at:
  5491 ;;		line 5 in file "C:\Program Files (x86)\Microchip\xc8\v2.10\pic\sources\c99\common\strlen.c"
  5492 ;; Parameters:    Size  Location     Type
  5493 ;;  s               2    6[BANK0 ] PTR const unsigned char 
  5494 ;;		 -> dbuf(32), temp_alarme_string(4), 
  5495 ;; Auto vars:     Size  Location     Type
  5496 ;;  a               2    8[BANK0 ] PTR const unsigned char 
  5497 ;;		 -> dbuf(32), temp_alarme_string(4), 
  5498 ;; Return value:  Size  Location     Type
  5499 ;;                  2    6[BANK0 ] unsigned int 
  5500 ;; Registers used:
  5501 ;;		wreg, fsr2l, fsr2h, status,2, status,0
  5502 ;; Tracked objects:
  5503 ;;		On entry : 0/0
  5504 ;;		On exit  : 0/0
  5505 ;;		Unchanged: 0/0
  5506 ;; Data sizes:     COMRAM   BANK0   BANK1   BANK2   BANK3   BANK4   BANK5
  5507 ;;      Params:         0       2       0       0       0       0       0
  5508 ;;      Locals:         0       2       0       0       0       0       0
  5509 ;;      Temps:          0       0       0       0       0       0       0
  5510 ;;      Totals:         0       4       0       0       0       0       0
  5511 ;;Total ram usage:        4 bytes
  5512 ;; Hardware stack levels used:    1
  5513 ;; Hardware stack levels required when called:    4
  5514 ;; This function calls:
  5515 ;;		Nothing
  5516 ;; This function is called by:
  5517 ;;		_pad
  5518 ;;		_strncat
  5519 ;; This function uses a non-reentrant model
  5520 ;;
  5521                           
  5522                           	psect	text12
  5523  0036A6                     __ptext12:
  5524                           	opt callstack 0
  5525  0036A6                     _strlen:
  5526                           	opt callstack 25
  5527  0036A6  C066  F068         	movff	strlen@s,strlen@a
  5528  0036AA  C067  F069         	movff	strlen@s+1,strlen@a+1
  5529  0036AE  EF5C  F01B         	goto	l5919
  5530  0036B2                     l5917:
  5531  0036B2  0100               	movlb	0	; () banked
  5532  0036B4  4B66               	infsnz	strlen@s& (0+255),f,b
  5533  0036B6  2B67               	incf	(strlen@s+1)& (0+255),f,b
  5534  0036B8                     l5919:
  5535  0036B8  C066  FFD9         	movff	strlen@s,fsr2l
  5536  0036BC  C067  FFDA         	movff	strlen@s+1,fsr2h
  5537  0036C0  50DF               	movf	indf2,w,c
  5538  0036C2  A4D8               	btfss	status,2,c
  5539  0036C4  EF66  F01B         	goto	u6661
  5540  0036C8  EF68  F01B         	goto	u6660
  5541  0036CC                     u6661:
  5542  0036CC  EF59  F01B         	goto	l5917
  5543  0036D0                     u6660:
  5544  0036D0  0100               	movlb	0	; () banked
  5545  0036D2  5168               	movf	strlen@a& (0+255),w,b
  5546  0036D4  5D66               	subwf	strlen@s& (0+255),w,b
  5547  0036D6  6F66               	movwf	?_strlen& (0+255),b
  5548  0036D8  5169               	movf	(strlen@a+1)& (0+255),w,b
  5549  0036DA  5967               	subwfb	(strlen@s+1)& (0+255),w,b
  5550  0036DC  6F67               	movwf	(?_strlen+1)& (0+255),b
  5551  0036DE                     
  5552                           ; BSR set to: 0
  5553  0036DE  0012               	return		;funcret
  5554  0036E0                     __end_of_strlen:
  5555                           	opt callstack 0
  5556                           
  5557 ;; *************** function _fputs *****************
  5558 ;; Defined at:
  5559 ;;		line 8 in file "C:\Program Files (x86)\Microchip\xc8\v2.10\pic\sources\c99\common\nf_fputs.c"
  5560 ;; Parameters:    Size  Location     Type
  5561 ;;  s               2   17[BANK0 ] PTR const unsigned char 
  5562 ;;		 -> dbuf(32), 
  5563 ;;  fp              2   19[BANK0 ] PTR struct _IO_FILE
  5564 ;;		 -> sprintf@f(6), NULL(0), 
  5565 ;; Auto vars:     Size  Location     Type
  5566 ;;  i               2   22[BANK0 ] int 
  5567 ;;  c               1   21[BANK0 ] unsigned char 
  5568 ;; Return value:  Size  Location     Type
  5569 ;;                  2   17[BANK0 ] int 
  5570 ;; Registers used:
  5571 ;;		wreg, fsr1l, fsr1h, fsr2l, fsr2h, status,2, status,0, cstack
  5572 ;; Tracked objects:
  5573 ;;		On entry : 0/0
  5574 ;;		On exit  : 0/0
  5575 ;;		Unchanged: 0/0
  5576 ;; Data sizes:     COMRAM   BANK0   BANK1   BANK2   BANK3   BANK4   BANK5
  5577 ;;      Params:         0       4       0       0       0       0       0
  5578 ;;      Locals:         0       3       0       0       0       0       0
  5579 ;;      Temps:          0       0       0       0       0       0       0
  5580 ;;      Totals:         0       7       0       0       0       0       0
  5581 ;;Total ram usage:        7 bytes
  5582 ;; Hardware stack levels used:    1
  5583 ;; Hardware stack levels required when called:    7
  5584 ;; This function calls:
  5585 ;;		_fputc
  5586 ;; This function is called by:
  5587 ;;		_pad
  5588 ;; This function uses a non-reentrant model
  5589 ;;
  5590                           
  5591                           	psect	text13
  5592  00340C                     __ptext13:
  5593                           	opt callstack 0
  5594  00340C                     _fputs:
  5595                           	opt callstack 18
  5596  00340C  0E00               	movlw	0
  5597  00340E  0100               	movlb	0	; () banked
  5598  003410  6F77               	movwf	(fputs@i+1)& (0+255),b
  5599  003412  0E00               	movlw	0
  5600  003414  6F76               	movwf	fputs@i& (0+255),b
  5601  003416  EF19  F01A         	goto	l5913
  5602  00341A                     l5909:
  5603                           
  5604                           ; BSR set to: 0
  5605  00341A  C075  F068         	movff	fputs@c,fputc@c
  5606  00341E  6B69               	clrf	(fputc@c+1)& (0+255),b
  5607  003420  C073  F06A         	movff	fputs@fp,fputc@fp
  5608  003424  C074  F06B         	movff	fputs@fp+1,fputc@fp+1
  5609  003428  ECA8  F016         	call	_fputc	;wreg free
  5610  00342C  0100               	movlb	0	; () banked
  5611  00342E  4B76               	infsnz	fputs@i& (0+255),f,b
  5612  003430  2B77               	incf	(fputs@i+1)& (0+255),f,b
  5613  003432                     l5913:
  5614                           
  5615                           ; BSR set to: 0
  5616  003432  5176               	movf	fputs@i& (0+255),w,b
  5617  003434  2571               	addwf	fputs@s& (0+255),w,b
  5618  003436  6ED9               	movwf	fsr2l,c
  5619  003438  5177               	movf	(fputs@i+1)& (0+255),w,b
  5620  00343A  2172               	addwfc	(fputs@s+1)& (0+255),w,b
  5621  00343C  6EDA               	movwf	fsr2h,c
  5622  00343E  50DF               	movf	indf2,w,c
  5623  003440  6F75               	movwf	fputs@c& (0+255),b
  5624  003442  5175               	movf	fputs@c& (0+255),w,b
  5625  003444  A4D8               	btfss	status,2,c
  5626  003446  EF27  F01A         	goto	u6651
  5627  00344A  EF29  F01A         	goto	u6650
  5628  00344E                     u6651:
  5629  00344E  EF0D  F01A         	goto	l5909
  5630  003452                     u6650:
  5631  003452                     
  5632                           ; BSR set to: 0
  5633  003452  0012               	return		;funcret
  5634  003454                     __end_of_fputs:
  5635                           	opt callstack 0
  5636                           
  5637 ;; *************** function _fputc *****************
  5638 ;; Defined at:
  5639 ;;		line 8 in file "C:\Program Files (x86)\Microchip\xc8\v2.10\pic\sources\c99\common\nf_fputc.c"
  5640 ;; Parameters:    Size  Location     Type
  5641 ;;  c               2    8[BANK0 ] int 
  5642 ;;  fp              2   10[BANK0 ] PTR struct _IO_FILE
  5643 ;;		 -> sprintf@f(6), NULL(0), 
  5644 ;; Auto vars:     Size  Location     Type
  5645 ;;		None
  5646 ;; Return value:  Size  Location     Type
  5647 ;;                  2    8[BANK0 ] int 
  5648 ;; Registers used:
  5649 ;;		wreg, fsr1l, fsr1h, fsr2l, fsr2h, status,2, status,0, cstack
  5650 ;; Tracked objects:
  5651 ;;		On entry : 0/0
  5652 ;;		On exit  : 0/0
  5653 ;;		Unchanged: 0/0
  5654 ;; Data sizes:     COMRAM   BANK0   BANK1   BANK2   BANK3   BANK4   BANK5
  5655 ;;      Params:         0       4       0       0       0       0       0
  5656 ;;      Locals:         0       0       0       0       0       0       0
  5657 ;;      Temps:          0       5       0       0       0       0       0
  5658 ;;      Totals:         0       9       0       0       0       0       0
  5659 ;;Total ram usage:        9 bytes
  5660 ;; Hardware stack levels used:    1
  5661 ;; Hardware stack levels required when called:    6
  5662 ;; This function calls:
  5663 ;;		_putch
  5664 ;; This function is called by:
  5665 ;;		_pad
  5666 ;;		_vfpfcnvrt
  5667 ;;		_fputs
  5668 ;; This function uses a non-reentrant model
  5669 ;;
  5670                           
  5671                           	psect	text14
  5672  002D50                     __ptext14:
  5673                           	opt callstack 0
  5674  002D50                     _fputc:
  5675                           	opt callstack 21
  5676  002D50  0100               	movlb	0	; () banked
  5677  002D52  516A               	movf	fputc@fp& (0+255),w,b
  5678  002D54  116B               	iorwf	(fputc@fp+1)& (0+255),w,b
  5679  002D56  B4D8               	btfsc	status,2,c
  5680  002D58  EFB0  F016         	goto	u6611
  5681  002D5C  EFB2  F016         	goto	u6610
  5682  002D60                     u6611:
  5683  002D60  EFBB  F016         	goto	l5897
  5684  002D64                     u6610:
  5685  002D64                     
  5686                           ; BSR set to: 0
  5687  002D64  516A               	movf	fputc@fp& (0+255),w,b
  5688  002D66  116B               	iorwf	(fputc@fp+1)& (0+255),w,b
  5689  002D68  A4D8               	btfss	status,2,c
  5690  002D6A  EFB9  F016         	goto	u6621
  5691  002D6E  EFBB  F016         	goto	u6620
  5692  002D72                     u6621:
  5693  002D72  EFC0  F016         	goto	l5899
  5694  002D76                     u6620:
  5695  002D76                     l5897:
  5696                           
  5697                           ; BSR set to: 0
  5698  002D76  5168               	movf	fputc@c& (0+255),w,b
  5699  002D78  ECCD  F01C         	call	_putch
  5700  002D7C  EF0D  F017         	goto	l1699
  5701  002D80                     l5899:
  5702                           
  5703                           ; BSR set to: 0
  5704  002D80  EE20 F004          	lfsr	2,4
  5705  002D84  516A               	movf	fputc@fp& (0+255),w,b
  5706  002D86  26D9               	addwf	fsr2l,f,c
  5707  002D88  516B               	movf	(fputc@fp+1)& (0+255),w,b
  5708  002D8A  22DA               	addwfc	fsr2h,f,c
  5709  002D8C  50DE               	movf	postinc2,w,c
  5710  002D8E  10DE               	iorwf	postinc2,w,c
  5711  002D90  B4D8               	btfsc	status,2,c
  5712  002D92  EFCD  F016         	goto	u6631
  5713  002D96  EFCF  F016         	goto	u6630
  5714  002D9A                     u6631:
  5715  002D9A  EFEA  F016         	goto	l5903
  5716  002D9E                     u6630:
  5717  002D9E                     
  5718                           ; BSR set to: 0
  5719  002D9E  EE20 F004          	lfsr	2,4
  5720  002DA2  516A               	movf	fputc@fp& (0+255),w,b
  5721  002DA4  26D9               	addwf	fsr2l,f,c
  5722  002DA6  516B               	movf	(fputc@fp+1)& (0+255),w,b
  5723  002DA8  22DA               	addwfc	fsr2h,f,c
  5724  002DAA  EE10 F002          	lfsr	1,2
  5725  002DAE  516A               	movf	fputc@fp& (0+255),w,b
  5726  002DB0  26E1               	addwf	fsr1l,f,c
  5727  002DB2  516B               	movf	(fputc@fp+1)& (0+255),w,b
  5728  002DB4  22E2               	addwfc	fsr1h,f,c
  5729  002DB6  50DE               	movf	postinc2,w,c
  5730  002DB8  5CE6               	subwf	postinc1,w,c
  5731  002DBA  50E6               	movf	postinc1,w,c
  5732  002DBC  0A80               	xorlw	128
  5733  002DBE  6F70               	movwf	(??_fputc+4)& (0+255),b
  5734  002DC0  50DE               	movf	postinc2,w,c
  5735  002DC2  0A80               	xorlw	128
  5736  002DC4  5970               	subwfb	(??_fputc+4)& (0+255),w,b
  5737  002DC6  B0D8               	btfsc	status,0,c
  5738  002DC8  EFE8  F016         	goto	u6641
  5739  002DCC  EFEA  F016         	goto	u6640
  5740  002DD0                     u6641:
  5741  002DD0  EF0D  F017         	goto	l1699
  5742  002DD4                     u6640:
  5743  002DD4                     l5903:
  5744                           
  5745                           ; BSR set to: 0
  5746  002DD4  EE20 F002          	lfsr	2,2
  5747  002DD8  516A               	movf	fputc@fp& (0+255),w,b
  5748  002DDA  26D9               	addwf	fsr2l,f,c
  5749  002DDC  516B               	movf	(fputc@fp+1)& (0+255),w,b
  5750  002DDE  22DA               	addwfc	fsr2h,f,c
  5751  002DE0  CFDE F06C          	movff	postinc2,??_fputc
  5752  002DE4  CFDD F06D          	movff	postdec2,??_fputc+1
  5753  002DE8  C06A  FFD9         	movff	fputc@fp,fsr2l
  5754  002DEC  C06B  FFDA         	movff	fputc@fp+1,fsr2h
  5755  002DF0  CFDE F06E          	movff	postinc2,??_fputc+2
  5756  002DF4  CFDD F06F          	movff	postdec2,??_fputc+3
  5757  002DF8  516C               	movf	??_fputc& (0+255),w,b
  5758  002DFA  256E               	addwf	(??_fputc+2)& (0+255),w,b
  5759  002DFC  6ED9               	movwf	fsr2l,c
  5760  002DFE  516D               	movf	(??_fputc+1)& (0+255),w,b
  5761  002E00  216F               	addwfc	(??_fputc+3)& (0+255),w,b
  5762  002E02  6EDA               	movwf	fsr2h,c
  5763  002E04  C068  FFDF         	movff	fputc@c,indf2
  5764  002E08  EE20 F002          	lfsr	2,2
  5765  002E0C  516A               	movf	fputc@fp& (0+255),w,b
  5766  002E0E  26D9               	addwf	fsr2l,f,c
  5767  002E10  516B               	movf	(fputc@fp+1)& (0+255),w,b
  5768  002E12  22DA               	addwfc	fsr2h,f,c
  5769  002E14  2ADE               	incf	postinc2,f,c
  5770  002E16  0E00               	movlw	0
  5771  002E18  22DD               	addwfc	postdec2,f,c
  5772  002E1A                     l1699:
  5773  002E1A  0012               	return		;funcret
  5774  002E1C                     __end_of_fputc:
  5775                           	opt callstack 0
  5776                           
  5777 ;; *************** function _putch *****************
  5778 ;; Defined at:
  5779 ;;		line 176 in file "mcc_generated_files/eusart1.c"
  5780 ;; Parameters:    Size  Location     Type
  5781 ;;  txData          1    wreg     unsigned char 
  5782 ;; Auto vars:     Size  Location     Type
  5783 ;;  txData          1    7[BANK0 ] unsigned char 
  5784 ;; Return value:  Size  Location     Type
  5785 ;;                  1    wreg      void 
  5786 ;; Registers used:
  5787 ;;		wreg, status,2, cstack
  5788 ;; Tracked objects:
  5789 ;;		On entry : 0/0
  5790 ;;		On exit  : 0/0
  5791 ;;		Unchanged: 0/0
  5792 ;; Data sizes:     COMRAM   BANK0   BANK1   BANK2   BANK3   BANK4   BANK5
  5793 ;;      Params:         0       0       0       0       0       0       0
  5794 ;;      Locals:         0       1       0       0       0       0       0
  5795 ;;      Temps:          0       0       0       0       0       0       0
  5796 ;;      Totals:         0       1       0       0       0       0       0
  5797 ;;Total ram usage:        1 bytes
  5798 ;; Hardware stack levels used:    1
  5799 ;; Hardware stack levels required when called:    5
  5800 ;; This function calls:
  5801 ;;		_EUSART1_Write
  5802 ;; This function is called by:
  5803 ;;		_fputc
  5804 ;; This function uses a non-reentrant model
  5805 ;;
  5806                           
  5807                           	psect	text15
  5808  00399A                     __ptext15:
  5809                           	opt callstack 0
  5810  00399A                     _putch:
  5811                           	opt callstack 21
  5812                           
  5813                           ;incstack = 0
  5814                           ;putch@txData stored from wreg
  5815  00399A  0100               	movlb	0	; () banked
  5816  00399C  6F67               	movwf	putch@txData& (0+255),b
  5817  00399E                     
  5818                           ;mcc_generated_files/eusart1.c: 176: void putch(char txData);mcc_generated_files/eusart1
      +                          .c: 177: {;mcc_generated_files/eusart1.c: 178:     EUSART1_Write(txData);
  5819  00399E  0100               	movlb	0	; () banked
  5820  0039A0  5167               	movf	putch@txData& (0+255),w,b
  5821  0039A2  EC91  F01C         	call	_EUSART1_Write
  5822  0039A6  0012               	return		;funcret
  5823  0039A8                     __end_of_putch:
  5824                           	opt callstack 0
  5825                           
  5826 ;; *************** function _EUSART1_Write *****************
  5827 ;; Defined at:
  5828 ;;		line 162 in file "mcc_generated_files/eusart1.c"
  5829 ;; Parameters:    Size  Location     Type
  5830 ;;  txData          1    wreg     unsigned char 
  5831 ;; Auto vars:     Size  Location     Type
  5832 ;;  txData          1    6[BANK0 ] unsigned char 
  5833 ;; Return value:  Size  Location     Type
  5834 ;;                  1    wreg      void 
  5835 ;; Registers used:
  5836 ;;		wreg
  5837 ;; Tracked objects:
  5838 ;;		On entry : 0/0
  5839 ;;		On exit  : 0/0
  5840 ;;		Unchanged: 0/0
  5841 ;; Data sizes:     COMRAM   BANK0   BANK1   BANK2   BANK3   BANK4   BANK5
  5842 ;;      Params:         0       0       0       0       0       0       0
  5843 ;;      Locals:         0       1       0       0       0       0       0
  5844 ;;      Temps:          0       0       0       0       0       0       0
  5845 ;;      Totals:         0       1       0       0       0       0       0
  5846 ;;Total ram usage:        1 bytes
  5847 ;; Hardware stack levels used:    1
  5848 ;; Hardware stack levels required when called:    4
  5849 ;; This function calls:
  5850 ;;		Nothing
  5851 ;; This function is called by:
  5852 ;;		_putch
  5853 ;;		_main
  5854 ;; This function uses a non-reentrant model
  5855 ;;
  5856                           
  5857                           	psect	text16
  5858  003922                     __ptext16:
  5859                           	opt callstack 0
  5860  003922                     _EUSART1_Write:
  5861                           	opt callstack 21
  5862                           
  5863                           ;incstack = 0
  5864                           ;EUSART1_Write@txData stored from wreg
  5865  003922  0100               	movlb	0	; () banked
  5866  003924  6F66               	movwf	EUSART1_Write@txData& (0+255),b
  5867  003926                     l421:
  5868                           
  5869                           ;mcc_generated_files/eusart1.c: 164:     while(0 == PIR1bits.TX1IF)
  5870  003926  A89E               	btfss	158,4,c	;volatile
  5871  003928  EF98  F01C         	goto	u6601
  5872  00392C  EF9A  F01C         	goto	u6600
  5873  003930                     u6601:
  5874  003930  EF93  F01C         	goto	l421
  5875  003934                     u6600:
  5876  003934                     
  5877                           ;mcc_generated_files/eusart1.c: 168:     TXREG1 = txData;
  5878  003934  C066  FFAD         	movff	EUSART1_Write@txData,4013	;volatile
  5879  003938  0012               	return		;funcret
  5880  00393A                     __end_of_EUSART1_Write:
  5881                           	opt callstack 0
  5882                           
  5883 ;; *************** function _atoi *****************
  5884 ;; Defined at:
  5885 ;;		line 4 in file "C:\Program Files (x86)\Microchip\xc8\v2.10\pic\sources\c99\common\atoi.c"
  5886 ;; Parameters:    Size  Location     Type
  5887 ;;  s               2   13[BANK0 ] PTR const unsigned char 
  5888 ;;		 -> STR_18(34), STR_17(34), STR_16(33), STR_15(3), 
  5889 ;;		 -> STR_14(43), STR_13(40), STR_12(48), temp_alarme_string(4), 
  5890 ;;		 -> STR_11(3), STR_10(43), STR_9(31), STR_8(47), 
  5891 ;;		 -> STR_7(39), STR_6(31), STR_5(29), STR_4(26), 
  5892 ;;		 -> STR_3(28), STR_2(47), STR_1(3), 
  5893 ;; Auto vars:     Size  Location     Type
  5894 ;;  n               2   26[BANK0 ] int 
  5895 ;;  neg             2   19[BANK0 ] int 
  5896 ;; Return value:  Size  Location     Type
  5897 ;;                  2   13[BANK0 ] int 
  5898 ;; Registers used:
  5899 ;;		wreg, fsr1l, fsr1h, status,2, status,0, tblptrl, tblptrh, tblptru, prodl, prodh, cstack
  5900 ;; Tracked objects:
  5901 ;;		On entry : 0/0
  5902 ;;		On exit  : 0/0
  5903 ;;		Unchanged: 0/0
  5904 ;; Data sizes:     COMRAM   BANK0   BANK1   BANK2   BANK3   BANK4   BANK5
  5905 ;;      Params:         0       2       0       0       0       0       0
  5906 ;;      Locals:         0       9       0       0       0       0       0
  5907 ;;      Temps:          0       4       0       0       0       0       0
  5908 ;;      Totals:         0      15       0       0       0       0       0
  5909 ;;Total ram usage:       15 bytes
  5910 ;; Hardware stack levels used:    1
  5911 ;; Hardware stack levels required when called:    5
  5912 ;; This function calls:
  5913 ;;		___wmul
  5914 ;;		_isdigit
  5915 ;;		_isspace
  5916 ;; This function is called by:
  5917 ;;		_main
  5918 ;;		_vfpfcnvrt
  5919 ;; This function uses a non-reentrant model
  5920 ;;
  5921                           
  5922                           	psect	text17
  5923  002126                     __ptext17:
  5924                           	opt callstack 0
  5925  002126                     _atoi:
  5926                           	opt callstack 22
  5927  002126  0E00               	movlw	0
  5928  002128  0100               	movlb	0	; () banked
  5929  00212A  6F7B               	movwf	(atoi@n+1)& (0+255),b
  5930  00212C  0E00               	movlw	0
  5931  00212E  6F7A               	movwf	atoi@n& (0+255),b
  5932  002130  0E00               	movlw	0
  5933  002132  6F74               	movwf	(atoi@neg+1)& (0+255),b
  5934  002134  0E00               	movlw	0
  5935  002136  6F73               	movwf	atoi@neg& (0+255),b
  5936  002138  EFA0  F010         	goto	l6057
  5937  00213C                     l6055:
  5938                           
  5939                           ; BSR set to: 0
  5940  00213C  4B6D               	infsnz	atoi@s& (0+255),f,b
  5941  00213E  2B6E               	incf	(atoi@s+1)& (0+255),f,b
  5942  002140                     l6057:
  5943                           
  5944                           ; BSR set to: 0
  5945  002140  0E01               	movlw	1
  5946  002142  6F79               	movwf	_atoi$2357& (0+255),b
  5947  002144                     
  5948                           ; BSR set to: 0
  5949  002144  C06D  FFF6         	movff	atoi@s,tblptrl
  5950  002148  C06E  FFF7         	movff	atoi@s+1,tblptrh
  5951  00214C  6AF8               	clrf	tblptru,c
  5952  00214E  0E05               	movlw	(high __ramtop+-1)
  5953  002150  64F7               	cpfsgt	tblptrh,c
  5954  002152  D003               	bra	u6897
  5955  002154  0008               	tblrd		*
  5956  002156  50F5               	movf	tablat,w,c
  5957  002158  D005               	bra	u6890
  5958  00215A                     u6897:
  5959  00215A  CFF6 FFE1          	movff	tblptrl,fsr1l
  5960  00215E  CFF7 FFE2          	movff	tblptrh,fsr1h
  5961  002162  50E7               	movf	indf1,w,c
  5962  002164                     u6890:
  5963  002164  0A20               	xorlw	32
  5964  002166  B4D8               	btfsc	status,2,c
  5965  002168  EFB8  F010         	goto	u6901
  5966  00216C  EFBA  F010         	goto	u6900
  5967  002170                     u6901:
  5968  002170  EFE3  F010         	goto	l6065
  5969  002174                     u6900:
  5970  002174  0EF7               	movlw	247
  5971  002176  0100               	movlb	0	; () banked
  5972  002178  6F6F               	movwf	??_atoi& (0+255),b
  5973  00217A  0EFF               	movlw	255
  5974  00217C  6F70               	movwf	(??_atoi+1)& (0+255),b
  5975  00217E  C06D  FFF6         	movff	atoi@s,tblptrl
  5976  002182  C06E  FFF7         	movff	atoi@s+1,tblptrh
  5977  002186  6AF8               	clrf	tblptru,c
  5978  002188  0E05               	movlw	(high __ramtop+-1)
  5979  00218A  64F7               	cpfsgt	tblptrh,c
  5980  00218C  D003               	bra	u6917
  5981  00218E  0008               	tblrd		*
  5982  002190  50F5               	movf	tablat,w,c
  5983  002192  D005               	bra	u6910
  5984  002194                     u6917:
  5985  002194  CFF6 FFE1          	movff	tblptrl,fsr1l
  5986  002198  CFF7 FFE2          	movff	tblptrh,fsr1h
  5987  00219C  50E7               	movf	indf1,w,c
  5988  00219E                     u6910:
  5989  00219E  0100               	movlb	0	; () banked
  5990  0021A0  6F71               	movwf	(??_atoi+2)& (0+255),b
  5991  0021A2  6B72               	clrf	(??_atoi+3)& (0+255),b
  5992  0021A4  516F               	movf	??_atoi& (0+255),w,b
  5993  0021A6  2771               	addwf	(??_atoi+2)& (0+255),f,b
  5994  0021A8  5170               	movf	(??_atoi+1)& (0+255),w,b
  5995  0021AA  2372               	addwfc	(??_atoi+3)& (0+255),f,b
  5996  0021AC  5172               	movf	(??_atoi+3)& (0+255),w,b
  5997  0021AE  E109               	bnz	u6920
  5998  0021B0  0E05               	movlw	5
  5999  0021B2  5D71               	subwf	(??_atoi+2)& (0+255),w,b
  6000  0021B4  A0D8               	btfss	status,0,c
  6001  0021B6  EFDF  F010         	goto	u6921
  6002  0021BA  EFE1  F010         	goto	u6920
  6003  0021BE                     u6921:
  6004  0021BE  EFE3  F010         	goto	l6065
  6005  0021C2                     u6920:
  6006  0021C2                     
  6007                           ; BSR set to: 0
  6008  0021C2  0E00               	movlw	0
  6009  0021C4  6F79               	movwf	_atoi$2357& (0+255),b
  6010  0021C6                     l6065:
  6011  0021C6  C079  F075         	movff	_atoi$2357,_atoi$2356
  6012  0021CA  0100               	movlb	0	; () banked
  6013  0021CC  6B76               	clrf	(_atoi$2356+1)& (0+255),b
  6014  0021CE                     
  6015                           ; BSR set to: 0
  6016  0021CE  5175               	movf	_atoi$2356& (0+255),w,b
  6017  0021D0  1176               	iorwf	(_atoi$2356+1)& (0+255),w,b
  6018  0021D2  A4D8               	btfss	status,2,c
  6019  0021D4  EFEE  F010         	goto	u6931
  6020  0021D8  EFF0  F010         	goto	u6930
  6021  0021DC                     u6931:
  6022  0021DC  EF9E  F010         	goto	l6055
  6023  0021E0                     u6930:
  6024  0021E0  EFFA  F010         	goto	l6075
  6025  0021E4                     l6071:
  6026                           
  6027                           ; BSR set to: 0
  6028  0021E4  0E00               	movlw	0
  6029  0021E6  6F74               	movwf	(atoi@neg+1)& (0+255),b
  6030  0021E8  0E01               	movlw	1
  6031  0021EA  6F73               	movwf	atoi@neg& (0+255),b
  6032  0021EC                     l6073:
  6033                           
  6034                           ; BSR set to: 0
  6035  0021EC  4B6D               	infsnz	atoi@s& (0+255),f,b
  6036  0021EE  2B6E               	incf	(atoi@s+1)& (0+255),f,b
  6037  0021F0  EF47  F011         	goto	l6081
  6038  0021F4                     l6075:
  6039                           
  6040                           ; BSR set to: 0
  6041  0021F4  C06D  FFF6         	movff	atoi@s,tblptrl
  6042  0021F8  C06E  FFF7         	movff	atoi@s+1,tblptrh
  6043  0021FC  6AF8               	clrf	tblptru,c
  6044  0021FE  0E05               	movlw	(high __ramtop+-1)
  6045  002200  64F7               	cpfsgt	tblptrh,c
  6046  002202  D003               	bra	u6947
  6047  002204  0008               	tblrd		*
  6048  002206  50F5               	movf	tablat,w,c
  6049  002208  D005               	bra	u6940
  6050  00220A                     u6947:
  6051  00220A  CFF6 FFE1          	movff	tblptrl,fsr1l
  6052  00220E  CFF7 FFE2          	movff	tblptrh,fsr1h
  6053  002212  50E7               	movf	indf1,w,c
  6054  002214                     u6940:
  6055  002214  0100               	movlb	0	; () banked
  6056  002216  6F6F               	movwf	??_atoi& (0+255),b
  6057  002218  6B70               	clrf	(??_atoi+1)& (0+255),b
  6058                           
  6059                           ; Switch on 2 bytes has been partitioned into a top level switch of size 1, and 1 sub-sw
      +                          itches
  6060                           ; Switch size 1, requested type "simple"
  6061                           ; Number of cases is 1, Range of values is 0 to 0
  6062                           ; switch strategies available:
  6063                           ; Name         Instructions Cycles
  6064                           ; simple_byte            4     3 (average)
  6065                           ;	Chosen strategy is simple_byte
  6066  00221A  5170               	movf	(??_atoi+1)& (0+255),w,b
  6067  00221C  0A00               	xorlw	0	; case 0
  6068  00221E  B4D8               	btfsc	status,2,c
  6069  002220  EF14  F011         	goto	l7207
  6070  002224  EF47  F011         	goto	l6081
  6071  002228                     l7207:
  6072                           
  6073                           ; BSR set to: 0
  6074                           ; Switch size 1, requested type "simple"
  6075                           ; Number of cases is 2, Range of values is 43 to 45
  6076                           ; switch strategies available:
  6077                           ; Name         Instructions Cycles
  6078                           ; simple_byte            7     4 (average)
  6079                           ;	Chosen strategy is simple_byte
  6080  002228  516F               	movf	??_atoi& (0+255),w,b
  6081  00222A  0A2B               	xorlw	43	; case 43
  6082  00222C  B4D8               	btfsc	status,2,c
  6083  00222E  EFF6  F010         	goto	l6073
  6084  002232  0A06               	xorlw	6	; case 45
  6085  002234  B4D8               	btfsc	status,2,c
  6086  002236  EFF2  F010         	goto	l6071
  6087  00223A  EF47  F011         	goto	l6081
  6088  00223E                     l6077:
  6089                           
  6090                           ; BSR set to: 0
  6091  00223E  C07A  F066         	movff	atoi@n,___wmul@multiplier
  6092  002242  C07B  F067         	movff	atoi@n+1,___wmul@multiplier+1
  6093  002246  0E00               	movlw	0
  6094  002248  6F69               	movwf	(___wmul@multiplicand+1)& (0+255),b
  6095  00224A  0E0A               	movlw	10
  6096  00224C  6F68               	movwf	___wmul@multiplicand& (0+255),b
  6097  00224E  EC34  F01C         	call	___wmul	;wreg free
  6098  002252  C06D  FFF6         	movff	atoi@s,tblptrl
  6099  002256  C06E  FFF7         	movff	atoi@s+1,tblptrh
  6100  00225A  6AF8               	clrf	tblptru,c
  6101  00225C  0E05               	movlw	(high __ramtop+-1)
  6102  00225E  64F7               	cpfsgt	tblptrh,c
  6103  002260  D003               	bra	u6957
  6104  002262  0008               	tblrd		*
  6105  002264  50F5               	movf	tablat,w,c
  6106  002266  D005               	bra	u6950
  6107  002268                     u6957:
  6108  002268  CFF6 FFE1          	movff	tblptrl,fsr1l
  6109  00226C  CFF7 FFE2          	movff	tblptrh,fsr1h
  6110  002270  50E7               	movf	indf1,w,c
  6111  002272                     u6950:
  6112  002272  0100               	movlb	0	; () banked
  6113  002274  6F6F               	movwf	??_atoi& (0+255),b
  6114  002276  516F               	movf	??_atoi& (0+255),w,b
  6115  002278  5F66               	subwf	?___wmul& (0+255),f,b
  6116  00227A  0E00               	movlw	0
  6117  00227C  5B67               	subwfb	(?___wmul+1)& (0+255),f,b
  6118  00227E  0E30               	movlw	48
  6119  002280  2566               	addwf	?___wmul& (0+255),w,b
  6120  002282  6F7A               	movwf	atoi@n& (0+255),b
  6121  002284  0E00               	movlw	0
  6122  002286  2167               	addwfc	(?___wmul+1)& (0+255),w,b
  6123  002288  6F7B               	movwf	(atoi@n+1)& (0+255),b
  6124  00228A  EFF6  F010         	goto	l6073
  6125  00228E                     l6081:
  6126                           
  6127                           ; BSR set to: 0
  6128  00228E  0ED0               	movlw	208
  6129  002290  6F6F               	movwf	??_atoi& (0+255),b
  6130  002292  0EFF               	movlw	255
  6131  002294  6F70               	movwf	(??_atoi+1)& (0+255),b
  6132  002296  C06D  FFF6         	movff	atoi@s,tblptrl
  6133  00229A  C06E  FFF7         	movff	atoi@s+1,tblptrh
  6134  00229E  6AF8               	clrf	tblptru,c
  6135  0022A0  0E05               	movlw	(high __ramtop+-1)
  6136  0022A2  64F7               	cpfsgt	tblptrh,c
  6137  0022A4  D003               	bra	u6967
  6138  0022A6  0008               	tblrd		*
  6139  0022A8  50F5               	movf	tablat,w,c
  6140  0022AA  D005               	bra	u6960
  6141  0022AC                     u6967:
  6142  0022AC  CFF6 FFE1          	movff	tblptrl,fsr1l
  6143  0022B0  CFF7 FFE2          	movff	tblptrh,fsr1h
  6144  0022B4  50E7               	movf	indf1,w,c
  6145  0022B6                     u6960:
  6146  0022B6  0100               	movlb	0	; () banked
  6147  0022B8  6F71               	movwf	(??_atoi+2)& (0+255),b
  6148  0022BA  6B72               	clrf	(??_atoi+3)& (0+255),b
  6149  0022BC  516F               	movf	??_atoi& (0+255),w,b
  6150  0022BE  2771               	addwf	(??_atoi+2)& (0+255),f,b
  6151  0022C0  5170               	movf	(??_atoi+1)& (0+255),w,b
  6152  0022C2  2372               	addwfc	(??_atoi+3)& (0+255),f,b
  6153  0022C4  5172               	movf	(??_atoi+3)& (0+255),w,b
  6154  0022C6  E10A               	bnz	u6970
  6155  0022C8  0E0A               	movlw	10
  6156  0022CA  5D71               	subwf	(??_atoi+2)& (0+255),w,b
  6157  0022CC  A0D8               	btfss	status,0,c
  6158  0022CE  EF6B  F011         	goto	u6971
  6159  0022D2  EF6E  F011         	goto	u6970
  6160  0022D6                     u6971:
  6161  0022D6  0E01               	movlw	1
  6162  0022D8  EF6F  F011         	goto	u6980
  6163  0022DC                     u6970:
  6164  0022DC  0E00               	movlw	0
  6165  0022DE                     u6980:
  6166  0022DE  6F77               	movwf	_atoi$2358& (0+255),b
  6167  0022E0  6B78               	clrf	(_atoi$2358+1)& (0+255),b
  6168  0022E2                     
  6169                           ; BSR set to: 0
  6170  0022E2  5177               	movf	_atoi$2358& (0+255),w,b
  6171  0022E4  1178               	iorwf	(_atoi$2358+1)& (0+255),w,b
  6172  0022E6  A4D8               	btfss	status,2,c
  6173  0022E8  EF78  F011         	goto	u6991
  6174  0022EC  EF7A  F011         	goto	u6990
  6175  0022F0                     u6991:
  6176  0022F0  EF1F  F011         	goto	l6077
  6177  0022F4                     u6990:
  6178  0022F4                     
  6179                           ; BSR set to: 0
  6180  0022F4  5173               	movf	atoi@neg& (0+255),w,b
  6181  0022F6  1174               	iorwf	(atoi@neg+1)& (0+255),w,b
  6182  0022F8  A4D8               	btfss	status,2,c
  6183  0022FA  EF81  F011         	goto	u7001
  6184  0022FE  EF83  F011         	goto	u7000
  6185  002302                     u7001:
  6186  002302  EF91  F011         	goto	l1660
  6187  002306                     u7000:
  6188  002306                     
  6189                           ; BSR set to: 0
  6190  002306  C07A  F06F         	movff	atoi@n,??_atoi
  6191  00230A  C07B  F070         	movff	atoi@n+1,??_atoi+1
  6192  00230E  1F6F               	comf	??_atoi& (0+255),f,b
  6193  002310  1F70               	comf	(??_atoi+1)& (0+255),f,b
  6194  002312  4B6F               	infsnz	??_atoi& (0+255),f,b
  6195  002314  2B70               	incf	(??_atoi+1)& (0+255),f,b
  6196  002316  C06F  F06D         	movff	??_atoi,?_atoi
  6197  00231A  C070  F06E         	movff	??_atoi+1,?_atoi+1
  6198  00231E  EF95  F011         	goto	l1663
  6199  002322                     l1660:
  6200                           
  6201                           ; BSR set to: 0
  6202  002322  C07A  F06D         	movff	atoi@n,?_atoi
  6203  002326  C07B  F06E         	movff	atoi@n+1,?_atoi+1
  6204  00232A                     l1663:
  6205                           
  6206                           ; BSR set to: 0
  6207  00232A  0012               	return		;funcret
  6208  00232C                     __end_of_atoi:
  6209                           	opt callstack 0
  6210                           
  6211 ;; *************** function _isspace *****************
  6212 ;; Defined at:
  6213 ;;		line 5 in file "C:\Program Files (x86)\Microchip\xc8\v2.10\pic\sources\c99\common\isspace.c"
  6214 ;; Parameters:    Size  Location     Type
  6215 ;;  c               2    6[BANK0 ] int 
  6216 ;; Auto vars:     Size  Location     Type
  6217 ;;		None
  6218 ;; Return value:  Size  Location     Type
  6219 ;;                  2    6[BANK0 ] int 
  6220 ;; Registers used:
  6221 ;;		wreg, status,2, status,0
  6222 ;; Tracked objects:
  6223 ;;		On entry : 0/0
  6224 ;;		On exit  : 0/0
  6225 ;;		Unchanged: 0/0
  6226 ;; Data sizes:     COMRAM   BANK0   BANK1   BANK2   BANK3   BANK4   BANK5
  6227 ;;      Params:         0       2       0       0       0       0       0
  6228 ;;      Locals:         0       1       0       0       0       0       0
  6229 ;;      Temps:          0       4       0       0       0       0       0
  6230 ;;      Totals:         0       7       0       0       0       0       0
  6231 ;;Total ram usage:        7 bytes
  6232 ;; Hardware stack levels used:    1
  6233 ;; Hardware stack levels required when called:    4
  6234 ;; This function calls:
  6235 ;;		Nothing
  6236 ;; This function is called by:
  6237 ;;		_atoi
  6238 ;; This function uses a non-reentrant model
  6239 ;;
  6240                           
  6241                           	psect	text18
  6242  003314                     __ptext18:
  6243                           	opt callstack 0
  6244  003314                     _isspace:
  6245                           	opt callstack 22
  6246  003314  0E01               	movlw	1
  6247  003316  0100               	movlb	0	; () banked
  6248  003318  6F6C               	movwf	_isspace$2374& (0+255),b
  6249  00331A                     
  6250                           ; BSR set to: 0
  6251  00331A  0E20               	movlw	32
  6252  00331C  1966               	xorwf	isspace@c& (0+255),w,b
  6253  00331E  1167               	iorwf	(isspace@c+1)& (0+255),w,b
  6254  003320  B4D8               	btfsc	status,2,c
  6255  003322  EF95  F019         	goto	u6871
  6256  003326  EF97  F019         	goto	u6870
  6257  00332A                     u6871:
  6258  00332A  EFB0  F019         	goto	l6049
  6259  00332E                     u6870:
  6260  00332E                     
  6261                           ; BSR set to: 0
  6262  00332E  0EF7               	movlw	247
  6263  003330  6F68               	movwf	??_isspace& (0+255),b
  6264  003332  0EFF               	movlw	255
  6265  003334  6F69               	movwf	(??_isspace+1)& (0+255),b
  6266  003336  C066  F06A         	movff	isspace@c,??_isspace+2
  6267  00333A  C067  F06B         	movff	isspace@c+1,??_isspace+3
  6268  00333E  5168               	movf	??_isspace& (0+255),w,b
  6269  003340  276A               	addwf	(??_isspace+2)& (0+255),f,b
  6270  003342  5169               	movf	(??_isspace+1)& (0+255),w,b
  6271  003344  236B               	addwfc	(??_isspace+3)& (0+255),f,b
  6272  003346  516B               	movf	(??_isspace+3)& (0+255),w,b
  6273  003348  E109               	bnz	u6880
  6274  00334A  0E05               	movlw	5
  6275  00334C  5D6A               	subwf	(??_isspace+2)& (0+255),w,b
  6276  00334E  A0D8               	btfss	status,0,c
  6277  003350  EFAC  F019         	goto	u6881
  6278  003354  EFAE  F019         	goto	u6880
  6279  003358                     u6881:
  6280  003358  EFB0  F019         	goto	l6049
  6281  00335C                     u6880:
  6282  00335C                     
  6283                           ; BSR set to: 0
  6284  00335C  0E00               	movlw	0
  6285  00335E  6F6C               	movwf	_isspace$2374& (0+255),b
  6286  003360                     l6049:
  6287                           
  6288                           ; BSR set to: 0
  6289  003360  C06C  F066         	movff	_isspace$2374,?_isspace
  6290  003364  6B67               	clrf	(?_isspace+1)& (0+255),b
  6291  003366                     
  6292                           ; BSR set to: 0
  6293  003366  0012               	return		;funcret
  6294  003368                     __end_of_isspace:
  6295                           	opt callstack 0
  6296                           
  6297 ;; *************** function _isdigit *****************
  6298 ;; Defined at:
  6299 ;;		line 5 in file "C:\Program Files (x86)\Microchip\xc8\v2.10\pic\sources\c99\common\isdigit.c"
  6300 ;; Parameters:    Size  Location     Type
  6301 ;;  c               2    6[BANK0 ] int 
  6302 ;; Auto vars:     Size  Location     Type
  6303 ;;		None
  6304 ;; Return value:  Size  Location     Type
  6305 ;;                  2    6[BANK0 ] int 
  6306 ;; Registers used:
  6307 ;;		wreg, status,2, status,0
  6308 ;; Tracked objects:
  6309 ;;		On entry : 0/0
  6310 ;;		On exit  : 0/0
  6311 ;;		Unchanged: 0/0
  6312 ;; Data sizes:     COMRAM   BANK0   BANK1   BANK2   BANK3   BANK4   BANK5
  6313 ;;      Params:         0       2       0       0       0       0       0
  6314 ;;      Locals:         0       0       0       0       0       0       0
  6315 ;;      Temps:          0       4       0       0       0       0       0
  6316 ;;      Totals:         0       6       0       0       0       0       0
  6317 ;;Total ram usage:        6 bytes
  6318 ;; Hardware stack levels used:    1
  6319 ;; Hardware stack levels required when called:    4
  6320 ;; This function calls:
  6321 ;;		Nothing
  6322 ;; This function is called by:
  6323 ;;		_vfpfcnvrt
  6324 ;;		_atoi
  6325 ;; This function uses a non-reentrant model
  6326 ;;
  6327                           
  6328                           	psect	text19
  6329  0036E0                     __ptext19:
  6330                           	opt callstack 0
  6331  0036E0                     _isdigit:
  6332                           	opt callstack 23
  6333  0036E0  0ED0               	movlw	208
  6334  0036E2  0100               	movlb	0	; () banked
  6335  0036E4  6F68               	movwf	??_isdigit& (0+255),b
  6336  0036E6  0EFF               	movlw	255
  6337  0036E8  6F69               	movwf	(??_isdigit+1)& (0+255),b
  6338  0036EA  C066  F06A         	movff	isdigit@c,??_isdigit+2
  6339  0036EE  C067  F06B         	movff	isdigit@c+1,??_isdigit+3
  6340  0036F2  5168               	movf	??_isdigit& (0+255),w,b
  6341  0036F4  276A               	addwf	(??_isdigit+2)& (0+255),f,b
  6342  0036F6  5169               	movf	(??_isdigit+1)& (0+255),w,b
  6343  0036F8  236B               	addwfc	(??_isdigit+3)& (0+255),f,b
  6344  0036FA  516B               	movf	(??_isdigit+3)& (0+255),w,b
  6345  0036FC  E10A               	bnz	u6720
  6346  0036FE  0E0A               	movlw	10
  6347  003700  5D6A               	subwf	(??_isdigit+2)& (0+255),w,b
  6348  003702  A0D8               	btfss	status,0,c
  6349  003704  EF86  F01B         	goto	u6721
  6350  003708  EF89  F01B         	goto	u6720
  6351  00370C                     u6721:
  6352  00370C  0E01               	movlw	1
  6353  00370E  EF8A  F01B         	goto	u6730
  6354  003712                     u6720:
  6355  003712  0E00               	movlw	0
  6356  003714                     u6730:
  6357  003714  6F66               	movwf	?_isdigit& (0+255),b
  6358  003716  6B67               	clrf	(?_isdigit+1)& (0+255),b
  6359  003718                     
  6360                           ; BSR set to: 0
  6361  003718  0012               	return		;funcret
  6362  00371A                     __end_of_isdigit:
  6363                           	opt callstack 0
  6364                           
  6365 ;; *************** function ___wmul *****************
  6366 ;; Defined at:
  6367 ;;		line 15 in file "C:\Program Files (x86)\Microchip\xc8\v2.10\pic\sources\c99\common\Umul16.c"
  6368 ;; Parameters:    Size  Location     Type
  6369 ;;  multiplier      2    6[BANK0 ] unsigned int 
  6370 ;;  multiplicand    2    8[BANK0 ] unsigned int 
  6371 ;; Auto vars:     Size  Location     Type
  6372 ;;  product         2   10[BANK0 ] unsigned int 
  6373 ;; Return value:  Size  Location     Type
  6374 ;;                  2    6[BANK0 ] unsigned int 
  6375 ;; Registers used:
  6376 ;;		wreg, status,2, status,0, prodl, prodh
  6377 ;; Tracked objects:
  6378 ;;		On entry : 0/0
  6379 ;;		On exit  : 0/0
  6380 ;;		Unchanged: 0/0
  6381 ;; Data sizes:     COMRAM   BANK0   BANK1   BANK2   BANK3   BANK4   BANK5
  6382 ;;      Params:         0       4       0       0       0       0       0
  6383 ;;      Locals:         0       2       0       0       0       0       0
  6384 ;;      Temps:          0       0       0       0       0       0       0
  6385 ;;      Totals:         0       6       0       0       0       0       0
  6386 ;;Total ram usage:        6 bytes
  6387 ;; Hardware stack levels used:    1
  6388 ;; Hardware stack levels required when called:    4
  6389 ;; This function calls:
  6390 ;;		Nothing
  6391 ;; This function is called by:
  6392 ;;		_atoi
  6393 ;; This function uses a non-reentrant model
  6394 ;;
  6395                           
  6396                           	psect	text20
  6397  003868                     __ptext20:
  6398                           	opt callstack 0
  6399  003868                     ___wmul:
  6400                           	opt callstack 22
  6401  003868  0100               	movlb	0	; () banked
  6402  00386A  5166               	movf	___wmul@multiplier& (0+255),w,b
  6403  00386C  0368               	mulwf	___wmul@multiplicand& (0+255),b
  6404  00386E  CFF3 F06A          	movff	prodl,___wmul@product
  6405  003872  CFF4 F06B          	movff	prodh,___wmul@product+1
  6406  003876  5166               	movf	___wmul@multiplier& (0+255),w,b
  6407  003878  0369               	mulwf	(___wmul@multiplicand+1)& (0+255),b
  6408  00387A  50F3               	movf	243,w,c
  6409  00387C  276B               	addwf	(___wmul@product+1)& (0+255),f,b
  6410  00387E  5167               	movf	(___wmul@multiplier+1)& (0+255),w,b
  6411  003880  0368               	mulwf	___wmul@multiplicand& (0+255),b
  6412  003882  50F3               	movf	243,w,c
  6413  003884  276B               	addwf	(___wmul@product+1)& (0+255),f,b
  6414  003886                     
  6415                           ; BSR set to: 0
  6416  003886  C06A  F066         	movff	___wmul@product,?___wmul
  6417  00388A  C06B  F067         	movff	___wmul@product+1,?___wmul+1
  6418  00388E                     
  6419                           ; BSR set to: 0
  6420  00388E  0012               	return		;funcret
  6421  003890                     __end_of___wmul:
  6422                           	opt callstack 0
  6423                           
  6424 ;; *************** function _memset *****************
  6425 ;; Defined at:
  6426 ;;		line 4 in file "C:\Program Files (x86)\Microchip\xc8\v2.10\pic\sources\c99\common\memset.c"
  6427 ;; Parameters:    Size  Location     Type
  6428 ;;  dest            2    6[BANK0 ] PTR void 
  6429 ;;		 -> temp_alarme_string(4), 
  6430 ;;  c               2    8[BANK0 ] int 
  6431 ;;  n               2   10[BANK0 ] unsigned int 
  6432 ;; Auto vars:     Size  Location     Type
  6433 ;;  s               2   16[BANK0 ] PTR unsigned char 
  6434 ;;		 -> temp_alarme_string(4), 
  6435 ;;  k               2   14[BANK0 ] unsigned int 
  6436 ;; Return value:  Size  Location     Type
  6437 ;;                  2    6[BANK0 ] PTR void 
  6438 ;; Registers used:
  6439 ;;		wreg, fsr2l, fsr2h, status,2, status,0
  6440 ;; Tracked objects:
  6441 ;;		On entry : 0/0
  6442 ;;		On exit  : 0/0
  6443 ;;		Unchanged: 0/0
  6444 ;; Data sizes:     COMRAM   BANK0   BANK1   BANK2   BANK3   BANK4   BANK5
  6445 ;;      Params:         0       6       0       0       0       0       0
  6446 ;;      Locals:         0       4       0       0       0       0       0
  6447 ;;      Temps:          0       2       0       0       0       0       0
  6448 ;;      Totals:         0      12       0       0       0       0       0
  6449 ;;Total ram usage:       12 bytes
  6450 ;; Hardware stack levels used:    1
  6451 ;; Hardware stack levels required when called:    4
  6452 ;; This function calls:
  6453 ;;		Nothing
  6454 ;; This function is called by:
  6455 ;;		_main
  6456 ;; This function uses a non-reentrant model
  6457 ;;
  6458                           
  6459                           	psect	text21
  6460  002862                     __ptext21:
  6461                           	opt callstack 0
  6462  002862                     _memset:
  6463                           	opt callstack 26
  6464  002862  C066  F070         	movff	memset@dest,memset@s
  6465  002866  C067  F071         	movff	memset@dest+1,memset@s+1
  6466  00286A  0100               	movlb	0	; () banked
  6467  00286C  516A               	movf	memset@n& (0+255),w,b
  6468  00286E  116B               	iorwf	(memset@n+1)& (0+255),w,b
  6469  002870  A4D8               	btfss	status,2,c
  6470  002872  EF3D  F014         	goto	u7561
  6471  002876  EF3F  F014         	goto	u7560
  6472  00287A                     u7561:
  6473  00287A  EF41  F014         	goto	l6667
  6474  00287E                     u7560:
  6475  00287E  EFEC  F014         	goto	l1681
  6476  002882                     l6667:
  6477                           
  6478                           ; BSR set to: 0
  6479  002882  C070  FFD9         	movff	memset@s,fsr2l
  6480  002886  C071  FFDA         	movff	memset@s+1,fsr2h
  6481  00288A  C068  FFDF         	movff	memset@c,indf2
  6482  00288E                     
  6483                           ; BSR set to: 0
  6484  00288E  516A               	movf	memset@n& (0+255),w,b
  6485  002890  2570               	addwf	memset@s& (0+255),w,b
  6486  002892  6F6C               	movwf	??_memset& (0+255),b
  6487  002894  516B               	movf	(memset@n+1)& (0+255),w,b
  6488  002896  2171               	addwfc	(memset@s+1)& (0+255),w,b
  6489  002898  6F6D               	movwf	(??_memset+1)& (0+255),b
  6490  00289A  0EFF               	movlw	255
  6491  00289C  256C               	addwf	??_memset& (0+255),w,b
  6492  00289E  6ED9               	movwf	fsr2l,c
  6493  0028A0  0EFF               	movlw	255
  6494  0028A2  216D               	addwfc	(??_memset+1)& (0+255),w,b
  6495  0028A4  6EDA               	movwf	fsr2h,c
  6496  0028A6  C068  FFDF         	movff	memset@c,indf2
  6497  0028AA  516B               	movf	(memset@n+1)& (0+255),w,b
  6498  0028AC  E107               	bnz	u7571
  6499  0028AE  0E03               	movlw	3
  6500  0028B0  5D6A               	subwf	memset@n& (0+255),w,b
  6501  0028B2  B0D8               	btfsc	status,0,c
  6502  0028B4  EF5E  F014         	goto	u7571
  6503  0028B8  EF60  F014         	goto	u7570
  6504  0028BC                     u7571:
  6505  0028BC  EF62  F014         	goto	l6673
  6506  0028C0                     u7570:
  6507  0028C0  EFEC  F014         	goto	l1681
  6508  0028C4                     l6673:
  6509                           
  6510                           ; BSR set to: 0
  6511  0028C4  EE20 F001          	lfsr	2,1
  6512  0028C8  5170               	movf	memset@s& (0+255),w,b
  6513  0028CA  26D9               	addwf	fsr2l,f,c
  6514  0028CC  5171               	movf	(memset@s+1)& (0+255),w,b
  6515  0028CE  22DA               	addwfc	fsr2h,f,c
  6516  0028D0  C068  FFDF         	movff	memset@c,indf2
  6517  0028D4  EE20 F002          	lfsr	2,2
  6518  0028D8  5170               	movf	memset@s& (0+255),w,b
  6519  0028DA  26D9               	addwf	fsr2l,f,c
  6520  0028DC  5171               	movf	(memset@s+1)& (0+255),w,b
  6521  0028DE  22DA               	addwfc	fsr2h,f,c
  6522  0028E0  C068  FFDF         	movff	memset@c,indf2
  6523  0028E4  516A               	movf	memset@n& (0+255),w,b
  6524  0028E6  2570               	addwf	memset@s& (0+255),w,b
  6525  0028E8  6F6C               	movwf	??_memset& (0+255),b
  6526  0028EA  516B               	movf	(memset@n+1)& (0+255),w,b
  6527  0028EC  2171               	addwfc	(memset@s+1)& (0+255),w,b
  6528  0028EE  6F6D               	movwf	(??_memset+1)& (0+255),b
  6529  0028F0  0EFE               	movlw	254
  6530  0028F2  256C               	addwf	??_memset& (0+255),w,b
  6531  0028F4  6ED9               	movwf	fsr2l,c
  6532  0028F6  0EFF               	movlw	255
  6533  0028F8  216D               	addwfc	(??_memset+1)& (0+255),w,b
  6534  0028FA  6EDA               	movwf	fsr2h,c
  6535  0028FC  C068  FFDF         	movff	memset@c,indf2
  6536  002900  516A               	movf	memset@n& (0+255),w,b
  6537  002902  2570               	addwf	memset@s& (0+255),w,b
  6538  002904  6F6C               	movwf	??_memset& (0+255),b
  6539  002906  516B               	movf	(memset@n+1)& (0+255),w,b
  6540  002908  2171               	addwfc	(memset@s+1)& (0+255),w,b
  6541  00290A  6F6D               	movwf	(??_memset+1)& (0+255),b
  6542  00290C  0EFD               	movlw	253
  6543  00290E  256C               	addwf	??_memset& (0+255),w,b
  6544  002910  6ED9               	movwf	fsr2l,c
  6545  002912  0EFF               	movlw	255
  6546  002914  216D               	addwfc	(??_memset+1)& (0+255),w,b
  6547  002916  6EDA               	movwf	fsr2h,c
  6548  002918  C068  FFDF         	movff	memset@c,indf2
  6549  00291C                     
  6550                           ; BSR set to: 0
  6551  00291C  516B               	movf	(memset@n+1)& (0+255),w,b
  6552  00291E  E107               	bnz	u7581
  6553  002920  0E07               	movlw	7
  6554  002922  5D6A               	subwf	memset@n& (0+255),w,b
  6555  002924  B0D8               	btfsc	status,0,c
  6556  002926  EF97  F014         	goto	u7581
  6557  00292A  EF99  F014         	goto	u7580
  6558  00292E                     u7581:
  6559  00292E  EF9B  F014         	goto	l6679
  6560  002932                     u7580:
  6561  002932  EFEC  F014         	goto	l1681
  6562  002936                     l6679:
  6563                           
  6564                           ; BSR set to: 0
  6565  002936  EE20 F003          	lfsr	2,3
  6566  00293A  5170               	movf	memset@s& (0+255),w,b
  6567  00293C  26D9               	addwf	fsr2l,f,c
  6568  00293E  5171               	movf	(memset@s+1)& (0+255),w,b
  6569  002940  22DA               	addwfc	fsr2h,f,c
  6570  002942  C068  FFDF         	movff	memset@c,indf2
  6571  002946  516A               	movf	memset@n& (0+255),w,b
  6572  002948  2570               	addwf	memset@s& (0+255),w,b
  6573  00294A  6F6C               	movwf	??_memset& (0+255),b
  6574  00294C  516B               	movf	(memset@n+1)& (0+255),w,b
  6575  00294E  2171               	addwfc	(memset@s+1)& (0+255),w,b
  6576  002950  6F6D               	movwf	(??_memset+1)& (0+255),b
  6577  002952  0EFC               	movlw	252
  6578  002954  256C               	addwf	??_memset& (0+255),w,b
  6579  002956  6ED9               	movwf	fsr2l,c
  6580  002958  0EFF               	movlw	255
  6581  00295A  216D               	addwfc	(??_memset+1)& (0+255),w,b
  6582  00295C  6EDA               	movwf	fsr2h,c
  6583  00295E  C068  FFDF         	movff	memset@c,indf2
  6584  002962                     
  6585                           ; BSR set to: 0
  6586  002962  516B               	movf	(memset@n+1)& (0+255),w,b
  6587  002964  E107               	bnz	u7591
  6588  002966  0E09               	movlw	9
  6589  002968  5D6A               	subwf	memset@n& (0+255),w,b
  6590  00296A  B0D8               	btfsc	status,0,c
  6591  00296C  EFBA  F014         	goto	u7591
  6592  002970  EFBC  F014         	goto	u7590
  6593  002974                     u7591:
  6594  002974  EFBE  F014         	goto	l6685
  6595  002978                     u7590:
  6596  002978  EFEC  F014         	goto	l1681
  6597  00297C                     l6685:
  6598                           
  6599                           ; BSR set to: 0
  6600  00297C  C070  F06C         	movff	memset@s,??_memset
  6601  002980  C071  F06D         	movff	memset@s+1,??_memset+1
  6602  002984  1F6C               	comf	??_memset& (0+255),f,b
  6603  002986  1F6D               	comf	(??_memset+1)& (0+255),f,b
  6604  002988  4B6C               	infsnz	??_memset& (0+255),f,b
  6605  00298A  2B6D               	incf	(??_memset+1)& (0+255),f,b
  6606  00298C  0E03               	movlw	3
  6607  00298E  156C               	andwf	??_memset& (0+255),w,b
  6608  002990  6F6E               	movwf	memset@k& (0+255),b
  6609  002992  6B6F               	clrf	(memset@k+1)& (0+255),b
  6610  002994  516E               	movf	memset@k& (0+255),w,b
  6611  002996  2770               	addwf	memset@s& (0+255),f,b
  6612  002998  516F               	movf	(memset@k+1)& (0+255),w,b
  6613  00299A  2371               	addwfc	(memset@s+1)& (0+255),f,b
  6614  00299C  516E               	movf	memset@k& (0+255),w,b
  6615  00299E  5F6A               	subwf	memset@n& (0+255),f,b
  6616  0029A0  516F               	movf	(memset@k+1)& (0+255),w,b
  6617  0029A2  5B6B               	subwfb	(memset@n+1)& (0+255),f,b
  6618  0029A4  0EFC               	movlw	252
  6619  0029A6  176A               	andwf	memset@n& (0+255),f,b
  6620  0029A8  0EFF               	movlw	255
  6621  0029AA  176B               	andwf	(memset@n+1)& (0+255),f,b
  6622  0029AC  EFE3  F014         	goto	l6693
  6623  0029B0                     l6687:
  6624                           
  6625                           ; BSR set to: 0
  6626  0029B0  C070  FFD9         	movff	memset@s,fsr2l
  6627  0029B4  C071  FFDA         	movff	memset@s+1,fsr2h
  6628  0029B8  C068  FFDF         	movff	memset@c,indf2
  6629  0029BC                     
  6630                           ; BSR set to: 0
  6631  0029BC  076A               	decf	memset@n& (0+255),f,b
  6632  0029BE  A0D8               	btfss	status,0,c
  6633  0029C0  076B               	decf	(memset@n+1)& (0+255),f,b
  6634  0029C2                     
  6635                           ; BSR set to: 0
  6636  0029C2  4B70               	infsnz	memset@s& (0+255),f,b
  6637  0029C4  2B71               	incf	(memset@s+1)& (0+255),f,b
  6638  0029C6                     l6693:
  6639                           
  6640                           ; BSR set to: 0
  6641  0029C6  516A               	movf	memset@n& (0+255),w,b
  6642  0029C8  116B               	iorwf	(memset@n+1)& (0+255),w,b
  6643  0029CA  A4D8               	btfss	status,2,c
  6644  0029CC  EFEA  F014         	goto	u7601
  6645  0029D0  EFEC  F014         	goto	u7600
  6646  0029D4                     u7601:
  6647  0029D4  EFD8  F014         	goto	l6687
  6648  0029D8                     u7600:
  6649  0029D8                     l1681:
  6650                           
  6651                           ; BSR set to: 0
  6652  0029D8  0012               	return		;funcret
  6653  0029DA                     __end_of_memset:
  6654                           	opt callstack 0
  6655                           
  6656 ;; *************** function _SYSTEM_Initialize *****************
  6657 ;; Defined at:
  6658 ;;		line 50 in file "mcc_generated_files/mcc.c"
  6659 ;; Parameters:    Size  Location     Type
  6660 ;;		None
  6661 ;; Auto vars:     Size  Location     Type
  6662 ;;		None
  6663 ;; Return value:  Size  Location     Type
  6664 ;;                  1    wreg      void 
  6665 ;; Registers used:
  6666 ;;		wreg, status,2, status,0, cstack
  6667 ;; Tracked objects:
  6668 ;;		On entry : 0/0
  6669 ;;		On exit  : 0/0
  6670 ;;		Unchanged: 0/0
  6671 ;; Data sizes:     COMRAM   BANK0   BANK1   BANK2   BANK3   BANK4   BANK5
  6672 ;;      Params:         0       0       0       0       0       0       0
  6673 ;;      Locals:         0       0       0       0       0       0       0
  6674 ;;      Temps:          0       0       0       0       0       0       0
  6675 ;;      Totals:         0       0       0       0       0       0       0
  6676 ;;Total ram usage:        0 bytes
  6677 ;; Hardware stack levels used:    1
  6678 ;; Hardware stack levels required when called:    6
  6679 ;; This function calls:
  6680 ;;		_ADC_Initialize
  6681 ;;		_EPWM1_Initialize
  6682 ;;		_EUSART1_Initialize
  6683 ;;		_EXT_INT_Initialize
  6684 ;;		_INTERRUPT_Initialize
  6685 ;;		_OSCILLATOR_Initialize
  6686 ;;		_PIN_MANAGER_Initialize
  6687 ;;		_TMR0_Initialize
  6688 ;;		_TMR2_Initialize
  6689 ;; This function is called by:
  6690 ;;		_main
  6691 ;; This function uses a non-reentrant model
  6692 ;;
  6693                           
  6694                           	psect	text22
  6695  003890                     __ptext22:
  6696                           	opt callstack 0
  6697  003890                     _SYSTEM_Initialize:
  6698                           	opt callstack 24
  6699  003890                     
  6700                           ;mcc_generated_files/mcc.c: 53:     INTERRUPT_Initialize();
  6701  003890  ECDB  F01C         	call	_INTERRUPT_Initialize	;wreg free
  6702  003894                     
  6703                           ;mcc_generated_files/mcc.c: 54:     PIN_MANAGER_Initialize();
  6704  003894  EC4D  F01A         	call	_PIN_MANAGER_Initialize	;wreg free
  6705  003898                     
  6706                           ;mcc_generated_files/mcc.c: 55:     OSCILLATOR_Initialize();
  6707  003898  ECD4  F01C         	call	_OSCILLATOR_Initialize	;wreg free
  6708  00389C                     
  6709                           ;mcc_generated_files/mcc.c: 56:     ADC_Initialize();
  6710  00389C  EC5B  F01C         	call	_ADC_Initialize	;wreg free
  6711  0038A0                     
  6712                           ;mcc_generated_files/mcc.c: 57:     EPWM1_Initialize();
  6713  0038A0  EC81  F01C         	call	_EPWM1_Initialize	;wreg free
  6714  0038A4                     
  6715                           ;mcc_generated_files/mcc.c: 58:     TMR2_Initialize();
  6716  0038A4  ECBD  F01C         	call	_TMR2_Initialize	;wreg free
  6717  0038A8                     
  6718                           ;mcc_generated_files/mcc.c: 59:     EXT_INT_Initialize();
  6719  0038A8  ECF8  F01A         	call	_EXT_INT_Initialize	;wreg free
  6720  0038AC                     
  6721                           ;mcc_generated_files/mcc.c: 60:     TMR0_Initialize();
  6722  0038AC  EC8D  F01B         	call	_TMR0_Initialize	;wreg free
  6723  0038B0                     
  6724                           ;mcc_generated_files/mcc.c: 61:     EUSART1_Initialize();
  6725  0038B0  EC29  F019         	call	_EUSART1_Initialize	;wreg free
  6726  0038B4  0012               	return		;funcret
  6727  0038B6                     __end_of_SYSTEM_Initialize:
  6728                           	opt callstack 0
  6729                           
  6730 ;; *************** function _TMR2_Initialize *****************
  6731 ;; Defined at:
  6732 ;;		line 62 in file "mcc_generated_files/tmr2.c"
  6733 ;; Parameters:    Size  Location     Type
  6734 ;;		None
  6735 ;; Auto vars:     Size  Location     Type
  6736 ;;		None
  6737 ;; Return value:  Size  Location     Type
  6738 ;;                  1    wreg      void 
  6739 ;; Registers used:
  6740 ;;		wreg, status,2
  6741 ;; Tracked objects:
  6742 ;;		On entry : 0/0
  6743 ;;		On exit  : 0/0
  6744 ;;		Unchanged: 0/0
  6745 ;; Data sizes:     COMRAM   BANK0   BANK1   BANK2   BANK3   BANK4   BANK5
  6746 ;;      Params:         0       0       0       0       0       0       0
  6747 ;;      Locals:         0       0       0       0       0       0       0
  6748 ;;      Temps:          0       0       0       0       0       0       0
  6749 ;;      Totals:         0       0       0       0       0       0       0
  6750 ;;Total ram usage:        0 bytes
  6751 ;; Hardware stack levels used:    1
  6752 ;; Hardware stack levels required when called:    4
  6753 ;; This function calls:
  6754 ;;		Nothing
  6755 ;; This function is called by:
  6756 ;;		_SYSTEM_Initialize
  6757 ;; This function uses a non-reentrant model
  6758 ;;
  6759                           
  6760                           	psect	text23
  6761  00397A                     __ptext23:
  6762                           	opt callstack 0
  6763  00397A                     _TMR2_Initialize:
  6764                           	opt callstack 25
  6765  00397A                     
  6766                           ;mcc_generated_files/tmr2.c: 67:     PR2 = 0x4A;
  6767  00397A  0E4A               	movlw	74
  6768  00397C  6EBB               	movwf	187,c	;volatile
  6769                           
  6770                           ;mcc_generated_files/tmr2.c: 70:     TMR2 = 0x00;
  6771  00397E  0E00               	movlw	0
  6772  003980  6EBC               	movwf	188,c	;volatile
  6773  003982                     
  6774                           ;mcc_generated_files/tmr2.c: 73:     PIR1bits.TMR2IF = 0;
  6775  003982  929E               	bcf	158,1,c	;volatile
  6776                           
  6777                           ;mcc_generated_files/tmr2.c: 76:     T2CON = 0x05;
  6778  003984  0E05               	movlw	5
  6779  003986  6EBA               	movwf	186,c	;volatile
  6780  003988  0012               	return		;funcret
  6781  00398A                     __end_of_TMR2_Initialize:
  6782                           	opt callstack 0
  6783                           
  6784 ;; *************** function _TMR0_Initialize *****************
  6785 ;; Defined at:
  6786 ;;		line 67 in file "mcc_generated_files/tmr0.c"
  6787 ;; Parameters:    Size  Location     Type
  6788 ;;		None
  6789 ;; Auto vars:     Size  Location     Type
  6790 ;;		None
  6791 ;; Return value:  Size  Location     Type
  6792 ;;                  1    wreg      void 
  6793 ;; Registers used:
  6794 ;;		wreg, status,2, status,0, cstack
  6795 ;; Tracked objects:
  6796 ;;		On entry : 0/0
  6797 ;;		On exit  : 0/0
  6798 ;;		Unchanged: 0/0
  6799 ;; Data sizes:     COMRAM   BANK0   BANK1   BANK2   BANK3   BANK4   BANK5
  6800 ;;      Params:         0       0       0       0       0       0       0
  6801 ;;      Locals:         0       0       0       0       0       0       0
  6802 ;;      Temps:          0       2       0       0       0       0       0
  6803 ;;      Totals:         0       2       0       0       0       0       0
  6804 ;;Total ram usage:        2 bytes
  6805 ;; Hardware stack levels used:    1
  6806 ;; Hardware stack levels required when called:    5
  6807 ;; This function calls:
  6808 ;;		_TMR0_SetInterruptHandler
  6809 ;; This function is called by:
  6810 ;;		_SYSTEM_Initialize
  6811 ;; This function uses a non-reentrant model
  6812 ;;
  6813                           
  6814                           	psect	text24
  6815  00371A                     __ptext24:
  6816                           	opt callstack 0
  6817  00371A                     _TMR0_Initialize:
  6818                           	opt callstack 24
  6819  00371A                     
  6820                           ;mcc_generated_files/tmr0.c: 72:     T0CONbits.T08BIT = 0;
  6821  00371A  9CD5               	bcf	213,6,c	;volatile
  6822  00371C                     
  6823                           ;mcc_generated_files/tmr0.c: 75:     TMR0H = 0x48;
  6824  00371C  0E48               	movlw	72
  6825  00371E  6ED7               	movwf	215,c	;volatile
  6826                           
  6827                           ;mcc_generated_files/tmr0.c: 78:     TMR0L = 0xE4;
  6828  003720  0EE4               	movlw	228
  6829  003722  6ED6               	movwf	214,c	;volatile
  6830  003724                     
  6831                           ;mcc_generated_files/tmr0.c: 82:     timer0ReloadVal = (uint16_t)((TMR0H << 8) | TMR0L);
  6832  003724  50D6               	movf	214,w,c	;volatile
  6833  003726  CFD7 F068          	movff	4055,??_TMR0_Initialize	;volatile
  6834  00372A  0100               	movlb	0	; () banked
  6835  00372C  6B69               	clrf	(??_TMR0_Initialize+1)& (0+255),b
  6836  00372E  C068  F069         	movff	??_TMR0_Initialize,??_TMR0_Initialize+1
  6837  003732  6B68               	clrf	??_TMR0_Initialize& (0+255),b
  6838  003734  1168               	iorwf	??_TMR0_Initialize& (0+255),w,b
  6839  003736  6FF8               	movwf	_timer0ReloadVal& (0+255),b	;volatile
  6840  003738  5169               	movf	(??_TMR0_Initialize+1)& (0+255),w,b
  6841  00373A  6FF9               	movwf	(_timer0ReloadVal+1)& (0+255),b	;volatile
  6842  00373C                     
  6843                           ; BSR set to: 0
  6844                           ;mcc_generated_files/tmr0.c: 85:     INTCONbits.TMR0IF = 0;
  6845  00373C  94F2               	bcf	242,2,c	;volatile
  6846  00373E                     
  6847                           ; BSR set to: 0
  6848                           ;mcc_generated_files/tmr0.c: 88:     INTCONbits.TMR0IE = 1;
  6849  00373E  8AF2               	bsf	242,5,c	;volatile
  6850  003740                     
  6851                           ; BSR set to: 0
  6852                           ;mcc_generated_files/tmr0.c: 91:     TMR0_SetInterruptHandler(TMR0_DefaultInterruptHandl
      +                          er);
  6853  003740  0E48               	movlw	low _TMR0_DefaultInterruptHandler
  6854  003742  6F66               	movwf	TMR0_SetInterruptHandler@InterruptHandler& (0+255),b
  6855  003744  0E3A               	movlw	high _TMR0_DefaultInterruptHandler
  6856  003746  6F67               	movwf	(TMR0_SetInterruptHandler@InterruptHandler+1)& (0+255),b
  6857  003748  ECE2  F01C         	call	_TMR0_SetInterruptHandler	;wreg free
  6858  00374C                     
  6859                           ;mcc_generated_files/tmr0.c: 94:     T0CON = 0x93;
  6860  00374C  0E93               	movlw	147
  6861  00374E  6ED5               	movwf	213,c	;volatile
  6862  003750  0012               	return		;funcret
  6863  003752                     __end_of_TMR0_Initialize:
  6864                           	opt callstack 0
  6865                           
  6866 ;; *************** function _TMR0_SetInterruptHandler *****************
  6867 ;; Defined at:
  6868 ;;		line 156 in file "mcc_generated_files/tmr0.c"
  6869 ;; Parameters:    Size  Location     Type
  6870 ;;  InterruptHan    2    6[BANK0 ] PTR FTN()void 
  6871 ;;		 -> Timer_0(1), TMR0_DefaultInterruptHandler(1), 
  6872 ;; Auto vars:     Size  Location     Type
  6873 ;;		None
  6874 ;; Return value:  Size  Location     Type
  6875 ;;                  1    wreg      void 
  6876 ;; Registers used:
  6877 ;;		wreg, status,2, status,0
  6878 ;; Tracked objects:
  6879 ;;		On entry : 0/0
  6880 ;;		On exit  : 0/0
  6881 ;;		Unchanged: 0/0
  6882 ;; Data sizes:     COMRAM   BANK0   BANK1   BANK2   BANK3   BANK4   BANK5
  6883 ;;      Params:         0       2       0       0       0       0       0
  6884 ;;      Locals:         0       0       0       0       0       0       0
  6885 ;;      Temps:          0       0       0       0       0       0       0
  6886 ;;      Totals:         0       2       0       0       0       0       0
  6887 ;;Total ram usage:        2 bytes
  6888 ;; Hardware stack levels used:    1
  6889 ;; Hardware stack levels required when called:    4
  6890 ;; This function calls:
  6891 ;;		Nothing
  6892 ;; This function is called by:
  6893 ;;		_TMR0_Initialize
  6894 ;;		_main
  6895 ;; This function uses a non-reentrant model
  6896 ;;
  6897                           
  6898                           	psect	text25
  6899  0039C4                     __ptext25:
  6900                           	opt callstack 0
  6901  0039C4                     _TMR0_SetInterruptHandler:
  6902                           	opt callstack 26
  6903  0039C4                     
  6904                           ;mcc_generated_files/tmr0.c: 157:     TMR0_InterruptHandler = InterruptHandler;
  6905  0039C4  C066  F1AA         	movff	TMR0_SetInterruptHandler@InterruptHandler,_TMR0_InterruptHandler
  6906  0039C8  C067  F1AB         	movff	TMR0_SetInterruptHandler@InterruptHandler+1,_TMR0_InterruptHandler+1
  6907  0039CC  0012               	return		;funcret
  6908  0039CE                     __end_of_TMR0_SetInterruptHandler:
  6909                           	opt callstack 0
  6910                           
  6911 ;; *************** function _PIN_MANAGER_Initialize *****************
  6912 ;; Defined at:
  6913 ;;		line 55 in file "mcc_generated_files/pin_manager.c"
  6914 ;; Parameters:    Size  Location     Type
  6915 ;;		None
  6916 ;; Auto vars:     Size  Location     Type
  6917 ;;		None
  6918 ;; Return value:  Size  Location     Type
  6919 ;;                  1    wreg      void 
  6920 ;; Registers used:
  6921 ;;		wreg, status,2
  6922 ;; Tracked objects:
  6923 ;;		On entry : 0/0
  6924 ;;		On exit  : 0/0
  6925 ;;		Unchanged: 0/0
  6926 ;; Data sizes:     COMRAM   BANK0   BANK1   BANK2   BANK3   BANK4   BANK5
  6927 ;;      Params:         0       0       0       0       0       0       0
  6928 ;;      Locals:         0       0       0       0       0       0       0
  6929 ;;      Temps:          0       0       0       0       0       0       0
  6930 ;;      Totals:         0       0       0       0       0       0       0
  6931 ;;Total ram usage:        0 bytes
  6932 ;; Hardware stack levels used:    1
  6933 ;; Hardware stack levels required when called:    4
  6934 ;; This function calls:
  6935 ;;		Nothing
  6936 ;; This function is called by:
  6937 ;;		_SYSTEM_Initialize
  6938 ;; This function uses a non-reentrant model
  6939 ;;
  6940                           
  6941                           	psect	text26
  6942  00349A                     __ptext26:
  6943                           	opt callstack 0
  6944  00349A                     _PIN_MANAGER_Initialize:
  6945                           	opt callstack 25
  6946  00349A                     
  6947                           ;mcc_generated_files/pin_manager.c: 60:     LATE = 0x00;
  6948  00349A  0E00               	movlw	0
  6949  00349C  6E8D               	movwf	141,c	;volatile
  6950                           
  6951                           ;mcc_generated_files/pin_manager.c: 61:     LATD = 0x00;
  6952  00349E  0E00               	movlw	0
  6953  0034A0  6E8C               	movwf	140,c	;volatile
  6954                           
  6955                           ;mcc_generated_files/pin_manager.c: 62:     LATA = 0x00;
  6956  0034A2  0E00               	movlw	0
  6957  0034A4  6E89               	movwf	137,c	;volatile
  6958                           
  6959                           ;mcc_generated_files/pin_manager.c: 63:     LATB = 0x00;
  6960  0034A6  0E00               	movlw	0
  6961  0034A8  6E8A               	movwf	138,c	;volatile
  6962                           
  6963                           ;mcc_generated_files/pin_manager.c: 64:     LATC = 0x00;
  6964  0034AA  0E00               	movlw	0
  6965  0034AC  6E8B               	movwf	139,c	;volatile
  6966                           
  6967                           ;mcc_generated_files/pin_manager.c: 69:     TRISE = 0x07;
  6968  0034AE  0E07               	movlw	7
  6969  0034B0  6E96               	movwf	150,c	;volatile
  6970                           
  6971                           ;mcc_generated_files/pin_manager.c: 70:     TRISA = 0xFD;
  6972  0034B2  0EFD               	movlw	253
  6973  0034B4  6E92               	movwf	146,c	;volatile
  6974                           
  6975                           ;mcc_generated_files/pin_manager.c: 71:     TRISB = 0x87;
  6976  0034B6  0E87               	movlw	135
  6977  0034B8  6E93               	movwf	147,c	;volatile
  6978                           
  6979                           ;mcc_generated_files/pin_manager.c: 72:     TRISC = 0xBB;
  6980  0034BA  0EBB               	movlw	187
  6981  0034BC  6E94               	movwf	148,c	;volatile
  6982                           
  6983                           ;mcc_generated_files/pin_manager.c: 73:     TRISD = 0x00;
  6984  0034BE  0E00               	movlw	0
  6985  0034C0  6E95               	movwf	149,c	;volatile
  6986                           
  6987                           ;mcc_generated_files/pin_manager.c: 78:     ANSELD = 0x00;
  6988  0034C2  0E00               	movlw	0
  6989  0034C4  010F               	movlb	15	; () banked
  6990  0034C6  6F3B               	movwf	59,b	;volatile
  6991                           
  6992                           ;mcc_generated_files/pin_manager.c: 79:     ANSELC = 0x38;
  6993  0034C8  0E38               	movlw	56
  6994  0034CA  6F3A               	movwf	58,b	;volatile
  6995                           
  6996                           ;mcc_generated_files/pin_manager.c: 80:     ANSELB = 0x00;
  6997  0034CC  0E00               	movlw	0
  6998  0034CE  6F39               	movwf	57,b	;volatile
  6999                           
  7000                           ;mcc_generated_files/pin_manager.c: 81:     ANSELE = 0x07;
  7001  0034D0  0E07               	movlw	7
  7002  0034D2  6F3C               	movwf	60,b	;volatile
  7003                           
  7004                           ;mcc_generated_files/pin_manager.c: 82:     ANSELA = 0x2D;
  7005  0034D4  0E2D               	movlw	45
  7006  0034D6  6F38               	movwf	56,b	;volatile
  7007                           
  7008                           ;mcc_generated_files/pin_manager.c: 87:     WPUB = 0x07;
  7009  0034D8  0E07               	movlw	7
  7010  0034DA  6E61               	movwf	97,c	;volatile
  7011  0034DC                     
  7012                           ; BSR set to: 15
  7013                           ;mcc_generated_files/pin_manager.c: 88:     INTCON2bits.nRBPU = 0;
  7014  0034DC  9EF1               	bcf	241,7,c	;volatile
  7015  0034DE                     
  7016                           ; BSR set to: 15
  7017  0034DE  0012               	return		;funcret
  7018  0034E0                     __end_of_PIN_MANAGER_Initialize:
  7019                           	opt callstack 0
  7020                           
  7021 ;; *************** function _OSCILLATOR_Initialize *****************
  7022 ;; Defined at:
  7023 ;;		line 64 in file "mcc_generated_files/mcc.c"
  7024 ;; Parameters:    Size  Location     Type
  7025 ;;		None
  7026 ;; Auto vars:     Size  Location     Type
  7027 ;;		None
  7028 ;; Return value:  Size  Location     Type
  7029 ;;                  1    wreg      void 
  7030 ;; Registers used:
  7031 ;;		wreg, status,2
  7032 ;; Tracked objects:
  7033 ;;		On entry : 0/0
  7034 ;;		On exit  : 0/0
  7035 ;;		Unchanged: 0/0
  7036 ;; Data sizes:     COMRAM   BANK0   BANK1   BANK2   BANK3   BANK4   BANK5
  7037 ;;      Params:         0       0       0       0       0       0       0
  7038 ;;      Locals:         0       0       0       0       0       0       0
  7039 ;;      Temps:          0       0       0       0       0       0       0
  7040 ;;      Totals:         0       0       0       0       0       0       0
  7041 ;;Total ram usage:        0 bytes
  7042 ;; Hardware stack levels used:    1
  7043 ;; Hardware stack levels required when called:    4
  7044 ;; This function calls:
  7045 ;;		Nothing
  7046 ;; This function is called by:
  7047 ;;		_SYSTEM_Initialize
  7048 ;; This function uses a non-reentrant model
  7049 ;;
  7050                           
  7051                           	psect	text27
  7052  0039A8                     __ptext27:
  7053                           	opt callstack 0
  7054  0039A8                     _OSCILLATOR_Initialize:
  7055                           	opt callstack 25
  7056  0039A8                     
  7057                           ;mcc_generated_files/mcc.c: 67:     OSCCON = 0x30;
  7058  0039A8  0E30               	movlw	48
  7059  0039AA  6ED3               	movwf	211,c	;volatile
  7060                           
  7061                           ;mcc_generated_files/mcc.c: 69:     OSCCON2 = 0x04;
  7062  0039AC  0E04               	movlw	4
  7063  0039AE  6ED2               	movwf	210,c	;volatile
  7064                           
  7065                           ;mcc_generated_files/mcc.c: 71:     OSCTUNE = 0x00;
  7066  0039B0  0E00               	movlw	0
  7067  0039B2  6E9B               	movwf	155,c	;volatile
  7068  0039B4  0012               	return		;funcret
  7069  0039B6                     __end_of_OSCILLATOR_Initialize:
  7070                           	opt callstack 0
  7071                           
  7072 ;; *************** function _INTERRUPT_Initialize *****************
  7073 ;; Defined at:
  7074 ;;		line 52 in file "mcc_generated_files/interrupt_manager.c"
  7075 ;; Parameters:    Size  Location     Type
  7076 ;;		None
  7077 ;; Auto vars:     Size  Location     Type
  7078 ;;		None
  7079 ;; Return value:  Size  Location     Type
  7080 ;;                  1    wreg      void 
  7081 ;; Registers used:
  7082 ;;		None
  7083 ;; Tracked objects:
  7084 ;;		On entry : 0/0
  7085 ;;		On exit  : 0/0
  7086 ;;		Unchanged: 0/0
  7087 ;; Data sizes:     COMRAM   BANK0   BANK1   BANK2   BANK3   BANK4   BANK5
  7088 ;;      Params:         0       0       0       0       0       0       0
  7089 ;;      Locals:         0       0       0       0       0       0       0
  7090 ;;      Temps:          0       0       0       0       0       0       0
  7091 ;;      Totals:         0       0       0       0       0       0       0
  7092 ;;Total ram usage:        0 bytes
  7093 ;; Hardware stack levels used:    1
  7094 ;; Hardware stack levels required when called:    4
  7095 ;; This function calls:
  7096 ;;		Nothing
  7097 ;; This function is called by:
  7098 ;;		_SYSTEM_Initialize
  7099 ;; This function uses a non-reentrant model
  7100 ;;
  7101                           
  7102                           	psect	text28
  7103  0039B6                     __ptext28:
  7104                           	opt callstack 0
  7105  0039B6                     _INTERRUPT_Initialize:
  7106                           	opt callstack 25
  7107  0039B6                     
  7108                           ;mcc_generated_files/interrupt_manager.c: 55:     RCONbits.IPEN = 1;
  7109  0039B6  8ED0               	bsf	208,7,c	;volatile
  7110                           
  7111                           ;mcc_generated_files/interrupt_manager.c: 60:     IPR1bits.ADIP = 1;
  7112  0039B8  8C9F               	bsf	159,6,c	;volatile
  7113                           
  7114                           ;mcc_generated_files/interrupt_manager.c: 63:     IPR1bits.RC1IP = 1;
  7115  0039BA  8A9F               	bsf	159,5,c	;volatile
  7116                           
  7117                           ;mcc_generated_files/interrupt_manager.c: 68:     INTCON2bits.TMR0IP = 1;
  7118  0039BC  84F1               	bsf	241,2,c	;volatile
  7119                           
  7120                           ;mcc_generated_files/interrupt_manager.c: 71:     INTCON3bits.INT1IP = 1;
  7121  0039BE  8CF0               	bsf	240,6,c	;volatile
  7122                           
  7123                           ;mcc_generated_files/interrupt_manager.c: 74:     INTCON3bits.INT2IP = 1;
  7124  0039C0  8EF0               	bsf	240,7,c	;volatile
  7125  0039C2  0012               	return		;funcret
  7126  0039C4                     __end_of_INTERRUPT_Initialize:
  7127                           	opt callstack 0
  7128                           
  7129 ;; *************** function _EXT_INT_Initialize *****************
  7130 ;; Defined at:
  7131 ;;		line 113 in file "mcc_generated_files/ext_int.c"
  7132 ;; Parameters:    Size  Location     Type
  7133 ;;		None
  7134 ;; Auto vars:     Size  Location     Type
  7135 ;;		None
  7136 ;; Return value:  Size  Location     Type
  7137 ;;                  1    wreg      void 
  7138 ;; Registers used:
  7139 ;;		wreg, status,2, status,0, cstack
  7140 ;; Tracked objects:
  7141 ;;		On entry : 0/0
  7142 ;;		On exit  : 0/0
  7143 ;;		Unchanged: 0/0
  7144 ;; Data sizes:     COMRAM   BANK0   BANK1   BANK2   BANK3   BANK4   BANK5
  7145 ;;      Params:         0       0       0       0       0       0       0
  7146 ;;      Locals:         0       0       0       0       0       0       0
  7147 ;;      Temps:          0       0       0       0       0       0       0
  7148 ;;      Totals:         0       0       0       0       0       0       0
  7149 ;;Total ram usage:        0 bytes
  7150 ;; Hardware stack levels used:    1
  7151 ;; Hardware stack levels required when called:    5
  7152 ;; This function calls:
  7153 ;;		_INT0_SetInterruptHandler
  7154 ;;		_INT1_SetInterruptHandler
  7155 ;;		_INT2_SetInterruptHandler
  7156 ;; This function is called by:
  7157 ;;		_SYSTEM_Initialize
  7158 ;; This function uses a non-reentrant model
  7159 ;;
  7160                           
  7161                           	psect	text29
  7162  0035F0                     __ptext29:
  7163                           	opt callstack 0
  7164  0035F0                     _EXT_INT_Initialize:
  7165                           	opt callstack 24
  7166  0035F0                     
  7167                           ;mcc_generated_files/ext_int.c: 118:     (INTCONbits.INT0IF = 0);
  7168  0035F0  92F2               	bcf	242,1,c	;volatile
  7169                           
  7170                           ;mcc_generated_files/ext_int.c: 119:     (INTCON2bits.INTEDG0 = 0);
  7171  0035F2  9CF1               	bcf	241,6,c	;volatile
  7172  0035F4                     
  7173                           ;mcc_generated_files/ext_int.c: 121:     INT0_SetInterruptHandler(INT0_DefaultInterruptH
      +                          andler);
  7174  0035F4  0E4E               	movlw	low _INT0_DefaultInterruptHandler
  7175  0035F6  0100               	movlb	0	; () banked
  7176  0035F8  6F66               	movwf	INT0_SetInterruptHandler@InterruptHandler& (0+255),b
  7177  0035FA  0E3A               	movlw	high _INT0_DefaultInterruptHandler
  7178  0035FC  6F67               	movwf	(INT0_SetInterruptHandler@InterruptHandler+1)& (0+255),b
  7179  0035FE  ECF1  F01C         	call	_INT0_SetInterruptHandler	;wreg free
  7180  003602                     
  7181                           ;mcc_generated_files/ext_int.c: 122:     (INTCONbits.INT0IE = 1);
  7182  003602  88F2               	bsf	242,4,c	;volatile
  7183  003604                     
  7184                           ;mcc_generated_files/ext_int.c: 127:     (INTCON3bits.INT1IF = 0);
  7185  003604  90F0               	bcf	240,0,c	;volatile
  7186  003606                     
  7187                           ;mcc_generated_files/ext_int.c: 128:     (INTCON2bits.INTEDG1 = 0);
  7188  003606  9AF1               	bcf	241,5,c	;volatile
  7189                           
  7190                           ;mcc_generated_files/ext_int.c: 130:     INT1_SetInterruptHandler(INT1_DefaultInterruptH
      +                          andler);
  7191  003608  0E4C               	movlw	low _INT1_DefaultInterruptHandler
  7192  00360A  0100               	movlb	0	; () banked
  7193  00360C  6F66               	movwf	INT1_SetInterruptHandler@InterruptHandler& (0+255),b
  7194  00360E  0E3A               	movlw	high _INT1_DefaultInterruptHandler
  7195  003610  6F67               	movwf	(INT1_SetInterruptHandler@InterruptHandler+1)& (0+255),b
  7196  003612  ECEC  F01C         	call	_INT1_SetInterruptHandler	;wreg free
  7197  003616                     
  7198                           ;mcc_generated_files/ext_int.c: 131:     (INTCON3bits.INT1IE = 1);
  7199  003616  86F0               	bsf	240,3,c	;volatile
  7200  003618                     
  7201                           ;mcc_generated_files/ext_int.c: 136:     (INTCON3bits.INT2IF = 0);
  7202  003618  92F0               	bcf	240,1,c	;volatile
  7203  00361A                     
  7204                           ;mcc_generated_files/ext_int.c: 137:     (INTCON2bits.INTEDG2 = 0);
  7205  00361A  98F1               	bcf	241,4,c	;volatile
  7206                           
  7207                           ;mcc_generated_files/ext_int.c: 139:     INT2_SetInterruptHandler(INT2_DefaultInterruptH
      +                          andler);
  7208  00361C  0E4A               	movlw	low _INT2_DefaultInterruptHandler
  7209  00361E  0100               	movlb	0	; () banked
  7210  003620  6F66               	movwf	INT2_SetInterruptHandler@InterruptHandler& (0+255),b
  7211  003622  0E3A               	movlw	high _INT2_DefaultInterruptHandler
  7212  003624  6F67               	movwf	(INT2_SetInterruptHandler@InterruptHandler+1)& (0+255),b
  7213  003626  ECE7  F01C         	call	_INT2_SetInterruptHandler	;wreg free
  7214  00362A                     
  7215                           ;mcc_generated_files/ext_int.c: 140:     (INTCON3bits.INT2IE = 1);
  7216  00362A  88F0               	bsf	240,4,c	;volatile
  7217  00362C  0012               	return		;funcret
  7218  00362E                     __end_of_EXT_INT_Initialize:
  7219                           	opt callstack 0
  7220                           
  7221 ;; *************** function _INT2_SetInterruptHandler *****************
  7222 ;; Defined at:
  7223 ;;		line 104 in file "mcc_generated_files/ext_int.c"
  7224 ;; Parameters:    Size  Location     Type
  7225 ;;  InterruptHan    2    6[BANK0 ] PTR FTN()void 
  7226 ;;		 -> teclado_coluna_3(1), INT2_DefaultInterruptHandler(1), 
  7227 ;; Auto vars:     Size  Location     Type
  7228 ;;		None
  7229 ;; Return value:  Size  Location     Type
  7230 ;;                  1    wreg      void 
  7231 ;; Registers used:
  7232 ;;		wreg, status,2, status,0
  7233 ;; Tracked objects:
  7234 ;;		On entry : 0/0
  7235 ;;		On exit  : 0/0
  7236 ;;		Unchanged: 0/0
  7237 ;; Data sizes:     COMRAM   BANK0   BANK1   BANK2   BANK3   BANK4   BANK5
  7238 ;;      Params:         0       2       0       0       0       0       0
  7239 ;;      Locals:         0       0       0       0       0       0       0
  7240 ;;      Temps:          0       0       0       0       0       0       0
  7241 ;;      Totals:         0       2       0       0       0       0       0
  7242 ;;Total ram usage:        2 bytes
  7243 ;; Hardware stack levels used:    1
  7244 ;; Hardware stack levels required when called:    4
  7245 ;; This function calls:
  7246 ;;		Nothing
  7247 ;; This function is called by:
  7248 ;;		_EXT_INT_Initialize
  7249 ;;		_main
  7250 ;; This function uses a non-reentrant model
  7251 ;;
  7252                           
  7253                           	psect	text30
  7254  0039CE                     __ptext30:
  7255                           	opt callstack 0
  7256  0039CE                     _INT2_SetInterruptHandler:
  7257                           	opt callstack 24
  7258  0039CE                     
  7259                           ;mcc_generated_files/ext_int.c: 105:     INT2_InterruptHandler = InterruptHandler;
  7260  0039CE  C066  F1A4         	movff	INT2_SetInterruptHandler@InterruptHandler,_INT2_InterruptHandler
  7261  0039D2  C067  F1A5         	movff	INT2_SetInterruptHandler@InterruptHandler+1,_INT2_InterruptHandler+1
  7262  0039D6  0012               	return		;funcret
  7263  0039D8                     __end_of_INT2_SetInterruptHandler:
  7264                           	opt callstack 0
  7265                           
  7266 ;; *************** function _INT1_SetInterruptHandler *****************
  7267 ;; Defined at:
  7268 ;;		line 78 in file "mcc_generated_files/ext_int.c"
  7269 ;; Parameters:    Size  Location     Type
  7270 ;;  InterruptHan    2    6[BANK0 ] PTR FTN()void 
  7271 ;;		 -> teclado_coluna_2(1), INT1_DefaultInterruptHandler(1), 
  7272 ;; Auto vars:     Size  Location     Type
  7273 ;;		None
  7274 ;; Return value:  Size  Location     Type
  7275 ;;                  1    wreg      void 
  7276 ;; Registers used:
  7277 ;;		wreg, status,2, status,0
  7278 ;; Tracked objects:
  7279 ;;		On entry : 0/0
  7280 ;;		On exit  : 0/0
  7281 ;;		Unchanged: 0/0
  7282 ;; Data sizes:     COMRAM   BANK0   BANK1   BANK2   BANK3   BANK4   BANK5
  7283 ;;      Params:         0       2       0       0       0       0       0
  7284 ;;      Locals:         0       0       0       0       0       0       0
  7285 ;;      Temps:          0       0       0       0       0       0       0
  7286 ;;      Totals:         0       2       0       0       0       0       0
  7287 ;;Total ram usage:        2 bytes
  7288 ;; Hardware stack levels used:    1
  7289 ;; Hardware stack levels required when called:    4
  7290 ;; This function calls:
  7291 ;;		Nothing
  7292 ;; This function is called by:
  7293 ;;		_EXT_INT_Initialize
  7294 ;;		_main
  7295 ;; This function uses a non-reentrant model
  7296 ;;
  7297                           
  7298                           	psect	text31
  7299  0039D8                     __ptext31:
  7300                           	opt callstack 0
  7301  0039D8                     _INT1_SetInterruptHandler:
  7302                           	opt callstack 24
  7303  0039D8                     
  7304                           ;mcc_generated_files/ext_int.c: 79:     INT1_InterruptHandler = InterruptHandler;
  7305  0039D8  C066  F1A6         	movff	INT1_SetInterruptHandler@InterruptHandler,_INT1_InterruptHandler
  7306  0039DC  C067  F1A7         	movff	INT1_SetInterruptHandler@InterruptHandler+1,_INT1_InterruptHandler+1
  7307  0039E0  0012               	return		;funcret
  7308  0039E2                     __end_of_INT1_SetInterruptHandler:
  7309                           	opt callstack 0
  7310                           
  7311 ;; *************** function _INT0_SetInterruptHandler *****************
  7312 ;; Defined at:
  7313 ;;		line 52 in file "mcc_generated_files/ext_int.c"
  7314 ;; Parameters:    Size  Location     Type
  7315 ;;  InterruptHan    2    6[BANK0 ] PTR FTN()void 
  7316 ;;		 -> teclado_coluna_1(1), INT0_DefaultInterruptHandler(1), 
  7317 ;; Auto vars:     Size  Location     Type
  7318 ;;		None
  7319 ;; Return value:  Size  Location     Type
  7320 ;;                  1    wreg      void 
  7321 ;; Registers used:
  7322 ;;		wreg, status,2, status,0
  7323 ;; Tracked objects:
  7324 ;;		On entry : 0/0
  7325 ;;		On exit  : 0/0
  7326 ;;		Unchanged: 0/0
  7327 ;; Data sizes:     COMRAM   BANK0   BANK1   BANK2   BANK3   BANK4   BANK5
  7328 ;;      Params:         0       2       0       0       0       0       0
  7329 ;;      Locals:         0       0       0       0       0       0       0
  7330 ;;      Temps:          0       0       0       0       0       0       0
  7331 ;;      Totals:         0       2       0       0       0       0       0
  7332 ;;Total ram usage:        2 bytes
  7333 ;; Hardware stack levels used:    1
  7334 ;; Hardware stack levels required when called:    4
  7335 ;; This function calls:
  7336 ;;		Nothing
  7337 ;; This function is called by:
  7338 ;;		_EXT_INT_Initialize
  7339 ;;		_main
  7340 ;; This function uses a non-reentrant model
  7341 ;;
  7342                           
  7343                           	psect	text32
  7344  0039E2                     __ptext32:
  7345                           	opt callstack 0
  7346  0039E2                     _INT0_SetInterruptHandler:
  7347                           	opt callstack 24
  7348  0039E2                     
  7349                           ;mcc_generated_files/ext_int.c: 53:     INT0_InterruptHandler = InterruptHandler;
  7350  0039E2  C066  F1A8         	movff	INT0_SetInterruptHandler@InterruptHandler,_INT0_InterruptHandler
  7351  0039E6  C067  F1A9         	movff	INT0_SetInterruptHandler@InterruptHandler+1,_INT0_InterruptHandler+1
  7352  0039EA  0012               	return		;funcret
  7353  0039EC                     __end_of_INT0_SetInterruptHandler:
  7354                           	opt callstack 0
  7355                           
  7356 ;; *************** function _EUSART1_Initialize *****************
  7357 ;; Defined at:
  7358 ;;		line 83 in file "mcc_generated_files/eusart1.c"
  7359 ;; Parameters:    Size  Location     Type
  7360 ;;		None
  7361 ;; Auto vars:     Size  Location     Type
  7362 ;;		None
  7363 ;; Return value:  Size  Location     Type
  7364 ;;                  1    wreg      void 
  7365 ;; Registers used:
  7366 ;;		wreg, status,2, status,0, cstack
  7367 ;; Tracked objects:
  7368 ;;		On entry : 0/0
  7369 ;;		On exit  : 0/0
  7370 ;;		Unchanged: 0/0
  7371 ;; Data sizes:     COMRAM   BANK0   BANK1   BANK2   BANK3   BANK4   BANK5
  7372 ;;      Params:         0       0       0       0       0       0       0
  7373 ;;      Locals:         0       0       0       0       0       0       0
  7374 ;;      Temps:          0       0       0       0       0       0       0
  7375 ;;      Totals:         0       0       0       0       0       0       0
  7376 ;;Total ram usage:        0 bytes
  7377 ;; Hardware stack levels used:    1
  7378 ;; Hardware stack levels required when called:    5
  7379 ;; This function calls:
  7380 ;;		_EUSART1_SetErrorHandler
  7381 ;;		_EUSART1_SetFramingErrorHandler
  7382 ;;		_EUSART1_SetOverrunErrorHandler
  7383 ;;		_EUSART1_SetRxInterruptHandler
  7384 ;; This function is called by:
  7385 ;;		_SYSTEM_Initialize
  7386 ;; This function uses a non-reentrant model
  7387 ;;
  7388                           
  7389                           	psect	text33
  7390  003252                     __ptext33:
  7391                           	opt callstack 0
  7392  003252                     _EUSART1_Initialize:
  7393                           	opt callstack 24
  7394  003252                     
  7395                           ;mcc_generated_files/eusart1.c: 86:     PIE1bits.RC1IE = 0;
  7396  003252  9A9D               	bcf	157,5,c	;volatile
  7397  003254                     
  7398                           ;mcc_generated_files/eusart1.c: 87:     EUSART1_SetRxInterruptHandler(EUSART1_Receive_IS
      +                          R);
  7399  003254  0EE6               	movlw	low _EUSART1_Receive_ISR
  7400  003256  0100               	movlb	0	; () banked
  7401  003258  6F66               	movwf	EUSART1_SetRxInterruptHandler@interruptHandler& (0+255),b
  7402  00325A  0E2E               	movlw	high _EUSART1_Receive_ISR
  7403  00325C  6F67               	movwf	(EUSART1_SetRxInterruptHandler@interruptHandler+1)& (0+255),b
  7404  00325E  ECF6  F01C         	call	_EUSART1_SetRxInterruptHandler	;wreg free
  7405  003262                     
  7406                           ;mcc_generated_files/eusart1.c: 91:     BAUDCON1 = 0x08;
  7407  003262  0E08               	movlw	8
  7408  003264  6EB8               	movwf	184,c	;volatile
  7409  003266                     
  7410                           ;mcc_generated_files/eusart1.c: 94:     RCSTA1 = 0x90;
  7411  003266  0E90               	movlw	144
  7412  003268  6EAB               	movwf	171,c	;volatile
  7413  00326A                     
  7414                           ;mcc_generated_files/eusart1.c: 97:     TXSTA1 = 0x24;
  7415  00326A  0E24               	movlw	36
  7416  00326C  6EAC               	movwf	172,c	;volatile
  7417  00326E                     
  7418                           ;mcc_generated_files/eusart1.c: 100:     SPBRG1 = 0x9B;
  7419  00326E  0E9B               	movlw	155
  7420  003270  6EAF               	movwf	175,c	;volatile
  7421  003272                     
  7422                           ;mcc_generated_files/eusart1.c: 103:     SPBRGH1 = 0x00;
  7423  003272  0E00               	movlw	0
  7424  003274  6EB0               	movwf	176,c	;volatile
  7425  003276                     
  7426                           ;mcc_generated_files/eusart1.c: 106:     EUSART1_SetFramingErrorHandler(EUSART1_DefaultF
      +                          ramingErrorHandler);
  7427  003276  0E50               	movlw	low _EUSART1_DefaultFramingErrorHandler
  7428  003278  0100               	movlb	0	; () banked
  7429  00327A  6F66               	movwf	EUSART1_SetFramingErrorHandler@interruptHandler& (0+255),b
  7430  00327C  0E3A               	movlw	high _EUSART1_DefaultFramingErrorHandler
  7431  00327E  6F67               	movwf	(EUSART1_SetFramingErrorHandler@interruptHandler+1)& (0+255),b
  7432  003280  EC00  F01D         	call	_EUSART1_SetFramingErrorHandler	;wreg free
  7433  003284                     
  7434                           ;mcc_generated_files/eusart1.c: 107:     EUSART1_SetOverrunErrorHandler(EUSART1_DefaultO
      +                          verrunErrorHandler);
  7435  003284  0E36               	movlw	low _EUSART1_DefaultOverrunErrorHandler
  7436  003286  0100               	movlb	0	; () banked
  7437  003288  6F66               	movwf	EUSART1_SetOverrunErrorHandler@interruptHandler& (0+255),b
  7438  00328A  0E3A               	movlw	high _EUSART1_DefaultOverrunErrorHandler
  7439  00328C  6F67               	movwf	(EUSART1_SetOverrunErrorHandler@interruptHandler+1)& (0+255),b
  7440  00328E  ECFB  F01C         	call	_EUSART1_SetOverrunErrorHandler	;wreg free
  7441  003292                     
  7442                           ;mcc_generated_files/eusart1.c: 108:     EUSART1_SetErrorHandler(EUSART1_DefaultErrorHan
      +                          dler);
  7443  003292  0E3C               	movlw	low _EUSART1_DefaultErrorHandler
  7444  003294  0100               	movlb	0	; () banked
  7445  003296  6F66               	movwf	EUSART1_SetErrorHandler@interruptHandler& (0+255),b
  7446  003298  0E3A               	movlw	high _EUSART1_DefaultErrorHandler
  7447  00329A  6F67               	movwf	(EUSART1_SetErrorHandler@interruptHandler+1)& (0+255),b
  7448  00329C  EC05  F01D         	call	_EUSART1_SetErrorHandler	;wreg free
  7449                           
  7450                           ;mcc_generated_files/eusart1.c: 110:     eusart1RxLastError.status = 0;
  7451  0032A0  0E00               	movlw	0
  7452  0032A2  0100               	movlb	0	; () banked
  7453  0032A4  6FF2               	movwf	_eusart1RxLastError& (0+255),b	;volatile
  7454                           
  7455                           ;mcc_generated_files/eusart1.c: 113:     eusart1RxHead = 0;
  7456  0032A6  0E00               	movlw	0
  7457  0032A8  6FF5               	movwf	_eusart1RxHead& (0+255),b	;volatile
  7458                           
  7459                           ;mcc_generated_files/eusart1.c: 114:     eusart1RxTail = 0;
  7460  0032AA  0E00               	movlw	0
  7461  0032AC  6FF4               	movwf	_eusart1RxTail& (0+255),b	;volatile
  7462                           
  7463                           ;mcc_generated_files/eusart1.c: 115:     eusart1RxCount = 0;
  7464  0032AE  0E00               	movlw	0
  7465  0032B0  6FF3               	movwf	_eusart1RxCount& (0+255),b	;volatile
  7466  0032B2                     
  7467                           ; BSR set to: 0
  7468                           ;mcc_generated_files/eusart1.c: 118:     PIE1bits.RC1IE = 1;
  7469  0032B2  8A9D               	bsf	157,5,c	;volatile
  7470  0032B4                     
  7471                           ; BSR set to: 0
  7472  0032B4  0012               	return		;funcret
  7473  0032B6                     __end_of_EUSART1_Initialize:
  7474                           	opt callstack 0
  7475                           
  7476 ;; *************** function _EUSART1_SetRxInterruptHandler *****************
  7477 ;; Defined at:
  7478 ;;		line 243 in file "mcc_generated_files/eusart1.c"
  7479 ;; Parameters:    Size  Location     Type
  7480 ;;  interruptHan    2    6[BANK0 ] PTR FTN()void 
  7481 ;;		 -> EUSART1_Receive_ISR(1), 
  7482 ;; Auto vars:     Size  Location     Type
  7483 ;;		None
  7484 ;; Return value:  Size  Location     Type
  7485 ;;                  1    wreg      void 
  7486 ;; Registers used:
  7487 ;;		wreg, status,2, status,0
  7488 ;; Tracked objects:
  7489 ;;		On entry : 0/0
  7490 ;;		On exit  : 0/0
  7491 ;;		Unchanged: 0/0
  7492 ;; Data sizes:     COMRAM   BANK0   BANK1   BANK2   BANK3   BANK4   BANK5
  7493 ;;      Params:         0       2       0       0       0       0       0
  7494 ;;      Locals:         0       0       0       0       0       0       0
  7495 ;;      Temps:          0       0       0       0       0       0       0
  7496 ;;      Totals:         0       2       0       0       0       0       0
  7497 ;;Total ram usage:        2 bytes
  7498 ;; Hardware stack levels used:    1
  7499 ;; Hardware stack levels required when called:    4
  7500 ;; This function calls:
  7501 ;;		Nothing
  7502 ;; This function is called by:
  7503 ;;		_EUSART1_Initialize
  7504 ;; This function uses a non-reentrant model
  7505 ;;
  7506                           
  7507                           	psect	text34
  7508  0039EC                     __ptext34:
  7509                           	opt callstack 0
  7510  0039EC                     _EUSART1_SetRxInterruptHandler:
  7511                           	opt callstack 24
  7512  0039EC                     
  7513                           ;mcc_generated_files/eusart1.c: 244:     EUSART1_RxDefaultInterruptHandler = interruptHa
      +                          ndler;
  7514  0039EC  C066  F1A2         	movff	EUSART1_SetRxInterruptHandler@interruptHandler,_EUSART1_RxDefaultInterruptHandler
  7515  0039F0  C067  F1A3         	movff	EUSART1_SetRxInterruptHandler@interruptHandler+1,_EUSART1_RxDefaultInterruptHandl
      +                          er+1
  7516  0039F4  0012               	return		;funcret
  7517  0039F6                     __end_of_EUSART1_SetRxInterruptHandler:
  7518                           	opt callstack 0
  7519                           
  7520 ;; *************** function _EUSART1_SetOverrunErrorHandler *****************
  7521 ;; Defined at:
  7522 ;;		line 234 in file "mcc_generated_files/eusart1.c"
  7523 ;; Parameters:    Size  Location     Type
  7524 ;;  interruptHan    2    6[BANK0 ] PTR FTN()void 
  7525 ;;		 -> EUSART1_DefaultOverrunErrorHandler(1), 
  7526 ;; Auto vars:     Size  Location     Type
  7527 ;;		None
  7528 ;; Return value:  Size  Location     Type
  7529 ;;                  1    wreg      void 
  7530 ;; Registers used:
  7531 ;;		wreg, status,2, status,0
  7532 ;; Tracked objects:
  7533 ;;		On entry : 0/0
  7534 ;;		On exit  : 0/0
  7535 ;;		Unchanged: 0/0
  7536 ;; Data sizes:     COMRAM   BANK0   BANK1   BANK2   BANK3   BANK4   BANK5
  7537 ;;      Params:         0       2       0       0       0       0       0
  7538 ;;      Locals:         0       0       0       0       0       0       0
  7539 ;;      Temps:          0       0       0       0       0       0       0
  7540 ;;      Totals:         0       2       0       0       0       0       0
  7541 ;;Total ram usage:        2 bytes
  7542 ;; Hardware stack levels used:    1
  7543 ;; Hardware stack levels required when called:    4
  7544 ;; This function calls:
  7545 ;;		Nothing
  7546 ;; This function is called by:
  7547 ;;		_EUSART1_Initialize
  7548 ;; This function uses a non-reentrant model
  7549 ;;
  7550                           
  7551                           	psect	text35
  7552  0039F6                     __ptext35:
  7553                           	opt callstack 0
  7554  0039F6                     _EUSART1_SetOverrunErrorHandler:
  7555                           	opt callstack 24
  7556  0039F6                     
  7557                           ;mcc_generated_files/eusart1.c: 235:     EUSART1_OverrunErrorHandler = interruptHandler;
  7558  0039F6  C066  F19C         	movff	EUSART1_SetOverrunErrorHandler@interruptHandler,_EUSART1_OverrunErrorHandler
  7559  0039FA  C067  F19D         	movff	EUSART1_SetOverrunErrorHandler@interruptHandler+1,_EUSART1_OverrunErrorHandler+1
  7560  0039FE  0012               	return		;funcret
  7561  003A00                     __end_of_EUSART1_SetOverrunErrorHandler:
  7562                           	opt callstack 0
  7563                           
  7564 ;; *************** function _EUSART1_SetFramingErrorHandler *****************
  7565 ;; Defined at:
  7566 ;;		line 230 in file "mcc_generated_files/eusart1.c"
  7567 ;; Parameters:    Size  Location     Type
  7568 ;;  interruptHan    2    6[BANK0 ] PTR FTN()void 
  7569 ;;		 -> EUSART1_DefaultFramingErrorHandler(1), 
  7570 ;; Auto vars:     Size  Location     Type
  7571 ;;		None
  7572 ;; Return value:  Size  Location     Type
  7573 ;;                  1    wreg      void 
  7574 ;; Registers used:
  7575 ;;		wreg, status,2, status,0
  7576 ;; Tracked objects:
  7577 ;;		On entry : 0/0
  7578 ;;		On exit  : 0/0
  7579 ;;		Unchanged: 0/0
  7580 ;; Data sizes:     COMRAM   BANK0   BANK1   BANK2   BANK3   BANK4   BANK5
  7581 ;;      Params:         0       2       0       0       0       0       0
  7582 ;;      Locals:         0       0       0       0       0       0       0
  7583 ;;      Temps:          0       0       0       0       0       0       0
  7584 ;;      Totals:         0       2       0       0       0       0       0
  7585 ;;Total ram usage:        2 bytes
  7586 ;; Hardware stack levels used:    1
  7587 ;; Hardware stack levels required when called:    4
  7588 ;; This function calls:
  7589 ;;		Nothing
  7590 ;; This function is called by:
  7591 ;;		_EUSART1_Initialize
  7592 ;; This function uses a non-reentrant model
  7593 ;;
  7594                           
  7595                           	psect	text36
  7596  003A00                     __ptext36:
  7597                           	opt callstack 0
  7598  003A00                     _EUSART1_SetFramingErrorHandler:
  7599                           	opt callstack 24
  7600  003A00                     
  7601                           ;mcc_generated_files/eusart1.c: 231:     EUSART1_FramingErrorHandler = interruptHandler;
  7602  003A00  C066  F19E         	movff	EUSART1_SetFramingErrorHandler@interruptHandler,_EUSART1_FramingErrorHandler
  7603  003A04  C067  F19F         	movff	EUSART1_SetFramingErrorHandler@interruptHandler+1,_EUSART1_FramingErrorHandler+1
  7604  003A08  0012               	return		;funcret
  7605  003A0A                     __end_of_EUSART1_SetFramingErrorHandler:
  7606                           	opt callstack 0
  7607                           
  7608 ;; *************** function _EUSART1_SetErrorHandler *****************
  7609 ;; Defined at:
  7610 ;;		line 238 in file "mcc_generated_files/eusart1.c"
  7611 ;; Parameters:    Size  Location     Type
  7612 ;;  interruptHan    2    6[BANK0 ] PTR FTN()void 
  7613 ;;		 -> EUSART1_DefaultErrorHandler(1), 
  7614 ;; Auto vars:     Size  Location     Type
  7615 ;;		None
  7616 ;; Return value:  Size  Location     Type
  7617 ;;                  1    wreg      void 
  7618 ;; Registers used:
  7619 ;;		wreg, status,2, status,0
  7620 ;; Tracked objects:
  7621 ;;		On entry : 0/0
  7622 ;;		On exit  : 0/0
  7623 ;;		Unchanged: 0/0
  7624 ;; Data sizes:     COMRAM   BANK0   BANK1   BANK2   BANK3   BANK4   BANK5
  7625 ;;      Params:         0       2       0       0       0       0       0
  7626 ;;      Locals:         0       0       0       0       0       0       0
  7627 ;;      Temps:          0       0       0       0       0       0       0
  7628 ;;      Totals:         0       2       0       0       0       0       0
  7629 ;;Total ram usage:        2 bytes
  7630 ;; Hardware stack levels used:    1
  7631 ;; Hardware stack levels required when called:    4
  7632 ;; This function calls:
  7633 ;;		Nothing
  7634 ;; This function is called by:
  7635 ;;		_EUSART1_Initialize
  7636 ;; This function uses a non-reentrant model
  7637 ;;
  7638                           
  7639                           	psect	text37
  7640  003A0A                     __ptext37:
  7641                           	opt callstack 0
  7642  003A0A                     _EUSART1_SetErrorHandler:
  7643                           	opt callstack 24
  7644  003A0A                     
  7645                           ;mcc_generated_files/eusart1.c: 239:     EUSART1_ErrorHandler = interruptHandler;
  7646  003A0A  C066  F19A         	movff	EUSART1_SetErrorHandler@interruptHandler,_EUSART1_ErrorHandler
  7647  003A0E  C067  F19B         	movff	EUSART1_SetErrorHandler@interruptHandler+1,_EUSART1_ErrorHandler+1
  7648  003A12  0012               	return		;funcret
  7649  003A14                     __end_of_EUSART1_SetErrorHandler:
  7650                           	opt callstack 0
  7651                           
  7652 ;; *************** function _EPWM1_Initialize *****************
  7653 ;; Defined at:
  7654 ;;		line 64 in file "mcc_generated_files/epwm1.c"
  7655 ;; Parameters:    Size  Location     Type
  7656 ;;		None
  7657 ;; Auto vars:     Size  Location     Type
  7658 ;;		None
  7659 ;; Return value:  Size  Location     Type
  7660 ;;                  1    wreg      void 
  7661 ;; Registers used:
  7662 ;;		wreg, status,2
  7663 ;; Tracked objects:
  7664 ;;		On entry : 0/0
  7665 ;;		On exit  : 0/0
  7666 ;;		Unchanged: 0/0
  7667 ;; Data sizes:     COMRAM   BANK0   BANK1   BANK2   BANK3   BANK4   BANK5
  7668 ;;      Params:         0       0       0       0       0       0       0
  7669 ;;      Locals:         0       0       0       0       0       0       0
  7670 ;;      Temps:          0       0       0       0       0       0       0
  7671 ;;      Totals:         0       0       0       0       0       0       0
  7672 ;;Total ram usage:        0 bytes
  7673 ;; Hardware stack levels used:    1
  7674 ;; Hardware stack levels required when called:    4
  7675 ;; This function calls:
  7676 ;;		Nothing
  7677 ;; This function is called by:
  7678 ;;		_SYSTEM_Initialize
  7679 ;; This function uses a non-reentrant model
  7680 ;;
  7681                           
  7682                           	psect	text38
  7683  003902                     __ptext38:
  7684                           	opt callstack 0
  7685  003902                     _EPWM1_Initialize:
  7686                           	opt callstack 25
  7687  003902                     
  7688                           ;mcc_generated_files/epwm1.c: 69:  CCP1CON = 0x1C;
  7689  003902  0E1C               	movlw	28
  7690  003904  6EBD               	movwf	189,c	;volatile
  7691                           
  7692                           ;mcc_generated_files/epwm1.c: 72:  ECCP1AS = 0x00;
  7693  003906  0E00               	movlw	0
  7694  003908  6EB6               	movwf	182,c	;volatile
  7695                           
  7696                           ;mcc_generated_files/epwm1.c: 75:  PWM1CON = 0x80;
  7697  00390A  0E80               	movlw	128
  7698  00390C  6EB7               	movwf	183,c	;volatile
  7699                           
  7700                           ;mcc_generated_files/epwm1.c: 78:  PSTR1CON = 0x01;
  7701  00390E  0E01               	movlw	1
  7702  003910  6EB9               	movwf	185,c	;volatile
  7703                           
  7704                           ;mcc_generated_files/epwm1.c: 81:  CCPR1H = 0x00;
  7705  003912  0E00               	movlw	0
  7706  003914  6EBF               	movwf	191,c	;volatile
  7707                           
  7708                           ;mcc_generated_files/epwm1.c: 84:  CCPR1L = 0x00;
  7709  003916  0E00               	movlw	0
  7710  003918  6EBE               	movwf	190,c	;volatile
  7711                           
  7712                           ;mcc_generated_files/epwm1.c: 87:  CCPTMRS0bits.C1TSEL = 0x0;
  7713  00391A  0EFC               	movlw	-4
  7714  00391C  010F               	movlb	15	; () banked
  7715  00391E  1749               	andwf	73,f,b	;volatile
  7716  003920                     
  7717                           ; BSR set to: 15
  7718  003920  0012               	return		;funcret
  7719  003922                     __end_of_EPWM1_Initialize:
  7720                           	opt callstack 0
  7721                           
  7722 ;; *************** function _ADC_Initialize *****************
  7723 ;; Defined at:
  7724 ;;		line 66 in file "mcc_generated_files/adc.c"
  7725 ;; Parameters:    Size  Location     Type
  7726 ;;		None
  7727 ;; Auto vars:     Size  Location     Type
  7728 ;;		None
  7729 ;; Return value:  Size  Location     Type
  7730 ;;                  1    wreg      void 
  7731 ;; Registers used:
  7732 ;;		wreg, status,2, status,0, cstack
  7733 ;; Tracked objects:
  7734 ;;		On entry : 0/0
  7735 ;;		On exit  : 0/0
  7736 ;;		Unchanged: 0/0
  7737 ;; Data sizes:     COMRAM   BANK0   BANK1   BANK2   BANK3   BANK4   BANK5
  7738 ;;      Params:         0       0       0       0       0       0       0
  7739 ;;      Locals:         0       0       0       0       0       0       0
  7740 ;;      Temps:          0       0       0       0       0       0       0
  7741 ;;      Totals:         0       0       0       0       0       0       0
  7742 ;;Total ram usage:        0 bytes
  7743 ;; Hardware stack levels used:    1
  7744 ;; Hardware stack levels required when called:    5
  7745 ;; This function calls:
  7746 ;;		_ADC_SetInterruptHandler
  7747 ;; This function is called by:
  7748 ;;		_SYSTEM_Initialize
  7749 ;; This function uses a non-reentrant model
  7750 ;;
  7751                           
  7752                           	psect	text39
  7753  0038B6                     __ptext39:
  7754                           	opt callstack 0
  7755  0038B6                     _ADC_Initialize:
  7756                           	opt callstack 24
  7757  0038B6                     
  7758                           ;mcc_generated_files/adc.c: 71:     ADCON0 = 0x03;
  7759  0038B6  0E03               	movlw	3
  7760  0038B8  6EC2               	movwf	194,c	;volatile
  7761                           
  7762                           ;mcc_generated_files/adc.c: 74:     ADCON1 = 0x05;
  7763  0038BA  0E05               	movlw	5
  7764  0038BC  6EC1               	movwf	193,c	;volatile
  7765                           
  7766                           ;mcc_generated_files/adc.c: 77:     ADCON2 = 0x89;
  7767  0038BE  0E89               	movlw	137
  7768  0038C0  6EC0               	movwf	192,c	;volatile
  7769                           
  7770                           ;mcc_generated_files/adc.c: 80:     ADRESL = 0x00;
  7771  0038C2  0E00               	movlw	0
  7772  0038C4  6EC3               	movwf	195,c	;volatile
  7773                           
  7774                           ;mcc_generated_files/adc.c: 83:     ADRESH = 0x00;
  7775  0038C6  0E00               	movlw	0
  7776  0038C8  6EC4               	movwf	196,c	;volatile
  7777  0038CA                     
  7778                           ;mcc_generated_files/adc.c: 86:     PIE1bits.ADIE = 1;
  7779  0038CA  8C9D               	bsf	157,6,c	;volatile
  7780  0038CC                     
  7781                           ;mcc_generated_files/adc.c: 89:     ADC_SetInterruptHandler(ADC_DefaultInterruptHandler)
      +                          ;
  7782  0038CC  0E52               	movlw	low _ADC_DefaultInterruptHandler
  7783  0038CE  0100               	movlb	0	; () banked
  7784  0038D0  6F66               	movwf	ADC_SetInterruptHandler@InterruptHandler& (0+255),b
  7785  0038D2  0E3A               	movlw	high _ADC_DefaultInterruptHandler
  7786  0038D4  6F67               	movwf	(ADC_SetInterruptHandler@InterruptHandler+1)& (0+255),b
  7787  0038D6  EC0A  F01D         	call	_ADC_SetInterruptHandler	;wreg free
  7788  0038DA  0012               	return		;funcret
  7789  0038DC                     __end_of_ADC_Initialize:
  7790                           	opt callstack 0
  7791                           
  7792 ;; *************** function _ADC_SetInterruptHandler *****************
  7793 ;; Defined at:
  7794 ;;		line 153 in file "mcc_generated_files/adc.c"
  7795 ;; Parameters:    Size  Location     Type
  7796 ;;  InterruptHan    2    6[BANK0 ] PTR FTN()void 
  7797 ;;		 -> ADC_temperatura(1), ADC_DefaultInterruptHandler(1), 
  7798 ;; Auto vars:     Size  Location     Type
  7799 ;;		None
  7800 ;; Return value:  Size  Location     Type
  7801 ;;                  1    wreg      void 
  7802 ;; Registers used:
  7803 ;;		wreg, status,2, status,0
  7804 ;; Tracked objects:
  7805 ;;		On entry : 0/0
  7806 ;;		On exit  : 0/0
  7807 ;;		Unchanged: 0/0
  7808 ;; Data sizes:     COMRAM   BANK0   BANK1   BANK2   BANK3   BANK4   BANK5
  7809 ;;      Params:         0       2       0       0       0       0       0
  7810 ;;      Locals:         0       0       0       0       0       0       0
  7811 ;;      Temps:          0       0       0       0       0       0       0
  7812 ;;      Totals:         0       2       0       0       0       0       0
  7813 ;;Total ram usage:        2 bytes
  7814 ;; Hardware stack levels used:    1
  7815 ;; Hardware stack levels required when called:    4
  7816 ;; This function calls:
  7817 ;;		Nothing
  7818 ;; This function is called by:
  7819 ;;		_ADC_Initialize
  7820 ;;		_main
  7821 ;; This function uses a non-reentrant model
  7822 ;;
  7823                           
  7824                           	psect	text40
  7825  003A14                     __ptext40:
  7826                           	opt callstack 0
  7827  003A14                     _ADC_SetInterruptHandler:
  7828                           	opt callstack 24
  7829  003A14                     
  7830                           ;mcc_generated_files/adc.c: 154:     ADC_InterruptHandler = InterruptHandler;
  7831  003A14  C066  F1A0         	movff	ADC_SetInterruptHandler@InterruptHandler,_ADC_InterruptHandler
  7832  003A18  C067  F1A1         	movff	ADC_SetInterruptHandler@InterruptHandler+1,_ADC_InterruptHandler+1
  7833  003A1C  0012               	return		;funcret
  7834  003A1E                     __end_of_ADC_SetInterruptHandler:
  7835                           	opt callstack 0
  7836                           
  7837 ;; *************** function _LCD_inicio_teste *****************
  7838 ;; Defined at:
  7839 ;;		line 23 in file "LCD.c"
  7840 ;; Parameters:    Size  Location     Type
  7841 ;;		None
  7842 ;; Auto vars:     Size  Location     Type
  7843 ;;  j               2   13[BANK0 ] int 
  7844 ;;  i               2   11[BANK0 ] int 
  7845 ;; Return value:  Size  Location     Type
  7846 ;;                  1    wreg      void 
  7847 ;; Registers used:
  7848 ;;		wreg, fsr1l, fsr1h, status,2, status,0, tblptrl, tblptrh, tblptru, cstack
  7849 ;; Tracked objects:
  7850 ;;		On entry : 0/0
  7851 ;;		On exit  : 0/0
  7852 ;;		Unchanged: 0/0
  7853 ;; Data sizes:     COMRAM   BANK0   BANK1   BANK2   BANK3   BANK4   BANK5
  7854 ;;      Params:         0       0       0       0       0       0       0
  7855 ;;      Locals:         0       4       0       0       0       0       0
  7856 ;;      Temps:          0       2       0       0       0       0       0
  7857 ;;      Totals:         0       6       0       0       0       0       0
  7858 ;;Total ram usage:        6 bytes
  7859 ;; Hardware stack levels used:    1
  7860 ;; Hardware stack levels required when called:    7
  7861 ;; This function calls:
  7862 ;;		_BusyXLCD
  7863 ;;		_OpenXLCD
  7864 ;;		_WriteCmdXLCD
  7865 ;;		_putsXLCD
  7866 ;; This function is called by:
  7867 ;;		_main
  7868 ;; This function uses a non-reentrant model
  7869 ;;
  7870                           
  7871                           	psect	text41
  7872  001F10                     __ptext41:
  7873                           	opt callstack 0
  7874  001F10                     _LCD_inicio_teste:
  7875                           	opt callstack 23
  7876  001F10                     
  7877                           ;LCD.c: 26:     int j = 0;
  7878  001F10  0E00               	movlw	0
  7879  001F12  0100               	movlb	0	; () banked
  7880  001F14  6F6E               	movwf	(LCD_inicio_teste@j+1)& (0+255),b
  7881  001F16  0E00               	movlw	0
  7882  001F18  6F6D               	movwf	LCD_inicio_teste@j& (0+255),b
  7883  001F1A                     
  7884                           ; BSR set to: 0
  7885                           ;LCD.c: 28:     OpenXLCD(0b00101111 & 0b00111011);
  7886  001F1A  0E2B               	movlw	43
  7887  001F1C  ECA0  F015         	call	_OpenXLCD
  7888  001F20                     l6581:
  7889  001F20  EC70  F01A         	call	_BusyXLCD	;wreg free
  7890  001F24  0900               	iorlw	0
  7891  001F26  A4D8               	btfss	status,2,c
  7892  001F28  EF98  F00F         	goto	u7431
  7893  001F2C  EF9A  F00F         	goto	u7430
  7894  001F30                     u7431:
  7895  001F30  EF90  F00F         	goto	l6581
  7896  001F34                     u7430:
  7897  001F34                     
  7898                           ;LCD.c: 30:     WriteCmdXLCD(0b00001111 & 0b00001101 & 0b00001110);
  7899  001F34  0E0C               	movlw	12
  7900  001F36  ECB5  F01A         	call	_WriteCmdXLCD
  7901  001F3A                     l6585:
  7902  001F3A  EC70  F01A         	call	_BusyXLCD	;wreg free
  7903  001F3E  0900               	iorlw	0
  7904  001F40  A4D8               	btfss	status,2,c
  7905  001F42  EFA5  F00F         	goto	u7441
  7906  001F46  EFA7  F00F         	goto	u7440
  7907  001F4A                     u7441:
  7908  001F4A  EF9D  F00F         	goto	l6585
  7909  001F4E                     u7440:
  7910  001F4E                     
  7911                           ;LCD.c: 32:     WriteCmdXLCD(0b00010111);
  7912  001F4E  0E17               	movlw	23
  7913  001F50  ECB5  F01A         	call	_WriteCmdXLCD
  7914  001F54                     l6589:
  7915  001F54  EC70  F01A         	call	_BusyXLCD	;wreg free
  7916  001F58  0900               	iorlw	0
  7917  001F5A  A4D8               	btfss	status,2,c
  7918  001F5C  EFB2  F00F         	goto	u7451
  7919  001F60  EFB4  F00F         	goto	u7450
  7920  001F64                     u7451:
  7921  001F64  EFAA  F00F         	goto	l6589
  7922  001F68                     u7450:
  7923  001F68                     
  7924                           ;LCD.c: 34:     WriteCmdXLCD(0b00000001);
  7925  001F68  0E01               	movlw	1
  7926  001F6A  ECB5  F01A         	call	_WriteCmdXLCD
  7927  001F6E                     l6593:
  7928  001F6E  EC70  F01A         	call	_BusyXLCD	;wreg free
  7929  001F72  0900               	iorlw	0
  7930  001F74  A4D8               	btfss	status,2,c
  7931  001F76  EFBF  F00F         	goto	u7461
  7932  001F7A  EFC1  F00F         	goto	u7460
  7933  001F7E                     u7461:
  7934  001F7E  EFB7  F00F         	goto	l6593
  7935  001F82                     u7460:
  7936  001F82                     
  7937                           ;LCD.c: 41:  WriteCmdXLCD(0b10000001);
  7938  001F82  0E81               	movlw	129
  7939  001F84  ECB5  F01A         	call	_WriteCmdXLCD
  7940  001F88                     l6597:
  7941  001F88  EC70  F01A         	call	_BusyXLCD	;wreg free
  7942  001F8C  0900               	iorlw	0
  7943  001F8E  A4D8               	btfss	status,2,c
  7944  001F90  EFCC  F00F         	goto	u7471
  7945  001F94  EFCE  F00F         	goto	u7470
  7946  001F98                     u7471:
  7947  001F98  EFC4  F00F         	goto	l6597
  7948  001F9C                     u7470:
  7949  001F9C                     
  7950                           ;LCD.c: 44:     putsXLCD ("MICROPROCESSADORES");
  7951  001F9C  0EBB               	movlw	low STR_22
  7952  001F9E  0100               	movlb	0	; () banked
  7953  001FA0  6F67               	movwf	putsXLCD@buffer& (0+255),b
  7954  001FA2  0E7F               	movlw	high STR_22
  7955  001FA4  6F68               	movwf	(putsXLCD@buffer+1)& (0+255),b
  7956  001FA6  EC52  F018         	call	_putsXLCD	;wreg free
  7957  001FAA                     
  7958                           ;LCD.c: 50:  WriteCmdXLCD(0b11000011);
  7959  001FAA  0EC3               	movlw	195
  7960  001FAC  ECB5  F01A         	call	_WriteCmdXLCD
  7961  001FB0                     l6603:
  7962  001FB0  EC70  F01A         	call	_BusyXLCD	;wreg free
  7963  001FB4  0900               	iorlw	0
  7964  001FB6  A4D8               	btfss	status,2,c
  7965  001FB8  EFE0  F00F         	goto	u7481
  7966  001FBC  EFE2  F00F         	goto	u7480
  7967  001FC0                     u7481:
  7968  001FC0  EFD8  F00F         	goto	l6603
  7969  001FC4                     u7480:
  7970  001FC4                     
  7971                           ;LCD.c: 53:     putsXLCD ("EAU - ESTG");
  7972  001FC4  0EE6               	movlw	low STR_23
  7973  001FC6  0100               	movlb	0	; () banked
  7974  001FC8  6F67               	movwf	putsXLCD@buffer& (0+255),b
  7975  001FCA  0E7F               	movlw	high STR_23
  7976  001FCC  6F68               	movwf	(putsXLCD@buffer+1)& (0+255),b
  7977  001FCE  EC52  F018         	call	_putsXLCD	;wreg free
  7978  001FD2                     
  7979                           ;LCD.c: 55:     _delay((unsigned long)((1000)*(6000000/4000.0)));
  7980  001FD2  0E08               	movlw	8
  7981  001FD4  0100               	movlb	0	; () banked
  7982  001FD6  6F6A               	movwf	(??_LCD_inicio_teste+1)& (0+255),b
  7983  001FD8  0E9D               	movlw	157
  7984  001FDA  6F69               	movwf	??_LCD_inicio_teste& (0+255),b
  7985  001FDC  0E05               	movlw	5
  7986  001FDE                     u8497:
  7987  001FDE  2EE8               	decfsz	wreg,f,c
  7988  001FE0  D7FE               	bra	u8497
  7989  001FE2  2F69               	decfsz	??_LCD_inicio_teste& (0+255),f,b
  7990  001FE4  D7FC               	bra	u8497
  7991  001FE6  2F6A               	decfsz	(??_LCD_inicio_teste+1)& (0+255),f,b
  7992  001FE8  D7FA               	bra	u8497
  7993  001FEA  D000               	nop2	
  7994  001FEC                     
  7995                           ;LCD.c: 57:     WriteCmdXLCD(0b00000001);
  7996  001FEC  0E01               	movlw	1
  7997  001FEE  ECB5  F01A         	call	_WriteCmdXLCD
  7998  001FF2                     l6611:
  7999  001FF2  EC70  F01A         	call	_BusyXLCD	;wreg free
  8000  001FF6  0900               	iorlw	0
  8001  001FF8  A4D8               	btfss	status,2,c
  8002  001FFA  EF01  F010         	goto	u7491
  8003  001FFE  EF03  F010         	goto	u7490
  8004  002002                     u7491:
  8005  002002  EFF9  F00F         	goto	l6611
  8006  002006                     u7490:
  8007  002006                     
  8008                           ;LCD.c: 65:  WriteCmdXLCD(0b10000000);
  8009  002006  0E80               	movlw	128
  8010  002008  ECB5  F01A         	call	_WriteCmdXLCD
  8011  00200C                     l6615:
  8012  00200C  EC70  F01A         	call	_BusyXLCD	;wreg free
  8013  002010  0900               	iorlw	0
  8014  002012  A4D8               	btfss	status,2,c
  8015  002014  EF0E  F010         	goto	u7501
  8016  002018  EF10  F010         	goto	u7500
  8017  00201C                     u7501:
  8018  00201C  EF06  F010         	goto	l6615
  8019  002020                     u7500:
  8020  002020                     
  8021                           ;LCD.c: 68:     putsXLCD ("MIGUEL RIBEIRO 2191578");
  8022  002020  0E8E               	movlw	low STR_24
  8023  002022  0100               	movlb	0	; () banked
  8024  002024  6F67               	movwf	putsXLCD@buffer& (0+255),b
  8025  002026  0E7F               	movlw	high STR_24
  8026  002028  6F68               	movwf	(putsXLCD@buffer+1)& (0+255),b
  8027  00202A  EC52  F018         	call	_putsXLCD	;wreg free
  8028  00202E                     
  8029                           ;LCD.c: 74:  WriteCmdXLCD(0b11000000);
  8030  00202E  0EC0               	movlw	192
  8031  002030  ECB5  F01A         	call	_WriteCmdXLCD
  8032  002034                     l6621:
  8033  002034  EC70  F01A         	call	_BusyXLCD	;wreg free
  8034  002038  0900               	iorlw	0
  8035  00203A  A4D8               	btfss	status,2,c
  8036  00203C  EF22  F010         	goto	u7511
  8037  002040  EF24  F010         	goto	u7510
  8038  002044                     u7511:
  8039  002044  EF1A  F010         	goto	l6621
  8040  002048                     u7510:
  8041  002048                     
  8042                           ;LCD.c: 77:     putsXLCD ("JOAO MEDEIROS 2172157");
  8043  002048  0EA5               	movlw	low STR_25
  8044  00204A  0100               	movlb	0	; () banked
  8045  00204C  6F67               	movwf	putsXLCD@buffer& (0+255),b
  8046  00204E  0E7F               	movlw	high STR_25
  8047  002050  6F68               	movwf	(putsXLCD@buffer+1)& (0+255),b
  8048  002052  EC52  F018         	call	_putsXLCD	;wreg free
  8049  002056                     
  8050                           ;LCD.c: 79:     _delay((unsigned long)((1000)*(6000000/4000.0)));
  8051  002056  0E08               	movlw	8
  8052  002058  0100               	movlb	0	; () banked
  8053  00205A  6F6A               	movwf	(??_LCD_inicio_teste+1)& (0+255),b
  8054  00205C  0E9D               	movlw	157
  8055  00205E  6F69               	movwf	??_LCD_inicio_teste& (0+255),b
  8056  002060  0E05               	movlw	5
  8057  002062                     u8507:
  8058  002062  2EE8               	decfsz	wreg,f,c
  8059  002064  D7FE               	bra	u8507
  8060  002066  2F69               	decfsz	??_LCD_inicio_teste& (0+255),f,b
  8061  002068  D7FC               	bra	u8507
  8062  00206A  2F6A               	decfsz	(??_LCD_inicio_teste+1)& (0+255),f,b
  8063  00206C  D7FA               	bra	u8507
  8064  00206E  D000               	nop2	
  8065  002070                     
  8066                           ;LCD.c: 81:     for (i = 0; i < 2 ; i++ ) {
  8067  002070  0E00               	movlw	0
  8068  002072  0100               	movlb	0	; () banked
  8069  002074  6F6C               	movwf	(LCD_inicio_teste@i+1)& (0+255),b
  8070  002076  0E00               	movlw	0
  8071  002078  6F6B               	movwf	LCD_inicio_teste@i& (0+255),b
  8072  00207A                     l6633:
  8073                           
  8074                           ; BSR set to: 0
  8075                           ;LCD.c: 87:     WriteCmdXLCD(0b00011011);
  8076  00207A  0E1B               	movlw	27
  8077  00207C  ECB5  F01A         	call	_WriteCmdXLCD
  8078  002080                     l6635:
  8079  002080  EC70  F01A         	call	_BusyXLCD	;wreg free
  8080  002084  0900               	iorlw	0
  8081  002086  A4D8               	btfss	status,2,c
  8082  002088  EF48  F010         	goto	u7521
  8083  00208C  EF4A  F010         	goto	u7520
  8084  002090                     u7521:
  8085  002090  EF40  F010         	goto	l6635
  8086  002094                     u7520:
  8087  002094                     
  8088                           ;LCD.c: 89:     for (j = 0; j < 100 ; j++ )
  8089  002094  0E00               	movlw	0
  8090  002096  0100               	movlb	0	; () banked
  8091  002098  6F6E               	movwf	(LCD_inicio_teste@j+1)& (0+255),b
  8092  00209A  0E00               	movlw	0
  8093  00209C  6F6D               	movwf	LCD_inicio_teste@j& (0+255),b
  8094  00209E                     l6643:
  8095                           
  8096                           ; BSR set to: 0
  8097                           ;LCD.c: 90:             _delay((unsigned long)((3)*(6000000/4000.0)));
  8098  00209E  0E06               	movlw	6
  8099  0020A0  0100               	movlb	0	; () banked
  8100  0020A2  6F69               	movwf	??_LCD_inicio_teste& (0+255),b
  8101  0020A4  0ED7               	movlw	215
  8102  0020A6                     u8517:
  8103  0020A6  2EE8               	decfsz	wreg,f,c
  8104  0020A8  D7FE               	bra	u8517
  8105  0020AA  2F69               	decfsz	??_LCD_inicio_teste& (0+255),f,b
  8106  0020AC  D7FC               	bra	u8517
  8107  0020AE  0100               	movlb	0	; () banked
  8108  0020B0  4B6D               	infsnz	LCD_inicio_teste@j& (0+255),f,b
  8109  0020B2  2B6E               	incf	(LCD_inicio_teste@j+1)& (0+255),f,b
  8110  0020B4  BF6E               	btfsc	(LCD_inicio_teste@j+1)& (0+255),7,b
  8111  0020B6  EF66  F010         	goto	u7531
  8112  0020BA  516E               	movf	(LCD_inicio_teste@j+1)& (0+255),w,b
  8113  0020BC  E109               	bnz	u7530
  8114  0020BE  0E64               	movlw	100
  8115  0020C0  5D6D               	subwf	LCD_inicio_teste@j& (0+255),w,b
  8116  0020C2  A0D8               	btfss	status,0,c
  8117  0020C4  EF66  F010         	goto	u7531
  8118  0020C8  EF68  F010         	goto	u7530
  8119  0020CC                     u7531:
  8120  0020CC  EF4F  F010         	goto	l6643
  8121  0020D0                     u7530:
  8122  0020D0                     
  8123                           ; BSR set to: 0
  8124                           ;LCD.c: 91:     }
  8125  0020D0  4B6B               	infsnz	LCD_inicio_teste@i& (0+255),f,b
  8126  0020D2  2B6C               	incf	(LCD_inicio_teste@i+1)& (0+255),f,b
  8127  0020D4                     
  8128                           ; BSR set to: 0
  8129  0020D4  BF6C               	btfsc	(LCD_inicio_teste@i+1)& (0+255),7,b
  8130  0020D6  EF76  F010         	goto	u7541
  8131  0020DA  516C               	movf	(LCD_inicio_teste@i+1)& (0+255),w,b
  8132  0020DC  E109               	bnz	u7540
  8133  0020DE  0E02               	movlw	2
  8134  0020E0  5D6B               	subwf	LCD_inicio_teste@i& (0+255),w,b
  8135  0020E2  A0D8               	btfss	status,0,c
  8136  0020E4  EF76  F010         	goto	u7541
  8137  0020E8  EF78  F010         	goto	u7540
  8138  0020EC                     u7541:
  8139  0020EC  EF3D  F010         	goto	l6633
  8140  0020F0                     u7540:
  8141  0020F0                     
  8142                           ; BSR set to: 0
  8143                           ;LCD.c: 94:     _delay((unsigned long)((1000)*(6000000/4000.0)));
  8144  0020F0  0E08               	movlw	8
  8145  0020F2  0100               	movlb	0	; () banked
  8146  0020F4  6F6A               	movwf	(??_LCD_inicio_teste+1)& (0+255),b
  8147  0020F6  0E9D               	movlw	157
  8148  0020F8  6F69               	movwf	??_LCD_inicio_teste& (0+255),b
  8149  0020FA  0E05               	movlw	5
  8150  0020FC                     u8527:
  8151  0020FC  2EE8               	decfsz	wreg,f,c
  8152  0020FE  D7FE               	bra	u8527
  8153  002100  2F69               	decfsz	??_LCD_inicio_teste& (0+255),f,b
  8154  002102  D7FC               	bra	u8527
  8155  002104  2F6A               	decfsz	(??_LCD_inicio_teste+1)& (0+255),f,b
  8156  002106  D7FA               	bra	u8527
  8157  002108  D000               	nop2	
  8158  00210A                     
  8159                           ;LCD.c: 96:     WriteCmdXLCD(0b00000001);
  8160  00210A  0E01               	movlw	1
  8161  00210C  ECB5  F01A         	call	_WriteCmdXLCD
  8162  002110                     l6655:
  8163  002110  EC70  F01A         	call	_BusyXLCD	;wreg free
  8164  002114  0900               	iorlw	0
  8165  002116  A4D8               	btfss	status,2,c
  8166  002118  EF90  F010         	goto	u7551
  8167  00211C  EF92  F010         	goto	u7550
  8168  002120                     u7551:
  8169  002120  EF88  F010         	goto	l6655
  8170  002124                     u7550:
  8171  002124  0012               	return		;funcret
  8172  002126                     __end_of_LCD_inicio_teste:
  8173                           	opt callstack 0
  8174                           
  8175 ;; *************** function _putsXLCD *****************
  8176 ;; Defined at:
  8177 ;;		line 302 in file "xlcd.c"
  8178 ;; Parameters:    Size  Location     Type
  8179 ;;  buffer          2    7[BANK0 ] PTR unsigned char 
  8180 ;;		 -> STR_25(22), STR_24(23), STR_23(11), STR_22(19), 
  8181 ;;		 -> STR_21(11), STR_20(12), STR_19(12), temp_alarme_LCD(40), 
  8182 ;;		 -> temp_ambiente_LCD(40), temp_alarme_string(4), 
  8183 ;; Auto vars:     Size  Location     Type
  8184 ;;		None
  8185 ;; Return value:  Size  Location     Type
  8186 ;;                  1    wreg      void 
  8187 ;; Registers used:
  8188 ;;		wreg, fsr1l, fsr1h, status,2, status,0, tblptrl, tblptrh, tblptru, cstack
  8189 ;; Tracked objects:
  8190 ;;		On entry : 0/0
  8191 ;;		On exit  : 0/0
  8192 ;;		Unchanged: 0/0
  8193 ;; Data sizes:     COMRAM   BANK0   BANK1   BANK2   BANK3   BANK4   BANK5
  8194 ;;      Params:         0       2       0       0       0       0       0
  8195 ;;      Locals:         0       0       0       0       0       0       0
  8196 ;;      Temps:          0       0       0       0       0       0       0
  8197 ;;      Totals:         0       2       0       0       0       0       0
  8198 ;;Total ram usage:        2 bytes
  8199 ;; Hardware stack levels used:    1
  8200 ;; Hardware stack levels required when called:    6
  8201 ;; This function calls:
  8202 ;;		_BusyXLCD
  8203 ;;		_WriteDataXLCD
  8204 ;; This function is called by:
  8205 ;;		_main
  8206 ;;		_LCD_inicio_teste
  8207 ;; This function uses a non-reentrant model
  8208 ;;
  8209                           
  8210                           	psect	text42
  8211  0030A4                     __ptext42:
  8212                           	opt callstack 0
  8213  0030A4                     _putsXLCD:
  8214                           	opt callstack 24
  8215  0030A4                     
  8216                           ;xlcd.c: 303:     while (*buffer)
  8217  0030A4  EF73  F018         	goto	l6437
  8218  0030A8                     l6431:
  8219  0030A8  EC70  F01A         	call	_BusyXLCD	;wreg free
  8220  0030AC  0900               	iorlw	0
  8221  0030AE  A4D8               	btfss	status,2,c
  8222  0030B0  EF5C  F018         	goto	u7281
  8223  0030B4  EF5E  F018         	goto	u7280
  8224  0030B8                     u7281:
  8225  0030B8  EF54  F018         	goto	l6431
  8226  0030BC                     u7280:
  8227  0030BC                     
  8228                           ;xlcd.c: 306:         WriteDataXLCD(*buffer);
  8229  0030BC  C067  FFF6         	movff	putsXLCD@buffer,tblptrl
  8230  0030C0  C068  FFF7         	movff	putsXLCD@buffer+1,tblptrh
  8231  0030C4  6AF8               	clrf	tblptru,c
  8232  0030C6  0E05               	movlw	(high __ramtop+-1)
  8233  0030C8  64F7               	cpfsgt	tblptrh,c
  8234  0030CA  D003               	bra	u7297
  8235  0030CC  0008               	tblrd		*
  8236  0030CE  50F5               	movf	tablat,w,c
  8237  0030D0  D005               	bra	u7290
  8238  0030D2                     u7297:
  8239  0030D2  CFF6 FFE1          	movff	tblptrl,fsr1l
  8240  0030D6  CFF7 FFE2          	movff	tblptrh,fsr1h
  8241  0030DA  50E7               	movf	indf1,w,c
  8242  0030DC                     u7290:
  8243  0030DC  EC93  F01A         	call	_WriteDataXLCD
  8244  0030E0                     
  8245                           ;xlcd.c: 307:         buffer++;
  8246  0030E0  0100               	movlb	0	; () banked
  8247  0030E2  4B67               	infsnz	putsXLCD@buffer& (0+255),f,b
  8248  0030E4  2B68               	incf	(putsXLCD@buffer+1)& (0+255),f,b
  8249  0030E6                     l6437:
  8250                           
  8251                           ;xlcd.c: 303:     while (*buffer)
  8252  0030E6  C067  FFF6         	movff	putsXLCD@buffer,tblptrl
  8253  0030EA  C068  FFF7         	movff	putsXLCD@buffer+1,tblptrh
  8254  0030EE  6AF8               	clrf	tblptru,c
  8255  0030F0  0E05               	movlw	(high __ramtop+-1)
  8256  0030F2  64F7               	cpfsgt	tblptrh,c
  8257  0030F4  D003               	bra	u7307
  8258  0030F6  0008               	tblrd		*
  8259  0030F8  50F5               	movf	tablat,w,c
  8260  0030FA  D005               	bra	u7300
  8261  0030FC                     u7307:
  8262  0030FC  CFF6 FFE1          	movff	tblptrl,fsr1l
  8263  003100  CFF7 FFE2          	movff	tblptrh,fsr1h
  8264  003104  50E7               	movf	indf1,w,c
  8265  003106                     u7300:
  8266  003106  0900               	iorlw	0
  8267  003108  A4D8               	btfss	status,2,c
  8268  00310A  EF89  F018         	goto	u7311
  8269  00310E  EF8B  F018         	goto	u7310
  8270  003112                     u7311:
  8271  003112  EF54  F018         	goto	l6431
  8272  003116                     u7310:
  8273  003116  0012               	return		;funcret
  8274  003118                     __end_of_putsXLCD:
  8275                           	opt callstack 0
  8276                           
  8277 ;; *************** function _WriteDataXLCD *****************
  8278 ;; Defined at:
  8279 ;;		line 598 in file "xlcd.c"
  8280 ;; Parameters:    Size  Location     Type
  8281 ;;  data            1    wreg     unsigned char 
  8282 ;; Auto vars:     Size  Location     Type
  8283 ;;  data            1    6[BANK0 ] unsigned char 
  8284 ;; Return value:  Size  Location     Type
  8285 ;;                  1    wreg      void 
  8286 ;; Registers used:
  8287 ;;		wreg, status,2, status,0, cstack
  8288 ;; Tracked objects:
  8289 ;;		On entry : 0/0
  8290 ;;		On exit  : 0/0
  8291 ;;		Unchanged: 0/0
  8292 ;; Data sizes:     COMRAM   BANK0   BANK1   BANK2   BANK3   BANK4   BANK5
  8293 ;;      Params:         0       0       0       0       0       0       0
  8294 ;;      Locals:         0       1       0       0       0       0       0
  8295 ;;      Temps:          0       0       0       0       0       0       0
  8296 ;;      Totals:         0       1       0       0       0       0       0
  8297 ;;Total ram usage:        1 bytes
  8298 ;; Hardware stack levels used:    1
  8299 ;; Hardware stack levels required when called:    5
  8300 ;; This function calls:
  8301 ;;		_DelayFor18TCY
  8302 ;; This function is called by:
  8303 ;;		_putsXLCD
  8304 ;; This function uses a non-reentrant model
  8305 ;;
  8306                           
  8307                           	psect	text43
  8308  003526                     __ptext43:
  8309                           	opt callstack 0
  8310  003526                     _WriteDataXLCD:
  8311                           	opt callstack 24
  8312                           
  8313                           ;incstack = 0
  8314                           ;WriteDataXLCD@data stored from wreg
  8315  003526  0100               	movlb	0	; () banked
  8316  003528  6F66               	movwf	WriteDataXLCD@data& (0+255),b
  8317  00352A                     
  8318                           ;xlcd.c: 616:     TRISD &= 0xf0;
  8319  00352A  0EF0               	movlw	240
  8320  00352C  1695               	andwf	149,f,c	;volatile
  8321                           
  8322                           ;xlcd.c: 617:     PORTD &= 0xf0;
  8323  00352E  0EF0               	movlw	240
  8324  003530  1683               	andwf	131,f,c	;volatile
  8325                           
  8326                           ;xlcd.c: 618:     PORTD |= ((data >> 4)&0x0f);
  8327  003532  0100               	movlb	0	; () banked
  8328  003534  3966               	swapf	WriteDataXLCD@data& (0+255),w,b
  8329  003536  0B0F               	andlw	15
  8330  003538  0B0F               	andlw	15
  8331  00353A  1283               	iorwf	131,f,c	;volatile
  8332  00353C                     
  8333                           ; BSR set to: 0
  8334                           ;xlcd.c: 620:     LATDbits.LATD4 = 1;
  8335  00353C  888C               	bsf	140,4,c	;volatile
  8336  00353E                     
  8337                           ; BSR set to: 0
  8338                           ;xlcd.c: 621:     LATDbits.LATD5 = 0;
  8339  00353E  9A8C               	bcf	140,5,c	;volatile
  8340  003540                     
  8341                           ; BSR set to: 0
  8342                           ;xlcd.c: 622:     DelayFor18TCY();
  8343  003540  ECC5  F01C         	call	_DelayFor18TCY	;wreg free
  8344  003544                     
  8345                           ;xlcd.c: 623:     LATDbits.LATD6 = 1;
  8346  003544  8C8C               	bsf	140,6,c	;volatile
  8347  003546                     
  8348                           ;xlcd.c: 624:     DelayFor18TCY();
  8349  003546  ECC5  F01C         	call	_DelayFor18TCY	;wreg free
  8350  00354A                     
  8351                           ;xlcd.c: 625:     LATDbits.LATD6 = 0;
  8352  00354A  9C8C               	bcf	140,6,c	;volatile
  8353                           
  8354                           ;xlcd.c: 630:     PORTD &= 0xf0;
  8355  00354C  0EF0               	movlw	240
  8356  00354E  1683               	andwf	131,f,c	;volatile
  8357                           
  8358                           ;xlcd.c: 631:     PORTD |= (data & 0x0f);
  8359  003550  0100               	movlb	0	; () banked
  8360  003552  5166               	movf	WriteDataXLCD@data& (0+255),w,b
  8361  003554  0B0F               	andlw	15
  8362  003556  1283               	iorwf	131,f,c	;volatile
  8363  003558                     
  8364                           ; BSR set to: 0
  8365                           ;xlcd.c: 633:     DelayFor18TCY();
  8366  003558  ECC5  F01C         	call	_DelayFor18TCY	;wreg free
  8367  00355C                     
  8368                           ;xlcd.c: 634:     LATDbits.LATD6 = 1;
  8369  00355C  8C8C               	bsf	140,6,c	;volatile
  8370  00355E                     
  8371                           ;xlcd.c: 635:     DelayFor18TCY();
  8372  00355E  ECC5  F01C         	call	_DelayFor18TCY	;wreg free
  8373  003562                     
  8374                           ;xlcd.c: 636:     LATDbits.LATD6 = 0;
  8375  003562  9C8C               	bcf	140,6,c	;volatile
  8376                           
  8377                           ;xlcd.c: 640:     TRISD |= 0x0f;
  8378  003564  0E0F               	movlw	15
  8379  003566  1295               	iorwf	149,f,c	;volatile
  8380  003568  0012               	return		;funcret
  8381  00356A                     __end_of_WriteDataXLCD:
  8382                           	opt callstack 0
  8383                           
  8384 ;; *************** function _OpenXLCD *****************
  8385 ;; Defined at:
  8386 ;;		line 56 in file "xlcd.c"
  8387 ;; Parameters:    Size  Location     Type
  8388 ;;  lcdtype         1    wreg     unsigned char 
  8389 ;; Auto vars:     Size  Location     Type
  8390 ;;  lcdtype         1    0[COMRAM] unsigned char 
  8391 ;; Return value:  Size  Location     Type
  8392 ;;                  1    wreg      void 
  8393 ;; Registers used:
  8394 ;;		wreg, status,2, status,0, cstack
  8395 ;; Tracked objects:
  8396 ;;		On entry : 0/0
  8397 ;;		On exit  : 0/0
  8398 ;;		Unchanged: 0/0
  8399 ;; Data sizes:     COMRAM   BANK0   BANK1   BANK2   BANK3   BANK4   BANK5
  8400 ;;      Params:         0       0       0       0       0       0       0
  8401 ;;      Locals:         0       0       0       0       0       0       0
  8402 ;;      Temps:          0       0       0       0       0       0       0
  8403 ;;      Totals:         0       0       0       0       0       0       0
  8404 ;;Total ram usage:        0 bytes
  8405 ;; Hardware stack levels used:    1
  8406 ;; Hardware stack levels required when called:    6
  8407 ;; This function calls:
  8408 ;;		_BusyXLCD
  8409 ;;		_DelayFor18TCY
  8410 ;;		_DelayPORXLCD
  8411 ;;		_DelayXLCD
  8412 ;;		_WriteCmdXLCD
  8413 ;; This function is called by:
  8414 ;;		_LCD_inicio_teste
  8415 ;; This function uses a non-reentrant model
  8416 ;;
  8417                           
  8418                           	psect	text44
  8419  002B40                     __ptext44:
  8420                           	opt callstack 0
  8421  002B40                     _OpenXLCD:
  8422                           	opt callstack 23
  8423  002B40                     
  8424                           ;xlcd.c: 60:     DelayPORXLCD();
  8425  002B40  EC6E  F01C         	call	_DelayPORXLCD	;wreg free
  8426  002B44                     
  8427                           ;xlcd.c: 72:     PORTD &= 0xf0;
  8428  002B44  0EF0               	movlw	240
  8429  002B46  1683               	andwf	131,f,c	;volatile
  8430  002B48                     
  8431                           ;xlcd.c: 73:     TRISD |= 0x0f;
  8432  002B48  0E0F               	movlw	15
  8433  002B4A  1295               	iorwf	149,f,c	;volatile
  8434  002B4C                     
  8435                           ;xlcd.c: 76:     TRISDbits.TRISD5 = 0;
  8436  002B4C  9A95               	bcf	149,5,c	;volatile
  8437  002B4E                     
  8438                           ;xlcd.c: 77:     TRISDbits.TRISD4 = 0;
  8439  002B4E  9895               	bcf	149,4,c	;volatile
  8440  002B50                     
  8441                           ;xlcd.c: 78:     TRISDbits.TRISD6 = 0;
  8442  002B50  9C95               	bcf	149,6,c	;volatile
  8443  002B52                     
  8444                           ;xlcd.c: 79:     LATDbits.LATD5 = 0;
  8445  002B52  9A8C               	bcf	140,5,c	;volatile
  8446  002B54                     
  8447                           ;xlcd.c: 80:     LATDbits.LATD4 = 0;
  8448  002B54  988C               	bcf	140,4,c	;volatile
  8449  002B56                     
  8450                           ;xlcd.c: 81:     LATDbits.LATD6 = 0;
  8451  002B56  9C8C               	bcf	140,6,c	;volatile
  8452                           
  8453                           ;xlcd.c: 84:     DelayPORXLCD();
  8454  002B58  EC6E  F01C         	call	_DelayPORXLCD	;wreg free
  8455  002B5C                     
  8456                           ;xlcd.c: 97:     TRISD &= 0xf0;
  8457  002B5C  0EF0               	movlw	240
  8458  002B5E  1695               	andwf	149,f,c	;volatile
  8459  002B60                     
  8460                           ;xlcd.c: 98:     PORTD &= 0xf0;
  8461  002B60  0EF0               	movlw	240
  8462  002B62  1683               	andwf	131,f,c	;volatile
  8463  002B64                     
  8464                           ;xlcd.c: 99:     PORTD |= 0b00000011;
  8465  002B64  0E03               	movlw	3
  8466  002B66  1283               	iorwf	131,f,c	;volatile
  8467  002B68                     
  8468                           ;xlcd.c: 102:     LATDbits.LATD6 = 1;
  8469  002B68  8C8C               	bsf	140,6,c	;volatile
  8470  002B6A                     
  8471                           ;xlcd.c: 103:     DelayFor18TCY();
  8472  002B6A  ECC5  F01C         	call	_DelayFor18TCY	;wreg free
  8473  002B6E                     
  8474                           ;xlcd.c: 104:     LATDbits.LATD6 = 0;
  8475  002B6E  9C8C               	bcf	140,6,c	;volatile
  8476  002B70                     
  8477                           ;xlcd.c: 107:     DelayXLCD();
  8478  002B70  ECA9  F01C         	call	_DelayXLCD	;wreg free
  8479  002B74                     
  8480                           ;xlcd.c: 118:     TRISD &= 0xf0;
  8481  002B74  0EF0               	movlw	240
  8482  002B76  1695               	andwf	149,f,c	;volatile
  8483  002B78                     
  8484                           ;xlcd.c: 119:     PORTD &= 0xf0;
  8485  002B78  0EF0               	movlw	240
  8486  002B7A  1683               	andwf	131,f,c	;volatile
  8487  002B7C                     
  8488                           ;xlcd.c: 120:     PORTD |= 0b00000011;
  8489  002B7C  0E03               	movlw	3
  8490  002B7E  1283               	iorwf	131,f,c	;volatile
  8491  002B80                     
  8492                           ;xlcd.c: 123:     LATDbits.LATD6 = 1;
  8493  002B80  8C8C               	bsf	140,6,c	;volatile
  8494                           
  8495                           ;xlcd.c: 124:     DelayFor18TCY();
  8496  002B82  ECC5  F01C         	call	_DelayFor18TCY	;wreg free
  8497  002B86                     
  8498                           ;xlcd.c: 125:     LATDbits.LATD6 = 0;
  8499  002B86  9C8C               	bcf	140,6,c	;volatile
  8500                           
  8501                           ;xlcd.c: 128:     DelayXLCD();
  8502  002B88  ECA9  F01C         	call	_DelayXLCD	;wreg free
  8503  002B8C                     
  8504                           ;xlcd.c: 138:     PORTD &= 0xf0;
  8505  002B8C  0EF0               	movlw	240
  8506  002B8E  1683               	andwf	131,f,c	;volatile
  8507  002B90                     
  8508                           ;xlcd.c: 139:     PORTD |= 0b00000011;
  8509  002B90  0E03               	movlw	3
  8510  002B92  1283               	iorwf	131,f,c	;volatile
  8511  002B94                     
  8512                           ;xlcd.c: 142:     LATDbits.LATD6 = 1;
  8513  002B94  8C8C               	bsf	140,6,c	;volatile
  8514                           
  8515                           ;xlcd.c: 143:     DelayFor18TCY();
  8516  002B96  ECC5  F01C         	call	_DelayFor18TCY	;wreg free
  8517  002B9A                     
  8518                           ;xlcd.c: 144:     LATDbits.LATD6 = 0;
  8519  002B9A  9C8C               	bcf	140,6,c	;volatile
  8520                           
  8521                           ;xlcd.c: 147:     DelayXLCD();
  8522  002B9C  ECA9  F01C         	call	_DelayXLCD	;wreg free
  8523  002BA0                     
  8524                           ;xlcd.c: 159:     PORTD &= 0xf0;
  8525  002BA0  0EF0               	movlw	240
  8526  002BA2  1683               	andwf	131,f,c	;volatile
  8527  002BA4                     
  8528                           ;xlcd.c: 160:     PORTD |= 0b00000010;
  8529  002BA4  8283               	bsf	131,1,c	;volatile
  8530  002BA6                     
  8531                           ;xlcd.c: 163:     LATDbits.LATD6 = 1;
  8532  002BA6  8C8C               	bsf	140,6,c	;volatile
  8533  002BA8                     
  8534                           ;xlcd.c: 164:     DelayFor18TCY();
  8535  002BA8  ECC5  F01C         	call	_DelayFor18TCY	;wreg free
  8536  002BAC                     
  8537                           ;xlcd.c: 165:     LATDbits.LATD6 = 0;
  8538  002BAC  9C8C               	bcf	140,6,c	;volatile
  8539  002BAE                     
  8540                           ;xlcd.c: 174:     TRISD |= 0x0f;
  8541  002BAE  0E0F               	movlw	15
  8542  002BB0  1295               	iorwf	149,f,c	;volatile
  8543  002BB2                     l6501:
  8544  002BB2  EC70  F01A         	call	_BusyXLCD	;wreg free
  8545  002BB6  0900               	iorlw	0
  8546  002BB8  A4D8               	btfss	status,2,c
  8547  002BBA  EFE1  F015         	goto	u7321
  8548  002BBE  EFE3  F015         	goto	u7320
  8549  002BC2                     u7321:
  8550  002BC2  EFD9  F015         	goto	l6501
  8551  002BC6                     u7320:
  8552  002BC6                     
  8553                           ;xlcd.c: 182:     WriteCmdXLCD(0x28);
  8554  002BC6  0E28               	movlw	40
  8555  002BC8  ECB5  F01A         	call	_WriteCmdXLCD
  8556  002BCC                     l6505:
  8557  002BCC  EC70  F01A         	call	_BusyXLCD	;wreg free
  8558  002BD0  0900               	iorlw	0
  8559  002BD2  A4D8               	btfss	status,2,c
  8560  002BD4  EFEE  F015         	goto	u7331
  8561  002BD8  EFF0  F015         	goto	u7330
  8562  002BDC                     u7331:
  8563  002BDC  EFE6  F015         	goto	l6505
  8564  002BE0                     u7330:
  8565  002BE0                     
  8566                           ;xlcd.c: 188:     WriteCmdXLCD(0x0D);
  8567  002BE0  0E0D               	movlw	13
  8568  002BE2  ECB5  F01A         	call	_WriteCmdXLCD
  8569  002BE6                     l6509:
  8570  002BE6  EC70  F01A         	call	_BusyXLCD	;wreg free
  8571  002BEA  0900               	iorlw	0
  8572  002BEC  A4D8               	btfss	status,2,c
  8573  002BEE  EFFB  F015         	goto	u7341
  8574  002BF2  EFFD  F015         	goto	u7340
  8575  002BF6                     u7341:
  8576  002BF6  EFF3  F015         	goto	l6509
  8577  002BFA                     u7340:
  8578  002BFA                     l6511:
  8579  002BFA  EC70  F01A         	call	_BusyXLCD	;wreg free
  8580  002BFE  0900               	iorlw	0
  8581  002C00  A4D8               	btfss	status,2,c
  8582  002C02  EF05  F016         	goto	u7351
  8583  002C06  EF07  F016         	goto	u7350
  8584  002C0A                     u7351:
  8585  002C0A  EFFD  F015         	goto	l6511
  8586  002C0E                     u7350:
  8587  002C0E                     
  8588                           ;xlcd.c: 196:     WriteCmdXLCD(0x01);
  8589  002C0E  0E01               	movlw	1
  8590  002C10  ECB5  F01A         	call	_WriteCmdXLCD
  8591  002C14                     l6515:
  8592  002C14  EC70  F01A         	call	_BusyXLCD	;wreg free
  8593  002C18  0900               	iorlw	0
  8594  002C1A  A4D8               	btfss	status,2,c
  8595  002C1C  EF12  F016         	goto	u7361
  8596  002C20  EF14  F016         	goto	u7360
  8597  002C24                     u7361:
  8598  002C24  EF0A  F016         	goto	l6515
  8599  002C28                     u7360:
  8600  002C28                     
  8601                           ;xlcd.c: 201:     WriteCmdXLCD(0x06);
  8602  002C28  0E06               	movlw	6
  8603  002C2A  ECB5  F01A         	call	_WriteCmdXLCD
  8604  002C2E                     l6519:
  8605  002C2E  EC70  F01A         	call	_BusyXLCD	;wreg free
  8606  002C32  0900               	iorlw	0
  8607  002C34  A4D8               	btfss	status,2,c
  8608  002C36  EF1F  F016         	goto	u7371
  8609  002C3A  EF21  F016         	goto	u7370
  8610  002C3E                     u7371:
  8611  002C3E  EF17  F016         	goto	l6519
  8612  002C42                     u7370:
  8613  002C42                     
  8614                           ;xlcd.c: 207:     WriteCmdXLCD(0x80);
  8615  002C42  0E80               	movlw	128
  8616  002C44  ECB5  F01A         	call	_WriteCmdXLCD
  8617  002C48  0012               	return		;funcret
  8618  002C4A                     __end_of_OpenXLCD:
  8619                           	opt callstack 0
  8620                           
  8621 ;; *************** function _WriteCmdXLCD *****************
  8622 ;; Defined at:
  8623 ;;		line 538 in file "xlcd.c"
  8624 ;; Parameters:    Size  Location     Type
  8625 ;;  cmd             1    wreg     unsigned char 
  8626 ;; Auto vars:     Size  Location     Type
  8627 ;;  cmd             1    6[BANK0 ] unsigned char 
  8628 ;; Return value:  Size  Location     Type
  8629 ;;                  1    wreg      void 
  8630 ;; Registers used:
  8631 ;;		wreg, status,2, status,0, cstack
  8632 ;; Tracked objects:
  8633 ;;		On entry : 0/0
  8634 ;;		On exit  : 0/0
  8635 ;;		Unchanged: 0/0
  8636 ;; Data sizes:     COMRAM   BANK0   BANK1   BANK2   BANK3   BANK4   BANK5
  8637 ;;      Params:         0       0       0       0       0       0       0
  8638 ;;      Locals:         0       1       0       0       0       0       0
  8639 ;;      Temps:          0       0       0       0       0       0       0
  8640 ;;      Totals:         0       1       0       0       0       0       0
  8641 ;;Total ram usage:        1 bytes
  8642 ;; Hardware stack levels used:    1
  8643 ;; Hardware stack levels required when called:    5
  8644 ;; This function calls:
  8645 ;;		_DelayFor18TCY
  8646 ;; This function is called by:
  8647 ;;		_main
  8648 ;;		_OpenXLCD
  8649 ;;		_LCD_inicio_teste
  8650 ;; This function uses a non-reentrant model
  8651 ;;
  8652                           
  8653                           	psect	text45
  8654  00356A                     __ptext45:
  8655                           	opt callstack 0
  8656  00356A                     _WriteCmdXLCD:
  8657                           	opt callstack 25
  8658                           
  8659                           ;incstack = 0
  8660                           ;WriteCmdXLCD@cmd stored from wreg
  8661  00356A  0100               	movlb	0	; () banked
  8662  00356C  6F66               	movwf	WriteCmdXLCD@cmd& (0+255),b
  8663  00356E                     
  8664                           ;xlcd.c: 556:     TRISD &= 0xf0;
  8665  00356E  0EF0               	movlw	240
  8666  003570  1695               	andwf	149,f,c	;volatile
  8667                           
  8668                           ;xlcd.c: 557:     PORTD &= 0xf0;
  8669  003572  0EF0               	movlw	240
  8670  003574  1683               	andwf	131,f,c	;volatile
  8671                           
  8672                           ;xlcd.c: 558:     PORTD |= (cmd >> 4)&0x0f;
  8673  003576  0100               	movlb	0	; () banked
  8674  003578  3966               	swapf	WriteCmdXLCD@cmd& (0+255),w,b
  8675  00357A  0B0F               	andlw	15
  8676  00357C  0B0F               	andlw	15
  8677  00357E  1283               	iorwf	131,f,c	;volatile
  8678  003580                     
  8679                           ; BSR set to: 0
  8680                           ;xlcd.c: 560:     LATDbits.LATD5 = 0;
  8681  003580  9A8C               	bcf	140,5,c	;volatile
  8682  003582                     
  8683                           ; BSR set to: 0
  8684                           ;xlcd.c: 561:     LATDbits.LATD4 = 0;
  8685  003582  988C               	bcf	140,4,c	;volatile
  8686  003584                     
  8687                           ; BSR set to: 0
  8688                           ;xlcd.c: 562:     DelayFor18TCY();
  8689  003584  ECC5  F01C         	call	_DelayFor18TCY	;wreg free
  8690  003588                     
  8691                           ;xlcd.c: 563:     LATDbits.LATD6 = 1;
  8692  003588  8C8C               	bsf	140,6,c	;volatile
  8693  00358A                     
  8694                           ;xlcd.c: 564:     DelayFor18TCY();
  8695  00358A  ECC5  F01C         	call	_DelayFor18TCY	;wreg free
  8696  00358E                     
  8697                           ;xlcd.c: 565:     LATDbits.LATD6 = 0;
  8698  00358E  9C8C               	bcf	140,6,c	;volatile
  8699                           
  8700                           ;xlcd.c: 570:     PORTD &= 0xf0;
  8701  003590  0EF0               	movlw	240
  8702  003592  1683               	andwf	131,f,c	;volatile
  8703                           
  8704                           ;xlcd.c: 571:     PORTD |= cmd & 0x0f;
  8705  003594  0100               	movlb	0	; () banked
  8706  003596  5166               	movf	WriteCmdXLCD@cmd& (0+255),w,b
  8707  003598  0B0F               	andlw	15
  8708  00359A  1283               	iorwf	131,f,c	;volatile
  8709  00359C                     
  8710                           ; BSR set to: 0
  8711                           ;xlcd.c: 573:     DelayFor18TCY();
  8712  00359C  ECC5  F01C         	call	_DelayFor18TCY	;wreg free
  8713  0035A0                     
  8714                           ;xlcd.c: 574:     LATDbits.LATD6 = 1;
  8715  0035A0  8C8C               	bsf	140,6,c	;volatile
  8716  0035A2                     
  8717                           ;xlcd.c: 575:     DelayFor18TCY();
  8718  0035A2  ECC5  F01C         	call	_DelayFor18TCY	;wreg free
  8719  0035A6                     
  8720                           ;xlcd.c: 576:     LATDbits.LATD6 = 0;
  8721  0035A6  9C8C               	bcf	140,6,c	;volatile
  8722                           
  8723                           ;xlcd.c: 580:     TRISD |= 0x0f;
  8724  0035A8  0E0F               	movlw	15
  8725  0035AA  1295               	iorwf	149,f,c	;volatile
  8726  0035AC  0012               	return		;funcret
  8727  0035AE                     __end_of_WriteCmdXLCD:
  8728                           	opt callstack 0
  8729                           
  8730 ;; *************** function _DelayXLCD *****************
  8731 ;; Defined at:
  8732 ;;		line 33 in file "xlcd.c"
  8733 ;; Parameters:    Size  Location     Type
  8734 ;;		None
  8735 ;; Auto vars:     Size  Location     Type
  8736 ;;		None
  8737 ;; Return value:  Size  Location     Type
  8738 ;;                  1    wreg      void 
  8739 ;; Registers used:
  8740 ;;		wreg
  8741 ;; Tracked objects:
  8742 ;;		On entry : 0/0
  8743 ;;		On exit  : 0/0
  8744 ;;		Unchanged: 0/0
  8745 ;; Data sizes:     COMRAM   BANK0   BANK1   BANK2   BANK3   BANK4   BANK5
  8746 ;;      Params:         0       0       0       0       0       0       0
  8747 ;;      Locals:         0       0       0       0       0       0       0
  8748 ;;      Temps:          0       1       0       0       0       0       0
  8749 ;;      Totals:         0       1       0       0       0       0       0
  8750 ;;Total ram usage:        1 bytes
  8751 ;; Hardware stack levels used:    1
  8752 ;; Hardware stack levels required when called:    4
  8753 ;; This function calls:
  8754 ;;		Nothing
  8755 ;; This function is called by:
  8756 ;;		_OpenXLCD
  8757 ;; This function uses a non-reentrant model
  8758 ;;
  8759                           
  8760                           	psect	text46
  8761  003952                     __ptext46:
  8762                           	opt callstack 0
  8763  003952                     _DelayXLCD:
  8764                           	opt callstack 24
  8765  003952                     
  8766                           ;xlcd.c: 36:     _delay((unsigned long)((15)*(4000000/4000.0)));
  8767  003952  0E14               	movlw	20
  8768  003954  0100               	movlb	0	; () banked
  8769  003956  6F66               	movwf	??_DelayXLCD& (0+255),b
  8770  003958  0E79               	movlw	121
  8771  00395A                     u8537:
  8772  00395A  2EE8               	decfsz	wreg,f,c
  8773  00395C  D7FE               	bra	u8537
  8774  00395E  2F66               	decfsz	??_DelayXLCD& (0+255),f,b
  8775  003960  D7FC               	bra	u8537
  8776  003962  D000               	nop2	
  8777  003964  0012               	return		;funcret
  8778  003966                     __end_of_DelayXLCD:
  8779                           	opt callstack 0
  8780                           
  8781 ;; *************** function _DelayPORXLCD *****************
  8782 ;; Defined at:
  8783 ;;		line 25 in file "xlcd.c"
  8784 ;; Parameters:    Size  Location     Type
  8785 ;;		None
  8786 ;; Auto vars:     Size  Location     Type
  8787 ;;		None
  8788 ;; Return value:  Size  Location     Type
  8789 ;;                  1    wreg      void 
  8790 ;; Registers used:
  8791 ;;		wreg
  8792 ;; Tracked objects:
  8793 ;;		On entry : 0/0
  8794 ;;		On exit  : 0/0
  8795 ;;		Unchanged: 0/0
  8796 ;; Data sizes:     COMRAM   BANK0   BANK1   BANK2   BANK3   BANK4   BANK5
  8797 ;;      Params:         0       0       0       0       0       0       0
  8798 ;;      Locals:         0       0       0       0       0       0       0
  8799 ;;      Temps:          0       1       0       0       0       0       0
  8800 ;;      Totals:         0       1       0       0       0       0       0
  8801 ;;Total ram usage:        1 bytes
  8802 ;; Hardware stack levels used:    1
  8803 ;; Hardware stack levels required when called:    4
  8804 ;; This function calls:
  8805 ;;		Nothing
  8806 ;; This function is called by:
  8807 ;;		_OpenXLCD
  8808 ;; This function uses a non-reentrant model
  8809 ;;
  8810                           
  8811                           	psect	text47
  8812  0038DC                     __ptext47:
  8813                           	opt callstack 0
  8814  0038DC                     _DelayPORXLCD:
  8815                           	opt callstack 24
  8816  0038DC                     
  8817                           ;xlcd.c: 28:     _delay((unsigned long)((15)*(4000000/4000.0)));
  8818  0038DC  0E14               	movlw	20
  8819  0038DE  0100               	movlb	0	; () banked
  8820  0038E0  6F66               	movwf	??_DelayPORXLCD& (0+255),b
  8821  0038E2  0E79               	movlw	121
  8822  0038E4                     u8547:
  8823  0038E4  2EE8               	decfsz	wreg,f,c
  8824  0038E6  D7FE               	bra	u8547
  8825  0038E8  2F66               	decfsz	??_DelayPORXLCD& (0+255),f,b
  8826  0038EA  D7FC               	bra	u8547
  8827  0038EC  D000               	nop2	
  8828                           
  8829                           ;xlcd.c: 29:     _delay((unsigned long)((15)*(4000000/4000.0)));
  8830  0038EE  0E14               	movlw	20
  8831  0038F0  0100               	movlb	0	; () banked
  8832  0038F2  6F66               	movwf	??_DelayPORXLCD& (0+255),b
  8833  0038F4  0E79               	movlw	121
  8834  0038F6                     u8557:
  8835  0038F6  2EE8               	decfsz	wreg,f,c
  8836  0038F8  D7FE               	bra	u8557
  8837  0038FA  2F66               	decfsz	??_DelayPORXLCD& (0+255),f,b
  8838  0038FC  D7FC               	bra	u8557
  8839  0038FE  D000               	nop2	
  8840  003900  0012               	return		;funcret
  8841  003902                     __end_of_DelayPORXLCD:
  8842                           	opt callstack 0
  8843                           
  8844 ;; *************** function _BusyXLCD *****************
  8845 ;; Defined at:
  8846 ;;		line 218 in file "xlcd.c"
  8847 ;; Parameters:    Size  Location     Type
  8848 ;;		None
  8849 ;; Auto vars:     Size  Location     Type
  8850 ;;		None
  8851 ;; Return value:  Size  Location     Type
  8852 ;;                  1    wreg      unsigned char 
  8853 ;; Registers used:
  8854 ;;		wreg, cstack
  8855 ;; Tracked objects:
  8856 ;;		On entry : 0/0
  8857 ;;		On exit  : 0/0
  8858 ;;		Unchanged: 0/0
  8859 ;; Data sizes:     COMRAM   BANK0   BANK1   BANK2   BANK3   BANK4   BANK5
  8860 ;;      Params:         0       0       0       0       0       0       0
  8861 ;;      Locals:         0       0       0       0       0       0       0
  8862 ;;      Temps:          0       0       0       0       0       0       0
  8863 ;;      Totals:         0       0       0       0       0       0       0
  8864 ;;Total ram usage:        0 bytes
  8865 ;; Hardware stack levels used:    1
  8866 ;; Hardware stack levels required when called:    5
  8867 ;; This function calls:
  8868 ;;		_DelayFor18TCY
  8869 ;; This function is called by:
  8870 ;;		_main
  8871 ;;		_OpenXLCD
  8872 ;;		_putsXLCD
  8873 ;;		_LCD_inicio_teste
  8874 ;; This function uses a non-reentrant model
  8875 ;;
  8876                           
  8877                           	psect	text48
  8878  0034E0                     __ptext48:
  8879                           	opt callstack 0
  8880  0034E0                     _BusyXLCD:
  8881                           	opt callstack 24
  8882  0034E0                     
  8883                           ;xlcd.c: 219:     LATDbits.LATD5 = 1;
  8884  0034E0  8A8C               	bsf	140,5,c	;volatile
  8885                           
  8886                           ;xlcd.c: 220:     LATDbits.LATD4 = 0;
  8887  0034E2  988C               	bcf	140,4,c	;volatile
  8888  0034E4                     
  8889                           ;xlcd.c: 221:     DelayFor18TCY();
  8890  0034E4  ECC5  F01C         	call	_DelayFor18TCY	;wreg free
  8891  0034E8                     
  8892                           ;xlcd.c: 222:     LATDbits.LATD6 = 1;
  8893  0034E8  8C8C               	bsf	140,6,c	;volatile
  8894                           
  8895                           ;xlcd.c: 223:     DelayFor18TCY();
  8896  0034EA  ECC5  F01C         	call	_DelayFor18TCY	;wreg free
  8897  0034EE                     
  8898                           ;xlcd.c: 240:     if (PORTD & 0x08)
  8899  0034EE  A683               	btfss	131,3,c	;volatile
  8900  0034F0  EF7C  F01A         	goto	u7171
  8901  0034F4  EF7E  F01A         	goto	u7170
  8902  0034F8                     u7171:
  8903  0034F8  EF89  F01A         	goto	l738
  8904  0034FC                     u7170:
  8905  0034FC                     
  8906                           ;xlcd.c: 242:     {;xlcd.c: 243:         LATDbits.LATD6 = 0;
  8907  0034FC  9C8C               	bcf	140,6,c	;volatile
  8908  0034FE                     
  8909                           ;xlcd.c: 244:         DelayFor18TCY();
  8910  0034FE  ECC5  F01C         	call	_DelayFor18TCY	;wreg free
  8911  003502                     
  8912                           ;xlcd.c: 245:         LATDbits.LATD6 = 1;
  8913  003502  8C8C               	bsf	140,6,c	;volatile
  8914                           
  8915                           ;xlcd.c: 246:         DelayFor18TCY();
  8916  003504  ECC5  F01C         	call	_DelayFor18TCY	;wreg free
  8917  003508                     
  8918                           ;xlcd.c: 247:         LATDbits.LATD6 = 0;
  8919  003508  9C8C               	bcf	140,6,c	;volatile
  8920  00350A                     
  8921                           ;xlcd.c: 248:         LATDbits.LATD5 = 0;
  8922  00350A  9A8C               	bcf	140,5,c	;volatile
  8923  00350C                     
  8924                           ;xlcd.c: 249:         return 1;
  8925  00350C  0E01               	movlw	1
  8926  00350E  EF92  F01A         	goto	l739
  8927  003512                     l738:
  8928                           
  8929                           ;xlcd.c: 251:     {;xlcd.c: 252:         LATDbits.LATD6 = 0;
  8930  003512  9C8C               	bcf	140,6,c	;volatile
  8931  003514                     
  8932                           ;xlcd.c: 253:         DelayFor18TCY();
  8933  003514  ECC5  F01C         	call	_DelayFor18TCY	;wreg free
  8934  003518                     
  8935                           ;xlcd.c: 254:         LATDbits.LATD6 = 1;
  8936  003518  8C8C               	bsf	140,6,c	;volatile
  8937                           
  8938                           ;xlcd.c: 255:         DelayFor18TCY();
  8939  00351A  ECC5  F01C         	call	_DelayFor18TCY	;wreg free
  8940  00351E                     
  8941                           ;xlcd.c: 256:         LATDbits.LATD6 = 0;
  8942  00351E  9C8C               	bcf	140,6,c	;volatile
  8943  003520                     
  8944                           ;xlcd.c: 257:         LATDbits.LATD5 = 0;
  8945  003520  9A8C               	bcf	140,5,c	;volatile
  8946  003522                     
  8947                           ;xlcd.c: 258:         return 0;
  8948  003522  0E00               	movlw	0
  8949  003524                     l739:
  8950  003524  0012               	return		;funcret
  8951  003526                     __end_of_BusyXLCD:
  8952                           	opt callstack 0
  8953                           
  8954 ;; *************** function _DelayFor18TCY *****************
  8955 ;; Defined at:
  8956 ;;		line 18 in file "xlcd.c"
  8957 ;; Parameters:    Size  Location     Type
  8958 ;;		None
  8959 ;; Auto vars:     Size  Location     Type
  8960 ;;		None
  8961 ;; Return value:  Size  Location     Type
  8962 ;;                  1    wreg      void 
  8963 ;; Registers used:
  8964 ;;		wreg
  8965 ;; Tracked objects:
  8966 ;;		On entry : 0/0
  8967 ;;		On exit  : 0/0
  8968 ;;		Unchanged: 0/0
  8969 ;; Data sizes:     COMRAM   BANK0   BANK1   BANK2   BANK3   BANK4   BANK5
  8970 ;;      Params:         0       0       0       0       0       0       0
  8971 ;;      Locals:         0       0       0       0       0       0       0
  8972 ;;      Temps:          0       0       0       0       0       0       0
  8973 ;;      Totals:         0       0       0       0       0       0       0
  8974 ;;Total ram usage:        0 bytes
  8975 ;; Hardware stack levels used:    1
  8976 ;; Hardware stack levels required when called:    4
  8977 ;; This function calls:
  8978 ;;		Nothing
  8979 ;; This function is called by:
  8980 ;;		_OpenXLCD
  8981 ;;		_BusyXLCD
  8982 ;;		_WriteCmdXLCD
  8983 ;;		_WriteDataXLCD
  8984 ;;		_ReadAddrXLCD
  8985 ;;		_ReadDataXLCD
  8986 ;;		_SetCGRamAddr
  8987 ;;		_SetDDRamAddr
  8988 ;; This function uses a non-reentrant model
  8989 ;;
  8990                           
  8991                           	psect	text49
  8992  00398A                     __ptext49:
  8993                           	opt callstack 0
  8994  00398A                     _DelayFor18TCY:
  8995                           	opt callstack 24
  8996  00398A                     
  8997                           ;xlcd.c: 20:     _delay((unsigned long)((18)*(4000000/4000000.0)));
  8998  00398A  0E06               	movlw	6
  8999  00398C                     u8567:
  9000  00398C  2EE8               	decfsz	wreg,f,c
  9001  00398E  D7FE               	bra	u8567
  9002                           
  9003                           ;xlcd.c: 21:     _delay((unsigned long)((1)*(4000000/4000.0)));
  9004  003990  0EC8               	movlw	200
  9005  003992                     u8577:
  9006  003992  D000               	nop2	
  9007  003994  2EE8               	decfsz	wreg,f,c
  9008  003996  D7FD               	bra	u8577
  9009  003998  0012               	return		;funcret
  9010  00399A                     __end_of_DelayFor18TCY:
  9011                           	opt callstack 0
  9012                           
  9013 ;; *************** function _EUSART1_is_rx_ready *****************
  9014 ;; Defined at:
  9015 ;;		line 126 in file "mcc_generated_files/eusart1.c"
  9016 ;; Parameters:    Size  Location     Type
  9017 ;;		None
  9018 ;; Auto vars:     Size  Location     Type
  9019 ;;		None
  9020 ;; Return value:  Size  Location     Type
  9021 ;;                  1    wreg      _Bool 
  9022 ;; Registers used:
  9023 ;;		wreg, status,2
  9024 ;; Tracked objects:
  9025 ;;		On entry : 0/0
  9026 ;;		On exit  : 0/0
  9027 ;;		Unchanged: 0/0
  9028 ;; Data sizes:     COMRAM   BANK0   BANK1   BANK2   BANK3   BANK4   BANK5
  9029 ;;      Params:         0       0       0       0       0       0       0
  9030 ;;      Locals:         0       0       0       0       0       0       0
  9031 ;;      Temps:          0       0       0       0       0       0       0
  9032 ;;      Totals:         0       0       0       0       0       0       0
  9033 ;;Total ram usage:        0 bytes
  9034 ;; Hardware stack levels used:    1
  9035 ;; Hardware stack levels required when called:    4
  9036 ;; This function calls:
  9037 ;;		Nothing
  9038 ;; This function is called by:
  9039 ;;		_main
  9040 ;; This function uses a non-reentrant model
  9041 ;;
  9042                           
  9043                           	psect	text50
  9044  00393A                     __ptext50:
  9045                           	opt callstack 0
  9046  00393A                     _EUSART1_is_rx_ready:
  9047                           	opt callstack 26
  9048  00393A                     
  9049                           ;mcc_generated_files/eusart1.c: 128:     return (eusart1RxCount ? 1 : 0);
  9050  00393A  0100               	movlb	0	; () banked
  9051  00393C  51F3               	movf	_eusart1RxCount& (0+255),w,b	;volatile
  9052  00393E  A4D8               	btfss	status,2,c
  9053  003940  EFA4  F01C         	goto	u7391
  9054  003944  EFA7  F01C         	goto	u7390
  9055  003948                     u7391:
  9056  003948  0E01               	movlw	1
  9057  00394A  EFA8  F01C         	goto	u7400
  9058  00394E                     u7390:
  9059  00394E  0E00               	movlw	0
  9060  003950                     u7400:
  9061  003950                     
  9062                           ; BSR set to: 0
  9063  003950  0012               	return		;funcret
  9064  003952                     __end_of_EUSART1_is_rx_ready:
  9065                           	opt callstack 0
  9066                           
  9067 ;; *************** function _EUSART1_Read *****************
  9068 ;; Defined at:
  9069 ;;		line 140 in file "mcc_generated_files/eusart1.c"
  9070 ;; Parameters:    Size  Location     Type
  9071 ;;		None
  9072 ;; Auto vars:     Size  Location     Type
  9073 ;;  readValue       1    6[BANK0 ] unsigned char 
  9074 ;; Return value:  Size  Location     Type
  9075 ;;                  1    wreg      unsigned char 
  9076 ;; Registers used:
  9077 ;;		wreg, fsr2l, fsr2h, status,2, status,0
  9078 ;; Tracked objects:
  9079 ;;		On entry : 0/0
  9080 ;;		On exit  : 0/0
  9081 ;;		Unchanged: 0/0
  9082 ;; Data sizes:     COMRAM   BANK0   BANK1   BANK2   BANK3   BANK4   BANK5
  9083 ;;      Params:         0       0       0       0       0       0       0
  9084 ;;      Locals:         0       1       0       0       0       0       0
  9085 ;;      Temps:          0       0       0       0       0       0       0
  9086 ;;      Totals:         0       1       0       0       0       0       0
  9087 ;;Total ram usage:        1 bytes
  9088 ;; Hardware stack levels used:    1
  9089 ;; Hardware stack levels required when called:    4
  9090 ;; This function calls:
  9091 ;;		Nothing
  9092 ;; This function is called by:
  9093 ;;		_main
  9094 ;;		_getch
  9095 ;; This function uses a non-reentrant model
  9096 ;;
  9097                           
  9098                           	psect	text51
  9099  0033BA                     __ptext51:
  9100                           	opt callstack 0
  9101  0033BA                     _EUSART1_Read:
  9102                           	opt callstack 26
  9103  0033BA                     l6557:
  9104                           
  9105                           ;mcc_generated_files/eusart1.c: 144:     while(0 == eusart1RxCount)
  9106  0033BA  0100               	movlb	0	; () banked
  9107  0033BC  51F3               	movf	_eusart1RxCount& (0+255),w,b	;volatile
  9108  0033BE  B4D8               	btfsc	status,2,c
  9109  0033C0  EFE4  F019         	goto	u7411
  9110  0033C4  EFE6  F019         	goto	u7410
  9111  0033C8                     u7411:
  9112  0033C8  EFDD  F019         	goto	l6557
  9113  0033CC                     u7410:
  9114  0033CC                     
  9115                           ; BSR set to: 0
  9116                           ;mcc_generated_files/eusart1.c: 148:     eusart1RxLastError = eusart1RxStatusBuffer[eusa
      +                          rt1RxTail];
  9117  0033CC  0E00               	movlw	low _eusart1RxStatusBuffer
  9118  0033CE  25F4               	addwf	_eusart1RxTail& (0+255),w,b	;volatile
  9119  0033D0  6ED9               	movwf	fsr2l,c
  9120  0033D2  6ADA               	clrf	fsr2h,c
  9121  0033D4  0E01               	movlw	high _eusart1RxStatusBuffer
  9122  0033D6  22DA               	addwfc	fsr2h,f,c
  9123  0033D8  50DF               	movf	indf2,w,c
  9124  0033DA  6FF2               	movwf	_eusart1RxLastError& (0+255),b	;volatile
  9125                           
  9126                           ;mcc_generated_files/eusart1.c: 150:     readValue = eusart1RxBuffer[eusart1RxTail++];
  9127  0033DC  0E08               	movlw	low _eusart1RxBuffer
  9128  0033DE  25F4               	addwf	_eusart1RxTail& (0+255),w,b	;volatile
  9129  0033E0  6ED9               	movwf	fsr2l,c
  9130  0033E2  6ADA               	clrf	fsr2h,c
  9131  0033E4  0E01               	movlw	high _eusart1RxBuffer
  9132  0033E6  22DA               	addwfc	fsr2h,f,c
  9133  0033E8  50DF               	movf	indf2,w,c
  9134  0033EA  6F66               	movwf	EUSART1_Read@readValue& (0+255),b
  9135  0033EC                     
  9136                           ; BSR set to: 0
  9137  0033EC  2BF4               	incf	_eusart1RxTail& (0+255),f,b	;volatile
  9138  0033EE                     
  9139                           ; BSR set to: 0
  9140                           ;mcc_generated_files/eusart1.c: 151:     if(sizeof(eusart1RxBuffer) <= eusart1RxTail)
  9141  0033EE  0E07               	movlw	7
  9142  0033F0  65F4               	cpfsgt	_eusart1RxTail& (0+255),b	;volatile
  9143  0033F2  EFFD  F019         	goto	u7421
  9144  0033F6  EFFF  F019         	goto	u7420
  9145  0033FA                     u7421:
  9146  0033FA  EF01  F01A         	goto	l6567
  9147  0033FE                     u7420:
  9148  0033FE                     
  9149                           ; BSR set to: 0
  9150                           ;mcc_generated_files/eusart1.c: 152:     {;mcc_generated_files/eusart1.c: 153:         e
      +                          usart1RxTail = 0;
  9151  0033FE  0E00               	movlw	0
  9152  003400  6FF4               	movwf	_eusart1RxTail& (0+255),b	;volatile
  9153  003402                     l6567:
  9154                           
  9155                           ; BSR set to: 0
  9156                           ;mcc_generated_files/eusart1.c: 155:     PIE1bits.RC1IE = 0;
  9157  003402  9A9D               	bcf	157,5,c	;volatile
  9158  003404                     
  9159                           ; BSR set to: 0
  9160                           ;mcc_generated_files/eusart1.c: 156:     eusart1RxCount--;
  9161  003404  07F3               	decf	_eusart1RxCount& (0+255),f,b	;volatile
  9162  003406                     
  9163                           ; BSR set to: 0
  9164                           ;mcc_generated_files/eusart1.c: 157:     PIE1bits.RC1IE = 1;
  9165  003406  8A9D               	bsf	157,5,c	;volatile
  9166  003408                     
  9167                           ; BSR set to: 0
  9168                           ;mcc_generated_files/eusart1.c: 159:     return readValue;
  9169  003408  5166               	movf	EUSART1_Read@readValue& (0+255),w,b
  9170  00340A                     
  9171                           ; BSR set to: 0
  9172  00340A  0012               	return		;funcret
  9173  00340C                     __end_of_EUSART1_Read:
  9174                           	opt callstack 0
  9175                           
  9176 ;; *************** function _INTERRUPT_InterruptManagerHigh *****************
  9177 ;; Defined at:
  9178 ;;		line 79 in file "mcc_generated_files/interrupt_manager.c"
  9179 ;; Parameters:    Size  Location     Type
  9180 ;;		None
  9181 ;; Auto vars:     Size  Location     Type
  9182 ;;		None
  9183 ;; Return value:  Size  Location     Type
  9184 ;;                  1    wreg      void 
  9185 ;; Registers used:
  9186 ;;		wreg, fsr2l, fsr2h, status,2, status,0, pclath, tosl, prodl, prodh, cstack
  9187 ;; Tracked objects:
  9188 ;;		On entry : 0/0
  9189 ;;		On exit  : 0/0
  9190 ;;		Unchanged: 0/0
  9191 ;; Data sizes:     COMRAM   BANK0   BANK1   BANK2   BANK3   BANK4   BANK5
  9192 ;;      Params:         0       0       0       0       0       0       0
  9193 ;;      Locals:         0       0       0       0       0       0       0
  9194 ;;      Temps:          0       6       0       0       0       0       0
  9195 ;;      Totals:         0       6       0       0       0       0       0
  9196 ;;Total ram usage:        6 bytes
  9197 ;; Hardware stack levels used:    1
  9198 ;; Hardware stack levels required when called:    3
  9199 ;; This function calls:
  9200 ;;		Absolute function
  9201 ;;		_ADC_ISR
  9202 ;;		_EUSART1_Receive_ISR
  9203 ;;		_INT0_ISR
  9204 ;;		_INT1_ISR
  9205 ;;		_INT2_ISR
  9206 ;;		_TMR0_ISR
  9207 ;; This function is called by:
  9208 ;;		Interrupt level 2
  9209 ;; This function uses a non-reentrant model
  9210 ;;
  9211                           
  9212                           	psect	intcode
  9213  000008                     __pintcode:
  9214                           	opt callstack 0
  9215  000008                     _INTERRUPT_InterruptManagerHigh:
  9216                           	opt callstack 18
  9217                           
  9218                           ; BSR set to: 0
  9219                           ;incstack = 0
  9220  000008  825F               	bsf	int$flags,1,c	;set compiler interrupt flag (level 2)
  9221  00000A  CFFA F060          	movff	pclath,??_INTERRUPT_InterruptManagerHigh
  9222  00000E  CFFB F061          	movff	pclatu,??_INTERRUPT_InterruptManagerHigh+1
  9223  000012  CFD9 F062          	movff	fsr2l,??_INTERRUPT_InterruptManagerHigh+2
  9224  000016  CFDA F063          	movff	fsr2h,??_INTERRUPT_InterruptManagerHigh+3
  9225  00001A  CFF3 F064          	movff	prodl,??_INTERRUPT_InterruptManagerHigh+4
  9226  00001E  CFF4 F065          	movff	prodh,??_INTERRUPT_InterruptManagerHigh+5
  9227  000022                     
  9228                           ;mcc_generated_files/interrupt_manager.c: 82:     if(PIE1bits.ADIE == 1 && PIR1bits.ADIF
      +                           == 1)
  9229  000022  AC9D               	btfss	157,6,c	;volatile
  9230  000024  EF16  F000         	goto	i2u566_41
  9231  000028  EF18  F000         	goto	i2u566_40
  9232  00002C                     i2u566_41:
  9233  00002C  EF23  F000         	goto	i2l140
  9234  000030                     i2u566_40:
  9235  000030  AC9E               	btfss	158,6,c	;volatile
  9236  000032  EF1D  F000         	goto	i2u567_41
  9237  000036  EF1F  F000         	goto	i2u567_40
  9238  00003A                     i2u567_41:
  9239  00003A  EF23  F000         	goto	i2l140
  9240  00003E                     i2u567_40:
  9241  00003E                     
  9242                           ;mcc_generated_files/interrupt_manager.c: 83:     {;mcc_generated_files/interrupt_manage
      +                          r.c: 84:         ADC_ISR();
  9243  00003E  ECA9  F01B         	call	_ADC_ISR	;wreg free
  9244                           
  9245                           ;mcc_generated_files/interrupt_manager.c: 85:     }
  9246  000042  EF89  F000         	goto	i2l152
  9247  000046                     i2l140:
  9248  000046  AA9D               	btfss	157,5,c	;volatile
  9249  000048  EF28  F000         	goto	i2u568_41
  9250  00004C  EF2A  F000         	goto	i2u568_40
  9251  000050                     i2u568_41:
  9252  000050  EF41  F000         	goto	i2l142
  9253  000054                     i2u568_40:
  9254  000054  AA9E               	btfss	158,5,c	;volatile
  9255  000056  EF2F  F000         	goto	i2u569_41
  9256  00005A  EF31  F000         	goto	i2u569_40
  9257  00005E                     i2u569_41:
  9258  00005E  EF41  F000         	goto	i2l142
  9259  000062                     i2u569_40:
  9260  000062                     
  9261                           ;mcc_generated_files/interrupt_manager.c: 87:     {;mcc_generated_files/interrupt_manage
      +                          r.c: 88:         EUSART1_RxDefaultInterruptHandler();
  9262  000062  D802               	call	i2u570_48
  9263  000064  EF3F  F000         	goto	i2u570_49
  9264  000068                     i2u570_48:
  9265  000068  0005               	push	
  9266  00006A  0101               	movlb	1	; () banked
  9267  00006C  6EFA               	movwf	pclath,c
  9268  00006E  51A2               	movf	_EUSART1_RxDefaultInterruptHandler& (0+255),w,b
  9269  000070  6EFD               	movwf	tosl,c
  9270  000072  51A3               	movf	(_EUSART1_RxDefaultInterruptHandler+1)& (0+255),w,b
  9271  000074  6EFE               	movwf	tosh,c
  9272  000076  50F8               	movf	tblptru,w,c
  9273  000078  6EFF               	movwf	tosu,c
  9274  00007A  50FA               	movf	pclath,w,c
  9275  00007C  0012               	return		;indir
  9276  00007E                     i2u570_49:
  9277                           
  9278                           ;mcc_generated_files/interrupt_manager.c: 89:     }
  9279  00007E  EF89  F000         	goto	i2l152
  9280  000082                     i2l142:
  9281  000082  A8F2               	btfss	242,4,c	;volatile
  9282  000084  EF46  F000         	goto	i2u571_41
  9283  000088  EF48  F000         	goto	i2u571_40
  9284  00008C                     i2u571_41:
  9285  00008C  EF53  F000         	goto	i2l144
  9286  000090                     i2u571_40:
  9287  000090  A2F2               	btfss	242,1,c	;volatile
  9288  000092  EF4D  F000         	goto	i2u572_41
  9289  000096  EF4F  F000         	goto	i2u572_40
  9290  00009A                     i2u572_41:
  9291  00009A  EF53  F000         	goto	i2l144
  9292  00009E                     i2u572_40:
  9293  00009E                     
  9294                           ;mcc_generated_files/interrupt_manager.c: 91:     {;mcc_generated_files/interrupt_manage
      +                          r.c: 92:         INT0_ISR();
  9295  00009E  EC17  F01D         	call	_INT0_ISR	;wreg free
  9296                           
  9297                           ;mcc_generated_files/interrupt_manager.c: 93:     }
  9298  0000A2  EF89  F000         	goto	i2l152
  9299  0000A6                     i2l144:
  9300  0000A6  AAF2               	btfss	242,5,c	;volatile
  9301  0000A8  EF58  F000         	goto	i2u573_41
  9302  0000AC  EF5A  F000         	goto	i2u573_40
  9303  0000B0                     i2u573_41:
  9304  0000B0  EF65  F000         	goto	i2l146
  9305  0000B4                     i2u573_40:
  9306  0000B4  A4F2               	btfss	242,2,c	;volatile
  9307  0000B6  EF5F  F000         	goto	i2u574_41
  9308  0000BA  EF61  F000         	goto	i2u574_40
  9309  0000BE                     i2u574_41:
  9310  0000BE  EF65  F000         	goto	i2l146
  9311  0000C2                     i2u574_40:
  9312  0000C2                     
  9313                           ;mcc_generated_files/interrupt_manager.c: 95:     {;mcc_generated_files/interrupt_manage
      +                          r.c: 96:         TMR0_ISR();
  9314  0000C2  EC17  F01B         	call	_TMR0_ISR	;wreg free
  9315                           
  9316                           ;mcc_generated_files/interrupt_manager.c: 97:     }
  9317  0000C6  EF89  F000         	goto	i2l152
  9318  0000CA                     i2l146:
  9319  0000CA  A6F0               	btfss	240,3,c	;volatile
  9320  0000CC  EF6A  F000         	goto	i2u575_41
  9321  0000D0  EF6C  F000         	goto	i2u575_40
  9322  0000D4                     i2u575_41:
  9323  0000D4  EF77  F000         	goto	i2l148
  9324  0000D8                     i2u575_40:
  9325  0000D8  A0F0               	btfss	240,0,c	;volatile
  9326  0000DA  EF71  F000         	goto	i2u576_41
  9327  0000DE  EF73  F000         	goto	i2u576_40
  9328  0000E2                     i2u576_41:
  9329  0000E2  EF77  F000         	goto	i2l148
  9330  0000E6                     i2u576_40:
  9331  0000E6                     
  9332                           ;mcc_generated_files/interrupt_manager.c: 99:     {;mcc_generated_files/interrupt_manage
      +                          r.c: 100:         INT1_ISR();
  9333  0000E6  EC13  F01D         	call	_INT1_ISR	;wreg free
  9334                           
  9335                           ;mcc_generated_files/interrupt_manager.c: 101:     }
  9336  0000EA  EF89  F000         	goto	i2l152
  9337  0000EE                     i2l148:
  9338  0000EE  A8F0               	btfss	240,4,c	;volatile
  9339  0000F0  EF7C  F000         	goto	i2u577_41
  9340  0000F4  EF7E  F000         	goto	i2u577_40
  9341  0000F8                     i2u577_41:
  9342  0000F8  EF89  F000         	goto	i2l147
  9343  0000FC                     i2u577_40:
  9344  0000FC  A2F0               	btfss	240,1,c	;volatile
  9345  0000FE  EF83  F000         	goto	i2u578_41
  9346  000102  EF85  F000         	goto	i2u578_40
  9347  000106                     i2u578_41:
  9348  000106  EF89  F000         	goto	i2l147
  9349  00010A                     i2u578_40:
  9350  00010A                     
  9351                           ;mcc_generated_files/interrupt_manager.c: 103:     {;mcc_generated_files/interrupt_manag
      +                          er.c: 104:         INT2_ISR();
  9352  00010A  EC0F  F01D         	call	_INT2_ISR	;wreg free
  9353                           
  9354                           ;mcc_generated_files/interrupt_manager.c: 105:     }
  9355  00010E  EF89  F000         	goto	i2l152
  9356  000112                     i2l147:
  9357  000112                     i2l152:
  9358  000112  C065  FFF4         	movff	??_INTERRUPT_InterruptManagerHigh+5,prodh
  9359  000116  C064  FFF3         	movff	??_INTERRUPT_InterruptManagerHigh+4,prodl
  9360  00011A  C063  FFDA         	movff	??_INTERRUPT_InterruptManagerHigh+3,fsr2h
  9361  00011E  C062  FFD9         	movff	??_INTERRUPT_InterruptManagerHigh+2,fsr2l
  9362  000122  C061  FFFB         	movff	??_INTERRUPT_InterruptManagerHigh+1,pclatu
  9363  000126  C060  FFFA         	movff	??_INTERRUPT_InterruptManagerHigh,pclath
  9364  00012A  925F               	bcf	int$flags,1,c	;clear compiler interrupt flag (level 2)
  9365  00012C  0011               	retfie		f
  9366  00012E                     __end_of_INTERRUPT_InterruptManagerHigh:
  9367                           	opt callstack 0
  9368                           
  9369 ;; *************** function _TMR0_ISR *****************
  9370 ;; Defined at:
  9371 ;;		line 136 in file "mcc_generated_files/tmr0.c"
  9372 ;; Parameters:    Size  Location     Type
  9373 ;;		None
  9374 ;; Auto vars:     Size  Location     Type
  9375 ;;		None
  9376 ;; Return value:  Size  Location     Type
  9377 ;;                  1    wreg      void 
  9378 ;; Registers used:
  9379 ;;		wreg, status,2, status,0, pclath, tosl, cstack
  9380 ;; Tracked objects:
  9381 ;;		On entry : 0/0
  9382 ;;		On exit  : 0/0
  9383 ;;		Unchanged: 0/0
  9384 ;; Data sizes:     COMRAM   BANK0   BANK1   BANK2   BANK3   BANK4   BANK5
  9385 ;;      Params:         0       0       0       0       0       0       0
  9386 ;;      Locals:         0       0       0       0       0       0       0
  9387 ;;      Temps:          0       0       0       0       0       0       0
  9388 ;;      Totals:         0       0       0       0       0       0       0
  9389 ;;Total ram usage:        0 bytes
  9390 ;; Hardware stack levels used:    1
  9391 ;; Hardware stack levels required when called:    2
  9392 ;; This function calls:
  9393 ;;		Absolute function
  9394 ;;		_TMR0_DefaultInterruptHandler
  9395 ;;		_Timer_0
  9396 ;; This function is called by:
  9397 ;;		_INTERRUPT_InterruptManagerHigh
  9398 ;; This function uses a non-reentrant model
  9399 ;;
  9400                           
  9401                           	psect	text53
  9402  00362E                     __ptext53:
  9403                           	opt callstack 0
  9404  00362E                     _TMR0_ISR:
  9405                           	opt callstack 18
  9406  00362E                     
  9407                           ;mcc_generated_files/tmr0.c: 140:     INTCONbits.TMR0IF = 0;
  9408  00362E  94F2               	bcf	242,2,c	;volatile
  9409  003630                     
  9410                           ;mcc_generated_files/tmr0.c: 144:     TMR0H = timer0ReloadVal >> 8;
  9411  003630  0100               	movlb	0	; () banked
  9412  003632  51F9               	movf	(_timer0ReloadVal+1)& (0+255),w,b	;volatile
  9413  003634  6ED7               	movwf	215,c	;volatile
  9414  003636                     
  9415                           ; BSR set to: 0
  9416                           ;mcc_generated_files/tmr0.c: 145:     TMR0L = (uint8_t) timer0ReloadVal;
  9417  003636  C0F8  FFD6         	movff	_timer0ReloadVal,4054	;volatile
  9418  00363A                     
  9419                           ; BSR set to: 0
  9420                           ;mcc_generated_files/tmr0.c: 147:     if(TMR0_InterruptHandler)
  9421  00363A  0101               	movlb	1	; () banked
  9422  00363C  51AA               	movf	_TMR0_InterruptHandler& (0+255),w,b
  9423  00363E  11AB               	iorwf	(_TMR0_InterruptHandler+1)& (0+255),w,b
  9424  003640  B4D8               	btfsc	status,2,c
  9425  003642  EF25  F01B         	goto	i2u532_41
  9426  003646  EF27  F01B         	goto	i2u532_40
  9427  00364A                     i2u532_41:
  9428  00364A  EF34  F01B         	goto	i2l40
  9429  00364E                     i2u532_40:
  9430  00364E                     
  9431                           ; BSR set to: 1
  9432                           ;mcc_generated_files/tmr0.c: 148:     {;mcc_generated_files/tmr0.c: 149:         TMR0_In
      +                          terruptHandler();
  9433  00364E  D802               	call	i2u533_48
  9434  003650  EF34  F01B         	goto	i2u533_49
  9435  003654                     i2u533_48:
  9436  003654  0005               	push	
  9437  003656  6EFA               	movwf	pclath,c
  9438  003658  51AA               	movf	_TMR0_InterruptHandler& (0+255),w,b
  9439  00365A  6EFD               	movwf	tosl,c
  9440  00365C  51AB               	movf	(_TMR0_InterruptHandler+1)& (0+255),w,b
  9441  00365E  6EFE               	movwf	tosh,c
  9442  003660  50F8               	movf	tblptru,w,c
  9443  003662  6EFF               	movwf	tosu,c
  9444  003664  50FA               	movf	pclath,w,c
  9445  003666  0012               	return		;indir
  9446  003668                     i2u533_49:
  9447  003668                     i2l40:
  9448  003668  0012               	return		;funcret
  9449  00366A                     __end_of_TMR0_ISR:
  9450                           	opt callstack 0
  9451                           
  9452 ;; *************** function _TMR0_DefaultInterruptHandler *****************
  9453 ;; Defined at:
  9454 ;;		line 160 in file "mcc_generated_files/tmr0.c"
  9455 ;; Parameters:    Size  Location     Type
  9456 ;;		None
  9457 ;; Auto vars:     Size  Location     Type
  9458 ;;		None
  9459 ;; Return value:  Size  Location     Type
  9460 ;;                  1    wreg      void 
  9461 ;; Registers used:
  9462 ;;		None
  9463 ;; Tracked objects:
  9464 ;;		On entry : 0/0
  9465 ;;		On exit  : 0/0
  9466 ;;		Unchanged: 0/0
  9467 ;; Data sizes:     COMRAM   BANK0   BANK1   BANK2   BANK3   BANK4   BANK5
  9468 ;;      Params:         0       0       0       0       0       0       0
  9469 ;;      Locals:         0       0       0       0       0       0       0
  9470 ;;      Temps:          0       0       0       0       0       0       0
  9471 ;;      Totals:         0       0       0       0       0       0       0
  9472 ;;Total ram usage:        0 bytes
  9473 ;; Hardware stack levels used:    1
  9474 ;; This function calls:
  9475 ;;		Nothing
  9476 ;; This function is called by:
  9477 ;;		_TMR0_Initialize
  9478 ;;		_TMR0_ISR
  9479 ;; This function uses a non-reentrant model
  9480 ;;
  9481                           
  9482                           	psect	text54
  9483  003A48                     __ptext54:
  9484                           	opt callstack 0
  9485  003A48                     _TMR0_DefaultInterruptHandler:
  9486                           	opt callstack 19
  9487  003A48  0012               	return		;funcret
  9488  003A4A                     __end_of_TMR0_DefaultInterruptHandler:
  9489                           	opt callstack 0
  9490                           
  9491 ;; *************** function _Timer_0 *****************
  9492 ;; Defined at:
  9493 ;;		line 91 in file "main.c"
  9494 ;; Parameters:    Size  Location     Type
  9495 ;;		None
  9496 ;; Auto vars:     Size  Location     Type
  9497 ;;		None
  9498 ;; Return value:  Size  Location     Type
  9499 ;;                  1    wreg      void 
  9500 ;; Registers used:
  9501 ;;		wreg, status,2, status,0, cstack
  9502 ;; Tracked objects:
  9503 ;;		On entry : 0/0
  9504 ;;		On exit  : 0/0
  9505 ;;		Unchanged: 0/0
  9506 ;; Data sizes:     COMRAM   BANK0   BANK1   BANK2   BANK3   BANK4   BANK5
  9507 ;;      Params:         0       0       0       0       0       0       0
  9508 ;;      Locals:         0       0       0       0       0       0       0
  9509 ;;      Temps:          1       0       0       0       0       0       0
  9510 ;;      Totals:         1       0       0       0       0       0       0
  9511 ;;Total ram usage:        1 bytes
  9512 ;; Hardware stack levels used:    1
  9513 ;; Hardware stack levels required when called:    1
  9514 ;; This function calls:
  9515 ;;		_ADC_StartConversion
  9516 ;; This function is called by:
  9517 ;;		_main
  9518 ;;		_TMR0_ISR
  9519 ;; This function uses a non-reentrant model
  9520 ;;
  9521                           
  9522                           	psect	text55
  9523  00366A                     __ptext55:
  9524                           	opt callstack 0
  9525  00366A                     _Timer_0:
  9526                           	opt callstack 18
  9527  00366A                     
  9528                           ;main.c: 92:     if (alarme_ativo == 1){
  9529  00366A  0100               	movlb	0	; () banked
  9530  00366C  05E4               	decf	_alarme_ativo& (0+255),w,b
  9531  00366E  11E5               	iorwf	(_alarme_ativo+1)& (0+255),w,b
  9532  003670  A4D8               	btfss	status,2,c
  9533  003672  EF3D  F01B         	goto	i2u518_41
  9534  003676  EF3F  F01B         	goto	i2u518_40
  9535  00367A                     i2u518_41:
  9536  00367A  EF50  F01B         	goto	i2l5015
  9537  00367E                     i2u518_40:
  9538  00367E                     
  9539                           ; BSR set to: 0
  9540  00367E  B289               	btfsc	137,1,c	;volatile
  9541  003680  EF44  F01B         	goto	i2u519_41
  9542  003684  EF47  F01B         	goto	i2u519_40
  9543  003688                     i2u519_41:
  9544  003688  0E01               	movlw	1
  9545  00368A  EF48  F01B         	goto	i2u519_46
  9546  00368E                     i2u519_40:
  9547  00368E  0E00               	movlw	0
  9548  003690                     i2u519_46:
  9549  003690  0AFF               	xorlw	255
  9550  003692  6E01               	movwf	??_Timer_0^0,c
  9551  003694  4601               	rlncf	??_Timer_0^0,f,c
  9552  003696  5089               	movf	137,w,c	;volatile
  9553  003698  1801               	xorwf	??_Timer_0^0,w,c
  9554  00369A  0BFD               	andlw	-3
  9555  00369C  1801               	xorwf	??_Timer_0^0,w,c
  9556  00369E  6E89               	movwf	137,c	;volatile
  9557  0036A0                     i2l5015:
  9558                           
  9559                           ; BSR set to: 0
  9560                           ;main.c: 95:     ADC_StartConversion();
  9561  0036A0  EC21  F01D         	call	_ADC_StartConversion	;wreg free
  9562  0036A4  0012               	return		;funcret
  9563  0036A6                     __end_of_Timer_0:
  9564                           	opt callstack 0
  9565                           
  9566 ;; *************** function _ADC_StartConversion *****************
  9567 ;; Defined at:
  9568 ;;		line 100 in file "mcc_generated_files/adc.c"
  9569 ;; Parameters:    Size  Location     Type
  9570 ;;		None
  9571 ;; Auto vars:     Size  Location     Type
  9572 ;;		None
  9573 ;; Return value:  Size  Location     Type
  9574 ;;                  1    wreg      void 
  9575 ;; Registers used:
  9576 ;;		None
  9577 ;; Tracked objects:
  9578 ;;		On entry : 0/0
  9579 ;;		On exit  : 0/0
  9580 ;;		Unchanged: 0/0
  9581 ;; Data sizes:     COMRAM   BANK0   BANK1   BANK2   BANK3   BANK4   BANK5
  9582 ;;      Params:         0       0       0       0       0       0       0
  9583 ;;      Locals:         0       0       0       0       0       0       0
  9584 ;;      Temps:          0       0       0       0       0       0       0
  9585 ;;      Totals:         0       0       0       0       0       0       0
  9586 ;;Total ram usage:        0 bytes
  9587 ;; Hardware stack levels used:    1
  9588 ;; This function calls:
  9589 ;;		Nothing
  9590 ;; This function is called by:
  9591 ;;		_Timer_0
  9592 ;; This function uses a non-reentrant model
  9593 ;;
  9594                           
  9595                           	psect	text56
  9596  003A42                     __ptext56:
  9597                           	opt callstack 0
  9598  003A42                     _ADC_StartConversion:
  9599                           	opt callstack 18
  9600  003A42                     
  9601                           ;mcc_generated_files/adc.c: 103:     ADCON0bits.GO_nDONE = 1;
  9602  003A42  82C2               	bsf	194,1,c	;volatile
  9603  003A44  0012               	return		;funcret
  9604  003A46                     __end_of_ADC_StartConversion:
  9605                           	opt callstack 0
  9606                           
  9607 ;; *************** function _INT2_ISR *****************
  9608 ;; Defined at:
  9609 ;;		line 86 in file "mcc_generated_files/ext_int.c"
  9610 ;; Parameters:    Size  Location     Type
  9611 ;;		None
  9612 ;; Auto vars:     Size  Location     Type
  9613 ;;		None
  9614 ;; Return value:  Size  Location     Type
  9615 ;;                  1    wreg      void 
  9616 ;; Registers used:
  9617 ;;		wreg, status,2, status,0, pclath, tosl, cstack
  9618 ;; Tracked objects:
  9619 ;;		On entry : 0/0
  9620 ;;		On exit  : 0/0
  9621 ;;		Unchanged: 0/0
  9622 ;; Data sizes:     COMRAM   BANK0   BANK1   BANK2   BANK3   BANK4   BANK5
  9623 ;;      Params:         0       0       0       0       0       0       0
  9624 ;;      Locals:         0       0       0       0       0       0       0
  9625 ;;      Temps:          0       0       0       0       0       0       0
  9626 ;;      Totals:         0       0       0       0       0       0       0
  9627 ;;Total ram usage:        0 bytes
  9628 ;; Hardware stack levels used:    1
  9629 ;; Hardware stack levels required when called:    2
  9630 ;; This function calls:
  9631 ;;		_INT2_CallBack
  9632 ;; This function is called by:
  9633 ;;		_INTERRUPT_InterruptManagerHigh
  9634 ;; This function uses a non-reentrant model
  9635 ;;
  9636                           
  9637                           	psect	text57
  9638  003A1E                     __ptext57:
  9639                           	opt callstack 0
  9640  003A1E                     _INT2_ISR:
  9641                           	opt callstack 18
  9642  003A1E                     
  9643                           ;mcc_generated_files/ext_int.c: 88:     (INTCON3bits.INT2IF = 0);
  9644  003A1E  92F0               	bcf	240,1,c	;volatile
  9645  003A20                     
  9646                           ;mcc_generated_files/ext_int.c: 91:     INT2_CallBack();
  9647  003A20  ECC2  F01B         	call	_INT2_CallBack	;wreg free
  9648  003A24  0012               	return		;funcret
  9649  003A26                     __end_of_INT2_ISR:
  9650                           	opt callstack 0
  9651                           
  9652 ;; *************** function _INT2_CallBack *****************
  9653 ;; Defined at:
  9654 ;;		line 95 in file "mcc_generated_files/ext_int.c"
  9655 ;; Parameters:    Size  Location     Type
  9656 ;;		None
  9657 ;; Auto vars:     Size  Location     Type
  9658 ;;		None
  9659 ;; Return value:  Size  Location     Type
  9660 ;;                  1    wreg      void 
  9661 ;; Registers used:
  9662 ;;		wreg, status,2, status,0, pclath, tosl, cstack
  9663 ;; Tracked objects:
  9664 ;;		On entry : 0/0
  9665 ;;		On exit  : 0/0
  9666 ;;		Unchanged: 0/0
  9667 ;; Data sizes:     COMRAM   BANK0   BANK1   BANK2   BANK3   BANK4   BANK5
  9668 ;;      Params:         0       0       0       0       0       0       0
  9669 ;;      Locals:         0       0       0       0       0       0       0
  9670 ;;      Temps:          0       0       0       0       0       0       0
  9671 ;;      Totals:         0       0       0       0       0       0       0
  9672 ;;Total ram usage:        0 bytes
  9673 ;; Hardware stack levels used:    1
  9674 ;; Hardware stack levels required when called:    1
  9675 ;; This function calls:
  9676 ;;		Absolute function
  9677 ;;		_INT2_DefaultInterruptHandler
  9678 ;;		_teclado_coluna_3
  9679 ;; This function is called by:
  9680 ;;		_INT2_ISR
  9681 ;; This function uses a non-reentrant model
  9682 ;;
  9683                           
  9684                           	psect	text58
  9685  003784                     __ptext58:
  9686                           	opt callstack 0
  9687  003784                     _INT2_CallBack:
  9688                           	opt callstack 18
  9689  003784                     
  9690                           ;mcc_generated_files/ext_int.c: 98:     if(INT2_InterruptHandler)
  9691  003784  0101               	movlb	1	; () banked
  9692  003786  51A4               	movf	_INT2_InterruptHandler& (0+255),w,b
  9693  003788  11A5               	iorwf	(_INT2_InterruptHandler+1)& (0+255),w,b
  9694  00378A  B4D8               	btfsc	status,2,c
  9695  00378C  EFCA  F01B         	goto	i2u516_41
  9696  003790  EFCC  F01B         	goto	i2u516_40
  9697  003794                     i2u516_41:
  9698  003794  EFD9  F01B         	goto	i2l97
  9699  003798                     i2u516_40:
  9700  003798                     
  9701                           ; BSR set to: 1
  9702                           ;mcc_generated_files/ext_int.c: 99:     {;mcc_generated_files/ext_int.c: 100:         IN
      +                          T2_InterruptHandler();
  9703  003798  D802               	call	i2u517_48
  9704  00379A  EFD9  F01B         	goto	i2u517_49
  9705  00379E                     i2u517_48:
  9706  00379E  0005               	push	
  9707  0037A0  6EFA               	movwf	pclath,c
  9708  0037A2  51A4               	movf	_INT2_InterruptHandler& (0+255),w,b
  9709  0037A4  6EFD               	movwf	tosl,c
  9710  0037A6  51A5               	movf	(_INT2_InterruptHandler+1)& (0+255),w,b
  9711  0037A8  6EFE               	movwf	tosh,c
  9712  0037AA  50F8               	movf	tblptru,w,c
  9713  0037AC  6EFF               	movwf	tosu,c
  9714  0037AE  50FA               	movf	pclath,w,c
  9715  0037B0  0012               	return		;indir
  9716  0037B2                     i2u517_49:
  9717  0037B2                     i2l97:
  9718  0037B2  0012               	return		;funcret
  9719  0037B4                     __end_of_INT2_CallBack:
  9720                           	opt callstack 0
  9721                           
  9722 ;; *************** function _INT2_DefaultInterruptHandler *****************
  9723 ;; Defined at:
  9724 ;;		line 108 in file "mcc_generated_files/ext_int.c"
  9725 ;; Parameters:    Size  Location     Type
  9726 ;;		None
  9727 ;; Auto vars:     Size  Location     Type
  9728 ;;		None
  9729 ;; Return value:  Size  Location     Type
  9730 ;;                  1    wreg      void 
  9731 ;; Registers used:
  9732 ;;		None
  9733 ;; Tracked objects:
  9734 ;;		On entry : 0/0
  9735 ;;		On exit  : 0/0
  9736 ;;		Unchanged: 0/0
  9737 ;; Data sizes:     COMRAM   BANK0   BANK1   BANK2   BANK3   BANK4   BANK5
  9738 ;;      Params:         0       0       0       0       0       0       0
  9739 ;;      Locals:         0       0       0       0       0       0       0
  9740 ;;      Temps:          0       0       0       0       0       0       0
  9741 ;;      Totals:         0       0       0       0       0       0       0
  9742 ;;Total ram usage:        0 bytes
  9743 ;; Hardware stack levels used:    1
  9744 ;; This function calls:
  9745 ;;		Nothing
  9746 ;; This function is called by:
  9747 ;;		_EXT_INT_Initialize
  9748 ;;		_INT2_CallBack
  9749 ;; This function uses a non-reentrant model
  9750 ;;
  9751                           
  9752                           	psect	text59
  9753  003A4A                     __ptext59:
  9754                           	opt callstack 0
  9755  003A4A                     _INT2_DefaultInterruptHandler:
  9756                           	opt callstack 18
  9757  003A4A  0012               	return		;funcret
  9758  003A4C                     __end_of_INT2_DefaultInterruptHandler:
  9759                           	opt callstack 0
  9760                           
  9761 ;; *************** function _teclado_coluna_3 *****************
  9762 ;; Defined at:
  9763 ;;		line 54 in file "Teclado.c"
  9764 ;; Parameters:    Size  Location     Type
  9765 ;;		None
  9766 ;; Auto vars:     Size  Location     Type
  9767 ;;		None
  9768 ;; Return value:  Size  Location     Type
  9769 ;;                  1    wreg      void 
  9770 ;; Registers used:
  9771 ;;		wreg, status,2
  9772 ;; Tracked objects:
  9773 ;;		On entry : 0/0
  9774 ;;		On exit  : 0/0
  9775 ;;		Unchanged: 0/0
  9776 ;; Data sizes:     COMRAM   BANK0   BANK1   BANK2   BANK3   BANK4   BANK5
  9777 ;;      Params:         0       0       0       0       0       0       0
  9778 ;;      Locals:         0       0       0       0       0       0       0
  9779 ;;      Temps:          0       0       0       0       0       0       0
  9780 ;;      Totals:         0       0       0       0       0       0       0
  9781 ;;Total ram usage:        0 bytes
  9782 ;; Hardware stack levels used:    1
  9783 ;; This function calls:
  9784 ;;		Nothing
  9785 ;; This function is called by:
  9786 ;;		_main
  9787 ;;		_INT2_CallBack
  9788 ;; This function uses a non-reentrant model
  9789 ;;
  9790                           
  9791                           	psect	text60
  9792  002FAE                     __ptext60:
  9793                           	opt callstack 0
  9794  002FAE                     _teclado_coluna_3:
  9795                           	opt callstack 18
  9796  002FAE                     
  9797                           ;Teclado.c: 55:     tecla_n = 1;
  9798  002FAE  0E00               	movlw	0
  9799  002FB0  0100               	movlb	0	; () banked
  9800  002FB2  6FF1               	movwf	(_tecla_n+1)& (0+255),b
  9801  002FB4  0E01               	movlw	1
  9802  002FB6  6FF0               	movwf	_tecla_n& (0+255),b
  9803  002FB8                     
  9804                           ; BSR set to: 0
  9805                           ;Teclado.c: 56:     if (PORTBbits.RB3 == 0){
  9806  002FB8  B681               	btfsc	129,3,c	;volatile
  9807  002FBA  EFE1  F017         	goto	i2u400_41
  9808  002FBE  EFE3  F017         	goto	i2u400_40
  9809  002FC2                     i2u400_41:
  9810  002FC2  EFE7  F017         	goto	i2l800
  9811  002FC6                     i2u400_40:
  9812  002FC6                     
  9813                           ; BSR set to: 0
  9814                           ;Teclado.c: 57:             tecla_premida = '3';
  9815  002FC6  0E33               	movlw	51
  9816  002FC8  6FF7               	movwf	_tecla_premida& (0+255),b
  9817                           
  9818                           ;Teclado.c: 58:         }
  9819  002FCA  EF15  F018         	goto	i2l807
  9820  002FCE                     i2l800:
  9821                           
  9822                           ; BSR set to: 0
  9823  002FCE  B881               	btfsc	129,4,c	;volatile
  9824  002FD0  EFEC  F017         	goto	i2u401_41
  9825  002FD4  EFEE  F017         	goto	i2u401_40
  9826  002FD8                     i2u401_41:
  9827  002FD8  EFF2  F017         	goto	i2l802
  9828  002FDC                     i2u401_40:
  9829  002FDC                     
  9830                           ; BSR set to: 0
  9831                           ;Teclado.c: 60:             tecla_premida = '6';
  9832  002FDC  0E36               	movlw	54
  9833  002FDE  6FF7               	movwf	_tecla_premida& (0+255),b
  9834                           
  9835                           ;Teclado.c: 61:         }
  9836  002FE0  EF15  F018         	goto	i2l807
  9837  002FE4                     i2l802:
  9838                           
  9839                           ; BSR set to: 0
  9840  002FE4  BA81               	btfsc	129,5,c	;volatile
  9841  002FE6  EFF7  F017         	goto	i2u402_41
  9842  002FEA  EFF9  F017         	goto	i2u402_40
  9843  002FEE                     i2u402_41:
  9844  002FEE  EFFD  F017         	goto	i2l804
  9845  002FF2                     i2u402_40:
  9846  002FF2                     
  9847                           ; BSR set to: 0
  9848                           ;Teclado.c: 63:             tecla_premida = '9';
  9849  002FF2  0E39               	movlw	57
  9850  002FF4  6FF7               	movwf	_tecla_premida& (0+255),b
  9851                           
  9852                           ;Teclado.c: 64:         }
  9853  002FF6  EF15  F018         	goto	i2l807
  9854  002FFA                     i2l804:
  9855                           
  9856                           ; BSR set to: 0
  9857  002FFA  BC81               	btfsc	129,6,c	;volatile
  9858  002FFC  EF02  F018         	goto	i2u403_41
  9859  003000  EF04  F018         	goto	i2u403_40
  9860  003004                     i2u403_41:
  9861  003004  EF15  F018         	goto	i2l803
  9862  003008                     i2u403_40:
  9863  003008                     
  9864                           ; BSR set to: 0
  9865                           ;Teclado.c: 66:             contador_colunas_LCD = 192;
  9866  003008  0E00               	movlw	0
  9867  00300A  0101               	movlb	1	; () banked
  9868  00300C  6FB2               	movwf	(_contador_colunas_LCD+1)& (0+255),b
  9869  00300E  0EC0               	movlw	192
  9870  003010  6FB1               	movwf	_contador_colunas_LCD& (0+255),b
  9871                           
  9872                           ;Teclado.c: 67:             tecla_n = 0;
  9873  003012  0E00               	movlw	0
  9874  003014  0100               	movlb	0	; () banked
  9875  003016  6FF1               	movwf	(_tecla_n+1)& (0+255),b
  9876  003018  0E00               	movlw	0
  9877  00301A  6FF0               	movwf	_tecla_n& (0+255),b
  9878                           
  9879                           ;Teclado.c: 68:             tecla_limpar = 1;
  9880  00301C  0E00               	movlw	0
  9881  00301E  0101               	movlb	1	; () banked
  9882  003020  6F23               	movwf	(_tecla_limpar+1)& (0+255),b
  9883  003022  0E01               	movlw	1
  9884  003024  6F22               	movwf	_tecla_limpar& (0+255),b
  9885  003026  EF15  F018         	goto	i2l807
  9886  00302A                     i2l803:
  9887  00302A                     i2l807:
  9888  00302A  0012               	return		;funcret
  9889  00302C                     __end_of_teclado_coluna_3:
  9890                           	opt callstack 0
  9891                           
  9892 ;; *************** function _INT1_ISR *****************
  9893 ;; Defined at:
  9894 ;;		line 60 in file "mcc_generated_files/ext_int.c"
  9895 ;; Parameters:    Size  Location     Type
  9896 ;;		None
  9897 ;; Auto vars:     Size  Location     Type
  9898 ;;		None
  9899 ;; Return value:  Size  Location     Type
  9900 ;;                  1    wreg      void 
  9901 ;; Registers used:
  9902 ;;		wreg, status,2, status,0, pclath, tosl, cstack
  9903 ;; Tracked objects:
  9904 ;;		On entry : 0/0
  9905 ;;		On exit  : 0/0
  9906 ;;		Unchanged: 0/0
  9907 ;; Data sizes:     COMRAM   BANK0   BANK1   BANK2   BANK3   BANK4   BANK5
  9908 ;;      Params:         0       0       0       0       0       0       0
  9909 ;;      Locals:         0       0       0       0       0       0       0
  9910 ;;      Temps:          0       0       0       0       0       0       0
  9911 ;;      Totals:         0       0       0       0       0       0       0
  9912 ;;Total ram usage:        0 bytes
  9913 ;; Hardware stack levels used:    1
  9914 ;; Hardware stack levels required when called:    2
  9915 ;; This function calls:
  9916 ;;		_INT1_CallBack
  9917 ;; This function is called by:
  9918 ;;		_INTERRUPT_InterruptManagerHigh
  9919 ;; This function uses a non-reentrant model
  9920 ;;
  9921                           
  9922                           	psect	text61
  9923  003A26                     __ptext61:
  9924                           	opt callstack 0
  9925  003A26                     _INT1_ISR:
  9926                           	opt callstack 18
  9927  003A26                     
  9928                           ;mcc_generated_files/ext_int.c: 62:     (INTCON3bits.INT1IF = 0);
  9929  003A26  90F0               	bcf	240,0,c	;volatile
  9930  003A28                     
  9931                           ;mcc_generated_files/ext_int.c: 65:     INT1_CallBack();
  9932  003A28  ECDA  F01B         	call	_INT1_CallBack	;wreg free
  9933  003A2C  0012               	return		;funcret
  9934  003A2E                     __end_of_INT1_ISR:
  9935                           	opt callstack 0
  9936                           
  9937 ;; *************** function _INT1_CallBack *****************
  9938 ;; Defined at:
  9939 ;;		line 69 in file "mcc_generated_files/ext_int.c"
  9940 ;; Parameters:    Size  Location     Type
  9941 ;;		None
  9942 ;; Auto vars:     Size  Location     Type
  9943 ;;		None
  9944 ;; Return value:  Size  Location     Type
  9945 ;;                  1    wreg      void 
  9946 ;; Registers used:
  9947 ;;		wreg, status,2, status,0, pclath, tosl, cstack
  9948 ;; Tracked objects:
  9949 ;;		On entry : 0/0
  9950 ;;		On exit  : 0/0
  9951 ;;		Unchanged: 0/0
  9952 ;; Data sizes:     COMRAM   BANK0   BANK1   BANK2   BANK3   BANK4   BANK5
  9953 ;;      Params:         0       0       0       0       0       0       0
  9954 ;;      Locals:         0       0       0       0       0       0       0
  9955 ;;      Temps:          0       0       0       0       0       0       0
  9956 ;;      Totals:         0       0       0       0       0       0       0
  9957 ;;Total ram usage:        0 bytes
  9958 ;; Hardware stack levels used:    1
  9959 ;; Hardware stack levels required when called:    1
  9960 ;; This function calls:
  9961 ;;		Absolute function
  9962 ;;		_INT1_DefaultInterruptHandler
  9963 ;;		_teclado_coluna_2
  9964 ;; This function is called by:
  9965 ;;		_INT1_ISR
  9966 ;; This function uses a non-reentrant model
  9967 ;;
  9968                           
  9969                           	psect	text62
  9970  0037B4                     __ptext62:
  9971                           	opt callstack 0
  9972  0037B4                     _INT1_CallBack:
  9973                           	opt callstack 18
  9974  0037B4                     
  9975                           ;mcc_generated_files/ext_int.c: 72:     if(INT1_InterruptHandler)
  9976  0037B4  0101               	movlb	1	; () banked
  9977  0037B6  51A6               	movf	_INT1_InterruptHandler& (0+255),w,b
  9978  0037B8  11A7               	iorwf	(_INT1_InterruptHandler+1)& (0+255),w,b
  9979  0037BA  B4D8               	btfsc	status,2,c
  9980  0037BC  EFE2  F01B         	goto	i2u514_41
  9981  0037C0  EFE4  F01B         	goto	i2u514_40
  9982  0037C4                     i2u514_41:
  9983  0037C4  EFF1  F01B         	goto	i2l84
  9984  0037C8                     i2u514_40:
  9985  0037C8                     
  9986                           ; BSR set to: 1
  9987                           ;mcc_generated_files/ext_int.c: 73:     {;mcc_generated_files/ext_int.c: 74:         INT
      +                          1_InterruptHandler();
  9988  0037C8  D802               	call	i2u515_48
  9989  0037CA  EFF1  F01B         	goto	i2u515_49
  9990  0037CE                     i2u515_48:
  9991  0037CE  0005               	push	
  9992  0037D0  6EFA               	movwf	pclath,c
  9993  0037D2  51A6               	movf	_INT1_InterruptHandler& (0+255),w,b
  9994  0037D4  6EFD               	movwf	tosl,c
  9995  0037D6  51A7               	movf	(_INT1_InterruptHandler+1)& (0+255),w,b
  9996  0037D8  6EFE               	movwf	tosh,c
  9997  0037DA  50F8               	movf	tblptru,w,c
  9998  0037DC  6EFF               	movwf	tosu,c
  9999  0037DE  50FA               	movf	pclath,w,c
 10000  0037E0  0012               	return		;indir
 10001  0037E2                     i2u515_49:
 10002  0037E2                     i2l84:
 10003  0037E2  0012               	return		;funcret
 10004  0037E4                     __end_of_INT1_CallBack:
 10005                           	opt callstack 0
 10006                           
 10007 ;; *************** function _INT1_DefaultInterruptHandler *****************
 10008 ;; Defined at:
 10009 ;;		line 82 in file "mcc_generated_files/ext_int.c"
 10010 ;; Parameters:    Size  Location     Type
 10011 ;;		None
 10012 ;; Auto vars:     Size  Location     Type
 10013 ;;		None
 10014 ;; Return value:  Size  Location     Type
 10015 ;;                  1    wreg      void 
 10016 ;; Registers used:
 10017 ;;		None
 10018 ;; Tracked objects:
 10019 ;;		On entry : 0/0
 10020 ;;		On exit  : 0/0
 10021 ;;		Unchanged: 0/0
 10022 ;; Data sizes:     COMRAM   BANK0   BANK1   BANK2   BANK3   BANK4   BANK5
 10023 ;;      Params:         0       0       0       0       0       0       0
 10024 ;;      Locals:         0       0       0       0       0       0       0
 10025 ;;      Temps:          0       0       0       0       0       0       0
 10026 ;;      Totals:         0       0       0       0       0       0       0
 10027 ;;Total ram usage:        0 bytes
 10028 ;; Hardware stack levels used:    1
 10029 ;; This function calls:
 10030 ;;		Nothing
 10031 ;; This function is called by:
 10032 ;;		_EXT_INT_Initialize
 10033 ;;		_INT1_CallBack
 10034 ;; This function uses a non-reentrant model
 10035 ;;
 10036                           
 10037                           	psect	text63
 10038  003A4C                     __ptext63:
 10039                           	opt callstack 0
 10040  003A4C                     _INT1_DefaultInterruptHandler:
 10041                           	opt callstack 18
 10042  003A4C  0012               	return		;funcret
 10043  003A4E                     __end_of_INT1_DefaultInterruptHandler:
 10044                           	opt callstack 0
 10045                           
 10046 ;; *************** function _teclado_coluna_2 *****************
 10047 ;; Defined at:
 10048 ;;		line 37 in file "Teclado.c"
 10049 ;; Parameters:    Size  Location     Type
 10050 ;;		None
 10051 ;; Auto vars:     Size  Location     Type
 10052 ;;		None
 10053 ;; Return value:  Size  Location     Type
 10054 ;;                  1    wreg      void 
 10055 ;; Registers used:
 10056 ;;		wreg, status,2
 10057 ;; Tracked objects:
 10058 ;;		On entry : 0/0
 10059 ;;		On exit  : 0/0
 10060 ;;		Unchanged: 0/0
 10061 ;; Data sizes:     COMRAM   BANK0   BANK1   BANK2   BANK3   BANK4   BANK5
 10062 ;;      Params:         0       0       0       0       0       0       0
 10063 ;;      Locals:         0       0       0       0       0       0       0
 10064 ;;      Temps:          0       0       0       0       0       0       0
 10065 ;;      Totals:         0       0       0       0       0       0       0
 10066 ;;Total ram usage:        0 bytes
 10067 ;; Hardware stack levels used:    1
 10068 ;; This function calls:
 10069 ;;		Nothing
 10070 ;; This function is called by:
 10071 ;;		_main
 10072 ;;		_INT1_CallBack
 10073 ;; This function uses a non-reentrant model
 10074 ;;
 10075                           
 10076                           	psect	text64
 10077  003182                     __ptext64:
 10078                           	opt callstack 0
 10079  003182                     _teclado_coluna_2:
 10080                           	opt callstack 18
 10081  003182                     
 10082                           ;Teclado.c: 39:     if (PORTBbits.RB3 == 0){
 10083  003182  B681               	btfsc	129,3,c	;volatile
 10084  003184  EFC6  F018         	goto	i2u396_41
 10085  003188  EFC8  F018         	goto	i2u396_40
 10086  00318C                     i2u396_41:
 10087  00318C  EFCD  F018         	goto	i2l790
 10088  003190                     i2u396_40:
 10089  003190                     
 10090                           ;Teclado.c: 40:             tecla_premida = '2';
 10091  003190  0E32               	movlw	50
 10092  003192  0100               	movlb	0	; () banked
 10093  003194  6FF7               	movwf	_tecla_premida& (0+255),b
 10094                           
 10095                           ;Teclado.c: 41:         }
 10096  003196  EFEF  F018         	goto	i2l791
 10097  00319A                     i2l790:
 10098  00319A  B881               	btfsc	129,4,c	;volatile
 10099  00319C  EFD2  F018         	goto	i2u397_41
 10100  0031A0  EFD4  F018         	goto	i2u397_40
 10101  0031A4                     i2u397_41:
 10102  0031A4  EFD9  F018         	goto	i2l792
 10103  0031A8                     i2u397_40:
 10104  0031A8                     
 10105                           ;Teclado.c: 43:             tecla_premida = '5';
 10106  0031A8  0E35               	movlw	53
 10107  0031AA  0100               	movlb	0	; () banked
 10108  0031AC  6FF7               	movwf	_tecla_premida& (0+255),b
 10109                           
 10110                           ;Teclado.c: 44:         }
 10111  0031AE  EFEF  F018         	goto	i2l791
 10112  0031B2                     i2l792:
 10113  0031B2  BA81               	btfsc	129,5,c	;volatile
 10114  0031B4  EFDE  F018         	goto	i2u398_41
 10115  0031B8  EFE0  F018         	goto	i2u398_40
 10116  0031BC                     i2u398_41:
 10117  0031BC  EFE5  F018         	goto	i2l794
 10118  0031C0                     i2u398_40:
 10119  0031C0                     
 10120                           ;Teclado.c: 46:             tecla_premida = '8';
 10121  0031C0  0E38               	movlw	56
 10122  0031C2  0100               	movlb	0	; () banked
 10123  0031C4  6FF7               	movwf	_tecla_premida& (0+255),b
 10124                           
 10125                           ;Teclado.c: 47:         }
 10126  0031C6  EFEF  F018         	goto	i2l791
 10127  0031CA                     i2l794:
 10128  0031CA  BC81               	btfsc	129,6,c	;volatile
 10129  0031CC  EFEA  F018         	goto	i2u399_41
 10130  0031D0  EFEC  F018         	goto	i2u399_40
 10131  0031D4                     i2u399_41:
 10132  0031D4  EFEF  F018         	goto	i2l791
 10133  0031D8                     i2u399_40:
 10134  0031D8                     
 10135                           ;Teclado.c: 49:             tecla_premida = '0';
 10136  0031D8  0E30               	movlw	48
 10137  0031DA  0100               	movlb	0	; () banked
 10138  0031DC  6FF7               	movwf	_tecla_premida& (0+255),b
 10139  0031DE                     i2l791:
 10140                           
 10141                           ;Teclado.c: 51:         tecla_n = 1;
 10142  0031DE  0E00               	movlw	0
 10143  0031E0  0100               	movlb	0	; () banked
 10144  0031E2  6FF1               	movwf	(_tecla_n+1)& (0+255),b
 10145  0031E4  0E01               	movlw	1
 10146  0031E6  6FF0               	movwf	_tecla_n& (0+255),b
 10147  0031E8                     
 10148                           ; BSR set to: 0
 10149  0031E8  0012               	return		;funcret
 10150  0031EA                     __end_of_teclado_coluna_2:
 10151                           	opt callstack 0
 10152                           
 10153 ;; *************** function _INT0_ISR *****************
 10154 ;; Defined at:
 10155 ;;		line 34 in file "mcc_generated_files/ext_int.c"
 10156 ;; Parameters:    Size  Location     Type
 10157 ;;		None
 10158 ;; Auto vars:     Size  Location     Type
 10159 ;;		None
 10160 ;; Return value:  Size  Location     Type
 10161 ;;                  1    wreg      void 
 10162 ;; Registers used:
 10163 ;;		wreg, status,2, status,0, pclath, tosl, cstack
 10164 ;; Tracked objects:
 10165 ;;		On entry : 0/0
 10166 ;;		On exit  : 0/0
 10167 ;;		Unchanged: 0/0
 10168 ;; Data sizes:     COMRAM   BANK0   BANK1   BANK2   BANK3   BANK4   BANK5
 10169 ;;      Params:         0       0       0       0       0       0       0
 10170 ;;      Locals:         0       0       0       0       0       0       0
 10171 ;;      Temps:          0       0       0       0       0       0       0
 10172 ;;      Totals:         0       0       0       0       0       0       0
 10173 ;;Total ram usage:        0 bytes
 10174 ;; Hardware stack levels used:    1
 10175 ;; Hardware stack levels required when called:    2
 10176 ;; This function calls:
 10177 ;;		_INT0_CallBack
 10178 ;; This function is called by:
 10179 ;;		_INTERRUPT_InterruptManagerHigh
 10180 ;; This function uses a non-reentrant model
 10181 ;;
 10182                           
 10183                           	psect	text65
 10184  003A2E                     __ptext65:
 10185                           	opt callstack 0
 10186  003A2E                     _INT0_ISR:
 10187                           	opt callstack 18
 10188  003A2E                     
 10189                           ;mcc_generated_files/ext_int.c: 36:     (INTCONbits.INT0IF = 0);
 10190  003A2E  92F2               	bcf	242,1,c	;volatile
 10191  003A30                     
 10192                           ;mcc_generated_files/ext_int.c: 39:     INT0_CallBack();
 10193  003A30  ECF2  F01B         	call	_INT0_CallBack	;wreg free
 10194  003A34  0012               	return		;funcret
 10195  003A36                     __end_of_INT0_ISR:
 10196                           	opt callstack 0
 10197                           
 10198 ;; *************** function _INT0_CallBack *****************
 10199 ;; Defined at:
 10200 ;;		line 43 in file "mcc_generated_files/ext_int.c"
 10201 ;; Parameters:    Size  Location     Type
 10202 ;;		None
 10203 ;; Auto vars:     Size  Location     Type
 10204 ;;		None
 10205 ;; Return value:  Size  Location     Type
 10206 ;;                  1    wreg      void 
 10207 ;; Registers used:
 10208 ;;		wreg, status,2, status,0, pclath, tosl, cstack
 10209 ;; Tracked objects:
 10210 ;;		On entry : 0/0
 10211 ;;		On exit  : 0/0
 10212 ;;		Unchanged: 0/0
 10213 ;; Data sizes:     COMRAM   BANK0   BANK1   BANK2   BANK3   BANK4   BANK5
 10214 ;;      Params:         0       0       0       0       0       0       0
 10215 ;;      Locals:         0       0       0       0       0       0       0
 10216 ;;      Temps:          0       0       0       0       0       0       0
 10217 ;;      Totals:         0       0       0       0       0       0       0
 10218 ;;Total ram usage:        0 bytes
 10219 ;; Hardware stack levels used:    1
 10220 ;; Hardware stack levels required when called:    1
 10221 ;; This function calls:
 10222 ;;		Absolute function
 10223 ;;		_INT0_DefaultInterruptHandler
 10224 ;;		_teclado_coluna_1
 10225 ;; This function is called by:
 10226 ;;		_INT0_ISR
 10227 ;; This function uses a non-reentrant model
 10228 ;;
 10229                           
 10230                           	psect	text66
 10231  0037E4                     __ptext66:
 10232                           	opt callstack 0
 10233  0037E4                     _INT0_CallBack:
 10234                           	opt callstack 18
 10235  0037E4                     
 10236                           ;mcc_generated_files/ext_int.c: 46:     if(INT0_InterruptHandler)
 10237  0037E4  0101               	movlb	1	; () banked
 10238  0037E6  51A8               	movf	_INT0_InterruptHandler& (0+255),w,b
 10239  0037E8  11A9               	iorwf	(_INT0_InterruptHandler+1)& (0+255),w,b
 10240  0037EA  B4D8               	btfsc	status,2,c
 10241  0037EC  EFFA  F01B         	goto	i2u512_41
 10242  0037F0  EFFC  F01B         	goto	i2u512_40
 10243  0037F4                     i2u512_41:
 10244  0037F4  EF09  F01C         	goto	i2l71
 10245  0037F8                     i2u512_40:
 10246  0037F8                     
 10247                           ; BSR set to: 1
 10248                           ;mcc_generated_files/ext_int.c: 47:     {;mcc_generated_files/ext_int.c: 48:         INT
      +                          0_InterruptHandler();
 10249  0037F8  D802               	call	i2u513_48
 10250  0037FA  EF09  F01C         	goto	i2u513_49
 10251  0037FE                     i2u513_48:
 10252  0037FE  0005               	push	
 10253  003800  6EFA               	movwf	pclath,c
 10254  003802  51A8               	movf	_INT0_InterruptHandler& (0+255),w,b
 10255  003804  6EFD               	movwf	tosl,c
 10256  003806  51A9               	movf	(_INT0_InterruptHandler+1)& (0+255),w,b
 10257  003808  6EFE               	movwf	tosh,c
 10258  00380A  50F8               	movf	tblptru,w,c
 10259  00380C  6EFF               	movwf	tosu,c
 10260  00380E  50FA               	movf	pclath,w,c
 10261  003810  0012               	return		;indir
 10262  003812                     i2u513_49:
 10263  003812                     i2l71:
 10264  003812  0012               	return		;funcret
 10265  003814                     __end_of_INT0_CallBack:
 10266                           	opt callstack 0
 10267                           
 10268 ;; *************** function _INT0_DefaultInterruptHandler *****************
 10269 ;; Defined at:
 10270 ;;		line 56 in file "mcc_generated_files/ext_int.c"
 10271 ;; Parameters:    Size  Location     Type
 10272 ;;		None
 10273 ;; Auto vars:     Size  Location     Type
 10274 ;;		None
 10275 ;; Return value:  Size  Location     Type
 10276 ;;                  1    wreg      void 
 10277 ;; Registers used:
 10278 ;;		None
 10279 ;; Tracked objects:
 10280 ;;		On entry : 0/0
 10281 ;;		On exit  : 0/0
 10282 ;;		Unchanged: 0/0
 10283 ;; Data sizes:     COMRAM   BANK0   BANK1   BANK2   BANK3   BANK4   BANK5
 10284 ;;      Params:         0       0       0       0       0       0       0
 10285 ;;      Locals:         0       0       0       0       0       0       0
 10286 ;;      Temps:          0       0       0       0       0       0       0
 10287 ;;      Totals:         0       0       0       0       0       0       0
 10288 ;;Total ram usage:        0 bytes
 10289 ;; Hardware stack levels used:    1
 10290 ;; This function calls:
 10291 ;;		Nothing
 10292 ;; This function is called by:
 10293 ;;		_EXT_INT_Initialize
 10294 ;;		_INT0_CallBack
 10295 ;; This function uses a non-reentrant model
 10296 ;;
 10297                           
 10298                           	psect	text67
 10299  003A4E                     __ptext67:
 10300                           	opt callstack 0
 10301  003A4E                     _INT0_DefaultInterruptHandler:
 10302                           	opt callstack 18
 10303  003A4E  0012               	return		;funcret
 10304  003A50                     __end_of_INT0_DefaultInterruptHandler:
 10305                           	opt callstack 0
 10306                           
 10307 ;; *************** function _teclado_coluna_1 *****************
 10308 ;; Defined at:
 10309 ;;		line 20 in file "Teclado.c"
 10310 ;; Parameters:    Size  Location     Type
 10311 ;;		None
 10312 ;; Auto vars:     Size  Location     Type
 10313 ;;		None
 10314 ;; Return value:  Size  Location     Type
 10315 ;;                  1    wreg      void 
 10316 ;; Registers used:
 10317 ;;		wreg, status,2
 10318 ;; Tracked objects:
 10319 ;;		On entry : 0/0
 10320 ;;		On exit  : 0/0
 10321 ;;		Unchanged: 0/0
 10322 ;; Data sizes:     COMRAM   BANK0   BANK1   BANK2   BANK3   BANK4   BANK5
 10323 ;;      Params:         0       0       0       0       0       0       0
 10324 ;;      Locals:         0       0       0       0       0       0       0
 10325 ;;      Temps:          0       0       0       0       0       0       0
 10326 ;;      Totals:         0       0       0       0       0       0       0
 10327 ;;Total ram usage:        0 bytes
 10328 ;; Hardware stack levels used:    1
 10329 ;; This function calls:
 10330 ;;		Nothing
 10331 ;; This function is called by:
 10332 ;;		_main
 10333 ;;		_INT0_CallBack
 10334 ;; This function uses a non-reentrant model
 10335 ;;
 10336                           
 10337                           	psect	text68
 10338  0031EA                     __ptext68:
 10339                           	opt callstack 0
 10340  0031EA                     _teclado_coluna_1:
 10341                           	opt callstack 18
 10342  0031EA                     
 10343                           ;Teclado.c: 22:     if (PORTBbits.RB3 == 0){
 10344  0031EA  B681               	btfsc	129,3,c	;volatile
 10345  0031EC  EFFA  F018         	goto	i2u392_41
 10346  0031F0  EFFC  F018         	goto	i2u392_40
 10347  0031F4                     i2u392_41:
 10348  0031F4  EF01  F019         	goto	i2l780
 10349  0031F8                     i2u392_40:
 10350  0031F8                     
 10351                           ;Teclado.c: 23:             tecla_premida = '1';
 10352  0031F8  0E31               	movlw	49
 10353  0031FA  0100               	movlb	0	; () banked
 10354  0031FC  6FF7               	movwf	_tecla_premida& (0+255),b
 10355                           
 10356                           ;Teclado.c: 24:         }
 10357  0031FE  EF23  F019         	goto	i2l781
 10358  003202                     i2l780:
 10359  003202  B881               	btfsc	129,4,c	;volatile
 10360  003204  EF06  F019         	goto	i2u393_41
 10361  003208  EF08  F019         	goto	i2u393_40
 10362  00320C                     i2u393_41:
 10363  00320C  EF0D  F019         	goto	i2l782
 10364  003210                     i2u393_40:
 10365  003210                     
 10366                           ;Teclado.c: 26:             tecla_premida = '4';
 10367  003210  0E34               	movlw	52
 10368  003212  0100               	movlb	0	; () banked
 10369  003214  6FF7               	movwf	_tecla_premida& (0+255),b
 10370                           
 10371                           ;Teclado.c: 27:         }
 10372  003216  EF23  F019         	goto	i2l781
 10373  00321A                     i2l782:
 10374  00321A  BA81               	btfsc	129,5,c	;volatile
 10375  00321C  EF12  F019         	goto	i2u394_41
 10376  003220  EF14  F019         	goto	i2u394_40
 10377  003224                     i2u394_41:
 10378  003224  EF19  F019         	goto	i2l784
 10379  003228                     i2u394_40:
 10380  003228                     
 10381                           ;Teclado.c: 29:             tecla_premida = '7';
 10382  003228  0E37               	movlw	55
 10383  00322A  0100               	movlb	0	; () banked
 10384  00322C  6FF7               	movwf	_tecla_premida& (0+255),b
 10385                           
 10386                           ;Teclado.c: 30:         }
 10387  00322E  EF23  F019         	goto	i2l781
 10388  003232                     i2l784:
 10389  003232  BC81               	btfsc	129,6,c	;volatile
 10390  003234  EF1E  F019         	goto	i2u395_41
 10391  003238  EF20  F019         	goto	i2u395_40
 10392  00323C                     i2u395_41:
 10393  00323C  EF23  F019         	goto	i2l781
 10394  003240                     i2u395_40:
 10395  003240                     
 10396                           ;Teclado.c: 32:             tecla_premida = '*';
 10397  003240  0E2A               	movlw	42
 10398  003242  0100               	movlb	0	; () banked
 10399  003244  6FF7               	movwf	_tecla_premida& (0+255),b
 10400  003246                     i2l781:
 10401                           
 10402                           ;Teclado.c: 34:         tecla_n = 1;
 10403  003246  0E00               	movlw	0
 10404  003248  0100               	movlb	0	; () banked
 10405  00324A  6FF1               	movwf	(_tecla_n+1)& (0+255),b
 10406  00324C  0E01               	movlw	1
 10407  00324E  6FF0               	movwf	_tecla_n& (0+255),b
 10408  003250                     
 10409                           ; BSR set to: 0
 10410  003250  0012               	return		;funcret
 10411  003252                     __end_of_teclado_coluna_1:
 10412                           	opt callstack 0
 10413                           
 10414 ;; *************** function _EUSART1_Receive_ISR *****************
 10415 ;; Defined at:
 10416 ;;		line 182 in file "mcc_generated_files/eusart1.c"
 10417 ;; Parameters:    Size  Location     Type
 10418 ;;		None
 10419 ;; Auto vars:     Size  Location     Type
 10420 ;;		None
 10421 ;; Return value:  Size  Location     Type
 10422 ;;                  1    wreg      void 
 10423 ;; Registers used:
 10424 ;;		wreg, fsr2l, fsr2h, status,2, status,0, pclath, tosl, cstack
 10425 ;; Tracked objects:
 10426 ;;		On entry : 0/0
 10427 ;;		On exit  : 0/0
 10428 ;;		Unchanged: 0/0
 10429 ;; Data sizes:     COMRAM   BANK0   BANK1   BANK2   BANK3   BANK4   BANK5
 10430 ;;      Params:         0       0       0       0       0       0       0
 10431 ;;      Locals:         0       0       0       0       0       0       0
 10432 ;;      Temps:          0       0       0       0       0       0       0
 10433 ;;      Totals:         0       0       0       0       0       0       0
 10434 ;;Total ram usage:        0 bytes
 10435 ;; Hardware stack levels used:    1
 10436 ;; Hardware stack levels required when called:    2
 10437 ;; This function calls:
 10438 ;;		Absolute function
 10439 ;;		_EUSART1_DefaultErrorHandler
 10440 ;;		_EUSART1_DefaultFramingErrorHandler
 10441 ;;		_EUSART1_DefaultOverrunErrorHandler
 10442 ;;		_EUSART1_RxDataHandler
 10443 ;; This function is called by:
 10444 ;;		_EUSART1_Initialize
 10445 ;;		_INTERRUPT_InterruptManagerHigh
 10446 ;; This function uses a non-reentrant model
 10447 ;;
 10448                           
 10449                           	psect	text69
 10450  002EE6                     __ptext69:
 10451                           	opt callstack 0
 10452  002EE6                     _EUSART1_Receive_ISR:
 10453                           	opt callstack 18
 10454  002EE6                     
 10455                           ;mcc_generated_files/eusart1.c: 185:     eusart1RxStatusBuffer[eusart1RxHead].status = 0
      +                          ;
 10456  002EE6  0E00               	movlw	low _eusart1RxStatusBuffer
 10457  002EE8  0100               	movlb	0	; () banked
 10458  002EEA  25F5               	addwf	_eusart1RxHead& (0+255),w,b	;volatile
 10459  002EEC  6ED9               	movwf	fsr2l,c
 10460  002EEE  6ADA               	clrf	fsr2h,c
 10461  002EF0  0E01               	movlw	high _eusart1RxStatusBuffer
 10462  002EF2  22DA               	addwfc	fsr2h,f,c
 10463  002EF4  0E00               	movlw	0
 10464  002EF6  6EDF               	movwf	indf2,c
 10465  002EF8                     
 10466                           ; BSR set to: 0
 10467                           ;mcc_generated_files/eusart1.c: 187:     if(RCSTA1bits.FERR){
 10468  002EF8  A4AB               	btfss	171,2,c	;volatile
 10469  002EFA  EF81  F017         	goto	i2u540_41
 10470  002EFE  EF83  F017         	goto	i2u540_40
 10471  002F02                     i2u540_41:
 10472  002F02  EF98  F017         	goto	i2l5215
 10473  002F06                     i2u540_40:
 10474  002F06                     
 10475                           ; BSR set to: 0
 10476                           ;mcc_generated_files/eusart1.c: 188:         eusart1RxStatusBuffer[eusart1RxHead].ferr =
      +                           1;
 10477  002F06  0E00               	movlw	low _eusart1RxStatusBuffer
 10478  002F08  25F5               	addwf	_eusart1RxHead& (0+255),w,b	;volatile
 10479  002F0A  6ED9               	movwf	fsr2l,c
 10480  002F0C  6ADA               	clrf	fsr2h,c
 10481  002F0E  0E01               	movlw	high _eusart1RxStatusBuffer
 10482  002F10  22DA               	addwfc	fsr2h,f,c
 10483  002F12  0101               	movlb	1	; () banked
 10484  002F14  82DF               	bsf	indf2,1,c
 10485  002F16                     
 10486                           ; BSR set to: 1
 10487                           ;mcc_generated_files/eusart1.c: 189:         EUSART1_FramingErrorHandler();
 10488  002F16  D802               	call	i2u541_48
 10489  002F18  EF98  F017         	goto	i2u541_49
 10490  002F1C                     i2u541_48:
 10491  002F1C  0005               	push	
 10492  002F1E  6EFA               	movwf	pclath,c
 10493  002F20  519E               	movf	_EUSART1_FramingErrorHandler& (0+255),w,b
 10494  002F22  6EFD               	movwf	tosl,c
 10495  002F24  519F               	movf	(_EUSART1_FramingErrorHandler+1)& (0+255),w,b
 10496  002F26  6EFE               	movwf	tosh,c
 10497  002F28  50F8               	movf	tblptru,w,c
 10498  002F2A  6EFF               	movwf	tosu,c
 10499  002F2C  50FA               	movf	pclath,w,c
 10500  002F2E  0012               	return		;indir
 10501  002F30                     i2u541_49:
 10502  002F30                     i2l5215:
 10503                           
 10504                           ;mcc_generated_files/eusart1.c: 192:     if(RCSTA1bits.OERR){
 10505  002F30  A2AB               	btfss	171,1,c	;volatile
 10506  002F32  EF9D  F017         	goto	i2u542_41
 10507  002F36  EF9F  F017         	goto	i2u542_40
 10508  002F3A                     i2u542_41:
 10509  002F3A  EFB5  F017         	goto	i2l5221
 10510  002F3E                     i2u542_40:
 10511  002F3E                     
 10512                           ;mcc_generated_files/eusart1.c: 193:         eusart1RxStatusBuffer[eusart1RxHead].oerr =
      +                           1;
 10513  002F3E  0E00               	movlw	low _eusart1RxStatusBuffer
 10514  002F40  0100               	movlb	0	; () banked
 10515  002F42  25F5               	addwf	_eusart1RxHead& (0+255),w,b	;volatile
 10516  002F44  6ED9               	movwf	fsr2l,c
 10517  002F46  6ADA               	clrf	fsr2h,c
 10518  002F48  0E01               	movlw	high _eusart1RxStatusBuffer
 10519  002F4A  22DA               	addwfc	fsr2h,f,c
 10520  002F4C  0101               	movlb	1	; () banked
 10521  002F4E  84DF               	bsf	indf2,2,c
 10522  002F50                     
 10523                           ; BSR set to: 1
 10524                           ;mcc_generated_files/eusart1.c: 194:         EUSART1_OverrunErrorHandler();
 10525  002F50  D802               	call	i2u543_48
 10526  002F52  EFB5  F017         	goto	i2u543_49
 10527  002F56                     i2u543_48:
 10528  002F56  0005               	push	
 10529  002F58  6EFA               	movwf	pclath,c
 10530  002F5A  519C               	movf	_EUSART1_OverrunErrorHandler& (0+255),w,b
 10531  002F5C  6EFD               	movwf	tosl,c
 10532  002F5E  519D               	movf	(_EUSART1_OverrunErrorHandler+1)& (0+255),w,b
 10533  002F60  6EFE               	movwf	tosh,c
 10534  002F62  50F8               	movf	tblptru,w,c
 10535  002F64  6EFF               	movwf	tosu,c
 10536  002F66  50FA               	movf	pclath,w,c
 10537  002F68  0012               	return		;indir
 10538  002F6A                     i2u543_49:
 10539  002F6A                     i2l5221:
 10540                           
 10541                           ;mcc_generated_files/eusart1.c: 197:     if(eusart1RxStatusBuffer[eusart1RxHead].status)
      +                          {
 10542  002F6A  0E00               	movlw	low _eusart1RxStatusBuffer
 10543  002F6C  0100               	movlb	0	; () banked
 10544  002F6E  25F5               	addwf	_eusart1RxHead& (0+255),w,b	;volatile
 10545  002F70  6ED9               	movwf	fsr2l,c
 10546  002F72  6ADA               	clrf	fsr2h,c
 10547  002F74  0E01               	movlw	high _eusart1RxStatusBuffer
 10548  002F76  22DA               	addwfc	fsr2h,f,c
 10549  002F78  50DF               	movf	indf2,w,c
 10550  002F7A  B4D8               	btfsc	status,2,c
 10551  002F7C  EFC2  F017         	goto	i2u544_41
 10552  002F80  EFC4  F017         	goto	i2u544_40
 10553  002F84                     i2u544_41:
 10554  002F84  EFD4  F017         	goto	i2l5225
 10555  002F88                     i2u544_40:
 10556  002F88                     
 10557                           ; BSR set to: 0
 10558                           ;mcc_generated_files/eusart1.c: 198:         EUSART1_ErrorHandler();
 10559  002F88  D802               	call	i2u545_48
 10560  002F8A  EFD2  F017         	goto	i2u545_49
 10561  002F8E                     i2u545_48:
 10562  002F8E  0005               	push	
 10563  002F90  0101               	movlb	1	; () banked
 10564  002F92  6EFA               	movwf	pclath,c
 10565  002F94  519A               	movf	_EUSART1_ErrorHandler& (0+255),w,b
 10566  002F96  6EFD               	movwf	tosl,c
 10567  002F98  519B               	movf	(_EUSART1_ErrorHandler+1)& (0+255),w,b
 10568  002F9A  6EFE               	movwf	tosh,c
 10569  002F9C  50F8               	movf	tblptru,w,c
 10570  002F9E  6EFF               	movwf	tosu,c
 10571  002FA0  50FA               	movf	pclath,w,c
 10572  002FA2  0012               	return		;indir
 10573  002FA4                     i2u545_49:
 10574                           
 10575                           ;mcc_generated_files/eusart1.c: 199:     } else {
 10576  002FA4  EFD6  F017         	goto	i2l437
 10577  002FA8                     i2l5225:
 10578                           
 10579                           ; BSR set to: 0
 10580                           ;mcc_generated_files/eusart1.c: 200:         EUSART1_RxDataHandler();
 10581  002FA8  EC0A  F01C         	call	_EUSART1_RxDataHandler	;wreg free
 10582  002FAC                     i2l437:
 10583  002FAC  0012               	return		;funcret
 10584  002FAE                     __end_of_EUSART1_Receive_ISR:
 10585                           	opt callstack 0
 10586                           
 10587 ;; *************** function _EUSART1_DefaultOverrunErrorHandler *****************
 10588 ;; Defined at:
 10589 ;;		line 218 in file "mcc_generated_files/eusart1.c"
 10590 ;; Parameters:    Size  Location     Type
 10591 ;;		None
 10592 ;; Auto vars:     Size  Location     Type
 10593 ;;		None
 10594 ;; Return value:  Size  Location     Type
 10595 ;;                  1    wreg      void 
 10596 ;; Registers used:
 10597 ;;		None
 10598 ;; Tracked objects:
 10599 ;;		On entry : 0/0
 10600 ;;		On exit  : 0/0
 10601 ;;		Unchanged: 0/0
 10602 ;; Data sizes:     COMRAM   BANK0   BANK1   BANK2   BANK3   BANK4   BANK5
 10603 ;;      Params:         0       0       0       0       0       0       0
 10604 ;;      Locals:         0       0       0       0       0       0       0
 10605 ;;      Temps:          0       0       0       0       0       0       0
 10606 ;;      Totals:         0       0       0       0       0       0       0
 10607 ;;Total ram usage:        0 bytes
 10608 ;; Hardware stack levels used:    1
 10609 ;; This function calls:
 10610 ;;		Nothing
 10611 ;; This function is called by:
 10612 ;;		_EUSART1_Initialize
 10613 ;;		_EUSART1_Receive_ISR
 10614 ;; This function uses a non-reentrant model
 10615 ;;
 10616                           
 10617                           	psect	text70
 10618  003A36                     __ptext70:
 10619                           	opt callstack 0
 10620  003A36                     _EUSART1_DefaultOverrunErrorHandler:
 10621                           	opt callstack 19
 10622  003A36                     
 10623                           ;mcc_generated_files/eusart1.c: 221:     RCSTA1bits.CREN = 0;
 10624  003A36  98AB               	bcf	171,4,c	;volatile
 10625                           
 10626                           ;mcc_generated_files/eusart1.c: 222:     RCSTA1bits.CREN = 1;
 10627  003A38  88AB               	bsf	171,4,c	;volatile
 10628  003A3A  0012               	return		;funcret
 10629  003A3C                     __end_of_EUSART1_DefaultOverrunErrorHandler:
 10630                           	opt callstack 0
 10631                           
 10632 ;; *************** function _EUSART1_DefaultFramingErrorHandler *****************
 10633 ;; Defined at:
 10634 ;;		line 216 in file "mcc_generated_files/eusart1.c"
 10635 ;; Parameters:    Size  Location     Type
 10636 ;;		None
 10637 ;; Auto vars:     Size  Location     Type
 10638 ;;		None
 10639 ;; Return value:  Size  Location     Type
 10640 ;;                  1    wreg      void 
 10641 ;; Registers used:
 10642 ;;		None
 10643 ;; Tracked objects:
 10644 ;;		On entry : 0/0
 10645 ;;		On exit  : 0/0
 10646 ;;		Unchanged: 0/0
 10647 ;; Data sizes:     COMRAM   BANK0   BANK1   BANK2   BANK3   BANK4   BANK5
 10648 ;;      Params:         0       0       0       0       0       0       0
 10649 ;;      Locals:         0       0       0       0       0       0       0
 10650 ;;      Temps:          0       0       0       0       0       0       0
 10651 ;;      Totals:         0       0       0       0       0       0       0
 10652 ;;Total ram usage:        0 bytes
 10653 ;; Hardware stack levels used:    1
 10654 ;; This function calls:
 10655 ;;		Nothing
 10656 ;; This function is called by:
 10657 ;;		_EUSART1_Initialize
 10658 ;;		_EUSART1_Receive_ISR
 10659 ;; This function uses a non-reentrant model
 10660 ;;
 10661                           
 10662                           	psect	text71
 10663  003A50                     __ptext71:
 10664                           	opt callstack 0
 10665  003A50                     _EUSART1_DefaultFramingErrorHandler:
 10666                           	opt callstack 19
 10667  003A50  0012               	return		;funcret
 10668  003A52                     __end_of_EUSART1_DefaultFramingErrorHandler:
 10669                           	opt callstack 0
 10670                           
 10671 ;; *************** function _EUSART1_DefaultErrorHandler *****************
 10672 ;; Defined at:
 10673 ;;		line 226 in file "mcc_generated_files/eusart1.c"
 10674 ;; Parameters:    Size  Location     Type
 10675 ;;		None
 10676 ;; Auto vars:     Size  Location     Type
 10677 ;;		None
 10678 ;; Return value:  Size  Location     Type
 10679 ;;                  1    wreg      void 
 10680 ;; Registers used:
 10681 ;;		wreg, fsr2l, fsr2h, status,2, status,0, cstack
 10682 ;; Tracked objects:
 10683 ;;		On entry : 0/0
 10684 ;;		On exit  : 0/0
 10685 ;;		Unchanged: 0/0
 10686 ;; Data sizes:     COMRAM   BANK0   BANK1   BANK2   BANK3   BANK4   BANK5
 10687 ;;      Params:         0       0       0       0       0       0       0
 10688 ;;      Locals:         0       0       0       0       0       0       0
 10689 ;;      Temps:          0       0       0       0       0       0       0
 10690 ;;      Totals:         0       0       0       0       0       0       0
 10691 ;;Total ram usage:        0 bytes
 10692 ;; Hardware stack levels used:    1
 10693 ;; Hardware stack levels required when called:    1
 10694 ;; This function calls:
 10695 ;;		_EUSART1_RxDataHandler
 10696 ;; This function is called by:
 10697 ;;		_EUSART1_Initialize
 10698 ;;		_EUSART1_Receive_ISR
 10699 ;; This function uses a non-reentrant model
 10700 ;;
 10701                           
 10702                           	psect	text72
 10703  003A3C                     __ptext72:
 10704                           	opt callstack 0
 10705  003A3C                     _EUSART1_DefaultErrorHandler:
 10706                           	opt callstack 18
 10707  003A3C                     
 10708                           ;mcc_generated_files/eusart1.c: 227:     EUSART1_RxDataHandler();
 10709  003A3C  EC0A  F01C         	call	_EUSART1_RxDataHandler	;wreg free
 10710  003A40  0012               	return		;funcret
 10711  003A42                     __end_of_EUSART1_DefaultErrorHandler:
 10712                           	opt callstack 0
 10713                           
 10714 ;; *************** function _EUSART1_RxDataHandler *****************
 10715 ;; Defined at:
 10716 ;;		line 206 in file "mcc_generated_files/eusart1.c"
 10717 ;; Parameters:    Size  Location     Type
 10718 ;;		None
 10719 ;; Auto vars:     Size  Location     Type
 10720 ;;		None
 10721 ;; Return value:  Size  Location     Type
 10722 ;;                  1    wreg      void 
 10723 ;; Registers used:
 10724 ;;		wreg, fsr2l, fsr2h, status,2, status,0
 10725 ;; Tracked objects:
 10726 ;;		On entry : 0/0
 10727 ;;		On exit  : 0/0
 10728 ;;		Unchanged: 0/0
 10729 ;; Data sizes:     COMRAM   BANK0   BANK1   BANK2   BANK3   BANK4   BANK5
 10730 ;;      Params:         0       0       0       0       0       0       0
 10731 ;;      Locals:         0       0       0       0       0       0       0
 10732 ;;      Temps:          0       0       0       0       0       0       0
 10733 ;;      Totals:         0       0       0       0       0       0       0
 10734 ;;Total ram usage:        0 bytes
 10735 ;; Hardware stack levels used:    1
 10736 ;; This function calls:
 10737 ;;		Nothing
 10738 ;; This function is called by:
 10739 ;;		_EUSART1_Receive_ISR
 10740 ;;		_EUSART1_DefaultErrorHandler
 10741 ;; This function uses a non-reentrant model
 10742 ;;
 10743                           
 10744                           	psect	text73
 10745  003814                     __ptext73:
 10746                           	opt callstack 0
 10747  003814                     _EUSART1_RxDataHandler:
 10748                           	opt callstack 19
 10749  003814                     
 10750                           ;mcc_generated_files/eusart1.c: 208:     eusart1RxBuffer[eusart1RxHead++] = RCREG1;
 10751  003814  0E08               	movlw	low _eusart1RxBuffer
 10752  003816  0100               	movlb	0	; () banked
 10753  003818  25F5               	addwf	_eusart1RxHead& (0+255),w,b	;volatile
 10754  00381A  6ED9               	movwf	fsr2l,c
 10755  00381C  6ADA               	clrf	fsr2h,c
 10756  00381E  0E01               	movlw	high _eusart1RxBuffer
 10757  003820  22DA               	addwfc	fsr2h,f,c
 10758  003822  CFAE FFDF          	movff	4014,indf2	;volatile
 10759  003826                     
 10760                           ; BSR set to: 0
 10761  003826  2BF5               	incf	_eusart1RxHead& (0+255),f,b	;volatile
 10762  003828                     
 10763                           ; BSR set to: 0
 10764                           ;mcc_generated_files/eusart1.c: 209:     if(sizeof(eusart1RxBuffer) <= eusart1RxHead)
 10765  003828  0E07               	movlw	7
 10766  00382A  65F5               	cpfsgt	_eusart1RxHead& (0+255),b	;volatile
 10767  00382C  EF1A  F01C         	goto	i2u390_41
 10768  003830  EF1C  F01C         	goto	i2u390_40
 10769  003834                     i2u390_41:
 10770  003834  EF1E  F01C         	goto	i2l4165
 10771  003838                     i2u390_40:
 10772  003838                     
 10773                           ; BSR set to: 0
 10774                           ;mcc_generated_files/eusart1.c: 210:     {;mcc_generated_files/eusart1.c: 211:         e
      +                          usart1RxHead = 0;
 10775  003838  0E00               	movlw	0
 10776  00383A  6FF5               	movwf	_eusart1RxHead& (0+255),b	;volatile
 10777  00383C                     i2l4165:
 10778                           
 10779                           ; BSR set to: 0
 10780                           ;mcc_generated_files/eusart1.c: 213:     eusart1RxCount++;
 10781  00383C  2BF3               	incf	_eusart1RxCount& (0+255),f,b	;volatile
 10782  00383E                     
 10783                           ; BSR set to: 0
 10784  00383E  0012               	return		;funcret
 10785  003840                     __end_of_EUSART1_RxDataHandler:
 10786                           	opt callstack 0
 10787                           
 10788 ;; *************** function _ADC_ISR *****************
 10789 ;; Defined at:
 10790 ;;		line 144 in file "mcc_generated_files/adc.c"
 10791 ;; Parameters:    Size  Location     Type
 10792 ;;		None
 10793 ;; Auto vars:     Size  Location     Type
 10794 ;;		None
 10795 ;; Return value:  Size  Location     Type
 10796 ;;                  1    wreg      void 
 10797 ;; Registers used:
 10798 ;;		wreg, status,2, status,0, pclath, tosl, prodl, prodh, cstack
 10799 ;; Tracked objects:
 10800 ;;		On entry : 0/0
 10801 ;;		On exit  : 0/0
 10802 ;;		Unchanged: 0/0
 10803 ;; Data sizes:     COMRAM   BANK0   BANK1   BANK2   BANK3   BANK4   BANK5
 10804 ;;      Params:         0       0       0       0       0       0       0
 10805 ;;      Locals:         0       0       0       0       0       0       0
 10806 ;;      Temps:          0       0       0       0       0       0       0
 10807 ;;      Totals:         0       0       0       0       0       0       0
 10808 ;;Total ram usage:        0 bytes
 10809 ;; Hardware stack levels used:    1
 10810 ;; Hardware stack levels required when called:    2
 10811 ;; This function calls:
 10812 ;;		Absolute function
 10813 ;;		_ADC_DefaultInterruptHandler
 10814 ;;		_ADC_temperatura
 10815 ;; This function is called by:
 10816 ;;		_INTERRUPT_InterruptManagerHigh
 10817 ;; This function uses a non-reentrant model
 10818 ;;
 10819                           
 10820                           	psect	text74
 10821  003752                     __ptext74:
 10822                           	opt callstack 0
 10823  003752                     _ADC_ISR:
 10824                           	opt callstack 18
 10825  003752                     
 10826                           ;mcc_generated_files/adc.c: 145:     if(ADC_InterruptHandler)
 10827  003752  0101               	movlb	1	; () banked
 10828  003754  51A0               	movf	_ADC_InterruptHandler& (0+255),w,b
 10829  003756  11A1               	iorwf	(_ADC_InterruptHandler+1)& (0+255),w,b
 10830  003758  B4D8               	btfsc	status,2,c
 10831  00375A  EFB1  F01B         	goto	i2u534_41
 10832  00375E  EFB3  F01B         	goto	i2u534_40
 10833  003762                     i2u534_41:
 10834  003762  EFC0  F01B         	goto	i2l5161
 10835  003766                     i2u534_40:
 10836  003766                     
 10837                           ; BSR set to: 1
 10838                           ;mcc_generated_files/adc.c: 146:     {;mcc_generated_files/adc.c: 147:         ADC_Inter
      +                          ruptHandler();
 10839  003766  D802               	call	i2u535_48
 10840  003768  EFC0  F01B         	goto	i2u535_49
 10841  00376C                     i2u535_48:
 10842  00376C  0005               	push	
 10843  00376E  6EFA               	movwf	pclath,c
 10844  003770  51A0               	movf	_ADC_InterruptHandler& (0+255),w,b
 10845  003772  6EFD               	movwf	tosl,c
 10846  003774  51A1               	movf	(_ADC_InterruptHandler+1)& (0+255),w,b
 10847  003776  6EFE               	movwf	tosh,c
 10848  003778  50F8               	movf	tblptru,w,c
 10849  00377A  6EFF               	movwf	tosu,c
 10850  00377C  50FA               	movf	pclath,w,c
 10851  00377E  0012               	return		;indir
 10852  003780                     i2u535_49:
 10853  003780                     i2l5161:
 10854                           
 10855                           ;mcc_generated_files/adc.c: 149:     PIR1bits.ADIF=0;
 10856  003780  9C9E               	bcf	158,6,c	;volatile
 10857  003782  0012               	return		;funcret
 10858  003784                     __end_of_ADC_ISR:
 10859                           	opt callstack 0
 10860                           
 10861 ;; *************** function _ADC_DefaultInterruptHandler *****************
 10862 ;; Defined at:
 10863 ;;		line 157 in file "mcc_generated_files/adc.c"
 10864 ;; Parameters:    Size  Location     Type
 10865 ;;		None
 10866 ;; Auto vars:     Size  Location     Type
 10867 ;;		None
 10868 ;; Return value:  Size  Location     Type
 10869 ;;                  1    wreg      void 
 10870 ;; Registers used:
 10871 ;;		None
 10872 ;; Tracked objects:
 10873 ;;		On entry : 0/0
 10874 ;;		On exit  : 0/0
 10875 ;;		Unchanged: 0/0
 10876 ;; Data sizes:     COMRAM   BANK0   BANK1   BANK2   BANK3   BANK4   BANK5
 10877 ;;      Params:         0       0       0       0       0       0       0
 10878 ;;      Locals:         0       0       0       0       0       0       0
 10879 ;;      Temps:          0       0       0       0       0       0       0
 10880 ;;      Totals:         0       0       0       0       0       0       0
 10881 ;;Total ram usage:        0 bytes
 10882 ;; Hardware stack levels used:    1
 10883 ;; This function calls:
 10884 ;;		Nothing
 10885 ;; This function is called by:
 10886 ;;		_ADC_Initialize
 10887 ;;		_ADC_ISR
 10888 ;; This function uses a non-reentrant model
 10889 ;;
 10890                           
 10891                           	psect	text75
 10892  003A52                     __ptext75:
 10893                           	opt callstack 0
 10894  003A52                     _ADC_DefaultInterruptHandler:
 10895                           	opt callstack 19
 10896  003A52  0012               	return		;funcret
 10897  003A54                     __end_of_ADC_DefaultInterruptHandler:
 10898                           	opt callstack 0
 10899                           
 10900 ;; *************** function _ADC_temperatura *****************
 10901 ;; Defined at:
 10902 ;;		line 98 in file "main.c"
 10903 ;; Parameters:    Size  Location     Type
 10904 ;;		None
 10905 ;; Auto vars:     Size  Location     Type
 10906 ;;		None
 10907 ;; Return value:  Size  Location     Type
 10908 ;;                  1    wreg      void 
 10909 ;; Registers used:
 10910 ;;		wreg, status,2, status,0, prodl, prodh, cstack
 10911 ;; Tracked objects:
 10912 ;;		On entry : 0/0
 10913 ;;		On exit  : 0/0
 10914 ;;		Unchanged: 0/0
 10915 ;; Data sizes:     COMRAM   BANK0   BANK1   BANK2   BANK3   BANK4   BANK5
 10916 ;;      Params:         0       0       0       0       0       0       0
 10917 ;;      Locals:         0       0       0       0       0       0       0
 10918 ;;      Temps:          0       0       0       0       0       0       0
 10919 ;;      Totals:         0       0       0       0       0       0       0
 10920 ;;Total ram usage:        0 bytes
 10921 ;; Hardware stack levels used:    1
 10922 ;; Hardware stack levels required when called:    1
 10923 ;; This function calls:
 10924 ;;		_ADC_GetConversionResult
 10925 ;;		___fladd
 10926 ;;		___fldiv
 10927 ;;		___flmul
 10928 ;;		___fltol
 10929 ;;		___xxtofl
 10930 ;; This function is called by:
 10931 ;;		_main
 10932 ;;		_ADC_ISR
 10933 ;; This function uses a non-reentrant model
 10934 ;;
 10935                           
 10936                           	psect	text76
 10937  00232C                     __ptext76:
 10938                           	opt callstack 0
 10939  00232C                     _ADC_temperatura:
 10940                           	opt callstack 18
 10941  00232C                     
 10942                           ;main.c: 100:     codigo_digital = ADC_GetConversionResult();
 10943  00232C  ECB3  F01C         	call	_ADC_GetConversionResult	;wreg free
 10944  002330  C001  F198         	movff	?_ADC_GetConversionResult,_codigo_digital
 10945  002334  C002  F199         	movff	?_ADC_GetConversionResult+1,_codigo_digital+1
 10946  002338                     
 10947                           ;main.c: 106:     tensao = ((3.4)*(float)(codigo_digital/1024.0)) - 0.3;
 10948  002338  0E9A               	movlw	154
 10949  00233A  6E2C               	movwf	___flmul@a^0,c
 10950  00233C  0E99               	movlw	153
 10951  00233E  6E2D               	movwf	(___flmul@a+1)^0,c
 10952  002340  0E59               	movlw	89
 10953  002342  6E2E               	movwf	(___flmul@a+2)^0,c
 10954  002344  0E40               	movlw	64
 10955  002346  6E2F               	movwf	(___flmul@a+3)^0,c
 10956  002348  0E00               	movlw	0
 10957  00234A  6E13               	movwf	___fldiv@a^0,c
 10958  00234C  0E00               	movlw	0
 10959  00234E  6E14               	movwf	(___fldiv@a+1)^0,c
 10960  002350  0E80               	movlw	128
 10961  002352  6E15               	movwf	(___fldiv@a+2)^0,c
 10962  002354  0E44               	movlw	68
 10963  002356  6E16               	movwf	(___fldiv@a+3)^0,c
 10964  002358  C198  F001         	movff	_codigo_digital,___xxtofl@val
 10965  00235C  C199  F002         	movff	_codigo_digital+1,___xxtofl@val+1
 10966  002360  0E00               	movlw	0
 10967  002362  BE02               	btfsc	(___xxtofl@val+1)^0,7,c
 10968  002364  0EFF               	movlw	-1
 10969  002366  6E03               	movwf	(___xxtofl@val+2)^0,c
 10970  002368  6E04               	movwf	(___xxtofl@val+3)^0,c
 10971  00236A  0E01               	movlw	1
 10972  00236C  EC92  F012         	call	___xxtofl
 10973  002370  C001  F00F         	movff	?___xxtofl,___fldiv@b
 10974  002374  C002  F010         	movff	?___xxtofl+1,___fldiv@b+1
 10975  002378  C003  F011         	movff	?___xxtofl+2,___fldiv@b+2
 10976  00237C  C004  F012         	movff	?___xxtofl+3,___fldiv@b+3
 10977  002380  ECA4  F00A         	call	___fldiv	;wreg free
 10978  002384  C00F  F028         	movff	?___fldiv,___flmul@b
 10979  002388  C010  F029         	movff	?___fldiv+1,___flmul@b+1
 10980  00238C  C011  F02A         	movff	?___fldiv+2,___flmul@b+2
 10981  002390  C012  F02B         	movff	?___fldiv+3,___flmul@b+3
 10982  002394  EC8F  F008         	call	___flmul	;wreg free
 10983  002398  C028  F041         	movff	?___flmul,___fladd@b
 10984  00239C  C029  F042         	movff	?___flmul+1,___fladd@b+1
 10985  0023A0  C02A  F043         	movff	?___flmul+2,___fladd@b+2
 10986  0023A4  C02B  F044         	movff	?___flmul+3,___fladd@b+3
 10987  0023A8  0E9A               	movlw	154
 10988  0023AA  6E45               	movwf	___fladd@a^0,c
 10989  0023AC  0E99               	movlw	153
 10990  0023AE  6E46               	movwf	(___fladd@a+1)^0,c
 10991  0023B0  0E99               	movlw	153
 10992  0023B2  6E47               	movwf	(___fladd@a+2)^0,c
 10993  0023B4  0EBE               	movlw	190
 10994  0023B6  6E48               	movwf	(___fladd@a+3)^0,c
 10995  0023B8  EC2F  F006         	call	___fladd	;wreg free
 10996  0023BC  C041  F0D4         	movff	?___fladd,_tensao
 10997  0023C0  C042  F0D5         	movff	?___fladd+1,_tensao+1
 10998  0023C4  C043  F0D6         	movff	?___fladd+2,_tensao+2
 10999  0023C8  C044  F0D7         	movff	?___fladd+3,_tensao+3
 11000  0023CC                     
 11001                           ;main.c: 107:     tensao = (int) ((tensao * 100) + 0.5);
 11002  0023CC  0E00               	movlw	0
 11003  0023CE  6E45               	movwf	___fladd@a^0,c
 11004  0023D0  0E00               	movlw	0
 11005  0023D2  6E46               	movwf	(___fladd@a+1)^0,c
 11006  0023D4  0E00               	movlw	0
 11007  0023D6  6E47               	movwf	(___fladd@a+2)^0,c
 11008  0023D8  0E3F               	movlw	63
 11009  0023DA  6E48               	movwf	(___fladd@a+3)^0,c
 11010  0023DC  0E00               	movlw	0
 11011  0023DE  6E2C               	movwf	___flmul@a^0,c
 11012  0023E0  0E00               	movlw	0
 11013  0023E2  6E2D               	movwf	(___flmul@a+1)^0,c
 11014  0023E4  0EC8               	movlw	200
 11015  0023E6  6E2E               	movwf	(___flmul@a+2)^0,c
 11016  0023E8  0E42               	movlw	66
 11017  0023EA  6E2F               	movwf	(___flmul@a+3)^0,c
 11018  0023EC  C0D4  F028         	movff	_tensao,___flmul@b
 11019  0023F0  C0D5  F029         	movff	_tensao+1,___flmul@b+1
 11020  0023F4  C0D6  F02A         	movff	_tensao+2,___flmul@b+2
 11021  0023F8  C0D7  F02B         	movff	_tensao+3,___flmul@b+3
 11022  0023FC  EC8F  F008         	call	___flmul	;wreg free
 11023  002400  C028  F041         	movff	?___flmul,___fladd@b
 11024  002404  C029  F042         	movff	?___flmul+1,___fladd@b+1
 11025  002408  C02A  F043         	movff	?___flmul+2,___fladd@b+2
 11026  00240C  C02B  F044         	movff	?___flmul+3,___fladd@b+3
 11027  002410  EC2F  F006         	call	___fladd	;wreg free
 11028  002414  C041  F051         	movff	?___fladd,___fltol@f1
 11029  002418  C042  F052         	movff	?___fladd+1,___fltol@f1+1
 11030  00241C  C043  F053         	movff	?___fladd+2,___fltol@f1+2
 11031  002420  C044  F054         	movff	?___fladd+3,___fltol@f1+3
 11032  002424  EC25  F016         	call	___fltol	;wreg free
 11033  002428  C051  F001         	movff	?___fltol,___xxtofl@val
 11034  00242C  C052  F002         	movff	?___fltol+1,___xxtofl@val+1
 11035  002430  0E00               	movlw	0
 11036  002432  BE02               	btfsc	(___xxtofl@val+1)^0,7,c
 11037  002434  0EFF               	movlw	-1
 11038  002436  6E03               	movwf	(___xxtofl@val+2)^0,c
 11039  002438  6E04               	movwf	(___xxtofl@val+3)^0,c
 11040  00243A  0E01               	movlw	1
 11041  00243C  EC92  F012         	call	___xxtofl
 11042  002440  C001  F0D4         	movff	?___xxtofl,_tensao
 11043  002444  C002  F0D5         	movff	?___xxtofl+1,_tensao+1
 11044  002448  C003  F0D6         	movff	?___xxtofl+2,_tensao+2
 11045  00244C  C004  F0D7         	movff	?___xxtofl+3,_tensao+3
 11046                           
 11047                           ;main.c: 108:     tensao = (float) tensao/100;
 11048  002450  C0D4  F00F         	movff	_tensao,___fldiv@b
 11049  002454  C0D5  F010         	movff	_tensao+1,___fldiv@b+1
 11050  002458  C0D6  F011         	movff	_tensao+2,___fldiv@b+2
 11051  00245C  C0D7  F012         	movff	_tensao+3,___fldiv@b+3
 11052  002460  0E00               	movlw	0
 11053  002462  6E13               	movwf	___fldiv@a^0,c
 11054  002464  0E00               	movlw	0
 11055  002466  6E14               	movwf	(___fldiv@a+1)^0,c
 11056  002468  0EC8               	movlw	200
 11057  00246A  6E15               	movwf	(___fldiv@a+2)^0,c
 11058  00246C  0E42               	movlw	66
 11059  00246E  6E16               	movwf	(___fldiv@a+3)^0,c
 11060  002470  ECA4  F00A         	call	___fldiv	;wreg free
 11061  002474  C00F  F0D4         	movff	?___fldiv,_tensao
 11062  002478  C010  F0D5         	movff	?___fldiv+1,_tensao+1
 11063  00247C  C011  F0D6         	movff	?___fldiv+2,_tensao+2
 11064  002480  C012  F0D7         	movff	?___fldiv+3,_tensao+3
 11065                           
 11066                           ;main.c: 110:     temp_ambiente = (int) ((tensao - 0.400)/0.0195);
 11067  002484  0E77               	movlw	119
 11068  002486  6E13               	movwf	___fldiv@a^0,c
 11069  002488  0EBE               	movlw	190
 11070  00248A  6E14               	movwf	(___fldiv@a+1)^0,c
 11071  00248C  0E9F               	movlw	159
 11072  00248E  6E15               	movwf	(___fldiv@a+2)^0,c
 11073  002490  0E3C               	movlw	60
 11074  002492  6E16               	movwf	(___fldiv@a+3)^0,c
 11075  002494  0ECD               	movlw	205
 11076  002496  6E45               	movwf	___fladd@a^0,c
 11077  002498  0ECC               	movlw	204
 11078  00249A  6E46               	movwf	(___fladd@a+1)^0,c
 11079  00249C  0ECC               	movlw	204
 11080  00249E  6E47               	movwf	(___fladd@a+2)^0,c
 11081  0024A0  0EBE               	movlw	190
 11082  0024A2  6E48               	movwf	(___fladd@a+3)^0,c
 11083  0024A4  C0D4  F041         	movff	_tensao,___fladd@b
 11084  0024A8  C0D5  F042         	movff	_tensao+1,___fladd@b+1
 11085  0024AC  C0D6  F043         	movff	_tensao+2,___fladd@b+2
 11086  0024B0  C0D7  F044         	movff	_tensao+3,___fladd@b+3
 11087  0024B4  EC2F  F006         	call	___fladd	;wreg free
 11088  0024B8  C041  F00F         	movff	?___fladd,___fldiv@b
 11089  0024BC  C042  F010         	movff	?___fladd+1,___fldiv@b+1
 11090  0024C0  C043  F011         	movff	?___fladd+2,___fldiv@b+2
 11091  0024C4  C044  F012         	movff	?___fladd+3,___fldiv@b+3
 11092  0024C8  ECA4  F00A         	call	___fldiv	;wreg free
 11093  0024CC  C00F  F051         	movff	?___fldiv,___fltol@f1
 11094  0024D0  C010  F052         	movff	?___fldiv+1,___fltol@f1+1
 11095  0024D4  C011  F053         	movff	?___fldiv+2,___fltol@f1+2
 11096  0024D8  C012  F054         	movff	?___fldiv+3,___fltol@f1+3
 11097  0024DC  EC25  F016         	call	___fltol	;wreg free
 11098  0024E0  C051  F05B         	movff	?___fltol,_temp_ambiente
 11099  0024E4  C052  F05C         	movff	?___fltol+1,_temp_ambiente+1
 11100  0024E8                     
 11101                           ;main.c: 112:     if (temp_ambiente != temp_ambiente_anterior){
 11102  0024E8  0101               	movlb	1	; () banked
 11103  0024EA  511A               	movf	_temp_ambiente_anterior& (0+255),w,b
 11104  0024EC  185B               	xorwf	_temp_ambiente^0,w,c
 11105  0024EE  E109               	bnz	i2u520_40
 11106  0024F0  511B               	movf	(_temp_ambiente_anterior+1)& (0+255),w,b
 11107  0024F2  185C               	xorwf	(_temp_ambiente+1)^0,w,c
 11108  0024F4  B4D8               	btfsc	status,2,c
 11109  0024F6  EF7F  F012         	goto	i2u520_41
 11110  0024FA  EF81  F012         	goto	i2u520_40
 11111  0024FE                     i2u520_41:
 11112  0024FE  EF8C  F012         	goto	i2l5029
 11113  002502                     i2u520_40:
 11114  002502                     
 11115                           ; BSR set to: 1
 11116                           ;main.c: 114:         temp_mudou = 1;
 11117  002502  0E00               	movlw	0
 11118  002504  0100               	movlb	0	; () banked
 11119  002506  6FE9               	movwf	(_temp_mudou+1)& (0+255),b
 11120  002508  0E01               	movlw	1
 11121  00250A  6FE8               	movwf	_temp_mudou& (0+255),b
 11122  00250C                     
 11123                           ; BSR set to: 0
 11124                           ;main.c: 115:         temp_ambiente_anterior = temp_ambiente;
 11125  00250C  C05B  F11A         	movff	_temp_ambiente,_temp_ambiente_anterior
 11126  002510  C05C  F11B         	movff	_temp_ambiente+1,_temp_ambiente_anterior+1
 11127                           
 11128                           ;main.c: 116:     }
 11129  002514  EF91  F012         	goto	i2l585
 11130  002518                     i2l5029:
 11131                           
 11132                           ; BSR set to: 1
 11133                           ;main.c: 118:         temp_mudou = 0;
 11134  002518  0E00               	movlw	0
 11135  00251A  0100               	movlb	0	; () banked
 11136  00251C  6FE9               	movwf	(_temp_mudou+1)& (0+255),b
 11137  00251E  0E00               	movlw	0
 11138  002520  6FE8               	movwf	_temp_mudou& (0+255),b
 11139  002522                     i2l585:
 11140                           
 11141                           ; BSR set to: 0
 11142  002522  0012               	return		;funcret
 11143  002524                     __end_of_ADC_temperatura:
 11144                           	opt callstack 0
 11145                           
 11146 ;; *************** function ___xxtofl *****************
 11147 ;; Defined at:
 11148 ;;		line 10 in file "C:\Program Files (x86)\Microchip\xc8\v2.10\pic\sources\c99\common\xxtofl.c"
 11149 ;; Parameters:    Size  Location     Type
 11150 ;;  sign            1    wreg     unsigned char 
 11151 ;;  val             4    0[COMRAM] long 
 11152 ;; Auto vars:     Size  Location     Type
 11153 ;;  sign            1    8[COMRAM] unsigned char 
 11154 ;;  arg             4   10[COMRAM] unsigned long 
 11155 ;;  exp             1    9[COMRAM] unsigned char 
 11156 ;; Return value:  Size  Location     Type
 11157 ;;                  4    0[COMRAM] unsigned char 
 11158 ;; Registers used:
 11159 ;;		wreg, status,2, status,0
 11160 ;; Tracked objects:
 11161 ;;		On entry : 0/0
 11162 ;;		On exit  : 0/0
 11163 ;;		Unchanged: 0/0
 11164 ;; Data sizes:     COMRAM   BANK0   BANK1   BANK2   BANK3   BANK4   BANK5
 11165 ;;      Params:         4       0       0       0       0       0       0
 11166 ;;      Locals:         6       0       0       0       0       0       0
 11167 ;;      Temps:          4       0       0       0       0       0       0
 11168 ;;      Totals:        14       0       0       0       0       0       0
 11169 ;;Total ram usage:       14 bytes
 11170 ;; Hardware stack levels used:    1
 11171 ;; This function calls:
 11172 ;;		Nothing
 11173 ;; This function is called by:
 11174 ;;		_ADC_temperatura
 11175 ;; This function uses a non-reentrant model
 11176 ;;
 11177                           
 11178                           	psect	text77
 11179  002524                     __ptext77:
 11180                           	opt callstack 0
 11181  002524                     ___xxtofl:
 11182                           	opt callstack 18
 11183                           
 11184                           ; BSR set to: 0
 11185                           ;incstack = 0
 11186                           ;___xxtofl@sign stored from wreg
 11187  002524  6E09               	movwf	___xxtofl@sign^0,c
 11188  002526  5009               	movf	___xxtofl@sign^0,w,c
 11189  002528  B4D8               	btfsc	status,2,c
 11190  00252A  EF99  F012         	goto	i2u502_41
 11191  00252E  EF9B  F012         	goto	i2u502_40
 11192  002532                     i2u502_41:
 11193  002532  EFBD  F012         	goto	i2l1609
 11194  002536                     i2u502_40:
 11195  002536  BE04               	btfsc	(___xxtofl@val+3)^0,7,c
 11196  002538  EFA2  F012         	goto	i2u503_40
 11197  00253C  EFA0  F012         	goto	i2u503_41
 11198  002540                     i2u503_41:
 11199  002540  EFBD  F012         	goto	i2l1609
 11200  002544                     i2u503_40:
 11201  002544  C001  F005         	movff	___xxtofl@val,??___xxtofl
 11202  002548  C002  F006         	movff	___xxtofl@val+1,??___xxtofl+1
 11203  00254C  C003  F007         	movff	___xxtofl@val+2,??___xxtofl+2
 11204  002550  C004  F008         	movff	___xxtofl@val+3,??___xxtofl+3
 11205  002554  1E05               	comf	??___xxtofl^0,f,c
 11206  002556  1E06               	comf	(??___xxtofl+1)^0,f,c
 11207  002558  1E07               	comf	(??___xxtofl+2)^0,f,c
 11208  00255A  1E08               	comf	(??___xxtofl+3)^0,f,c
 11209  00255C  2A05               	incf	??___xxtofl^0,f,c
 11210  00255E  0E00               	movlw	0
 11211  002560  2206               	addwfc	(??___xxtofl+1)^0,f,c
 11212  002562  2207               	addwfc	(??___xxtofl+2)^0,f,c
 11213  002564  2208               	addwfc	(??___xxtofl+3)^0,f,c
 11214  002566  C005  F00B         	movff	??___xxtofl,___xxtofl@arg
 11215  00256A  C006  F00C         	movff	??___xxtofl+1,___xxtofl@arg+1
 11216  00256E  C007  F00D         	movff	??___xxtofl+2,___xxtofl@arg+2
 11217  002572  C008  F00E         	movff	??___xxtofl+3,___xxtofl@arg+3
 11218  002576  EFC5  F012         	goto	i2l4881
 11219  00257A                     i2l1609:
 11220  00257A  C001  F00B         	movff	___xxtofl@val,___xxtofl@arg
 11221  00257E  C002  F00C         	movff	___xxtofl@val+1,___xxtofl@arg+1
 11222  002582  C003  F00D         	movff	___xxtofl@val+2,___xxtofl@arg+2
 11223  002586  C004  F00E         	movff	___xxtofl@val+3,___xxtofl@arg+3
 11224  00258A                     i2l4881:
 11225  00258A  5001               	movf	___xxtofl@val^0,w,c
 11226  00258C  1002               	iorwf	(___xxtofl@val+1)^0,w,c
 11227  00258E  1003               	iorwf	(___xxtofl@val+2)^0,w,c
 11228  002590  1004               	iorwf	(___xxtofl@val+3)^0,w,c
 11229  002592  A4D8               	btfss	status,2,c
 11230  002594  EFCE  F012         	goto	i2u504_41
 11231  002598  EFD0  F012         	goto	i2u504_40
 11232  00259C                     i2u504_41:
 11233  00259C  EFDA  F012         	goto	i2l4887
 11234  0025A0                     i2u504_40:
 11235  0025A0  0E00               	movlw	0
 11236  0025A2  6E01               	movwf	?___xxtofl^0,c
 11237  0025A4  0E00               	movlw	0
 11238  0025A6  6E02               	movwf	(?___xxtofl+1)^0,c
 11239  0025A8  0E00               	movlw	0
 11240  0025AA  6E03               	movwf	(?___xxtofl+2)^0,c
 11241  0025AC  0E00               	movlw	0
 11242  0025AE  6E04               	movwf	(?___xxtofl+3)^0,c
 11243  0025B0  EF6B  F013         	goto	i2l1612
 11244  0025B4                     i2l4887:
 11245  0025B4  0E96               	movlw	150
 11246  0025B6  6E0A               	movwf	___xxtofl@exp^0,c
 11247  0025B8  EFE4  F012         	goto	i2l4891
 11248  0025BC                     i2l4889:
 11249  0025BC  2A0A               	incf	___xxtofl@exp^0,f,c
 11250  0025BE  90D8               	bcf	status,0,c
 11251  0025C0  320E               	rrcf	(___xxtofl@arg+3)^0,f,c
 11252  0025C2  320D               	rrcf	(___xxtofl@arg+2)^0,f,c
 11253  0025C4  320C               	rrcf	(___xxtofl@arg+1)^0,f,c
 11254  0025C6  320B               	rrcf	___xxtofl@arg^0,f,c
 11255  0025C8                     i2l4891:
 11256  0025C8  0E00               	movlw	0
 11257  0025CA  140B               	andwf	___xxtofl@arg^0,w,c
 11258  0025CC  6E05               	movwf	??___xxtofl^0,c
 11259  0025CE  0E00               	movlw	0
 11260  0025D0  140C               	andwf	(___xxtofl@arg+1)^0,w,c
 11261  0025D2  6E06               	movwf	(??___xxtofl+1)^0,c
 11262  0025D4  0E00               	movlw	0
 11263  0025D6  140D               	andwf	(___xxtofl@arg+2)^0,w,c
 11264  0025D8  6E07               	movwf	(??___xxtofl+2)^0,c
 11265  0025DA  0EFE               	movlw	254
 11266  0025DC  140E               	andwf	(___xxtofl@arg+3)^0,w,c
 11267  0025DE  6E08               	movwf	(??___xxtofl+3)^0,c
 11268  0025E0  5005               	movf	??___xxtofl^0,w,c
 11269  0025E2  1006               	iorwf	(??___xxtofl+1)^0,w,c
 11270  0025E4  1007               	iorwf	(??___xxtofl+2)^0,w,c
 11271  0025E6  1008               	iorwf	(??___xxtofl+3)^0,w,c
 11272  0025E8  A4D8               	btfss	status,2,c
 11273  0025EA  EFF9  F012         	goto	i2u505_41
 11274  0025EE  EFFB  F012         	goto	i2u505_40
 11275  0025F2                     i2u505_41:
 11276  0025F2  EFDE  F012         	goto	i2l4889
 11277  0025F6                     i2u505_40:
 11278  0025F6  EF09  F013         	goto	i2l1616
 11279  0025FA                     i2l4893:
 11280  0025FA  2A0A               	incf	___xxtofl@exp^0,f,c
 11281  0025FC  0E01               	movlw	1
 11282  0025FE  260B               	addwf	___xxtofl@arg^0,f,c
 11283  002600  0E00               	movlw	0
 11284  002602  220C               	addwfc	(___xxtofl@arg+1)^0,f,c
 11285  002604  220D               	addwfc	(___xxtofl@arg+2)^0,f,c
 11286  002606  220E               	addwfc	(___xxtofl@arg+3)^0,f,c
 11287  002608  90D8               	bcf	status,0,c
 11288  00260A  320E               	rrcf	(___xxtofl@arg+3)^0,f,c
 11289  00260C  320D               	rrcf	(___xxtofl@arg+2)^0,f,c
 11290  00260E  320C               	rrcf	(___xxtofl@arg+1)^0,f,c
 11291  002610  320B               	rrcf	___xxtofl@arg^0,f,c
 11292  002612                     i2l1616:
 11293  002612  0E00               	movlw	0
 11294  002614  140B               	andwf	___xxtofl@arg^0,w,c
 11295  002616  6E05               	movwf	??___xxtofl^0,c
 11296  002618  0E00               	movlw	0
 11297  00261A  140C               	andwf	(___xxtofl@arg+1)^0,w,c
 11298  00261C  6E06               	movwf	(??___xxtofl+1)^0,c
 11299  00261E  0E00               	movlw	0
 11300  002620  140D               	andwf	(___xxtofl@arg+2)^0,w,c
 11301  002622  6E07               	movwf	(??___xxtofl+2)^0,c
 11302  002624  0EFF               	movlw	255
 11303  002626  140E               	andwf	(___xxtofl@arg+3)^0,w,c
 11304  002628  6E08               	movwf	(??___xxtofl+3)^0,c
 11305  00262A  5005               	movf	??___xxtofl^0,w,c
 11306  00262C  1006               	iorwf	(??___xxtofl+1)^0,w,c
 11307  00262E  1007               	iorwf	(??___xxtofl+2)^0,w,c
 11308  002630  1008               	iorwf	(??___xxtofl+3)^0,w,c
 11309  002632  A4D8               	btfss	status,2,c
 11310  002634  EF1E  F013         	goto	i2u506_41
 11311  002638  EF20  F013         	goto	i2u506_40
 11312  00263C                     i2u506_41:
 11313  00263C  EFFD  F012         	goto	i2l4893
 11314  002640                     i2u506_40:
 11315  002640  EF28  F013         	goto	i2l4901
 11316  002644                     i2l4899:
 11317  002644  060A               	decf	___xxtofl@exp^0,f,c
 11318  002646  90D8               	bcf	status,0,c
 11319  002648  360B               	rlcf	___xxtofl@arg^0,f,c
 11320  00264A  360C               	rlcf	(___xxtofl@arg+1)^0,f,c
 11321  00264C  360D               	rlcf	(___xxtofl@arg+2)^0,f,c
 11322  00264E  360E               	rlcf	(___xxtofl@arg+3)^0,f,c
 11323  002650                     i2l4901:
 11324  002650  BE0D               	btfsc	(___xxtofl@arg+2)^0,7,c
 11325  002652  EF2D  F013         	goto	i2u507_41
 11326  002656  EF2F  F013         	goto	i2u507_40
 11327  00265A                     i2u507_41:
 11328  00265A  EF37  F013         	goto	i2l1623
 11329  00265E                     i2u507_40:
 11330  00265E  0E02               	movlw	2
 11331  002660  600A               	cpfslt	___xxtofl@exp^0,c
 11332  002662  EF35  F013         	goto	i2u508_41
 11333  002666  EF37  F013         	goto	i2u508_40
 11334  00266A                     i2u508_41:
 11335  00266A  EF22  F013         	goto	i2l4899
 11336  00266E                     i2u508_40:
 11337  00266E                     i2l1623:
 11338  00266E  B00A               	btfsc	___xxtofl@exp^0,0,c
 11339  002670  EF3C  F013         	goto	i2u509_41
 11340  002674  EF3E  F013         	goto	i2u509_40
 11341  002678                     i2u509_41:
 11342  002678  EF3F  F013         	goto	i2l4907
 11343  00267C                     i2u509_40:
 11344  00267C  9E0D               	bcf	(___xxtofl@arg+2)^0,7,c
 11345  00267E                     i2l4907:
 11346  00267E  90D8               	bcf	status,0,c
 11347  002680  320A               	rrcf	___xxtofl@exp^0,f,c
 11348  002682  C00A  F005         	movff	___xxtofl@exp,??___xxtofl
 11349  002686  6A06               	clrf	(??___xxtofl+1)^0,c
 11350  002688  6A07               	clrf	(??___xxtofl+2)^0,c
 11351  00268A  6A08               	clrf	(??___xxtofl+3)^0,c
 11352  00268C  C005  F008         	movff	??___xxtofl,??___xxtofl+3
 11353  002690  6A07               	clrf	(??___xxtofl+2)^0,c
 11354  002692  6A06               	clrf	(??___xxtofl+1)^0,c
 11355  002694  6A05               	clrf	??___xxtofl^0,c
 11356  002696  5005               	movf	??___xxtofl^0,w,c
 11357  002698  120B               	iorwf	___xxtofl@arg^0,f,c
 11358  00269A  5006               	movf	(??___xxtofl+1)^0,w,c
 11359  00269C  120C               	iorwf	(___xxtofl@arg+1)^0,f,c
 11360  00269E  5007               	movf	(??___xxtofl+2)^0,w,c
 11361  0026A0  120D               	iorwf	(___xxtofl@arg+2)^0,f,c
 11362  0026A2  5008               	movf	(??___xxtofl+3)^0,w,c
 11363  0026A4  120E               	iorwf	(___xxtofl@arg+3)^0,f,c
 11364  0026A6  5009               	movf	___xxtofl@sign^0,w,c
 11365  0026A8  B4D8               	btfsc	status,2,c
 11366  0026AA  EF59  F013         	goto	i2u510_41
 11367  0026AE  EF5B  F013         	goto	i2u510_40
 11368  0026B2                     i2u510_41:
 11369  0026B2  EF63  F013         	goto	i2l4917
 11370  0026B6                     i2u510_40:
 11371  0026B6  BE04               	btfsc	(___xxtofl@val+3)^0,7,c
 11372  0026B8  EF62  F013         	goto	i2u511_40
 11373  0026BC  EF60  F013         	goto	i2u511_41
 11374  0026C0                     i2u511_41:
 11375  0026C0  EF63  F013         	goto	i2l4917
 11376  0026C4                     i2u511_40:
 11377  0026C4  8E0E               	bsf	(___xxtofl@arg+3)^0,7,c
 11378  0026C6                     i2l4917:
 11379  0026C6  C00B  F001         	movff	___xxtofl@arg,?___xxtofl
 11380  0026CA  C00C  F002         	movff	___xxtofl@arg+1,?___xxtofl+1
 11381  0026CE  C00D  F003         	movff	___xxtofl@arg+2,?___xxtofl+2
 11382  0026D2  C00E  F004         	movff	___xxtofl@arg+3,?___xxtofl+3
 11383  0026D6                     i2l1612:
 11384  0026D6  0012               	return		;funcret
 11385  0026D8                     __end_of___xxtofl:
 11386                           	opt callstack 0
 11387                           
 11388 ;; *************** function ___fltol *****************
 11389 ;; Defined at:
 11390 ;;		line 43 in file "C:\Program Files (x86)\Microchip\xc8\v2.10\pic\sources\c99\common\fltol.c"
 11391 ;; Parameters:    Size  Location     Type
 11392 ;;  f1              4   80[COMRAM] unsigned char 
 11393 ;; Auto vars:     Size  Location     Type
 11394 ;;  exp1            1   89[COMRAM] unsigned char 
 11395 ;;  sign1           1   88[COMRAM] unsigned char 
 11396 ;; Return value:  Size  Location     Type
 11397 ;;                  4   80[COMRAM] long 
 11398 ;; Registers used:
 11399 ;;		wreg, status,2, status,0
 11400 ;; Tracked objects:
 11401 ;;		On entry : 0/0
 11402 ;;		On exit  : 0/0
 11403 ;;		Unchanged: 0/0
 11404 ;; Data sizes:     COMRAM   BANK0   BANK1   BANK2   BANK3   BANK4   BANK5
 11405 ;;      Params:         4       0       0       0       0       0       0
 11406 ;;      Locals:         2       0       0       0       0       0       0
 11407 ;;      Temps:          4       0       0       0       0       0       0
 11408 ;;      Totals:        10       0       0       0       0       0       0
 11409 ;;Total ram usage:       10 bytes
 11410 ;; Hardware stack levels used:    1
 11411 ;; This function calls:
 11412 ;;		Nothing
 11413 ;; This function is called by:
 11414 ;;		_ADC_temperatura
 11415 ;; This function uses a non-reentrant model
 11416 ;;
 11417                           
 11418                           	psect	text78
 11419  002C4A                     __ptext78:
 11420                           	opt callstack 0
 11421  002C4A                     ___fltol:
 11422                           	opt callstack 18
 11423  002C4A  3453               	rlcf	(___fltol@f1+2)^0,w,c
 11424  002C4C  3454               	rlcf	(___fltol@f1+3)^0,w,c
 11425  002C4E  6E5A               	movwf	___fltol@exp1^0,c
 11426  002C50  505A               	movf	___fltol@exp1^0,w,c
 11427  002C52  A4D8               	btfss	status,2,c
 11428  002C54  EF2E  F016         	goto	i2u495_41
 11429  002C58  EF30  F016         	goto	i2u495_40
 11430  002C5C                     i2u495_41:
 11431  002C5C  EF3A  F016         	goto	i2l4837
 11432  002C60                     i2u495_40:
 11433  002C60                     i2l4833:
 11434  002C60  0E00               	movlw	0
 11435  002C62  6E51               	movwf	?___fltol^0,c
 11436  002C64  0E00               	movlw	0
 11437  002C66  6E52               	movwf	(?___fltol+1)^0,c
 11438  002C68  0E00               	movlw	0
 11439  002C6A  6E53               	movwf	(?___fltol+2)^0,c
 11440  002C6C  0E00               	movlw	0
 11441  002C6E  6E54               	movwf	(?___fltol+3)^0,c
 11442  002C70  EFA7  F016         	goto	i2l1251
 11443  002C74                     i2l4837:
 11444  002C74  C051  F055         	movff	___fltol@f1,??___fltol
 11445  002C78  C052  F056         	movff	___fltol@f1+1,??___fltol+1
 11446  002C7C  C053  F057         	movff	___fltol@f1+2,??___fltol+2
 11447  002C80  C054  F058         	movff	___fltol@f1+3,??___fltol+3
 11448  002C84  0E20               	movlw	32
 11449  002C86  EF4A  F016         	goto	i2u496_40
 11450  002C8A                     i2u496_45:
 11451  002C8A  90D8               	bcf	status,0,c
 11452  002C8C  3258               	rrcf	(??___fltol+3)^0,f,c
 11453  002C8E  3257               	rrcf	(??___fltol+2)^0,f,c
 11454  002C90  3256               	rrcf	(??___fltol+1)^0,f,c
 11455  002C92  3255               	rrcf	??___fltol^0,f,c
 11456  002C94                     i2u496_40:
 11457  002C94  2EE8               	decfsz	wreg,f,c
 11458  002C96  EF45  F016         	goto	i2u496_45
 11459  002C9A  5055               	movf	??___fltol^0,w,c
 11460  002C9C  6E59               	movwf	___fltol@sign1^0,c
 11461  002C9E  8E53               	bsf	(___fltol@f1+2)^0,7,c
 11462  002CA0  0EFF               	movlw	255
 11463  002CA2  1651               	andwf	___fltol@f1^0,f,c
 11464  002CA4  0EFF               	movlw	255
 11465  002CA6  1652               	andwf	(___fltol@f1+1)^0,f,c
 11466  002CA8  0EFF               	movlw	255
 11467  002CAA  1653               	andwf	(___fltol@f1+2)^0,f,c
 11468  002CAC  0E00               	movlw	0
 11469  002CAE  1654               	andwf	(___fltol@f1+3)^0,f,c
 11470  002CB0  0E96               	movlw	150
 11471  002CB2  5E5A               	subwf	___fltol@exp1^0,f,c
 11472  002CB4  BE5A               	btfsc	___fltol@exp1^0,7,c
 11473  002CB6  EF61  F016         	goto	i2u497_40
 11474  002CBA  EF5F  F016         	goto	i2u497_41
 11475  002CBE                     i2u497_41:
 11476  002CBE  EF77  F016         	goto	i2l4857
 11477  002CC2                     i2u497_40:
 11478  002CC2  505A               	movf	___fltol@exp1^0,w,c
 11479  002CC4  0A80               	xorlw	128
 11480  002CC6  0F97               	addlw	151
 11481  002CC8  B0D8               	btfsc	status,0,c
 11482  002CCA  EF69  F016         	goto	i2u498_41
 11483  002CCE  EF6B  F016         	goto	i2u498_40
 11484  002CD2                     i2u498_41:
 11485  002CD2  EF6D  F016         	goto	i2l4853
 11486  002CD6                     i2u498_40:
 11487  002CD6  EF30  F016         	goto	i2l4833
 11488  002CDA                     i2l4853:
 11489  002CDA  90D8               	bcf	status,0,c
 11490  002CDC  3254               	rrcf	(___fltol@f1+3)^0,f,c
 11491  002CDE  3253               	rrcf	(___fltol@f1+2)^0,f,c
 11492  002CE0  3252               	rrcf	(___fltol@f1+1)^0,f,c
 11493  002CE2  3251               	rrcf	___fltol@f1^0,f,c
 11494  002CE4  3E5A               	incfsz	___fltol@exp1^0,f,c
 11495  002CE6  EF6D  F016         	goto	i2l4853
 11496  002CEA  EF8F  F016         	goto	i2l4867
 11497  002CEE                     i2l4857:
 11498  002CEE  0E1F               	movlw	31
 11499  002CF0  645A               	cpfsgt	___fltol@exp1^0,c
 11500  002CF2  EF7D  F016         	goto	i2u499_41
 11501  002CF6  EF7F  F016         	goto	i2u499_40
 11502  002CFA                     i2u499_41:
 11503  002CFA  EF87  F016         	goto	i2l4865
 11504  002CFE                     i2u499_40:
 11505  002CFE  EF30  F016         	goto	i2l4833
 11506  002D02                     i2l4863:
 11507  002D02  90D8               	bcf	status,0,c
 11508  002D04  3651               	rlcf	___fltol@f1^0,f,c
 11509  002D06  3652               	rlcf	(___fltol@f1+1)^0,f,c
 11510  002D08  3653               	rlcf	(___fltol@f1+2)^0,f,c
 11511  002D0A  3654               	rlcf	(___fltol@f1+3)^0,f,c
 11512  002D0C  065A               	decf	___fltol@exp1^0,f,c
 11513  002D0E                     i2l4865:
 11514  002D0E  505A               	movf	___fltol@exp1^0,w,c
 11515  002D10  A4D8               	btfss	status,2,c
 11516  002D12  EF8D  F016         	goto	i2u500_41
 11517  002D16  EF8F  F016         	goto	i2u500_40
 11518  002D1A                     i2u500_41:
 11519  002D1A  EF81  F016         	goto	i2l4863
 11520  002D1E                     i2u500_40:
 11521  002D1E                     i2l4867:
 11522  002D1E  5059               	movf	___fltol@sign1^0,w,c
 11523  002D20  B4D8               	btfsc	status,2,c
 11524  002D22  EF95  F016         	goto	i2u501_41
 11525  002D26  EF97  F016         	goto	i2u501_40
 11526  002D2A                     i2u501_41:
 11527  002D2A  EF9F  F016         	goto	i2l4871
 11528  002D2E                     i2u501_40:
 11529  002D2E  1E54               	comf	(___fltol@f1+3)^0,f,c
 11530  002D30  1E53               	comf	(___fltol@f1+2)^0,f,c
 11531  002D32  1E52               	comf	(___fltol@f1+1)^0,f,c
 11532  002D34  6C51               	negf	___fltol@f1^0,c
 11533  002D36  0E00               	movlw	0
 11534  002D38  2252               	addwfc	(___fltol@f1+1)^0,f,c
 11535  002D3A  2253               	addwfc	(___fltol@f1+2)^0,f,c
 11536  002D3C  2254               	addwfc	(___fltol@f1+3)^0,f,c
 11537  002D3E                     i2l4871:
 11538  002D3E  C051  F051         	movff	___fltol@f1,?___fltol
 11539  002D42  C052  F052         	movff	___fltol@f1+1,?___fltol+1
 11540  002D46  C053  F053         	movff	___fltol@f1+2,?___fltol+2
 11541  002D4A  C054  F054         	movff	___fltol@f1+3,?___fltol+3
 11542  002D4E                     i2l1251:
 11543  002D4E  0012               	return		;funcret
 11544  002D50                     __end_of___fltol:
 11545                           	opt callstack 0
 11546                           
 11547 ;; *************** function ___flmul *****************
 11548 ;; Defined at:
 11549 ;;		line 8 in file "C:\Program Files (x86)\Microchip\xc8\v2.10\pic\sources\c99\common\sprcmul.c"
 11550 ;; Parameters:    Size  Location     Type
 11551 ;;  b               4   39[COMRAM] long 
 11552 ;;  a               4   43[COMRAM] long 
 11553 ;; Auto vars:     Size  Location     Type
 11554 ;;  prod            4   58[COMRAM] struct .
 11555 ;;  grs             4   52[COMRAM] unsigned long 
 11556 ;;  temp            2   62[COMRAM] struct .
 11557 ;;  bexp            1   57[COMRAM] unsigned char 
 11558 ;;  aexp            1   56[COMRAM] unsigned char 
 11559 ;;  sign            1   51[COMRAM] unsigned char 
 11560 ;; Return value:  Size  Location     Type
 11561 ;;                  4   39[COMRAM] unsigned char 
 11562 ;; Registers used:
 11563 ;;		wreg, status,2, status,0, prodl, prodh
 11564 ;; Tracked objects:
 11565 ;;		On entry : 0/0
 11566 ;;		On exit  : 0/0
 11567 ;;		Unchanged: 0/0
 11568 ;; Data sizes:     COMRAM   BANK0   BANK1   BANK2   BANK3   BANK4   BANK5
 11569 ;;      Params:         8       0       0       0       0       0       0
 11570 ;;      Locals:        13       0       0       0       0       0       0
 11571 ;;      Temps:          4       0       0       0       0       0       0
 11572 ;;      Totals:        25       0       0       0       0       0       0
 11573 ;;Total ram usage:       25 bytes
 11574 ;; Hardware stack levels used:    1
 11575 ;; This function calls:
 11576 ;;		Nothing
 11577 ;; This function is called by:
 11578 ;;		_ADC_temperatura
 11579 ;; This function uses a non-reentrant model
 11580 ;;
 11581                           
 11582                           	psect	text79
 11583  00111E                     __ptext79:
 11584                           	opt callstack 0
 11585  00111E                     ___flmul:
 11586                           	opt callstack 18
 11587  00111E  502B               	movf	(___flmul@b+3)^0,w,c
 11588  001120  0B80               	andlw	128
 11589  001122  6E34               	movwf	___flmul@sign^0,c
 11590  001124  502B               	movf	(___flmul@b+3)^0,w,c
 11591  001126  242B               	addwf	(___flmul@b+3)^0,w,c
 11592  001128  6E3A               	movwf	___flmul@bexp^0,c
 11593  00112A  AE2A               	btfss	(___flmul@b+2)^0,7,c
 11594  00112C  EF9A  F008         	goto	i2u476_41
 11595  001130  EF9C  F008         	goto	i2u476_40
 11596  001134                     i2u476_41:
 11597  001134  EF9D  F008         	goto	i2l4707
 11598  001138                     i2u476_40:
 11599  001138  803A               	bsf	___flmul@bexp^0,0,c
 11600  00113A                     i2l4707:
 11601  00113A  503A               	movf	___flmul@bexp^0,w,c
 11602  00113C  B4D8               	btfsc	status,2,c
 11603  00113E  EFA3  F008         	goto	i2u477_41
 11604  001142  EFA5  F008         	goto	i2u477_40
 11605  001146                     i2u477_41:
 11606  001146  EFB8  F008         	goto	i2l4715
 11607  00114A                     i2u477_40:
 11608  00114A  283A               	incf	___flmul@bexp^0,w,c
 11609  00114C  A4D8               	btfss	status,2,c
 11610  00114E  EFAB  F008         	goto	i2u478_41
 11611  001152  EFAD  F008         	goto	i2u478_40
 11612  001156                     i2u478_41:
 11613  001156  EFB5  F008         	goto	i2l4713
 11614  00115A                     i2u478_40:
 11615  00115A  0E00               	movlw	0
 11616  00115C  6E28               	movwf	___flmul@b^0,c
 11617  00115E  0E00               	movlw	0
 11618  001160  6E29               	movwf	(___flmul@b+1)^0,c
 11619  001162  0E00               	movlw	0
 11620  001164  6E2A               	movwf	(___flmul@b+2)^0,c
 11621  001166  0E00               	movlw	0
 11622  001168  6E2B               	movwf	(___flmul@b+3)^0,c
 11623  00116A                     i2l4713:
 11624  00116A  8E2A               	bsf	(___flmul@b+2)^0,7,c
 11625  00116C  EFC0  F008         	goto	i2l4717
 11626  001170                     i2l4715:
 11627  001170  0E00               	movlw	0
 11628  001172  6E28               	movwf	___flmul@b^0,c
 11629  001174  0E00               	movlw	0
 11630  001176  6E29               	movwf	(___flmul@b+1)^0,c
 11631  001178  0E00               	movlw	0
 11632  00117A  6E2A               	movwf	(___flmul@b+2)^0,c
 11633  00117C  0E00               	movlw	0
 11634  00117E  6E2B               	movwf	(___flmul@b+3)^0,c
 11635  001180                     i2l4717:
 11636  001180  502F               	movf	(___flmul@a+3)^0,w,c
 11637  001182  0B80               	andlw	128
 11638  001184  1A34               	xorwf	___flmul@sign^0,f,c
 11639  001186  502F               	movf	(___flmul@a+3)^0,w,c
 11640  001188  242F               	addwf	(___flmul@a+3)^0,w,c
 11641  00118A  6E39               	movwf	___flmul@aexp^0,c
 11642  00118C  AE2E               	btfss	(___flmul@a+2)^0,7,c
 11643  00118E  EFCB  F008         	goto	i2u479_41
 11644  001192  EFCD  F008         	goto	i2u479_40
 11645  001196                     i2u479_41:
 11646  001196  EFCE  F008         	goto	i2l4725
 11647  00119A                     i2u479_40:
 11648  00119A  8039               	bsf	___flmul@aexp^0,0,c
 11649  00119C                     i2l4725:
 11650  00119C  5039               	movf	___flmul@aexp^0,w,c
 11651  00119E  B4D8               	btfsc	status,2,c
 11652  0011A0  EFD4  F008         	goto	i2u480_41
 11653  0011A4  EFD6  F008         	goto	i2u480_40
 11654  0011A8                     i2u480_41:
 11655  0011A8  EFE9  F008         	goto	i2l4733
 11656  0011AC                     i2u480_40:
 11657  0011AC  2839               	incf	___flmul@aexp^0,w,c
 11658  0011AE  A4D8               	btfss	status,2,c
 11659  0011B0  EFDC  F008         	goto	i2u481_41
 11660  0011B4  EFDE  F008         	goto	i2u481_40
 11661  0011B8                     i2u481_41:
 11662  0011B8  EFE6  F008         	goto	i2l4731
 11663  0011BC                     i2u481_40:
 11664  0011BC  0E00               	movlw	0
 11665  0011BE  6E2C               	movwf	___flmul@a^0,c
 11666  0011C0  0E00               	movlw	0
 11667  0011C2  6E2D               	movwf	(___flmul@a+1)^0,c
 11668  0011C4  0E00               	movlw	0
 11669  0011C6  6E2E               	movwf	(___flmul@a+2)^0,c
 11670  0011C8  0E00               	movlw	0
 11671  0011CA  6E2F               	movwf	(___flmul@a+3)^0,c
 11672  0011CC                     i2l4731:
 11673  0011CC  8E2E               	bsf	(___flmul@a+2)^0,7,c
 11674  0011CE  EFF1  F008         	goto	i2l1568
 11675  0011D2                     i2l4733:
 11676  0011D2  0E00               	movlw	0
 11677  0011D4  6E2C               	movwf	___flmul@a^0,c
 11678  0011D6  0E00               	movlw	0
 11679  0011D8  6E2D               	movwf	(___flmul@a+1)^0,c
 11680  0011DA  0E00               	movlw	0
 11681  0011DC  6E2E               	movwf	(___flmul@a+2)^0,c
 11682  0011DE  0E00               	movlw	0
 11683  0011E0  6E2F               	movwf	(___flmul@a+3)^0,c
 11684  0011E2                     i2l1568:
 11685  0011E2  5039               	movf	___flmul@aexp^0,w,c
 11686  0011E4  B4D8               	btfsc	status,2,c
 11687  0011E6  EFF7  F008         	goto	i2u482_41
 11688  0011EA  EFF9  F008         	goto	i2u482_40
 11689  0011EE                     i2u482_41:
 11690  0011EE  EF01  F009         	goto	i2l4737
 11691  0011F2                     i2u482_40:
 11692  0011F2  503A               	movf	___flmul@bexp^0,w,c
 11693  0011F4  A4D8               	btfss	status,2,c
 11694  0011F6  EFFF  F008         	goto	i2u483_41
 11695  0011FA  EF01  F009         	goto	i2u483_40
 11696  0011FE                     i2u483_41:
 11697  0011FE  EF0B  F009         	goto	i2l4741
 11698  001202                     i2u483_40:
 11699  001202                     i2l4737:
 11700  001202  0E00               	movlw	0
 11701  001204  6E28               	movwf	?___flmul^0,c
 11702  001206  0E00               	movlw	0
 11703  001208  6E29               	movwf	(?___flmul+1)^0,c
 11704  00120A  0E00               	movlw	0
 11705  00120C  6E2A               	movwf	(?___flmul+2)^0,c
 11706  00120E  0E00               	movlw	0
 11707  001210  6E2B               	movwf	(?___flmul+3)^0,c
 11708  001212  EFA3  F00A         	goto	i2l1572
 11709  001216                     i2l4741:
 11710  001216  502E               	movf	(___flmul@a+2)^0,w,c
 11711  001218  0228               	mulwf	___flmul@b^0,c
 11712  00121A  CFF3 F03F          	movff	prodl,___flmul@temp
 11713  00121E  CFF4 F040          	movff	prodh,___flmul@temp+1
 11714  001222  503F               	movf	___flmul@temp^0,w,c
 11715  001224  6E35               	movwf	___flmul@grs^0,c
 11716  001226  6A36               	clrf	(___flmul@grs+1)^0,c
 11717  001228  6A37               	clrf	(___flmul@grs+2)^0,c
 11718  00122A  6A38               	clrf	(___flmul@grs+3)^0,c
 11719  00122C  5040               	movf	(___flmul@temp+1)^0,w,c
 11720  00122E  6E3B               	movwf	___flmul@prod^0,c
 11721  001230  6A3C               	clrf	(___flmul@prod+1)^0,c
 11722  001232  6A3D               	clrf	(___flmul@prod+2)^0,c
 11723  001234  6A3E               	clrf	(___flmul@prod+3)^0,c
 11724  001236  502D               	movf	(___flmul@a+1)^0,w,c
 11725  001238  0229               	mulwf	(___flmul@b+1)^0,c
 11726  00123A  CFF3 F03F          	movff	prodl,___flmul@temp
 11727  00123E  CFF4 F040          	movff	prodh,___flmul@temp+1
 11728  001242  503F               	movf	___flmul@temp^0,w,c
 11729  001244  2635               	addwf	___flmul@grs^0,f,c
 11730  001246  0E00               	movlw	0
 11731  001248  2236               	addwfc	(___flmul@grs+1)^0,f,c
 11732  00124A  2237               	addwfc	(___flmul@grs+2)^0,f,c
 11733  00124C  2238               	addwfc	(___flmul@grs+3)^0,f,c
 11734  00124E  5040               	movf	(___flmul@temp+1)^0,w,c
 11735  001250  263B               	addwf	___flmul@prod^0,f,c
 11736  001252  0E00               	movlw	0
 11737  001254  223C               	addwfc	(___flmul@prod+1)^0,f,c
 11738  001256  223D               	addwfc	(___flmul@prod+2)^0,f,c
 11739  001258  223E               	addwfc	(___flmul@prod+3)^0,f,c
 11740  00125A  502C               	movf	___flmul@a^0,w,c
 11741  00125C  022A               	mulwf	(___flmul@b+2)^0,c
 11742  00125E  CFF3 F03F          	movff	prodl,___flmul@temp
 11743  001262  CFF4 F040          	movff	prodh,___flmul@temp+1
 11744  001266  503F               	movf	___flmul@temp^0,w,c
 11745  001268  2635               	addwf	___flmul@grs^0,f,c
 11746  00126A  0E00               	movlw	0
 11747  00126C  2236               	addwfc	(___flmul@grs+1)^0,f,c
 11748  00126E  2237               	addwfc	(___flmul@grs+2)^0,f,c
 11749  001270  2238               	addwfc	(___flmul@grs+3)^0,f,c
 11750  001272  5040               	movf	(___flmul@temp+1)^0,w,c
 11751  001274  263B               	addwf	___flmul@prod^0,f,c
 11752  001276  0E00               	movlw	0
 11753  001278  223C               	addwfc	(___flmul@prod+1)^0,f,c
 11754  00127A  223D               	addwfc	(___flmul@prod+2)^0,f,c
 11755  00127C  223E               	addwfc	(___flmul@prod+3)^0,f,c
 11756  00127E  C037  F038         	movff	___flmul@grs+2,___flmul@grs+3
 11757  001282  C036  F037         	movff	___flmul@grs+1,___flmul@grs+2
 11758  001286  C035  F036         	movff	___flmul@grs,___flmul@grs+1
 11759  00128A  6A35               	clrf	___flmul@grs^0,c
 11760  00128C  502C               	movf	___flmul@a^0,w,c
 11761  00128E  0229               	mulwf	(___flmul@b+1)^0,c
 11762  001290  CFF3 F03F          	movff	prodl,___flmul@temp
 11763  001294  CFF4 F040          	movff	prodh,___flmul@temp+1
 11764  001298  503F               	movf	___flmul@temp^0,w,c
 11765  00129A  2635               	addwf	___flmul@grs^0,f,c
 11766  00129C  5040               	movf	(___flmul@temp+1)^0,w,c
 11767  00129E  2236               	addwfc	(___flmul@grs+1)^0,f,c
 11768  0012A0  0E00               	movlw	0
 11769  0012A2  2237               	addwfc	(___flmul@grs+2)^0,f,c
 11770  0012A4  0E00               	movlw	0
 11771  0012A6  2238               	addwfc	(___flmul@grs+3)^0,f,c
 11772  0012A8  502D               	movf	(___flmul@a+1)^0,w,c
 11773  0012AA  0228               	mulwf	___flmul@b^0,c
 11774  0012AC  CFF3 F03F          	movff	prodl,___flmul@temp
 11775  0012B0  CFF4 F040          	movff	prodh,___flmul@temp+1
 11776  0012B4  503F               	movf	___flmul@temp^0,w,c
 11777  0012B6  2635               	addwf	___flmul@grs^0,f,c
 11778  0012B8  5040               	movf	(___flmul@temp+1)^0,w,c
 11779  0012BA  2236               	addwfc	(___flmul@grs+1)^0,f,c
 11780  0012BC  0E00               	movlw	0
 11781  0012BE  2237               	addwfc	(___flmul@grs+2)^0,f,c
 11782  0012C0  0E00               	movlw	0
 11783  0012C2  2238               	addwfc	(___flmul@grs+3)^0,f,c
 11784  0012C4  C037  F038         	movff	___flmul@grs+2,___flmul@grs+3
 11785  0012C8  C036  F037         	movff	___flmul@grs+1,___flmul@grs+2
 11786  0012CC  C035  F036         	movff	___flmul@grs,___flmul@grs+1
 11787  0012D0  6A35               	clrf	___flmul@grs^0,c
 11788  0012D2  502C               	movf	___flmul@a^0,w,c
 11789  0012D4  0228               	mulwf	___flmul@b^0,c
 11790  0012D6  CFF3 F03F          	movff	prodl,___flmul@temp
 11791  0012DA  CFF4 F040          	movff	prodh,___flmul@temp+1
 11792  0012DE  503F               	movf	___flmul@temp^0,w,c
 11793  0012E0  2635               	addwf	___flmul@grs^0,f,c
 11794  0012E2  5040               	movf	(___flmul@temp+1)^0,w,c
 11795  0012E4  2236               	addwfc	(___flmul@grs+1)^0,f,c
 11796  0012E6  0E00               	movlw	0
 11797  0012E8  2237               	addwfc	(___flmul@grs+2)^0,f,c
 11798  0012EA  0E00               	movlw	0
 11799  0012EC  2238               	addwfc	(___flmul@grs+3)^0,f,c
 11800  0012EE  502E               	movf	(___flmul@a+2)^0,w,c
 11801  0012F0  0229               	mulwf	(___flmul@b+1)^0,c
 11802  0012F2  CFF3 F03F          	movff	prodl,___flmul@temp
 11803  0012F6  CFF4 F040          	movff	prodh,___flmul@temp+1
 11804  0012FA  503F               	movf	___flmul@temp^0,w,c
 11805  0012FC  263B               	addwf	___flmul@prod^0,f,c
 11806  0012FE  5040               	movf	(___flmul@temp+1)^0,w,c
 11807  001300  223C               	addwfc	(___flmul@prod+1)^0,f,c
 11808  001302  0E00               	movlw	0
 11809  001304  223D               	addwfc	(___flmul@prod+2)^0,f,c
 11810  001306  0E00               	movlw	0
 11811  001308  223E               	addwfc	(___flmul@prod+3)^0,f,c
 11812  00130A  502D               	movf	(___flmul@a+1)^0,w,c
 11813  00130C  022A               	mulwf	(___flmul@b+2)^0,c
 11814  00130E  CFF3 F03F          	movff	prodl,___flmul@temp
 11815  001312  CFF4 F040          	movff	prodh,___flmul@temp+1
 11816  001316  503F               	movf	___flmul@temp^0,w,c
 11817  001318  263B               	addwf	___flmul@prod^0,f,c
 11818  00131A  5040               	movf	(___flmul@temp+1)^0,w,c
 11819  00131C  223C               	addwfc	(___flmul@prod+1)^0,f,c
 11820  00131E  0E00               	movlw	0
 11821  001320  223D               	addwfc	(___flmul@prod+2)^0,f,c
 11822  001322  0E00               	movlw	0
 11823  001324  223E               	addwfc	(___flmul@prod+3)^0,f,c
 11824  001326  502E               	movf	(___flmul@a+2)^0,w,c
 11825  001328  022A               	mulwf	(___flmul@b+2)^0,c
 11826  00132A  CFF3 F03F          	movff	prodl,___flmul@temp
 11827  00132E  CFF4 F040          	movff	prodh,___flmul@temp+1
 11828  001332  503F               	movf	___flmul@temp^0,w,c
 11829  001334  6E30               	movwf	??___flmul^0,c
 11830  001336  5040               	movf	(___flmul@temp+1)^0,w,c
 11831  001338  6E31               	movwf	(??___flmul+1)^0,c
 11832  00133A  6A32               	clrf	(??___flmul+2)^0,c
 11833  00133C  6A33               	clrf	(??___flmul+3)^0,c
 11834  00133E  C032  F033         	movff	??___flmul+2,??___flmul+3
 11835  001342  C031  F032         	movff	??___flmul+1,??___flmul+2
 11836  001346  C030  F031         	movff	??___flmul,??___flmul+1
 11837  00134A  6A30               	clrf	??___flmul^0,c
 11838  00134C  5030               	movf	??___flmul^0,w,c
 11839  00134E  263B               	addwf	___flmul@prod^0,f,c
 11840  001350  5031               	movf	(??___flmul+1)^0,w,c
 11841  001352  223C               	addwfc	(___flmul@prod+1)^0,f,c
 11842  001354  5032               	movf	(??___flmul+2)^0,w,c
 11843  001356  223D               	addwfc	(___flmul@prod+2)^0,f,c
 11844  001358  5033               	movf	(??___flmul+3)^0,w,c
 11845  00135A  223E               	addwfc	(___flmul@prod+3)^0,f,c
 11846  00135C  C035  F030         	movff	___flmul@grs,??___flmul
 11847  001360  C036  F031         	movff	___flmul@grs+1,??___flmul+1
 11848  001364  C037  F032         	movff	___flmul@grs+2,??___flmul+2
 11849  001368  C038  F033         	movff	___flmul@grs+3,??___flmul+3
 11850  00136C  0E19               	movlw	25
 11851  00136E  EFBE  F009         	goto	i2u484_40
 11852  001372                     i2u484_45:
 11853  001372  90D8               	bcf	status,0,c
 11854  001374  3233               	rrcf	(??___flmul+3)^0,f,c
 11855  001376  3232               	rrcf	(??___flmul+2)^0,f,c
 11856  001378  3231               	rrcf	(??___flmul+1)^0,f,c
 11857  00137A  3230               	rrcf	??___flmul^0,f,c
 11858  00137C                     i2u484_40:
 11859  00137C  2EE8               	decfsz	wreg,f,c
 11860  00137E  EFB9  F009         	goto	i2u484_45
 11861  001382  5030               	movf	??___flmul^0,w,c
 11862  001384  263B               	addwf	___flmul@prod^0,f,c
 11863  001386  5031               	movf	(??___flmul+1)^0,w,c
 11864  001388  223C               	addwfc	(___flmul@prod+1)^0,f,c
 11865  00138A  5032               	movf	(??___flmul+2)^0,w,c
 11866  00138C  223D               	addwfc	(___flmul@prod+2)^0,f,c
 11867  00138E  5033               	movf	(??___flmul+3)^0,w,c
 11868  001390  223E               	addwfc	(___flmul@prod+3)^0,f,c
 11869  001392  C037  F038         	movff	___flmul@grs+2,___flmul@grs+3
 11870  001396  C036  F037         	movff	___flmul@grs+1,___flmul@grs+2
 11871  00139A  C035  F036         	movff	___flmul@grs,___flmul@grs+1
 11872  00139E  6A35               	clrf	___flmul@grs^0,c
 11873  0013A0  5039               	movf	___flmul@aexp^0,w,c
 11874  0013A2  C03A  F030         	movff	___flmul@bexp,??___flmul
 11875  0013A6  6A31               	clrf	(??___flmul+1)^0,c
 11876  0013A8  2630               	addwf	??___flmul^0,f,c
 11877  0013AA  0E00               	movlw	0
 11878  0013AC  2231               	addwfc	(??___flmul+1)^0,f,c
 11879  0013AE  0E82               	movlw	130
 11880  0013B0  2430               	addwf	??___flmul^0,w,c
 11881  0013B2  6E3F               	movwf	___flmul@temp^0,c
 11882  0013B4  0EFF               	movlw	255
 11883  0013B6  2031               	addwfc	(??___flmul+1)^0,w,c
 11884  0013B8  6E40               	movwf	(___flmul@temp+1)^0,c
 11885  0013BA  EFF4  F009         	goto	i2l4789
 11886  0013BE                     i2l4783:
 11887  0013BE  90D8               	bcf	status,0,c
 11888  0013C0  363B               	rlcf	___flmul@prod^0,f,c
 11889  0013C2  363C               	rlcf	(___flmul@prod+1)^0,f,c
 11890  0013C4  363D               	rlcf	(___flmul@prod+2)^0,f,c
 11891  0013C6  363E               	rlcf	(___flmul@prod+3)^0,f,c
 11892  0013C8  AE38               	btfss	(___flmul@grs+3)^0,7,c
 11893  0013CA  EFE9  F009         	goto	i2u485_41
 11894  0013CE  EFEB  F009         	goto	i2u485_40
 11895  0013D2                     i2u485_41:
 11896  0013D2  EFEC  F009         	goto	i2l1575
 11897  0013D6                     i2u485_40:
 11898  0013D6  803B               	bsf	___flmul@prod^0,0,c
 11899  0013D8                     i2l1575:
 11900  0013D8  90D8               	bcf	status,0,c
 11901  0013DA  3635               	rlcf	___flmul@grs^0,f,c
 11902  0013DC  3636               	rlcf	(___flmul@grs+1)^0,f,c
 11903  0013DE  3637               	rlcf	(___flmul@grs+2)^0,f,c
 11904  0013E0  3638               	rlcf	(___flmul@grs+3)^0,f,c
 11905  0013E2  063F               	decf	___flmul@temp^0,f,c
 11906  0013E4  A0D8               	btfss	status,0,c
 11907  0013E6  0640               	decf	(___flmul@temp+1)^0,f,c
 11908  0013E8                     i2l4789:
 11909  0013E8  AE3D               	btfss	(___flmul@prod+2)^0,7,c
 11910  0013EA  EFF9  F009         	goto	i2u486_41
 11911  0013EE  EFFB  F009         	goto	i2u486_40
 11912  0013F2                     i2u486_41:
 11913  0013F2  EFDF  F009         	goto	i2l4783
 11914  0013F6                     i2u486_40:
 11915  0013F6  0E00               	movlw	0
 11916  0013F8  6E39               	movwf	___flmul@aexp^0,c
 11917  0013FA  AE38               	btfss	(___flmul@grs+3)^0,7,c
 11918  0013FC  EF02  F00A         	goto	i2u487_41
 11919  001400  EF04  F00A         	goto	i2u487_40
 11920  001404                     i2u487_41:
 11921  001404  EF28  F00A         	goto	i2l1577
 11922  001408                     i2u487_40:
 11923  001408  0EFF               	movlw	255
 11924  00140A  1435               	andwf	___flmul@grs^0,w,c
 11925  00140C  6E30               	movwf	??___flmul^0,c
 11926  00140E  0EFF               	movlw	255
 11927  001410  1436               	andwf	(___flmul@grs+1)^0,w,c
 11928  001412  6E31               	movwf	(??___flmul+1)^0,c
 11929  001414  0EFF               	movlw	255
 11930  001416  1437               	andwf	(___flmul@grs+2)^0,w,c
 11931  001418  6E32               	movwf	(??___flmul+2)^0,c
 11932  00141A  0E7F               	movlw	127
 11933  00141C  1438               	andwf	(___flmul@grs+3)^0,w,c
 11934  00141E  6E33               	movwf	(??___flmul+3)^0,c
 11935  001420  5030               	movf	??___flmul^0,w,c
 11936  001422  1031               	iorwf	(??___flmul+1)^0,w,c
 11937  001424  1032               	iorwf	(??___flmul+2)^0,w,c
 11938  001426  1033               	iorwf	(??___flmul+3)^0,w,c
 11939  001428  B4D8               	btfsc	status,2,c
 11940  00142A  EF19  F00A         	goto	i2u488_41
 11941  00142E  EF1B  F00A         	goto	i2u488_40
 11942  001432                     i2u488_41:
 11943  001432  EF1F  F00A         	goto	i2l1578
 11944  001436                     i2u488_40:
 11945  001436                     i2l4797:
 11946  001436  0E01               	movlw	1
 11947  001438  6E39               	movwf	___flmul@aexp^0,c
 11948  00143A  EF28  F00A         	goto	i2l1577
 11949  00143E                     i2l1578:
 11950  00143E  A03B               	btfss	___flmul@prod^0,0,c
 11951  001440  EF24  F00A         	goto	i2u489_41
 11952  001444  EF26  F00A         	goto	i2u489_40
 11953  001448                     i2u489_41:
 11954  001448  EF28  F00A         	goto	i2l1577
 11955  00144C                     i2u489_40:
 11956  00144C  EF1B  F00A         	goto	i2l4797
 11957  001450                     i2l1577:
 11958  001450  5039               	movf	___flmul@aexp^0,w,c
 11959  001452  B4D8               	btfsc	status,2,c
 11960  001454  EF2E  F00A         	goto	i2u490_41
 11961  001458  EF30  F00A         	goto	i2u490_40
 11962  00145C                     i2u490_41:
 11963  00145C  EF54  F00A         	goto	i2l4809
 11964  001460                     i2u490_40:
 11965  001460  0E01               	movlw	1
 11966  001462  263B               	addwf	___flmul@prod^0,f,c
 11967  001464  0E00               	movlw	0
 11968  001466  223C               	addwfc	(___flmul@prod+1)^0,f,c
 11969  001468  223D               	addwfc	(___flmul@prod+2)^0,f,c
 11970  00146A  223E               	addwfc	(___flmul@prod+3)^0,f,c
 11971  00146C  A03E               	btfss	(___flmul@prod+3)^0,0,c
 11972  00146E  EF3B  F00A         	goto	i2u491_41
 11973  001472  EF3D  F00A         	goto	i2u491_40
 11974  001476                     i2u491_41:
 11975  001476  EF54  F00A         	goto	i2l4809
 11976  00147A                     i2u491_40:
 11977  00147A  C03B  F030         	movff	___flmul@prod,??___flmul
 11978  00147E  C03C  F031         	movff	___flmul@prod+1,??___flmul+1
 11979  001482  C03D  F032         	movff	___flmul@prod+2,??___flmul+2
 11980  001486  C03E  F033         	movff	___flmul@prod+3,??___flmul+3
 11981  00148A  3433               	rlcf	(??___flmul+3)^0,w,c
 11982  00148C  3233               	rrcf	(??___flmul+3)^0,f,c
 11983  00148E  3232               	rrcf	(??___flmul+2)^0,f,c
 11984  001490  3231               	rrcf	(??___flmul+1)^0,f,c
 11985  001492  3230               	rrcf	??___flmul^0,f,c
 11986  001494  C030  F03B         	movff	??___flmul,___flmul@prod
 11987  001498  C031  F03C         	movff	??___flmul+1,___flmul@prod+1
 11988  00149C  C032  F03D         	movff	??___flmul+2,___flmul@prod+2
 11989  0014A0  C033  F03E         	movff	??___flmul+3,___flmul@prod+3
 11990  0014A4  4A3F               	infsnz	___flmul@temp^0,f,c
 11991  0014A6  2A40               	incf	(___flmul@temp+1)^0,f,c
 11992  0014A8                     i2l4809:
 11993  0014A8  BE40               	btfsc	(___flmul@temp+1)^0,7,c
 11994  0014AA  EF5F  F00A         	goto	i2u492_41
 11995  0014AE  5040               	movf	(___flmul@temp+1)^0,w,c
 11996  0014B0  E108               	bnz	i2u492_40
 11997  0014B2  283F               	incf	___flmul@temp^0,w,c
 11998  0014B4  A0D8               	btfss	status,0,c
 11999  0014B6  EF5F  F00A         	goto	i2u492_41
 12000  0014BA  EF61  F00A         	goto	i2u492_40
 12001  0014BE                     i2u492_41:
 12002  0014BE  EF6B  F00A         	goto	i2l4813
 12003  0014C2                     i2u492_40:
 12004  0014C2  0E00               	movlw	0
 12005  0014C4  6E3B               	movwf	___flmul@prod^0,c
 12006  0014C6  0E00               	movlw	0
 12007  0014C8  6E3C               	movwf	(___flmul@prod+1)^0,c
 12008  0014CA  0E80               	movlw	128
 12009  0014CC  6E3D               	movwf	(___flmul@prod+2)^0,c
 12010  0014CE  0E7F               	movlw	127
 12011  0014D0  6E3E               	movwf	(___flmul@prod+3)^0,c
 12012  0014D2  EF99  F00A         	goto	i2l4825
 12013  0014D6                     i2l4813:
 12014  0014D6  BE40               	btfsc	(___flmul@temp+1)^0,7,c
 12015  0014D8  EF78  F00A         	goto	i2u493_40
 12016  0014DC  5040               	movf	(___flmul@temp+1)^0,w,c
 12017  0014DE  E106               	bnz	i2u493_41
 12018  0014E0  043F               	decf	___flmul@temp^0,w,c
 12019  0014E2  B0D8               	btfsc	status,0,c
 12020  0014E4  EF76  F00A         	goto	i2u493_41
 12021  0014E8  EF78  F00A         	goto	i2u493_40
 12022  0014EC                     i2u493_41:
 12023  0014EC  EF84  F00A         	goto	i2l1585
 12024  0014F0                     i2u493_40:
 12025  0014F0  0E00               	movlw	0
 12026  0014F2  6E3B               	movwf	___flmul@prod^0,c
 12027  0014F4  0E00               	movlw	0
 12028  0014F6  6E3C               	movwf	(___flmul@prod+1)^0,c
 12029  0014F8  0E00               	movlw	0
 12030  0014FA  6E3D               	movwf	(___flmul@prod+2)^0,c
 12031  0014FC  0E00               	movlw	0
 12032  0014FE  6E3E               	movwf	(___flmul@prod+3)^0,c
 12033  001500  0E00               	movlw	0
 12034  001502  6E34               	movwf	___flmul@sign^0,c
 12035  001504  EF99  F00A         	goto	i2l4825
 12036  001508                     i2l1585:
 12037  001508  C03F  F03A         	movff	___flmul@temp,___flmul@bexp
 12038  00150C  0EFF               	movlw	255
 12039  00150E  163B               	andwf	___flmul@prod^0,f,c
 12040  001510  0EFF               	movlw	255
 12041  001512  163C               	andwf	(___flmul@prod+1)^0,f,c
 12042  001514  0E7F               	movlw	127
 12043  001516  163D               	andwf	(___flmul@prod+2)^0,f,c
 12044  001518  0E00               	movlw	0
 12045  00151A  163E               	andwf	(___flmul@prod+3)^0,f,c
 12046  00151C  A03A               	btfss	___flmul@bexp^0,0,c
 12047  00151E  EF93  F00A         	goto	i2u494_41
 12048  001522  EF95  F00A         	goto	i2u494_40
 12049  001526                     i2u494_41:
 12050  001526  EF96  F00A         	goto	i2l4823
 12051  00152A                     i2u494_40:
 12052  00152A  8E3D               	bsf	(___flmul@prod+2)^0,7,c
 12053  00152C                     i2l4823:
 12054  00152C  90D8               	bcf	status,0,c
 12055  00152E  303A               	rrcf	___flmul@bexp^0,w,c
 12056  001530  6E3E               	movwf	(___flmul@prod+3)^0,c
 12057  001532                     i2l4825:
 12058  001532  5034               	movf	___flmul@sign^0,w,c
 12059  001534  123E               	iorwf	(___flmul@prod+3)^0,f,c
 12060  001536  C03B  F028         	movff	___flmul@prod,?___flmul
 12061  00153A  C03C  F029         	movff	___flmul@prod+1,?___flmul+1
 12062  00153E  C03D  F02A         	movff	___flmul@prod+2,?___flmul+2
 12063  001542  C03E  F02B         	movff	___flmul@prod+3,?___flmul+3
 12064  001546                     i2l1572:
 12065  001546  0012               	return		;funcret
 12066  001548                     __end_of___flmul:
 12067                           	opt callstack 0
 12068                           
 12069 ;; *************** function ___fldiv *****************
 12070 ;; Defined at:
 12071 ;;		line 11 in file "C:\Program Files (x86)\Microchip\xc8\v2.10\pic\sources\c99\common\sprcdiv.c"
 12072 ;; Parameters:    Size  Location     Type
 12073 ;;  b               4   14[COMRAM] unsigned char 
 12074 ;;  a               4   18[COMRAM] unsigned char 
 12075 ;; Auto vars:     Size  Location     Type
 12076 ;;  grs             4   33[COMRAM] unsigned long 
 12077 ;;  rem             4   26[COMRAM] unsigned long 
 12078 ;;  new_exp         2   31[COMRAM] short 
 12079 ;;  aexp            1   38[COMRAM] unsigned char 
 12080 ;;  bexp            1   37[COMRAM] unsigned char 
 12081 ;;  sign            1   30[COMRAM] unsigned char 
 12082 ;; Return value:  Size  Location     Type
 12083 ;;                  4   14[COMRAM] unsigned char 
 12084 ;; Registers used:
 12085 ;;		wreg, status,2, status,0
 12086 ;; Tracked objects:
 12087 ;;		On entry : 0/0
 12088 ;;		On exit  : 0/0
 12089 ;;		Unchanged: 0/0
 12090 ;; Data sizes:     COMRAM   BANK0   BANK1   BANK2   BANK3   BANK4   BANK5
 12091 ;;      Params:         8       0       0       0       0       0       0
 12092 ;;      Locals:        13       0       0       0       0       0       0
 12093 ;;      Temps:          4       0       0       0       0       0       0
 12094 ;;      Totals:        25       0       0       0       0       0       0
 12095 ;;Total ram usage:       25 bytes
 12096 ;; Hardware stack levels used:    1
 12097 ;; This function calls:
 12098 ;;		Nothing
 12099 ;; This function is called by:
 12100 ;;		_ADC_temperatura
 12101 ;; This function uses a non-reentrant model
 12102 ;;
 12103                           
 12104                           	psect	text80
 12105  001548                     __ptext80:
 12106                           	opt callstack 0
 12107  001548                     ___fldiv:
 12108                           	opt callstack 18
 12109  001548  5012               	movf	(___fldiv@b+3)^0,w,c
 12110  00154A  0B80               	andlw	128
 12111  00154C  6E1F               	movwf	___fldiv@sign^0,c
 12112  00154E  5012               	movf	(___fldiv@b+3)^0,w,c
 12113  001550  2412               	addwf	(___fldiv@b+3)^0,w,c
 12114  001552  6E26               	movwf	___fldiv@bexp^0,c
 12115  001554  AE11               	btfss	(___fldiv@b+2)^0,7,c
 12116  001556  EFAF  F00A         	goto	i2u453_41
 12117  00155A  EFB1  F00A         	goto	i2u453_40
 12118  00155E                     i2u453_41:
 12119  00155E  EFB2  F00A         	goto	i2l4569
 12120  001562                     i2u453_40:
 12121  001562  8026               	bsf	___fldiv@bexp^0,0,c
 12122  001564                     i2l4569:
 12123  001564  5026               	movf	___fldiv@bexp^0,w,c
 12124  001566  B4D8               	btfsc	status,2,c
 12125  001568  EFB8  F00A         	goto	i2u454_41
 12126  00156C  EFBA  F00A         	goto	i2u454_40
 12127  001570                     i2u454_41:
 12128  001570  EFCF  F00A         	goto	i2l4579
 12129  001574                     i2u454_40:
 12130  001574  2826               	incf	___fldiv@bexp^0,w,c
 12131  001576  A4D8               	btfss	status,2,c
 12132  001578  EFC0  F00A         	goto	i2u455_41
 12133  00157C  EFC2  F00A         	goto	i2u455_40
 12134  001580                     i2u455_41:
 12135  001580  EFCA  F00A         	goto	i2l4575
 12136  001584                     i2u455_40:
 12137  001584  0E00               	movlw	0
 12138  001586  6E0F               	movwf	___fldiv@b^0,c
 12139  001588  0E00               	movlw	0
 12140  00158A  6E10               	movwf	(___fldiv@b+1)^0,c
 12141  00158C  0E00               	movlw	0
 12142  00158E  6E11               	movwf	(___fldiv@b+2)^0,c
 12143  001590  0E00               	movlw	0
 12144  001592  6E12               	movwf	(___fldiv@b+3)^0,c
 12145  001594                     i2l4575:
 12146  001594  8E11               	bsf	(___fldiv@b+2)^0,7,c
 12147  001596  0E00               	movlw	0
 12148  001598  6E12               	movwf	(___fldiv@b+3)^0,c
 12149  00159A  EFD7  F00A         	goto	i2l4581
 12150  00159E                     i2l4579:
 12151  00159E  0E00               	movlw	0
 12152  0015A0  6E0F               	movwf	___fldiv@b^0,c
 12153  0015A2  0E00               	movlw	0
 12154  0015A4  6E10               	movwf	(___fldiv@b+1)^0,c
 12155  0015A6  0E00               	movlw	0
 12156  0015A8  6E11               	movwf	(___fldiv@b+2)^0,c
 12157  0015AA  0E00               	movlw	0
 12158  0015AC  6E12               	movwf	(___fldiv@b+3)^0,c
 12159  0015AE                     i2l4581:
 12160  0015AE  5016               	movf	(___fldiv@a+3)^0,w,c
 12161  0015B0  0B80               	andlw	128
 12162  0015B2  1A1F               	xorwf	___fldiv@sign^0,f,c
 12163  0015B4  5016               	movf	(___fldiv@a+3)^0,w,c
 12164  0015B6  2416               	addwf	(___fldiv@a+3)^0,w,c
 12165  0015B8  6E27               	movwf	___fldiv@aexp^0,c
 12166  0015BA  AE15               	btfss	(___fldiv@a+2)^0,7,c
 12167  0015BC  EFE2  F00A         	goto	i2u456_41
 12168  0015C0  EFE4  F00A         	goto	i2u456_40
 12169  0015C4                     i2u456_41:
 12170  0015C4  EFE5  F00A         	goto	i2l4589
 12171  0015C8                     i2u456_40:
 12172  0015C8  8027               	bsf	___fldiv@aexp^0,0,c
 12173  0015CA                     i2l4589:
 12174  0015CA  5027               	movf	___fldiv@aexp^0,w,c
 12175  0015CC  B4D8               	btfsc	status,2,c
 12176  0015CE  EFEB  F00A         	goto	i2u457_41
 12177  0015D2  EFED  F00A         	goto	i2u457_40
 12178  0015D6                     i2u457_41:
 12179  0015D6  EF02  F00B         	goto	i2l4599
 12180  0015DA                     i2u457_40:
 12181  0015DA  2827               	incf	___fldiv@aexp^0,w,c
 12182  0015DC  A4D8               	btfss	status,2,c
 12183  0015DE  EFF3  F00A         	goto	i2u458_41
 12184  0015E2  EFF5  F00A         	goto	i2u458_40
 12185  0015E6                     i2u458_41:
 12186  0015E6  EFFD  F00A         	goto	i2l4595
 12187  0015EA                     i2u458_40:
 12188  0015EA  0E00               	movlw	0
 12189  0015EC  6E13               	movwf	___fldiv@a^0,c
 12190  0015EE  0E00               	movlw	0
 12191  0015F0  6E14               	movwf	(___fldiv@a+1)^0,c
 12192  0015F2  0E00               	movlw	0
 12193  0015F4  6E15               	movwf	(___fldiv@a+2)^0,c
 12194  0015F6  0E00               	movlw	0
 12195  0015F8  6E16               	movwf	(___fldiv@a+3)^0,c
 12196  0015FA                     i2l4595:
 12197  0015FA  8E15               	bsf	(___fldiv@a+2)^0,7,c
 12198  0015FC  0E00               	movlw	0
 12199  0015FE  6E16               	movwf	(___fldiv@a+3)^0,c
 12200  001600  EF0A  F00B         	goto	i2l4601
 12201  001604                     i2l4599:
 12202  001604  0E00               	movlw	0
 12203  001606  6E13               	movwf	___fldiv@a^0,c
 12204  001608  0E00               	movlw	0
 12205  00160A  6E14               	movwf	(___fldiv@a+1)^0,c
 12206  00160C  0E00               	movlw	0
 12207  00160E  6E15               	movwf	(___fldiv@a+2)^0,c
 12208  001610  0E00               	movlw	0
 12209  001612  6E16               	movwf	(___fldiv@a+3)^0,c
 12210  001614                     i2l4601:
 12211  001614  5013               	movf	___fldiv@a^0,w,c
 12212  001616  1014               	iorwf	(___fldiv@a+1)^0,w,c
 12213  001618  1015               	iorwf	(___fldiv@a+2)^0,w,c
 12214  00161A  1016               	iorwf	(___fldiv@a+3)^0,w,c
 12215  00161C  A4D8               	btfss	status,2,c
 12216  00161E  EF13  F00B         	goto	i2u459_41
 12217  001622  EF15  F00B         	goto	i2u459_40
 12218  001626                     i2u459_41:
 12219  001626  EF2D  F00B         	goto	i2l4613
 12220  00162A                     i2u459_40:
 12221  00162A  0E00               	movlw	0
 12222  00162C  6E0F               	movwf	___fldiv@b^0,c
 12223  00162E  0E00               	movlw	0
 12224  001630  6E10               	movwf	(___fldiv@b+1)^0,c
 12225  001632  0E00               	movlw	0
 12226  001634  6E11               	movwf	(___fldiv@b+2)^0,c
 12227  001636  0E00               	movlw	0
 12228  001638  6E12               	movwf	(___fldiv@b+3)^0,c
 12229  00163A  0E80               	movlw	128
 12230  00163C  1211               	iorwf	(___fldiv@b+2)^0,f,c
 12231  00163E  0E7F               	movlw	127
 12232  001640  1212               	iorwf	(___fldiv@b+3)^0,f,c
 12233  001642                     i2l4607:
 12234  001642  501F               	movf	___fldiv@sign^0,w,c
 12235  001644  1212               	iorwf	(___fldiv@b+3)^0,f,c
 12236  001646  C00F  F00F         	movff	___fldiv@b,?___fldiv
 12237  00164A  C010  F010         	movff	___fldiv@b+1,?___fldiv+1
 12238  00164E  C011  F011         	movff	___fldiv@b+2,?___fldiv+2
 12239  001652  C012  F012         	movff	___fldiv@b+3,?___fldiv+3
 12240  001656  EF70  F00C         	goto	i2l1536
 12241  00165A                     i2l4613:
 12242  00165A  5026               	movf	___fldiv@bexp^0,w,c
 12243  00165C  A4D8               	btfss	status,2,c
 12244  00165E  EF33  F00B         	goto	i2u460_41
 12245  001662  EF35  F00B         	goto	i2u460_40
 12246  001666                     i2u460_41:
 12247  001666  EF3F  F00B         	goto	i2l4621
 12248  00166A                     i2u460_40:
 12249  00166A  0E00               	movlw	0
 12250  00166C  6E0F               	movwf	?___fldiv^0,c
 12251  00166E  0E00               	movlw	0
 12252  001670  6E10               	movwf	(?___fldiv+1)^0,c
 12253  001672  0E00               	movlw	0
 12254  001674  6E11               	movwf	(?___fldiv+2)^0,c
 12255  001676  0E00               	movlw	0
 12256  001678  6E12               	movwf	(?___fldiv+3)^0,c
 12257  00167A  EF70  F00C         	goto	i2l1536
 12258  00167E                     i2l4621:
 12259  00167E  5027               	movf	___fldiv@aexp^0,w,c
 12260  001680  C026  F017         	movff	___fldiv@bexp,??___fldiv
 12261  001684  6A18               	clrf	(??___fldiv+1)^0,c
 12262  001686  5E17               	subwf	??___fldiv^0,f,c
 12263  001688  0E00               	movlw	0
 12264  00168A  5A18               	subwfb	(??___fldiv+1)^0,f,c
 12265  00168C  0E7F               	movlw	127
 12266  00168E  2417               	addwf	??___fldiv^0,w,c
 12267  001690  6E20               	movwf	___fldiv@new_exp^0,c
 12268  001692  0E00               	movlw	0
 12269  001694  2018               	addwfc	(??___fldiv+1)^0,w,c
 12270  001696  6E21               	movwf	(___fldiv@new_exp+1)^0,c
 12271  001698  C00F  F01B         	movff	___fldiv@b,___fldiv@rem
 12272  00169C  C010  F01C         	movff	___fldiv@b+1,___fldiv@rem+1
 12273  0016A0  C011  F01D         	movff	___fldiv@b+2,___fldiv@rem+2
 12274  0016A4  C012  F01E         	movff	___fldiv@b+3,___fldiv@rem+3
 12275  0016A8  0E00               	movlw	0
 12276  0016AA  6E0F               	movwf	___fldiv@b^0,c
 12277  0016AC  0E00               	movlw	0
 12278  0016AE  6E10               	movwf	(___fldiv@b+1)^0,c
 12279  0016B0  0E00               	movlw	0
 12280  0016B2  6E11               	movwf	(___fldiv@b+2)^0,c
 12281  0016B4  0E00               	movlw	0
 12282  0016B6  6E12               	movwf	(___fldiv@b+3)^0,c
 12283  0016B8  0E00               	movlw	0
 12284  0016BA  6E22               	movwf	___fldiv@grs^0,c
 12285  0016BC  0E00               	movlw	0
 12286  0016BE  6E23               	movwf	(___fldiv@grs+1)^0,c
 12287  0016C0  0E00               	movlw	0
 12288  0016C2  6E24               	movwf	(___fldiv@grs+2)^0,c
 12289  0016C4  0E00               	movlw	0
 12290  0016C6  6E25               	movwf	(___fldiv@grs+3)^0,c
 12291  0016C8  0E00               	movlw	0
 12292  0016CA  6E27               	movwf	___fldiv@aexp^0,c
 12293  0016CC  EFA0  F00B         	goto	i2l1538
 12294  0016D0                     i2l4631:
 12295  0016D0  5027               	movf	___fldiv@aexp^0,w,c
 12296  0016D2  B4D8               	btfsc	status,2,c
 12297  0016D4  EF6E  F00B         	goto	i2u461_41
 12298  0016D8  EF70  F00B         	goto	i2u461_40
 12299  0016DC                     i2u461_41:
 12300  0016DC  EF87  F00B         	goto	i2l4639
 12301  0016E0                     i2u461_40:
 12302  0016E0  90D8               	bcf	status,0,c
 12303  0016E2  361B               	rlcf	___fldiv@rem^0,f,c
 12304  0016E4  361C               	rlcf	(___fldiv@rem+1)^0,f,c
 12305  0016E6  361D               	rlcf	(___fldiv@rem+2)^0,f,c
 12306  0016E8  361E               	rlcf	(___fldiv@rem+3)^0,f,c
 12307  0016EA  90D8               	bcf	status,0,c
 12308  0016EC  360F               	rlcf	___fldiv@b^0,f,c
 12309  0016EE  3610               	rlcf	(___fldiv@b+1)^0,f,c
 12310  0016F0  3611               	rlcf	(___fldiv@b+2)^0,f,c
 12311  0016F2  3612               	rlcf	(___fldiv@b+3)^0,f,c
 12312  0016F4  AE25               	btfss	(___fldiv@grs+3)^0,7,c
 12313  0016F6  EF7F  F00B         	goto	i2u462_41
 12314  0016FA  EF81  F00B         	goto	i2u462_40
 12315  0016FE                     i2u462_41:
 12316  0016FE  EF82  F00B         	goto	i2l1541
 12317  001702                     i2u462_40:
 12318  001702  800F               	bsf	___fldiv@b^0,0,c
 12319  001704                     i2l1541:
 12320  001704  90D8               	bcf	status,0,c
 12321  001706  3622               	rlcf	___fldiv@grs^0,f,c
 12322  001708  3623               	rlcf	(___fldiv@grs+1)^0,f,c
 12323  00170A  3624               	rlcf	(___fldiv@grs+2)^0,f,c
 12324  00170C  3625               	rlcf	(___fldiv@grs+3)^0,f,c
 12325  00170E                     i2l4639:
 12326  00170E  5013               	movf	___fldiv@a^0,w,c
 12327  001710  5C1B               	subwf	___fldiv@rem^0,w,c
 12328  001712  5014               	movf	(___fldiv@a+1)^0,w,c
 12329  001714  581C               	subwfb	(___fldiv@rem+1)^0,w,c
 12330  001716  5015               	movf	(___fldiv@a+2)^0,w,c
 12331  001718  581D               	subwfb	(___fldiv@rem+2)^0,w,c
 12332  00171A  5016               	movf	(___fldiv@a+3)^0,w,c
 12333  00171C  581E               	subwfb	(___fldiv@rem+3)^0,w,c
 12334  00171E  A0D8               	btfss	status,0,c
 12335  001720  EF94  F00B         	goto	i2u463_41
 12336  001724  EF96  F00B         	goto	i2u463_40
 12337  001728                     i2u463_41:
 12338  001728  EF9F  F00B         	goto	i2l4645
 12339  00172C                     i2u463_40:
 12340  00172C  8C25               	bsf	(___fldiv@grs+3)^0,6,c
 12341  00172E  5013               	movf	___fldiv@a^0,w,c
 12342  001730  5E1B               	subwf	___fldiv@rem^0,f,c
 12343  001732  5014               	movf	(___fldiv@a+1)^0,w,c
 12344  001734  5A1C               	subwfb	(___fldiv@rem+1)^0,f,c
 12345  001736  5015               	movf	(___fldiv@a+2)^0,w,c
 12346  001738  5A1D               	subwfb	(___fldiv@rem+2)^0,f,c
 12347  00173A  5016               	movf	(___fldiv@a+3)^0,w,c
 12348  00173C  5A1E               	subwfb	(___fldiv@rem+3)^0,f,c
 12349  00173E                     i2l4645:
 12350  00173E  2A27               	incf	___fldiv@aexp^0,f,c
 12351  001740                     i2l1538:
 12352  001740  0E19               	movlw	25
 12353  001742  6427               	cpfsgt	___fldiv@aexp^0,c
 12354  001744  EFA6  F00B         	goto	i2u464_41
 12355  001748  EFA8  F00B         	goto	i2u464_40
 12356  00174C                     i2u464_41:
 12357  00174C  EF68  F00B         	goto	i2l4631
 12358  001750                     i2u464_40:
 12359  001750  501B               	movf	___fldiv@rem^0,w,c
 12360  001752  101C               	iorwf	(___fldiv@rem+1)^0,w,c
 12361  001754  101D               	iorwf	(___fldiv@rem+2)^0,w,c
 12362  001756  101E               	iorwf	(___fldiv@rem+3)^0,w,c
 12363  001758  B4D8               	btfsc	status,2,c
 12364  00175A  EFB1  F00B         	goto	i2u465_41
 12365  00175E  EFB3  F00B         	goto	i2u465_40
 12366  001762                     i2u465_41:
 12367  001762  EFCB  F00B         	goto	i2l4657
 12368  001766                     i2u465_40:
 12369  001766  8022               	bsf	___fldiv@grs^0,0,c
 12370  001768  EFCB  F00B         	goto	i2l4657
 12371  00176C                     i2l4651:
 12372  00176C  90D8               	bcf	status,0,c
 12373  00176E  360F               	rlcf	___fldiv@b^0,f,c
 12374  001770  3610               	rlcf	(___fldiv@b+1)^0,f,c
 12375  001772  3611               	rlcf	(___fldiv@b+2)^0,f,c
 12376  001774  3612               	rlcf	(___fldiv@b+3)^0,f,c
 12377  001776  AE25               	btfss	(___fldiv@grs+3)^0,7,c
 12378  001778  EFC0  F00B         	goto	i2u466_41
 12379  00177C  EFC2  F00B         	goto	i2u466_40
 12380  001780                     i2u466_41:
 12381  001780  EFC3  F00B         	goto	i2l1547
 12382  001784                     i2u466_40:
 12383  001784  800F               	bsf	___fldiv@b^0,0,c
 12384  001786                     i2l1547:
 12385  001786  90D8               	bcf	status,0,c
 12386  001788  3622               	rlcf	___fldiv@grs^0,f,c
 12387  00178A  3623               	rlcf	(___fldiv@grs+1)^0,f,c
 12388  00178C  3624               	rlcf	(___fldiv@grs+2)^0,f,c
 12389  00178E  3625               	rlcf	(___fldiv@grs+3)^0,f,c
 12390  001790  0620               	decf	___fldiv@new_exp^0,f,c
 12391  001792  A0D8               	btfss	status,0,c
 12392  001794  0621               	decf	(___fldiv@new_exp+1)^0,f,c
 12393  001796                     i2l4657:
 12394  001796  AE11               	btfss	(___fldiv@b+2)^0,7,c
 12395  001798  EFD0  F00B         	goto	i2u467_41
 12396  00179C  EFD2  F00B         	goto	i2u467_40
 12397  0017A0                     i2u467_41:
 12398  0017A0  EFB6  F00B         	goto	i2l4651
 12399  0017A4                     i2u467_40:
 12400  0017A4  0E00               	movlw	0
 12401  0017A6  6E27               	movwf	___fldiv@aexp^0,c
 12402  0017A8  AE25               	btfss	(___fldiv@grs+3)^0,7,c
 12403  0017AA  EFD9  F00B         	goto	i2u468_41
 12404  0017AE  EFDB  F00B         	goto	i2u468_40
 12405  0017B2                     i2u468_41:
 12406  0017B2  EFFF  F00B         	goto	i2l1549
 12407  0017B6                     i2u468_40:
 12408  0017B6  0EFF               	movlw	255
 12409  0017B8  1422               	andwf	___fldiv@grs^0,w,c
 12410  0017BA  6E17               	movwf	??___fldiv^0,c
 12411  0017BC  0EFF               	movlw	255
 12412  0017BE  1423               	andwf	(___fldiv@grs+1)^0,w,c
 12413  0017C0  6E18               	movwf	(??___fldiv+1)^0,c
 12414  0017C2  0EFF               	movlw	255
 12415  0017C4  1424               	andwf	(___fldiv@grs+2)^0,w,c
 12416  0017C6  6E19               	movwf	(??___fldiv+2)^0,c
 12417  0017C8  0E7F               	movlw	127
 12418  0017CA  1425               	andwf	(___fldiv@grs+3)^0,w,c
 12419  0017CC  6E1A               	movwf	(??___fldiv+3)^0,c
 12420  0017CE  5017               	movf	??___fldiv^0,w,c
 12421  0017D0  1018               	iorwf	(??___fldiv+1)^0,w,c
 12422  0017D2  1019               	iorwf	(??___fldiv+2)^0,w,c
 12423  0017D4  101A               	iorwf	(??___fldiv+3)^0,w,c
 12424  0017D6  B4D8               	btfsc	status,2,c
 12425  0017D8  EFF0  F00B         	goto	i2u469_41
 12426  0017DC  EFF2  F00B         	goto	i2u469_40
 12427  0017E0                     i2u469_41:
 12428  0017E0  EFF6  F00B         	goto	i2l1550
 12429  0017E4                     i2u469_40:
 12430  0017E4                     i2l4665:
 12431  0017E4  0E01               	movlw	1
 12432  0017E6  6E27               	movwf	___fldiv@aexp^0,c
 12433  0017E8  EFFF  F00B         	goto	i2l1549
 12434  0017EC                     i2l1550:
 12435  0017EC  A00F               	btfss	___fldiv@b^0,0,c
 12436  0017EE  EFFB  F00B         	goto	i2u470_41
 12437  0017F2  EFFD  F00B         	goto	i2u470_40
 12438  0017F6                     i2u470_41:
 12439  0017F6  EFFF  F00B         	goto	i2l1549
 12440  0017FA                     i2u470_40:
 12441  0017FA  EFF2  F00B         	goto	i2l4665
 12442  0017FE                     i2l1549:
 12443  0017FE  5027               	movf	___fldiv@aexp^0,w,c
 12444  001800  B4D8               	btfsc	status,2,c
 12445  001802  EF05  F00C         	goto	i2u471_41
 12446  001806  EF07  F00C         	goto	i2u471_40
 12447  00180A                     i2u471_41:
 12448  00180A  EF2B  F00C         	goto	i2l4677
 12449  00180E                     i2u471_40:
 12450  00180E  0E01               	movlw	1
 12451  001810  260F               	addwf	___fldiv@b^0,f,c
 12452  001812  0E00               	movlw	0
 12453  001814  2210               	addwfc	(___fldiv@b+1)^0,f,c
 12454  001816  2211               	addwfc	(___fldiv@b+2)^0,f,c
 12455  001818  2212               	addwfc	(___fldiv@b+3)^0,f,c
 12456  00181A  A012               	btfss	(___fldiv@b+3)^0,0,c
 12457  00181C  EF12  F00C         	goto	i2u472_41
 12458  001820  EF14  F00C         	goto	i2u472_40
 12459  001824                     i2u472_41:
 12460  001824  EF2B  F00C         	goto	i2l4677
 12461  001828                     i2u472_40:
 12462  001828  C00F  F017         	movff	___fldiv@b,??___fldiv
 12463  00182C  C010  F018         	movff	___fldiv@b+1,??___fldiv+1
 12464  001830  C011  F019         	movff	___fldiv@b+2,??___fldiv+2
 12465  001834  C012  F01A         	movff	___fldiv@b+3,??___fldiv+3
 12466  001838  341A               	rlcf	(??___fldiv+3)^0,w,c
 12467  00183A  321A               	rrcf	(??___fldiv+3)^0,f,c
 12468  00183C  3219               	rrcf	(??___fldiv+2)^0,f,c
 12469  00183E  3218               	rrcf	(??___fldiv+1)^0,f,c
 12470  001840  3217               	rrcf	??___fldiv^0,f,c
 12471  001842  C017  F00F         	movff	??___fldiv,___fldiv@b
 12472  001846  C018  F010         	movff	??___fldiv+1,___fldiv@b+1
 12473  00184A  C019  F011         	movff	??___fldiv+2,___fldiv@b+2
 12474  00184E  C01A  F012         	movff	??___fldiv+3,___fldiv@b+3
 12475  001852  4A20               	infsnz	___fldiv@new_exp^0,f,c
 12476  001854  2A21               	incf	(___fldiv@new_exp+1)^0,f,c
 12477  001856                     i2l4677:
 12478  001856  BE21               	btfsc	(___fldiv@new_exp+1)^0,7,c
 12479  001858  EF36  F00C         	goto	i2u473_41
 12480  00185C  5021               	movf	(___fldiv@new_exp+1)^0,w,c
 12481  00185E  E108               	bnz	i2u473_40
 12482  001860  2820               	incf	___fldiv@new_exp^0,w,c
 12483  001862  A0D8               	btfss	status,0,c
 12484  001864  EF36  F00C         	goto	i2u473_41
 12485  001868  EF38  F00C         	goto	i2u473_40
 12486  00186C                     i2u473_41:
 12487  00186C  EF43  F00C         	goto	i2l4681
 12488  001870                     i2u473_40:
 12489  001870  0E00               	movlw	0
 12490  001872  6E21               	movwf	(___fldiv@new_exp+1)^0,c
 12491  001874  6820               	setf	___fldiv@new_exp^0,c
 12492  001876  0E00               	movlw	0
 12493  001878  6E0F               	movwf	___fldiv@b^0,c
 12494  00187A  0E00               	movlw	0
 12495  00187C  6E10               	movwf	(___fldiv@b+1)^0,c
 12496  00187E  0E00               	movlw	0
 12497  001880  6E11               	movwf	(___fldiv@b+2)^0,c
 12498  001882  0E00               	movlw	0
 12499  001884  6E12               	movwf	(___fldiv@b+3)^0,c
 12500  001886                     i2l4681:
 12501  001886  BE21               	btfsc	(___fldiv@new_exp+1)^0,7,c
 12502  001888  EF50  F00C         	goto	i2u474_40
 12503  00188C  5021               	movf	(___fldiv@new_exp+1)^0,w,c
 12504  00188E  E106               	bnz	i2u474_41
 12505  001890  0420               	decf	___fldiv@new_exp^0,w,c
 12506  001892  B0D8               	btfsc	status,0,c
 12507  001894  EF4E  F00C         	goto	i2u474_41
 12508  001898  EF50  F00C         	goto	i2u474_40
 12509  00189C                     i2u474_41:
 12510  00189C  EF5E  F00C         	goto	i2l4685
 12511  0018A0                     i2u474_40:
 12512  0018A0  0E00               	movlw	0
 12513  0018A2  6E21               	movwf	(___fldiv@new_exp+1)^0,c
 12514  0018A4  0E00               	movlw	0
 12515  0018A6  6E20               	movwf	___fldiv@new_exp^0,c
 12516  0018A8  0E00               	movlw	0
 12517  0018AA  6E0F               	movwf	___fldiv@b^0,c
 12518  0018AC  0E00               	movlw	0
 12519  0018AE  6E10               	movwf	(___fldiv@b+1)^0,c
 12520  0018B0  0E00               	movlw	0
 12521  0018B2  6E11               	movwf	(___fldiv@b+2)^0,c
 12522  0018B4  0E00               	movlw	0
 12523  0018B6  6E12               	movwf	(___fldiv@b+3)^0,c
 12524  0018B8  0E00               	movlw	0
 12525  0018BA  6E1F               	movwf	___fldiv@sign^0,c
 12526  0018BC                     i2l4685:
 12527  0018BC  C020  F026         	movff	___fldiv@new_exp,___fldiv@bexp
 12528  0018C0  A026               	btfss	___fldiv@bexp^0,0,c
 12529  0018C2  EF65  F00C         	goto	i2u475_41
 12530  0018C6  EF67  F00C         	goto	i2u475_40
 12531  0018CA                     i2u475_41:
 12532  0018CA  EF6A  F00C         	goto	i2l4691
 12533  0018CE                     i2u475_40:
 12534  0018CE  8E11               	bsf	(___fldiv@b+2)^0,7,c
 12535  0018D0  EF6B  F00C         	goto	i2l4693
 12536  0018D4                     i2l4691:
 12537  0018D4  9E11               	bcf	(___fldiv@b+2)^0,7,c
 12538  0018D6                     i2l4693:
 12539  0018D6  90D8               	bcf	status,0,c
 12540  0018D8  3026               	rrcf	___fldiv@bexp^0,w,c
 12541  0018DA  6E12               	movwf	(___fldiv@b+3)^0,c
 12542  0018DC  EF21  F00B         	goto	i2l4607
 12543  0018E0                     i2l1536:
 12544  0018E0  0012               	return		;funcret
 12545  0018E2                     __end_of___fldiv:
 12546                           	opt callstack 0
 12547                           
 12548 ;; *************** function ___fladd *****************
 12549 ;; Defined at:
 12550 ;;		line 10 in file "C:\Program Files (x86)\Microchip\xc8\v2.10\pic\sources\c99\common\sprcadd.c"
 12551 ;; Parameters:    Size  Location     Type
 12552 ;;  b               4   64[COMRAM] unsigned char 
 12553 ;;  a               4   68[COMRAM] unsigned char 
 12554 ;; Auto vars:     Size  Location     Type
 12555 ;;  grs             1   79[COMRAM] unsigned char 
 12556 ;;  bexp            1   78[COMRAM] unsigned char 
 12557 ;;  aexp            1   77[COMRAM] unsigned char 
 12558 ;;  signs           1   76[COMRAM] unsigned char 
 12559 ;; Return value:  Size  Location     Type
 12560 ;;                  4   64[COMRAM] unsigned char 
 12561 ;; Registers used:
 12562 ;;		wreg, status,2, status,0
 12563 ;; Tracked objects:
 12564 ;;		On entry : 0/0
 12565 ;;		On exit  : 0/0
 12566 ;;		Unchanged: 0/0
 12567 ;; Data sizes:     COMRAM   BANK0   BANK1   BANK2   BANK3   BANK4   BANK5
 12568 ;;      Params:         8       0       0       0       0       0       0
 12569 ;;      Locals:         4       0       0       0       0       0       0
 12570 ;;      Temps:          4       0       0       0       0       0       0
 12571 ;;      Totals:        16       0       0       0       0       0       0
 12572 ;;Total ram usage:       16 bytes
 12573 ;; Hardware stack levels used:    1
 12574 ;; This function calls:
 12575 ;;		Nothing
 12576 ;; This function is called by:
 12577 ;;		_ADC_temperatura
 12578 ;; This function uses a non-reentrant model
 12579 ;;
 12580                           
 12581                           	psect	text81
 12582  000C5E                     __ptext81:
 12583                           	opt callstack 0
 12584  000C5E                     ___fladd:
 12585                           	opt callstack 18
 12586  000C5E  5044               	movf	(___fladd@b+3)^0,w,c
 12587  000C60  0B80               	andlw	128
 12588  000C62  6E4D               	movwf	___fladd@signs^0,c
 12589  000C64  5044               	movf	(___fladd@b+3)^0,w,c
 12590  000C66  2444               	addwf	(___fladd@b+3)^0,w,c
 12591  000C68  6E4F               	movwf	___fladd@bexp^0,c
 12592  000C6A  AE43               	btfss	(___fladd@b+2)^0,7,c
 12593  000C6C  EF3A  F006         	goto	i2u414_41
 12594  000C70  EF3C  F006         	goto	i2u414_40
 12595  000C74                     i2u414_41:
 12596  000C74  EF3D  F006         	goto	i2l4367
 12597  000C78                     i2u414_40:
 12598  000C78  804F               	bsf	___fladd@bexp^0,0,c
 12599  000C7A                     i2l4367:
 12600  000C7A  504F               	movf	___fladd@bexp^0,w,c
 12601  000C7C  B4D8               	btfsc	status,2,c
 12602  000C7E  EF43  F006         	goto	i2u415_41
 12603  000C82  EF45  F006         	goto	i2u415_40
 12604  000C86                     i2u415_41:
 12605  000C86  EF5A  F006         	goto	i2l4377
 12606  000C8A                     i2u415_40:
 12607  000C8A  284F               	incf	___fladd@bexp^0,w,c
 12608  000C8C  A4D8               	btfss	status,2,c
 12609  000C8E  EF4B  F006         	goto	i2u416_41
 12610  000C92  EF4D  F006         	goto	i2u416_40
 12611  000C96                     i2u416_41:
 12612  000C96  EF55  F006         	goto	i2l4373
 12613  000C9A                     i2u416_40:
 12614  000C9A  0E00               	movlw	0
 12615  000C9C  6E41               	movwf	___fladd@b^0,c
 12616  000C9E  0E00               	movlw	0
 12617  000CA0  6E42               	movwf	(___fladd@b+1)^0,c
 12618  000CA2  0E00               	movlw	0
 12619  000CA4  6E43               	movwf	(___fladd@b+2)^0,c
 12620  000CA6  0E00               	movlw	0
 12621  000CA8  6E44               	movwf	(___fladd@b+3)^0,c
 12622  000CAA                     i2l4373:
 12623  000CAA  8E43               	bsf	(___fladd@b+2)^0,7,c
 12624  000CAC  0E00               	movlw	0
 12625  000CAE  6E44               	movwf	(___fladd@b+3)^0,c
 12626  000CB0  EF62  F006         	goto	i2l4379
 12627  000CB4                     i2l4377:
 12628  000CB4  0E00               	movlw	0
 12629  000CB6  6E41               	movwf	___fladd@b^0,c
 12630  000CB8  0E00               	movlw	0
 12631  000CBA  6E42               	movwf	(___fladd@b+1)^0,c
 12632  000CBC  0E00               	movlw	0
 12633  000CBE  6E43               	movwf	(___fladd@b+2)^0,c
 12634  000CC0  0E00               	movlw	0
 12635  000CC2  6E44               	movwf	(___fladd@b+3)^0,c
 12636  000CC4                     i2l4379:
 12637  000CC4  5048               	movf	(___fladd@a+3)^0,w,c
 12638  000CC6  0B80               	andlw	128
 12639  000CC8  6E4E               	movwf	___fladd@aexp^0,c
 12640  000CCA  504D               	movf	___fladd@signs^0,w,c
 12641  000CCC  184E               	xorwf	___fladd@aexp^0,w,c
 12642  000CCE  B4D8               	btfsc	status,2,c
 12643  000CD0  EF6C  F006         	goto	i2u417_41
 12644  000CD4  EF6E  F006         	goto	i2u417_40
 12645  000CD8                     i2u417_41:
 12646  000CD8  EF6F  F006         	goto	i2l4385
 12647  000CDC                     i2u417_40:
 12648  000CDC  8C4D               	bsf	___fladd@signs^0,6,c
 12649  000CDE                     i2l4385:
 12650  000CDE  5048               	movf	(___fladd@a+3)^0,w,c
 12651  000CE0  2448               	addwf	(___fladd@a+3)^0,w,c
 12652  000CE2  6E4E               	movwf	___fladd@aexp^0,c
 12653  000CE4  AE47               	btfss	(___fladd@a+2)^0,7,c
 12654  000CE6  EF77  F006         	goto	i2u418_41
 12655  000CEA  EF79  F006         	goto	i2u418_40
 12656  000CEE                     i2u418_41:
 12657  000CEE  EF7A  F006         	goto	i2l4391
 12658  000CF2                     i2u418_40:
 12659  000CF2  804E               	bsf	___fladd@aexp^0,0,c
 12660  000CF4                     i2l4391:
 12661  000CF4  504E               	movf	___fladd@aexp^0,w,c
 12662  000CF6  B4D8               	btfsc	status,2,c
 12663  000CF8  EF80  F006         	goto	i2u419_41
 12664  000CFC  EF82  F006         	goto	i2u419_40
 12665  000D00                     i2u419_41:
 12666  000D00  EF97  F006         	goto	i2l4401
 12667  000D04                     i2u419_40:
 12668  000D04  284E               	incf	___fladd@aexp^0,w,c
 12669  000D06  A4D8               	btfss	status,2,c
 12670  000D08  EF88  F006         	goto	i2u420_41
 12671  000D0C  EF8A  F006         	goto	i2u420_40
 12672  000D10                     i2u420_41:
 12673  000D10  EF92  F006         	goto	i2l4397
 12674  000D14                     i2u420_40:
 12675  000D14  0E00               	movlw	0
 12676  000D16  6E45               	movwf	___fladd@a^0,c
 12677  000D18  0E00               	movlw	0
 12678  000D1A  6E46               	movwf	(___fladd@a+1)^0,c
 12679  000D1C  0E00               	movlw	0
 12680  000D1E  6E47               	movwf	(___fladd@a+2)^0,c
 12681  000D20  0E00               	movlw	0
 12682  000D22  6E48               	movwf	(___fladd@a+3)^0,c
 12683  000D24                     i2l4397:
 12684  000D24  8E47               	bsf	(___fladd@a+2)^0,7,c
 12685  000D26  0E00               	movlw	0
 12686  000D28  6E48               	movwf	(___fladd@a+3)^0,c
 12687  000D2A  EF9F  F006         	goto	i2l4403
 12688  000D2E                     i2l4401:
 12689  000D2E  0E00               	movlw	0
 12690  000D30  6E45               	movwf	___fladd@a^0,c
 12691  000D32  0E00               	movlw	0
 12692  000D34  6E46               	movwf	(___fladd@a+1)^0,c
 12693  000D36  0E00               	movlw	0
 12694  000D38  6E47               	movwf	(___fladd@a+2)^0,c
 12695  000D3A  0E00               	movlw	0
 12696  000D3C  6E48               	movwf	(___fladd@a+3)^0,c
 12697  000D3E                     i2l4403:
 12698  000D3E  504F               	movf	___fladd@bexp^0,w,c
 12699  000D40  5C4E               	subwf	___fladd@aexp^0,w,c
 12700  000D42  B0D8               	btfsc	status,0,c
 12701  000D44  EFA6  F006         	goto	i2u421_41
 12702  000D48  EFA8  F006         	goto	i2u421_40
 12703  000D4C                     i2u421_41:
 12704  000D4C  EFCF  F006         	goto	i2l4439
 12705  000D50                     i2u421_40:
 12706  000D50  AC4D               	btfss	___fladd@signs^0,6,c
 12707  000D52  EFAD  F006         	goto	i2u422_41
 12708  000D56  EFAF  F006         	goto	i2u422_40
 12709  000D5A                     i2u422_41:
 12710  000D5A  EFB1  F006         	goto	i2l4409
 12711  000D5E                     i2u422_40:
 12712  000D5E  0E80               	movlw	128
 12713  000D60  1A4D               	xorwf	___fladd@signs^0,f,c
 12714  000D62                     i2l4409:
 12715  000D62  C04F  F050         	movff	___fladd@bexp,___fladd@grs
 12716  000D66  C04E  F04F         	movff	___fladd@aexp,___fladd@bexp
 12717  000D6A  C050  F04E         	movff	___fladd@grs,___fladd@aexp
 12718  000D6E  C041  F050         	movff	___fladd@b,___fladd@grs
 12719  000D72  C045  F041         	movff	___fladd@a,___fladd@b
 12720  000D76  C050  F045         	movff	___fladd@grs,___fladd@a
 12721  000D7A  C042  F050         	movff	___fladd@b+1,___fladd@grs
 12722  000D7E  C046  F042         	movff	___fladd@a+1,___fladd@b+1
 12723  000D82  C050  F046         	movff	___fladd@grs,___fladd@a+1
 12724  000D86  C043  F050         	movff	___fladd@b+2,___fladd@grs
 12725  000D8A  C047  F043         	movff	___fladd@a+2,___fladd@b+2
 12726  000D8E  C050  F047         	movff	___fladd@grs,___fladd@a+2
 12727  000D92  C044  F050         	movff	___fladd@b+3,___fladd@grs
 12728  000D96  C048  F044         	movff	___fladd@a+3,___fladd@b+3
 12729  000D9A  C050  F048         	movff	___fladd@grs,___fladd@a+3
 12730  000D9E                     i2l4439:
 12731  000D9E  0E00               	movlw	0
 12732  000DA0  6E50               	movwf	___fladd@grs^0,c
 12733  000DA2  504F               	movf	___fladd@bexp^0,w,c
 12734  000DA4  C04E  F049         	movff	___fladd@aexp,??___fladd
 12735  000DA8  6A4A               	clrf	(??___fladd+1)^0,c
 12736  000DAA  5E49               	subwf	??___fladd^0,f,c
 12737  000DAC  0E00               	movlw	0
 12738  000DAE  5A4A               	subwfb	(??___fladd+1)^0,f,c
 12739  000DB0  BE4A               	btfsc	(??___fladd+1)^0,7,c
 12740  000DB2  EFE4  F006         	goto	i2u423_41
 12741  000DB6  504A               	movf	(??___fladd+1)^0,w,c
 12742  000DB8  E109               	bnz	i2u423_40
 12743  000DBA  0E1A               	movlw	26
 12744  000DBC  5C49               	subwf	??___fladd^0,w,c
 12745  000DBE  A0D8               	btfss	status,0,c
 12746  000DC0  EFE4  F006         	goto	i2u423_41
 12747  000DC4  EFE6  F006         	goto	i2u423_40
 12748  000DC8                     i2u423_41:
 12749  000DC8  EF1D  F007         	goto	i2l1483
 12750  000DCC                     i2u423_40:
 12751  000DCC  5041               	movf	___fladd@b^0,w,c
 12752  000DCE  1042               	iorwf	(___fladd@b+1)^0,w,c
 12753  000DD0  1043               	iorwf	(___fladd@b+2)^0,w,c
 12754  000DD2  1044               	iorwf	(___fladd@b+3)^0,w,c
 12755  000DD4  A4D8               	btfss	status,2,c
 12756  000DD6  EFEF  F006         	goto	i2u424_41
 12757  000DDA  EFF2  F006         	goto	i2u424_40
 12758  000DDE                     i2u424_41:
 12759  000DDE  0E01               	movlw	1
 12760  000DE0  EFF3  F006         	goto	i2u425_40
 12761  000DE4                     i2u424_40:
 12762  000DE4  0E00               	movlw	0
 12763  000DE6                     i2u425_40:
 12764  000DE6  6E50               	movwf	___fladd@grs^0,c
 12765  000DE8  0E00               	movlw	0
 12766  000DEA  6E41               	movwf	___fladd@b^0,c
 12767  000DEC  0E00               	movlw	0
 12768  000DEE  6E42               	movwf	(___fladd@b+1)^0,c
 12769  000DF0  0E00               	movlw	0
 12770  000DF2  6E43               	movwf	(___fladd@b+2)^0,c
 12771  000DF4  0E00               	movlw	0
 12772  000DF6  6E44               	movwf	(___fladd@b+3)^0,c
 12773  000DF8  C04E  F04F         	movff	___fladd@aexp,___fladd@bexp
 12774  000DFC  EF26  F007         	goto	i2l1482
 12775  000E00                     i2l1484:
 12776  000E00  A050               	btfss	___fladd@grs^0,0,c
 12777  000E02  EF05  F007         	goto	i2u426_41
 12778  000E06  EF07  F007         	goto	i2u426_40
 12779  000E0A                     i2u426_41:
 12780  000E0A  EF0D  F007         	goto	i2l4451
 12781  000E0E                     i2u426_40:
 12782  000E0E  90D8               	bcf	status,0,c
 12783  000E10  3050               	rrcf	___fladd@grs^0,w,c
 12784  000E12  0901               	iorlw	1
 12785  000E14  6E50               	movwf	___fladd@grs^0,c
 12786  000E16  EF0F  F007         	goto	i2l4453
 12787  000E1A                     i2l4451:
 12788  000E1A  90D8               	bcf	status,0,c
 12789  000E1C  3250               	rrcf	___fladd@grs^0,f,c
 12790  000E1E                     i2l4453:
 12791  000E1E  A041               	btfss	___fladd@b^0,0,c
 12792  000E20  EF14  F007         	goto	i2u427_41
 12793  000E24  EF16  F007         	goto	i2u427_40
 12794  000E28                     i2u427_41:
 12795  000E28  EF17  F007         	goto	i2l4457
 12796  000E2C                     i2u427_40:
 12797  000E2C  8E50               	bsf	___fladd@grs^0,7,c
 12798  000E2E                     i2l4457:
 12799  000E2E  3444               	rlcf	(___fladd@b+3)^0,w,c
 12800  000E30  3244               	rrcf	(___fladd@b+3)^0,f,c
 12801  000E32  3243               	rrcf	(___fladd@b+2)^0,f,c
 12802  000E34  3242               	rrcf	(___fladd@b+1)^0,f,c
 12803  000E36  3241               	rrcf	___fladd@b^0,f,c
 12804  000E38  2A4F               	incf	___fladd@bexp^0,f,c
 12805  000E3A                     i2l1483:
 12806  000E3A  504E               	movf	___fladd@aexp^0,w,c
 12807  000E3C  5C4F               	subwf	___fladd@bexp^0,w,c
 12808  000E3E  A0D8               	btfss	status,0,c
 12809  000E40  EF24  F007         	goto	i2u428_41
 12810  000E44  EF26  F007         	goto	i2u428_40
 12811  000E48                     i2u428_41:
 12812  000E48  EF00  F007         	goto	i2l1484
 12813  000E4C                     i2u428_40:
 12814  000E4C                     i2l1482:
 12815  000E4C  BC4D               	btfsc	___fladd@signs^0,6,c
 12816  000E4E  EF2B  F007         	goto	i2u429_41
 12817  000E52  EF2D  F007         	goto	i2u429_40
 12818  000E56                     i2u429_41:
 12819  000E56  EF6D  F007         	goto	i2l4485
 12820  000E5A                     i2u429_40:
 12821  000E5A  504F               	movf	___fladd@bexp^0,w,c
 12822  000E5C  A4D8               	btfss	status,2,c
 12823  000E5E  EF33  F007         	goto	i2u430_41
 12824  000E62  EF35  F007         	goto	i2u430_40
 12825  000E66                     i2u430_41:
 12826  000E66  EF3F  F007         	goto	i2l4467
 12827  000E6A                     i2u430_40:
 12828  000E6A  0E00               	movlw	0
 12829  000E6C  6E41               	movwf	?___fladd^0,c
 12830  000E6E  0E00               	movlw	0
 12831  000E70  6E42               	movwf	(?___fladd+1)^0,c
 12832  000E72  0E00               	movlw	0
 12833  000E74  6E43               	movwf	(?___fladd+2)^0,c
 12834  000E76  0E00               	movlw	0
 12835  000E78  6E44               	movwf	(?___fladd+3)^0,c
 12836  000E7A  EF8E  F008         	goto	i2l1491
 12837  000E7E                     i2l4467:
 12838  000E7E  5045               	movf	___fladd@a^0,w,c
 12839  000E80  2641               	addwf	___fladd@b^0,f,c
 12840  000E82  5046               	movf	(___fladd@a+1)^0,w,c
 12841  000E84  2242               	addwfc	(___fladd@b+1)^0,f,c
 12842  000E86  5047               	movf	(___fladd@a+2)^0,w,c
 12843  000E88  2243               	addwfc	(___fladd@b+2)^0,f,c
 12844  000E8A  5048               	movf	(___fladd@a+3)^0,w,c
 12845  000E8C  2244               	addwfc	(___fladd@b+3)^0,f,c
 12846  000E8E  A044               	btfss	(___fladd@b+3)^0,0,c
 12847  000E90  EF4C  F007         	goto	i2u431_41
 12848  000E94  EF4E  F007         	goto	i2u431_40
 12849  000E98                     i2u431_41:
 12850  000E98  EFFA  F007         	goto	i2l4521
 12851  000E9C                     i2u431_40:
 12852  000E9C  A050               	btfss	___fladd@grs^0,0,c
 12853  000E9E  EF53  F007         	goto	i2u432_41
 12854  000EA2  EF55  F007         	goto	i2u432_40
 12855  000EA6                     i2u432_41:
 12856  000EA6  EF5B  F007         	goto	i2l4475
 12857  000EAA                     i2u432_40:
 12858  000EAA  90D8               	bcf	status,0,c
 12859  000EAC  3050               	rrcf	___fladd@grs^0,w,c
 12860  000EAE  0901               	iorlw	1
 12861  000EB0  6E50               	movwf	___fladd@grs^0,c
 12862  000EB2  EF5D  F007         	goto	i2l4477
 12863  000EB6                     i2l4475:
 12864  000EB6  90D8               	bcf	status,0,c
 12865  000EB8  3250               	rrcf	___fladd@grs^0,f,c
 12866  000EBA                     i2l4477:
 12867  000EBA  A041               	btfss	___fladd@b^0,0,c
 12868  000EBC  EF62  F007         	goto	i2u433_41
 12869  000EC0  EF64  F007         	goto	i2u433_40
 12870  000EC4                     i2u433_41:
 12871  000EC4  EF65  F007         	goto	i2l4481
 12872  000EC8                     i2u433_40:
 12873  000EC8  8E50               	bsf	___fladd@grs^0,7,c
 12874  000ECA                     i2l4481:
 12875  000ECA  3444               	rlcf	(___fladd@b+3)^0,w,c
 12876  000ECC  3244               	rrcf	(___fladd@b+3)^0,f,c
 12877  000ECE  3243               	rrcf	(___fladd@b+2)^0,f,c
 12878  000ED0  3242               	rrcf	(___fladd@b+1)^0,f,c
 12879  000ED2  3241               	rrcf	___fladd@b^0,f,c
 12880  000ED4  2A4F               	incf	___fladd@bexp^0,f,c
 12881  000ED6  EFFA  F007         	goto	i2l4521
 12882  000EDA                     i2l4485:
 12883  000EDA  5045               	movf	___fladd@a^0,w,c
 12884  000EDC  5C41               	subwf	___fladd@b^0,w,c
 12885  000EDE  5046               	movf	(___fladd@a+1)^0,w,c
 12886  000EE0  5842               	subwfb	(___fladd@b+1)^0,w,c
 12887  000EE2  5047               	movf	(___fladd@a+2)^0,w,c
 12888  000EE4  5843               	subwfb	(___fladd@b+2)^0,w,c
 12889  000EE6  5044               	movf	(___fladd@b+3)^0,w,c
 12890  000EE8  0A80               	xorlw	128
 12891  000EEA  6E49               	movwf	??___fladd^0,c
 12892  000EEC  5048               	movf	(___fladd@a+3)^0,w,c
 12893  000EEE  0A80               	xorlw	128
 12894  000EF0  5849               	subwfb	??___fladd^0,w,c
 12895  000EF2  B0D8               	btfsc	status,0,c
 12896  000EF4  EF7E  F007         	goto	i2u434_41
 12897  000EF8  EF80  F007         	goto	i2u434_40
 12898  000EFC                     i2u434_41:
 12899  000EFC  EFAB  F007         	goto	i2l4495
 12900  000F00                     i2u434_40:
 12901  000F00  5041               	movf	___fladd@b^0,w,c
 12902  000F02  5C45               	subwf	___fladd@a^0,w,c
 12903  000F04  6E49               	movwf	??___fladd^0,c
 12904  000F06  5042               	movf	(___fladd@b+1)^0,w,c
 12905  000F08  5846               	subwfb	(___fladd@a+1)^0,w,c
 12906  000F0A  6E4A               	movwf	(??___fladd+1)^0,c
 12907  000F0C  5043               	movf	(___fladd@b+2)^0,w,c
 12908  000F0E  5847               	subwfb	(___fladd@a+2)^0,w,c
 12909  000F10  6E4B               	movwf	(??___fladd+2)^0,c
 12910  000F12  5044               	movf	(___fladd@b+3)^0,w,c
 12911  000F14  5848               	subwfb	(___fladd@a+3)^0,w,c
 12912  000F16  6E4C               	movwf	(??___fladd+3)^0,c
 12913  000F18  0EFF               	movlw	255
 12914  000F1A  2449               	addwf	??___fladd^0,w,c
 12915  000F1C  6E41               	movwf	___fladd@b^0,c
 12916  000F1E  0EFF               	movlw	255
 12917  000F20  204A               	addwfc	(??___fladd+1)^0,w,c
 12918  000F22  6E42               	movwf	(___fladd@b+1)^0,c
 12919  000F24  0EFF               	movlw	255
 12920  000F26  204B               	addwfc	(??___fladd+2)^0,w,c
 12921  000F28  6E43               	movwf	(___fladd@b+2)^0,c
 12922  000F2A  0EFF               	movlw	255
 12923  000F2C  204C               	addwfc	(??___fladd+3)^0,w,c
 12924  000F2E  6E44               	movwf	(___fladd@b+3)^0,c
 12925  000F30  0E80               	movlw	128
 12926  000F32  1A4D               	xorwf	___fladd@signs^0,f,c
 12927  000F34  6C50               	negf	___fladd@grs^0,c
 12928  000F36  5050               	movf	___fladd@grs^0,w,c
 12929  000F38  A4D8               	btfss	status,2,c
 12930  000F3A  EFA1  F007         	goto	i2u435_41
 12931  000F3E  EFA3  F007         	goto	i2u435_40
 12932  000F42                     i2u435_41:
 12933  000F42  EFB3  F007         	goto	i2l1499
 12934  000F46                     i2u435_40:
 12935  000F46  0E01               	movlw	1
 12936  000F48  2641               	addwf	___fladd@b^0,f,c
 12937  000F4A  0E00               	movlw	0
 12938  000F4C  2242               	addwfc	(___fladd@b+1)^0,f,c
 12939  000F4E  2243               	addwfc	(___fladd@b+2)^0,f,c
 12940  000F50  2244               	addwfc	(___fladd@b+3)^0,f,c
 12941  000F52  EFB3  F007         	goto	i2l1499
 12942  000F56                     i2l4495:
 12943  000F56  5045               	movf	___fladd@a^0,w,c
 12944  000F58  5E41               	subwf	___fladd@b^0,f,c
 12945  000F5A  5046               	movf	(___fladd@a+1)^0,w,c
 12946  000F5C  5A42               	subwfb	(___fladd@b+1)^0,f,c
 12947  000F5E  5047               	movf	(___fladd@a+2)^0,w,c
 12948  000F60  5A43               	subwfb	(___fladd@b+2)^0,f,c
 12949  000F62  5048               	movf	(___fladd@a+3)^0,w,c
 12950  000F64  5A44               	subwfb	(___fladd@b+3)^0,f,c
 12951  000F66                     i2l1499:
 12952  000F66  5041               	movf	___fladd@b^0,w,c
 12953  000F68  1042               	iorwf	(___fladd@b+1)^0,w,c
 12954  000F6A  1043               	iorwf	(___fladd@b+2)^0,w,c
 12955  000F6C  1044               	iorwf	(___fladd@b+3)^0,w,c
 12956  000F6E  A4D8               	btfss	status,2,c
 12957  000F70  EFBC  F007         	goto	i2u436_41
 12958  000F74  EFBE  F007         	goto	i2u436_40
 12959  000F78                     i2u436_41:
 12960  000F78  EFF3  F007         	goto	i2l4519
 12961  000F7C                     i2u436_40:
 12962  000F7C  5050               	movf	___fladd@grs^0,w,c
 12963  000F7E  A4D8               	btfss	status,2,c
 12964  000F80  EFC4  F007         	goto	i2u437_41
 12965  000F84  EFC6  F007         	goto	i2u437_40
 12966  000F88                     i2u437_41:
 12967  000F88  EFF3  F007         	goto	i2l4519
 12968  000F8C                     i2u437_40:
 12969  000F8C  0E00               	movlw	0
 12970  000F8E  6E41               	movwf	?___fladd^0,c
 12971  000F90  0E00               	movlw	0
 12972  000F92  6E42               	movwf	(?___fladd+1)^0,c
 12973  000F94  0E00               	movlw	0
 12974  000F96  6E43               	movwf	(?___fladd+2)^0,c
 12975  000F98  0E00               	movlw	0
 12976  000F9A  6E44               	movwf	(?___fladd+3)^0,c
 12977  000F9C  EF8E  F008         	goto	i2l1491
 12978  000FA0                     i2l4503:
 12979  000FA0  90D8               	bcf	status,0,c
 12980  000FA2  3641               	rlcf	___fladd@b^0,f,c
 12981  000FA4  3642               	rlcf	(___fladd@b+1)^0,f,c
 12982  000FA6  3643               	rlcf	(___fladd@b+2)^0,f,c
 12983  000FA8  3644               	rlcf	(___fladd@b+3)^0,f,c
 12984  000FAA  AE50               	btfss	___fladd@grs^0,7,c
 12985  000FAC  EFDA  F007         	goto	i2u438_41
 12986  000FB0  EFDC  F007         	goto	i2u438_40
 12987  000FB4                     i2u438_41:
 12988  000FB4  EFDD  F007         	goto	i2l4509
 12989  000FB8                     i2u438_40:
 12990  000FB8  8041               	bsf	___fladd@b^0,0,c
 12991  000FBA                     i2l4509:
 12992  000FBA  A050               	btfss	___fladd@grs^0,0,c
 12993  000FBC  EFE2  F007         	goto	i2u439_41
 12994  000FC0  EFE4  F007         	goto	i2u439_40
 12995  000FC4                     i2u439_41:
 12996  000FC4  EFE8  F007         	goto	i2l4513
 12997  000FC8                     i2u439_40:
 12998  000FC8  80D8               	bsf	status,0,c
 12999  000FCA  3650               	rlcf	___fladd@grs^0,f,c
 13000  000FCC  EFEA  F007         	goto	i2l4515
 13001  000FD0                     i2l4513:
 13002  000FD0  90D8               	bcf	status,0,c
 13003  000FD2  3650               	rlcf	___fladd@grs^0,f,c
 13004  000FD4                     i2l4515:
 13005  000FD4  504F               	movf	___fladd@bexp^0,w,c
 13006  000FD6  B4D8               	btfsc	status,2,c
 13007  000FD8  EFF0  F007         	goto	i2u440_41
 13008  000FDC  EFF2  F007         	goto	i2u440_40
 13009  000FE0                     i2u440_41:
 13010  000FE0  EFF3  F007         	goto	i2l4519
 13011  000FE4                     i2u440_40:
 13012  000FE4  064F               	decf	___fladd@bexp^0,f,c
 13013  000FE6                     i2l4519:
 13014  000FE6  AE43               	btfss	(___fladd@b+2)^0,7,c
 13015  000FE8  EFF8  F007         	goto	i2u441_41
 13016  000FEC  EFFA  F007         	goto	i2u441_40
 13017  000FF0                     i2u441_41:
 13018  000FF0  EFD0  F007         	goto	i2l4503
 13019  000FF4                     i2u441_40:
 13020  000FF4                     i2l4521:
 13021  000FF4  0E00               	movlw	0
 13022  000FF6  6E4E               	movwf	___fladd@aexp^0,c
 13023  000FF8  AE50               	btfss	___fladd@grs^0,7,c
 13024  000FFA  EF01  F008         	goto	i2u442_41
 13025  000FFE  EF03  F008         	goto	i2u442_40
 13026  001002                     i2u442_41:
 13027  001002  EF1B  F008         	goto	i2l1508
 13028  001006                     i2u442_40:
 13029  001006  C050  F049         	movff	___fladd@grs,??___fladd
 13030  00100A  0E7F               	movlw	127
 13031  00100C  1649               	andwf	??___fladd^0,f,c
 13032  00100E  B4D8               	btfsc	status,2,c
 13033  001010  EF0C  F008         	goto	i2u443_41
 13034  001014  EF0E  F008         	goto	i2u443_40
 13035  001018                     i2u443_41:
 13036  001018  EF12  F008         	goto	i2l1509
 13037  00101C                     i2u443_40:
 13038  00101C                     i2l4527:
 13039  00101C  0E01               	movlw	1
 13040  00101E  6E4E               	movwf	___fladd@aexp^0,c
 13041  001020  EF1B  F008         	goto	i2l1508
 13042  001024                     i2l1509:
 13043  001024  A041               	btfss	___fladd@b^0,0,c
 13044  001026  EF17  F008         	goto	i2u444_41
 13045  00102A  EF19  F008         	goto	i2u444_40
 13046  00102E                     i2u444_41:
 13047  00102E  EF1B  F008         	goto	i2l1508
 13048  001032                     i2u444_40:
 13049  001032  EF0E  F008         	goto	i2l4527
 13050  001036                     i2l1508:
 13051  001036  504E               	movf	___fladd@aexp^0,w,c
 13052  001038  B4D8               	btfsc	status,2,c
 13053  00103A  EF21  F008         	goto	i2u445_41
 13054  00103E  EF23  F008         	goto	i2u445_40
 13055  001042                     i2u445_41:
 13056  001042  EF4E  F008         	goto	i2l4539
 13057  001046                     i2u445_40:
 13058  001046  0E01               	movlw	1
 13059  001048  2641               	addwf	___fladd@b^0,f,c
 13060  00104A  0E00               	movlw	0
 13061  00104C  2242               	addwfc	(___fladd@b+1)^0,f,c
 13062  00104E  2243               	addwfc	(___fladd@b+2)^0,f,c
 13063  001050  2244               	addwfc	(___fladd@b+3)^0,f,c
 13064  001052  A044               	btfss	(___fladd@b+3)^0,0,c
 13065  001054  EF2E  F008         	goto	i2u446_41
 13066  001058  EF30  F008         	goto	i2u446_40
 13067  00105C                     i2u446_41:
 13068  00105C  EF4E  F008         	goto	i2l4539
 13069  001060                     i2u446_40:
 13070  001060  C041  F049         	movff	___fladd@b,??___fladd
 13071  001064  C042  F04A         	movff	___fladd@b+1,??___fladd+1
 13072  001068  C043  F04B         	movff	___fladd@b+2,??___fladd+2
 13073  00106C  C044  F04C         	movff	___fladd@b+3,??___fladd+3
 13074  001070  344C               	rlcf	(??___fladd+3)^0,w,c
 13075  001072  324C               	rrcf	(??___fladd+3)^0,f,c
 13076  001074  324B               	rrcf	(??___fladd+2)^0,f,c
 13077  001076  324A               	rrcf	(??___fladd+1)^0,f,c
 13078  001078  3249               	rrcf	??___fladd^0,f,c
 13079  00107A  C049  F041         	movff	??___fladd,___fladd@b
 13080  00107E  C04A  F042         	movff	??___fladd+1,___fladd@b+1
 13081  001082  C04B  F043         	movff	??___fladd+2,___fladd@b+2
 13082  001086  C04C  F044         	movff	??___fladd+3,___fladd@b+3
 13083  00108A  284F               	incf	___fladd@bexp^0,w,c
 13084  00108C  B4D8               	btfsc	status,2,c
 13085  00108E  EF4B  F008         	goto	i2u447_41
 13086  001092  EF4D  F008         	goto	i2u447_40
 13087  001096                     i2u447_41:
 13088  001096  EF4E  F008         	goto	i2l4539
 13089  00109A                     i2u447_40:
 13090  00109A  2A4F               	incf	___fladd@bexp^0,f,c
 13091  00109C                     i2l4539:
 13092  00109C  284F               	incf	___fladd@bexp^0,w,c
 13093  00109E  B4D8               	btfsc	status,2,c
 13094  0010A0  EF54  F008         	goto	i2u448_41
 13095  0010A4  EF56  F008         	goto	i2u448_40
 13096  0010A8                     i2u448_41:
 13097  0010A8  EF5E  F008         	goto	i2l4543
 13098  0010AC                     i2u448_40:
 13099  0010AC  504F               	movf	___fladd@bexp^0,w,c
 13100  0010AE  A4D8               	btfss	status,2,c
 13101  0010B0  EF5C  F008         	goto	i2u449_41
 13102  0010B4  EF5E  F008         	goto	i2u449_40
 13103  0010B8                     i2u449_41:
 13104  0010B8  EF70  F008         	goto	i2l4547
 13105  0010BC                     i2u449_40:
 13106  0010BC                     i2l4543:
 13107  0010BC  0E00               	movlw	0
 13108  0010BE  6E41               	movwf	___fladd@b^0,c
 13109  0010C0  0E00               	movlw	0
 13110  0010C2  6E42               	movwf	(___fladd@b+1)^0,c
 13111  0010C4  0E00               	movlw	0
 13112  0010C6  6E43               	movwf	(___fladd@b+2)^0,c
 13113  0010C8  0E00               	movlw	0
 13114  0010CA  6E44               	movwf	(___fladd@b+3)^0,c
 13115  0010CC  504F               	movf	___fladd@bexp^0,w,c
 13116  0010CE  A4D8               	btfss	status,2,c
 13117  0010D0  EF6C  F008         	goto	i2u450_41
 13118  0010D4  EF6E  F008         	goto	i2u450_40
 13119  0010D8                     i2u450_41:
 13120  0010D8  EF70  F008         	goto	i2l4547
 13121  0010DC                     i2u450_40:
 13122  0010DC  0E00               	movlw	0
 13123  0010DE  6E4D               	movwf	___fladd@signs^0,c
 13124  0010E0                     i2l4547:
 13125  0010E0  A04F               	btfss	___fladd@bexp^0,0,c
 13126  0010E2  EF75  F008         	goto	i2u451_41
 13127  0010E6  EF77  F008         	goto	i2u451_40
 13128  0010EA                     i2u451_41:
 13129  0010EA  EF7A  F008         	goto	i2l4551
 13130  0010EE                     i2u451_40:
 13131  0010EE  8E43               	bsf	(___fladd@b+2)^0,7,c
 13132  0010F0  EF7B  F008         	goto	i2l4553
 13133  0010F4                     i2l4551:
 13134  0010F4  9E43               	bcf	(___fladd@b+2)^0,7,c
 13135  0010F6                     i2l4553:
 13136  0010F6  90D8               	bcf	status,0,c
 13137  0010F8  304F               	rrcf	___fladd@bexp^0,w,c
 13138  0010FA  6E44               	movwf	(___fladd@b+3)^0,c
 13139  0010FC  AE4D               	btfss	___fladd@signs^0,7,c
 13140  0010FE  EF83  F008         	goto	i2u452_41
 13141  001102  EF85  F008         	goto	i2u452_40
 13142  001106                     i2u452_41:
 13143  001106  EF86  F008         	goto	i2l4559
 13144  00110A                     i2u452_40:
 13145  00110A  8E44               	bsf	(___fladd@b+3)^0,7,c
 13146  00110C                     i2l4559:
 13147  00110C  C041  F041         	movff	___fladd@b,?___fladd
 13148  001110  C042  F042         	movff	___fladd@b+1,?___fladd+1
 13149  001114  C043  F043         	movff	___fladd@b+2,?___fladd+2
 13150  001118  C044  F044         	movff	___fladd@b+3,?___fladd+3
 13151  00111C                     i2l1491:
 13152  00111C  0012               	return		;funcret
 13153  00111E                     __end_of___fladd:
 13154                           	opt callstack 0
 13155                           
 13156 ;; *************** function _ADC_GetConversionResult *****************
 13157 ;; Defined at:
 13158 ;;		line 113 in file "mcc_generated_files/adc.c"
 13159 ;; Parameters:    Size  Location     Type
 13160 ;;		None
 13161 ;; Auto vars:     Size  Location     Type
 13162 ;;		None
 13163 ;; Return value:  Size  Location     Type
 13164 ;;                  2    0[COMRAM] unsigned short 
 13165 ;; Registers used:
 13166 ;;		wreg, status,2, status,0
 13167 ;; Tracked objects:
 13168 ;;		On entry : 0/0
 13169 ;;		On exit  : 0/0
 13170 ;;		Unchanged: 0/0
 13171 ;; Data sizes:     COMRAM   BANK0   BANK1   BANK2   BANK3   BANK4   BANK5
 13172 ;;      Params:         2       0       0       0       0       0       0
 13173 ;;      Locals:         0       0       0       0       0       0       0
 13174 ;;      Temps:          2       0       0       0       0       0       0
 13175 ;;      Totals:         4       0       0       0       0       0       0
 13176 ;;Total ram usage:        4 bytes
 13177 ;; Hardware stack levels used:    1
 13178 ;; This function calls:
 13179 ;;		Nothing
 13180 ;; This function is called by:
 13181 ;;		_ADC_temperatura
 13182 ;; This function uses a non-reentrant model
 13183 ;;
 13184                           
 13185                           	psect	text82
 13186  003966                     __ptext82:
 13187                           	opt callstack 0
 13188  003966                     _ADC_GetConversionResult:
 13189                           	opt callstack 18
 13190  003966                     
 13191                           ;mcc_generated_files/adc.c: 116:      return ((adc_result_t)((ADRESH << 8) + ADRESL));
 13192  003966  50C4               	movf	196,w,c	;volatile
 13193  003968  6E04               	movwf	(??_ADC_GetConversionResult+1)^0,c
 13194  00396A  6A03               	clrf	??_ADC_GetConversionResult^0,c
 13195  00396C  50C3               	movf	195,w,c	;volatile
 13196  00396E  2403               	addwf	??_ADC_GetConversionResult^0,w,c
 13197  003970  6E01               	movwf	?_ADC_GetConversionResult^0,c
 13198  003972  0E00               	movlw	0
 13199  003974  2004               	addwfc	(??_ADC_GetConversionResult+1)^0,w,c
 13200  003976  6E02               	movwf	(?_ADC_GetConversionResult+1)^0,c
 13201  003978  0012               	return		;funcret
 13202  00397A                     __end_of_ADC_GetConversionResult:
 13203                           	opt callstack 0
 13204                           
 13205                           	psect	text83
 13206  000000                     __ptext83:
 13207                           	opt callstack 0
 13208  000000                     
 13209                           	psect	rparam
 13210  0000                     
 13211                           	psect	temp
 13212  00005F                     btemp:
 13213                           	opt callstack 0
 13214  00005F                     	ds	1
 13215  0000                     int$flags	set	btemp
 13216  0000                     wtemp8	set	btemp+1
 13217  0000                     ttemp5	set	btemp+1
 13218  0000                     ttemp6	set	btemp+4
 13219  0000                     ttemp7	set	btemp+8
 13220                           tosu	equ	0xFFF
 13221                           tosh	equ	0xFFE
 13222                           tosl	equ	0xFFD
 13223                           stkptr	equ	0xFFC
 13224                           pclatu	equ	0xFFB
 13225                           pclath	equ	0xFFA
 13226                           pcl	equ	0xFF9
 13227                           tblptru	equ	0xFF8
 13228                           tblptrh	equ	0xFF7
 13229                           tblptrl	equ	0xFF6
 13230                           tablat	equ	0xFF5
 13231                           prodh	equ	0xFF4
 13232                           prodl	equ	0xFF3
 13233                           indf0	equ	0xFEF
 13234                           postinc0	equ	0xFEE
 13235                           postdec0	equ	0xFED
 13236                           preinc0	equ	0xFEC
 13237                           plusw0	equ	0xFEB
 13238                           fsr0h	equ	0xFEA
 13239                           fsr0l	equ	0xFE9
 13240                           wreg	equ	0xFE8
 13241                           indf1	equ	0xFE7
 13242                           postinc1	equ	0xFE6
 13243                           postdec1	equ	0xFE5
 13244                           preinc1	equ	0xFE4
 13245                           plusw1	equ	0xFE3
 13246                           fsr1h	equ	0xFE2
 13247                           fsr1l	equ	0xFE1
 13248                           bsr	equ	0xFE0
 13249                           indf2	equ	0xFDF
 13250                           postinc2	equ	0xFDE
 13251                           postdec2	equ	0xFDD
 13252                           preinc2	equ	0xFDC
 13253                           plusw2	equ	0xFDB
 13254                           fsr2h	equ	0xFDA
 13255                           fsr2l	equ	0xFD9
 13256                           status	equ	0xFD8


Data Sizes:
    Strings     558
    Constant    0
    Data        2
    BSS         194
    Persistent  20
    Stack       0

Auto Spaces:
    Space          Size  Autos    Used
    COMRAM           94     90      94
    BANK0           160    116     154
    BANK1           256      5     179
    BANK2           256      0       0
    BANK3           256      0       0
    BANK4           256      0       0
    BANK5           256      0       0

Pointer List with Targets:

    strncat@s	PTR const unsigned char  size(2) Largest target is 1
		 -> tecla_premida(BANK0[1]), temp_alarme_intro(BANK0[1]), 

    strncat@d	PTR unsigned char  size(2) Largest target is 4
		 -> temp_alarme_string(BANK1[4]), 

    strncat@a	PTR unsigned char  size(2) Largest target is 4
		 -> temp_alarme_string(BANK1[4]), 

    strlen@s	PTR const unsigned char  size(2) Largest target is 32
		 -> dbuf(BANK1[32]), temp_alarme_string(BANK1[4]), 

    strlen@a	PTR const unsigned char  size(2) Largest target is 32
		 -> dbuf(BANK1[32]), temp_alarme_string(BANK1[4]), 

    printf@fmt	PTR const unsigned char  size(2) Largest target is 48
		 -> STR_15(CODE[3]), STR_14(CODE[43]), STR_13(CODE[40]), STR_12(CODE[48]), 
		 -> STR_11(CODE[3]), STR_10(CODE[43]), STR_9(CODE[31]), STR_8(CODE[47]), 
		 -> STR_7(CODE[39]), STR_6(CODE[31]), STR_5(CODE[29]), STR_4(CODE[26]), 
		 -> STR_3(CODE[28]), STR_2(CODE[47]), STR_1(CODE[3]), 

    printf@ap	PTR void [1] size(2) Largest target is 2
		 -> ?_printf(BANK0[2]), ?_sprintf(BANK0[2]), 

    sprintf@fmt	PTR const unsigned char  size(2) Largest target is 34
		 -> STR_18(CODE[34]), STR_17(CODE[34]), STR_16(CODE[33]), 

    sprintf@s	PTR unsigned char  size(2) Largest target is 40
		 -> temp_alarme_LCD(BANK1[40]), temp_ambiente_LCD(BANK1[40]), 

    sprintf@ap	PTR void [1] size(2) Largest target is 2
		 -> ?_printf(BANK0[2]), ?_sprintf(BANK0[2]), 

    f.buffer	PTR unsigned char  size(2) Largest target is 40
		 -> temp_alarme_LCD(BANK1[40]), temp_ambiente_LCD(BANK1[40]), 

    fputs@s	PTR const unsigned char  size(2) Largest target is 32
		 -> dbuf(BANK1[32]), 

    fputs@fp	PTR struct _IO_FILE size(2) Largest target is 7
		 -> sprintf@f(BANK0[6]), NULL(NULL[0]), 

    S2385_IO_FILE$buffer	PTR unsigned char  size(2) Largest target is 40
		 -> temp_alarme_LCD(BANK1[40]), temp_ambiente_LCD(BANK1[40]), 

    fputc@fp.buffer	PTR unsigned char  size(2) Largest target is 40
		 -> temp_alarme_LCD(BANK1[40]), temp_ambiente_LCD(BANK1[40]), 

    fputc@fp	PTR struct _IO_FILE size(2) Largest target is 7
		 -> sprintf@f(BANK0[6]), NULL(NULL[0]), 

    memset@dest	PTR void  size(2) Largest target is 4
		 -> temp_alarme_string(BANK1[4]), 

    memset@s	PTR unsigned char  size(2) Largest target is 4
		 -> temp_alarme_string(BANK1[4]), 

    atoi@s	PTR const unsigned char  size(2) Largest target is 48
		 -> STR_18(CODE[34]), STR_17(CODE[34]), STR_16(CODE[33]), STR_15(CODE[3]), 
		 -> STR_14(CODE[43]), STR_13(CODE[40]), STR_12(CODE[48]), temp_alarme_string(BANK1[4]), 
		 -> STR_11(CODE[3]), STR_10(CODE[43]), STR_9(CODE[31]), STR_8(CODE[47]), 
		 -> STR_7(CODE[39]), STR_6(CODE[31]), STR_5(CODE[29]), STR_4(CODE[26]), 
		 -> STR_3(CODE[28]), STR_2(CODE[47]), STR_1(CODE[3]), 

    vfprintf@ap	PTR PTR void  size(2) Largest target is 2
		 -> printf@ap(BANK0[2]), sprintf@ap(BANK0[2]), 

    vfprintf@fp	PTR struct _IO_FILE size(2) Largest target is 7
		 -> sprintf@f(BANK0[6]), NULL(NULL[0]), 

    vfprintf@fmt	PTR const unsigned char  size(2) Largest target is 48
		 -> STR_18(CODE[34]), STR_17(CODE[34]), STR_16(CODE[33]), STR_15(CODE[3]), 
		 -> STR_14(CODE[43]), STR_13(CODE[40]), STR_12(CODE[48]), STR_11(CODE[3]), 
		 -> STR_10(CODE[43]), STR_9(CODE[31]), STR_8(CODE[47]), STR_7(CODE[39]), 
		 -> STR_6(CODE[31]), STR_5(CODE[29]), STR_4(CODE[26]), STR_3(CODE[28]), 
		 -> STR_2(CODE[47]), STR_1(CODE[3]), 

    vfprintf@cfmt	PTR unsigned char  size(2) Largest target is 48
		 -> STR_18(CODE[34]), STR_17(CODE[34]), STR_16(CODE[33]), STR_15(CODE[3]), 
		 -> STR_14(CODE[43]), STR_13(CODE[40]), STR_12(CODE[48]), STR_11(CODE[3]), 
		 -> STR_10(CODE[43]), STR_9(CODE[31]), STR_8(CODE[47]), STR_7(CODE[39]), 
		 -> STR_6(CODE[31]), STR_5(CODE[29]), STR_4(CODE[26]), STR_3(CODE[28]), 
		 -> STR_2(CODE[47]), STR_1(CODE[3]), 

    vfpfcnvrt@fp	PTR struct _IO_FILE size(2) Largest target is 7
		 -> sprintf@f(BANK0[6]), NULL(NULL[0]), 

    vfpfcnvrt@ap	PTR PTR void  size(2) Largest target is 2
		 -> printf@ap(BANK0[2]), sprintf@ap(BANK0[2]), 

    vfpfcnvrt@fmt	PTR PTR unsigned char  size(2) Largest target is 2
		 -> vfprintf@cfmt(BANK0[2]), 

    dtoa@fp	PTR struct _IO_FILE size(2) Largest target is 7
		 -> sprintf@f(BANK0[6]), NULL(NULL[0]), 

    ctoa@fp	PTR struct _IO_FILE size(2) Largest target is 7
		 -> sprintf@f(BANK0[6]), NULL(NULL[0]), 

    pad@fp	PTR struct _IO_FILE size(2) Largest target is 7
		 -> sprintf@f(BANK0[6]), NULL(NULL[0]), 

    pad@buf	PTR unsigned char  size(2) Largest target is 32
		 -> dbuf(BANK1[32]), 

    putsXLCD@buffer	PTR unsigned char  size(2) Largest target is 40
		 -> STR_25(CODE[22]), STR_24(CODE[23]), STR_23(CODE[11]), STR_22(CODE[19]), 
		 -> STR_21(CODE[11]), STR_20(CODE[12]), STR_19(CODE[12]), temp_alarme_LCD(BANK1[40]), 
		 -> temp_ambiente_LCD(BANK1[40]), temp_alarme_string(BANK1[4]), 

    sp__strncat	PTR unsigned char  size(2) Largest target is 4
		 -> temp_alarme_string(BANK1[4]), 

    sp__memset	PTR void  size(2) Largest target is 4
		 -> temp_alarme_string(BANK1[4]), 

    EUSART1_SetRxInterruptHandler@interruptHandler	PTR FTN()void  size(2) Largest target is 1
		 -> EUSART1_Receive_ISR(), 

    EUSART1_SetErrorHandler@interruptHandler	PTR FTN()void  size(2) Largest target is 1
		 -> EUSART1_DefaultErrorHandler(), 

    EUSART1_SetOverrunErrorHandler@interruptHandler	PTR FTN()void  size(2) Largest target is 1
		 -> EUSART1_DefaultOverrunErrorHandler(), 

    EUSART1_SetFramingErrorHandler@interruptHandler	PTR FTN()void  size(2) Largest target is 1
		 -> EUSART1_DefaultFramingErrorHandler(), 

    EUSART1_ErrorHandler	PTR FTN()void  size(2) Largest target is 1
		 -> EUSART1_DefaultErrorHandler(), Absolute function(), 

    EUSART1_OverrunErrorHandler	PTR FTN()void  size(2) Largest target is 1
		 -> EUSART1_DefaultOverrunErrorHandler(), Absolute function(), 

    EUSART1_FramingErrorHandler	PTR FTN()void  size(2) Largest target is 1
		 -> EUSART1_DefaultFramingErrorHandler(), Absolute function(), 

    ADC_SetInterruptHandler@InterruptHandler	PTR FTN()void  size(2) Largest target is 1
		 -> ADC_temperatura(), ADC_DefaultInterruptHandler(), 

    ADC_InterruptHandler	PTR FTN()void  size(2) Largest target is 1
		 -> ADC_temperatura(), ADC_DefaultInterruptHandler(), Absolute function(), 

    EUSART1_RxDefaultInterruptHandler	PTR FTN()void  size(2) Largest target is 1
		 -> EUSART1_Receive_ISR(), Absolute function(), 

    INT2_SetInterruptHandler@InterruptHandler	PTR FTN()void  size(2) Largest target is 1
		 -> teclado_coluna_3(), INT2_DefaultInterruptHandler(), 

    INT2_InterruptHandler	PTR FTN()void  size(2) Largest target is 1
		 -> teclado_coluna_3(), INT2_DefaultInterruptHandler(), Absolute function(), 

    INT1_SetInterruptHandler@InterruptHandler	PTR FTN()void  size(2) Largest target is 1
		 -> teclado_coluna_2(), INT1_DefaultInterruptHandler(), 

    INT1_InterruptHandler	PTR FTN()void  size(2) Largest target is 1
		 -> teclado_coluna_2(), INT1_DefaultInterruptHandler(), Absolute function(), 

    INT0_SetInterruptHandler@InterruptHandler	PTR FTN()void  size(2) Largest target is 1
		 -> teclado_coluna_1(), INT0_DefaultInterruptHandler(), 

    INT0_InterruptHandler	PTR FTN()void  size(2) Largest target is 1
		 -> teclado_coluna_1(), INT0_DefaultInterruptHandler(), Absolute function(), 

    TMR0_SetInterruptHandler@InterruptHandler	PTR FTN()void  size(2) Largest target is 1
		 -> Timer_0(), TMR0_DefaultInterruptHandler(), 

    TMR0_InterruptHandler	PTR FTN()void  size(2) Largest target is 1
		 -> Timer_0(), Absolute function(), TMR0_DefaultInterruptHandler(), 


Critical Paths under _main in COMRAM

    None.

Critical Paths under _INTERRUPT_InterruptManagerHigh in COMRAM

    _TMR0_ISR->_Timer_0
    _ADC_temperatura->___fltol
    ___fltol->___fladd
    ___flmul->___fldiv
    ___fldiv->___xxtofl
    ___fladd->___flmul

Critical Paths under _main in BANK0

    _main->_sprintf
    _strncat->_strlen
    _sprintf->_vfprintf
    _printf->_vfprintf
    _vfprintf->_vfpfcnvrt
    _vfpfcnvrt->_dtoa
    _dtoa->_pad
    _abs->___aomod
    _ctoa->_pad
    _pad->_fputs
    _fputs->_fputc
    _fputc->_putch
    _putch->_EUSART1_Write
    _atoi->_isspace
    _SYSTEM_Initialize->_TMR0_Initialize
    _TMR0_Initialize->_TMR0_SetInterruptHandler
    _EXT_INT_Initialize->_INT0_SetInterruptHandler
    _EXT_INT_Initialize->_INT1_SetInterruptHandler
    _EXT_INT_Initialize->_INT2_SetInterruptHandler
    _EUSART1_Initialize->_EUSART1_SetErrorHandler
    _EUSART1_Initialize->_EUSART1_SetFramingErrorHandler
    _EUSART1_Initialize->_EUSART1_SetOverrunErrorHandler
    _EUSART1_Initialize->_EUSART1_SetRxInterruptHandler
    _ADC_Initialize->_ADC_SetInterruptHandler
    _LCD_inicio_teste->_putsXLCD
    _putsXLCD->_WriteDataXLCD
    _OpenXLCD->_DelayPORXLCD
    _OpenXLCD->_DelayXLCD
    _OpenXLCD->_WriteCmdXLCD

Critical Paths under _INTERRUPT_InterruptManagerHigh in BANK0

    None.

Critical Paths under _main in BANK1

    None.

Critical Paths under _INTERRUPT_InterruptManagerHigh in BANK1

    None.

Critical Paths under _main in BANK2

    None.

Critical Paths under _INTERRUPT_InterruptManagerHigh in BANK2

    None.

Critical Paths under _main in BANK3

    None.

Critical Paths under _INTERRUPT_InterruptManagerHigh in BANK3

    None.

Critical Paths under _main in BANK4

    None.

Critical Paths under _INTERRUPT_InterruptManagerHigh in BANK4

    None.

Critical Paths under _main in BANK5

    None.

Critical Paths under _INTERRUPT_InterruptManagerHigh in BANK5

    None.

Call Graph Tables:

 ---------------------------------------------------------------------------------
 (Depth) Function   	        Calls       Base Space   Used Autos Params    Refs
 ---------------------------------------------------------------------------------
 (0) _main                                                 5     5      0   44168
                                              0 BANK1      5     5      0
            _ADC_SetInterruptHandler
                           _BusyXLCD
                       _EUSART1_Read
                      _EUSART1_Write
                _EUSART1_is_rx_ready
           _INT0_SetInterruptHandler
           _INT1_SetInterruptHandler
           _INT2_SetInterruptHandler
                   _LCD_inicio_teste
                  _SYSTEM_Initialize
           _TMR0_SetInterruptHandler
                       _WriteCmdXLCD
                               _atoi
                             _memset
                             _printf
                           _putsXLCD
                            _sprintf
                            _strncat
 ---------------------------------------------------------------------------------
 (1) _strncat                                              8     2      6    1092
                                             10 BANK0      8     2      6
                             _strlen
 ---------------------------------------------------------------------------------
 (1) _sprintf                                             16    10      6   16427
                                            100 BANK0     16    10      6
                           _vfprintf
 ---------------------------------------------------------------------------------
 (1) _printf                                               8     4      4   17012
                                            100 BANK0      8     4      4
                           _vfprintf
 ---------------------------------------------------------------------------------
 (2) _vfprintf                                             8     2      6   15569
                                             92 BANK0      8     2      6
                          _vfpfcnvrt
 ---------------------------------------------------------------------------------
 (3) _vfpfcnvrt                                           46    40      6   14784
                                             71 BANK0     21    15      6
                               _atoi
                               _ctoa
                               _dtoa
                              _fputc
                            _isdigit
 ---------------------------------------------------------------------------------
 (4) _dtoa                                                36    26     10    6167
                                             35 BANK0     36    26     10
                            ___aodiv
                            ___aomod
                                _abs
                                _pad
 ---------------------------------------------------------------------------------
 (5) _abs                                                  4     2      2     183
                                             24 BANK0      4     2      2
                            ___aomod (ARG)
 ---------------------------------------------------------------------------------
 (5) ___aomod                                             18     2     16     613
                                              6 BANK0     18     2     16
 ---------------------------------------------------------------------------------
 (5) ___aodiv                                             26    10     16     625
                                              6 BANK0     26    10     16
 ---------------------------------------------------------------------------------
 (4) _ctoa                                                 7     4      3    4180
                                             35 BANK0      5     2      3
                                _pad
 ---------------------------------------------------------------------------------
 (5) _pad                                                 11     5      6    3901
                                             24 BANK0     11     5      6
                              _fputc
                              _fputs
                             _strlen
 ---------------------------------------------------------------------------------
 (2) _strlen                                               4     2      2     310
                                              6 BANK0      4     2      2
 ---------------------------------------------------------------------------------
 (6) _fputs                                                7     3      4    1599
                                             17 BANK0      7     3      4
                              _fputc
 ---------------------------------------------------------------------------------
 (4) _fputc                                                9     5      4    1099
                                              8 BANK0      9     5      4
                              _putch
 ---------------------------------------------------------------------------------
 (5) _putch                                                1     1      0      62
                                              7 BANK0      1     1      0
                      _EUSART1_Write
 ---------------------------------------------------------------------------------
 (6) _EUSART1_Write                                        1     1      0      31
                                              6 BANK0      1     1      0
 ---------------------------------------------------------------------------------
 (4) _atoi                                                15    13      2    1845
                                             13 BANK0     15    13      2
                             ___wmul
                            _isdigit
                            _isspace
 ---------------------------------------------------------------------------------
 (5) _isspace                                              7     5      2     259
                                              6 BANK0      7     5      2
 ---------------------------------------------------------------------------------
 (4) _isdigit                                              6     4      2     281
                                              6 BANK0      6     4      2
 ---------------------------------------------------------------------------------
 (5) ___wmul                                               6     2      4     562
                                              6 BANK0      6     2      4
 ---------------------------------------------------------------------------------
 (1) _memset                                              12     6      6    2097
                                              6 BANK0     12     6      6
 ---------------------------------------------------------------------------------
 (1) _SYSTEM_Initialize                                    0     0      0    1539
                     _ADC_Initialize
                   _EPWM1_Initialize
                 _EUSART1_Initialize
                 _EXT_INT_Initialize
               _INTERRUPT_Initialize
              _OSCILLATOR_Initialize
             _PIN_MANAGER_Initialize
                    _TMR0_Initialize
                    _TMR2_Initialize
 ---------------------------------------------------------------------------------
 (2) _TMR2_Initialize                                      0     0      0       0
 ---------------------------------------------------------------------------------
 (2) _TMR0_Initialize                                      2     2      0     211
                                              8 BANK0      2     2      0
           _TMR0_SetInterruptHandler
 ---------------------------------------------------------------------------------
 (1) _TMR0_SetInterruptHandler                             2     0      2     211
                                              6 BANK0      2     0      2
 ---------------------------------------------------------------------------------
 (2) _PIN_MANAGER_Initialize                               0     0      0       0
 ---------------------------------------------------------------------------------
 (2) _OSCILLATOR_Initialize                                0     0      0       0
 ---------------------------------------------------------------------------------
 (2) _INTERRUPT_Initialize                                 0     0      0       0
 ---------------------------------------------------------------------------------
 (2) _EXT_INT_Initialize                                   0     0      0     633
           _INT0_SetInterruptHandler
           _INT1_SetInterruptHandler
           _INT2_SetInterruptHandler
 ---------------------------------------------------------------------------------
 (3) _INT2_SetInterruptHandler                             2     0      2     211
                                              6 BANK0      2     0      2
 ---------------------------------------------------------------------------------
 (3) _INT1_SetInterruptHandler                             2     0      2     211
                                              6 BANK0      2     0      2
 ---------------------------------------------------------------------------------
 (3) _INT0_SetInterruptHandler                             2     0      2     211
                                              6 BANK0      2     0      2
 ---------------------------------------------------------------------------------
 (2) _EUSART1_Initialize                                   0     0      0     484
            _EUSART1_SetErrorHandler
     _EUSART1_SetFramingErrorHandler
     _EUSART1_SetOverrunErrorHandler
      _EUSART1_SetRxInterruptHandler
 ---------------------------------------------------------------------------------
 (3) _EUSART1_SetRxInterruptHandler                        2     0      2     121
                                              6 BANK0      2     0      2
 ---------------------------------------------------------------------------------
 (3) _EUSART1_SetOverrunErrorHandler                       2     0      2     121
                                              6 BANK0      2     0      2
 ---------------------------------------------------------------------------------
 (3) _EUSART1_SetFramingErrorHandler                       2     0      2     121
                                              6 BANK0      2     0      2
 ---------------------------------------------------------------------------------
 (3) _EUSART1_SetErrorHandler                              2     0      2     121
                                              6 BANK0      2     0      2
 ---------------------------------------------------------------------------------
 (2) _EPWM1_Initialize                                     0     0      0       0
 ---------------------------------------------------------------------------------
 (2) _ADC_Initialize                                       0     0      0     211
            _ADC_SetInterruptHandler
 ---------------------------------------------------------------------------------
 (3) _ADC_SetInterruptHandler                              2     0      2     211
                                              6 BANK0      2     0      2
 ---------------------------------------------------------------------------------
 (1) _LCD_inicio_teste                                     6     6      0    1383
                                              9 BANK0      6     6      0
                           _BusyXLCD
                           _OpenXLCD
                       _WriteCmdXLCD
                           _putsXLCD
 ---------------------------------------------------------------------------------
 (1) _putsXLCD                                             2     0      2    1117
                                              7 BANK0      2     0      2
                           _BusyXLCD
                      _WriteDataXLCD
 ---------------------------------------------------------------------------------
 (2) _WriteDataXLCD                                        1     1      0      62
                                              6 BANK0      1     1      0
                      _DelayFor18TCY
 ---------------------------------------------------------------------------------
 (2) _OpenXLCD                                             1     1      0      62
                           _BusyXLCD
                      _DelayFor18TCY
                       _DelayPORXLCD
                          _DelayXLCD
                       _WriteCmdXLCD
 ---------------------------------------------------------------------------------
 (1) _WriteCmdXLCD                                         1     1      0      62
                                              6 BANK0      1     1      0
                      _DelayFor18TCY
 ---------------------------------------------------------------------------------
 (3) _DelayXLCD                                            1     1      0       0
                                              6 BANK0      1     1      0
 ---------------------------------------------------------------------------------
 (3) _DelayPORXLCD                                         1     1      0       0
                                              6 BANK0      1     1      0
 ---------------------------------------------------------------------------------
 (2) _BusyXLCD                                             0     0      0       0
                      _DelayFor18TCY
 ---------------------------------------------------------------------------------
 (3) _DelayFor18TCY                                        0     0      0       0
 ---------------------------------------------------------------------------------
 (1) _EUSART1_is_rx_ready                                  0     0      0       0
 ---------------------------------------------------------------------------------
 (1) _EUSART1_Read                                         1     1      0      37
                                              6 BANK0      1     1      0
 ---------------------------------------------------------------------------------
 Estimated maximum stack depth 6
 ---------------------------------------------------------------------------------
 (Depth) Function   	        Calls       Base Space   Used Autos Params    Refs
 ---------------------------------------------------------------------------------
 (10) _INTERRUPT_InterruptManagerHigh                      6     6      0    7146
                                              0 BANK0      6     6      0
                   Absolute function *
                            _ADC_ISR
                _EUSART1_Receive_ISR *
                           _INT0_ISR
                           _INT1_ISR
                           _INT2_ISR
                           _TMR0_ISR
 ---------------------------------------------------------------------------------
 (11) _TMR0_ISR                                            0     0      0       0
                   Absolute function *
       _TMR0_DefaultInterruptHandler *
                            _Timer_0 *
 ---------------------------------------------------------------------------------
 (12) _Timer_0                                             1     1      0       0
                                              0 COMRAM     1     1      0
                _ADC_StartConversion
 ---------------------------------------------------------------------------------
 (13) _ADC_StartConversion                                 0     0      0       0
 ---------------------------------------------------------------------------------
 (12) _TMR0_DefaultInterruptHandler                        0     0      0       0
 ---------------------------------------------------------------------------------
 (11) _INT2_ISR                                            0     0      0       0
                      _INT2_CallBack
 ---------------------------------------------------------------------------------
 (12) _INT2_CallBack                                       0     0      0       0
                   Absolute function *
       _INT2_DefaultInterruptHandler *
                   _teclado_coluna_3 *
 ---------------------------------------------------------------------------------
 (13) _teclado_coluna_3                                    0     0      0       0
 ---------------------------------------------------------------------------------
 (13) _INT2_DefaultInterruptHandler                        0     0      0       0
 ---------------------------------------------------------------------------------
 (11) _INT1_ISR                                            0     0      0       0
                      _INT1_CallBack
 ---------------------------------------------------------------------------------
 (12) _INT1_CallBack                                       0     0      0       0
                   Absolute function *
       _INT1_DefaultInterruptHandler *
                   _teclado_coluna_2 *
 ---------------------------------------------------------------------------------
 (13) _teclado_coluna_2                                    0     0      0       0
 ---------------------------------------------------------------------------------
 (13) _INT1_DefaultInterruptHandler                        0     0      0       0
 ---------------------------------------------------------------------------------
 (11) _INT0_ISR                                            0     0      0       0
                      _INT0_CallBack
 ---------------------------------------------------------------------------------
 (12) _INT0_CallBack                                       0     0      0       0
                   Absolute function *
       _INT0_DefaultInterruptHandler *
                   _teclado_coluna_1 *
 ---------------------------------------------------------------------------------
 (13) _teclado_coluna_1                                    0     0      0       0
 ---------------------------------------------------------------------------------
 (13) _INT0_DefaultInterruptHandler                        0     0      0       0
 ---------------------------------------------------------------------------------
 (11) _EUSART1_Receive_ISR                                 0     0      0       0
                   Absolute function *
        _EUSART1_DefaultErrorHandler *
 _EUSART1_DefaultFramingErrorHandler *
 _EUSART1_DefaultOverrunErrorHandler *
              _EUSART1_RxDataHandler
 ---------------------------------------------------------------------------------
 (12) _EUSART1_DefaultOverrunErrorHandler                  0     0      0       0
 ---------------------------------------------------------------------------------
 (12) _EUSART1_DefaultFramingErrorHandler                  0     0      0       0
 ---------------------------------------------------------------------------------
 (12) _EUSART1_DefaultErrorHandler                         0     0      0       0
              _EUSART1_RxDataHandler
 ---------------------------------------------------------------------------------
 (12) _EUSART1_RxDataHandler                               0     0      0       0
 ---------------------------------------------------------------------------------
 (11) _ADC_ISR                                             0     0      0    7146
                   Absolute function *
        _ADC_DefaultInterruptHandler *
                    _ADC_temperatura *
 ---------------------------------------------------------------------------------
 (12) _ADC_temperatura                                     0     0      0    7146
            _ADC_GetConversionResult
                            ___fladd
                            ___fldiv
                            ___flmul
                            ___fltol
                           ___xxtofl
 ---------------------------------------------------------------------------------
 (13) ___xxtofl                                           14    10      4     474
                                              0 COMRAM    14    10      4
 ---------------------------------------------------------------------------------
 (13) ___fltol                                            10     6      4     381
                                             80 COMRAM    10     6      4
                            ___fladd (ARG)
                            ___fldiv (ARG)
                            ___flmul (ARG)
                           ___xxtofl (ARG)
 ---------------------------------------------------------------------------------
 (13) ___flmul                                            25    17      8    1896
                                             39 COMRAM    25    17      8
                            ___fldiv (ARG)
                           ___xxtofl (ARG)
 ---------------------------------------------------------------------------------
 (13) ___fldiv                                            25    17      8    1703
                                             14 COMRAM    25    17      8
                           ___xxtofl (ARG)
 ---------------------------------------------------------------------------------
 (13) ___fladd                                            16     8      8    2692
                                             64 COMRAM    16     8      8
                            ___fldiv (ARG)
                            ___flmul (ARG)
                           ___xxtofl (ARG)
 ---------------------------------------------------------------------------------
 (13) _ADC_GetConversionResult                             4     2      2       0
                                              0 COMRAM     4     2      2
 ---------------------------------------------------------------------------------
 (12) _ADC_DefaultInterruptHandler                         0     0      0       0
 ---------------------------------------------------------------------------------
 (12) Absolute function(Fake)                              0     0      0       0
 ---------------------------------------------------------------------------------
 Estimated maximum stack depth 13
 ---------------------------------------------------------------------------------

 Call Graph Graphs:

 _main (ROOT)
   _ADC_SetInterruptHandler
   _BusyXLCD
     _DelayFor18TCY
   _EUSART1_Read
   _EUSART1_Write
   _EUSART1_is_rx_ready
   _INT0_SetInterruptHandler
   _INT1_SetInterruptHandler
   _INT2_SetInterruptHandler
   _LCD_inicio_teste
     _BusyXLCD
       _DelayFor18TCY
     _OpenXLCD
       _BusyXLCD
         _DelayFor18TCY
       _DelayFor18TCY
       _DelayPORXLCD
       _DelayXLCD
       _WriteCmdXLCD
         _DelayFor18TCY
     _WriteCmdXLCD
       _DelayFor18TCY
     _putsXLCD
       _BusyXLCD
         _DelayFor18TCY
       _WriteDataXLCD
         _DelayFor18TCY
   _SYSTEM_Initialize
     _ADC_Initialize
       _ADC_SetInterruptHandler
     _EPWM1_Initialize
     _EUSART1_Initialize
       _EUSART1_SetErrorHandler
       _EUSART1_SetFramingErrorHandler
       _EUSART1_SetOverrunErrorHandler
       _EUSART1_SetRxInterruptHandler
     _EXT_INT_Initialize
       _INT0_SetInterruptHandler
       _INT1_SetInterruptHandler
       _INT2_SetInterruptHandler
     _INTERRUPT_Initialize
     _OSCILLATOR_Initialize
     _PIN_MANAGER_Initialize
     _TMR0_Initialize
       _TMR0_SetInterruptHandler
     _TMR2_Initialize
   _TMR0_SetInterruptHandler
   _WriteCmdXLCD
     _DelayFor18TCY
   _atoi
     ___wmul
     _isdigit
     _isspace
   _memset
   _printf
     _vfprintf
       _vfpfcnvrt
         _atoi
           ___wmul
           _isdigit
           _isspace
         _ctoa
           _pad
             _fputc
               _putch
                 _EUSART1_Write
             _fputs
               _fputc
                 _putch
                   _EUSART1_Write
             _strlen
         _dtoa
           ___aodiv
           ___aomod
           _abs
             ___aomod (ARG)
           _pad
             _fputc
               _putch
                 _EUSART1_Write
             _fputs
               _fputc
                 _putch
                   _EUSART1_Write
             _strlen
         _fputc
           _putch
             _EUSART1_Write
         _isdigit
   _putsXLCD
     _BusyXLCD
       _DelayFor18TCY
     _WriteDataXLCD
       _DelayFor18TCY
   _sprintf
     _vfprintf
       _vfpfcnvrt
         _atoi
           ___wmul
           _isdigit
           _isspace
         _ctoa
           _pad
             _fputc
               _putch
                 _EUSART1_Write
             _fputs
               _fputc
                 _putch
                   _EUSART1_Write
             _strlen
         _dtoa
           ___aodiv
           ___aomod
           _abs
             ___aomod (ARG)
           _pad
             _fputc
               _putch
                 _EUSART1_Write
             _fputs
               _fputc
                 _putch
                   _EUSART1_Write
             _strlen
         _fputc
           _putch
             _EUSART1_Write
         _isdigit
   _strncat
     _strlen

 _INTERRUPT_InterruptManagerHigh (ROOT)
   Absolute function(Fake) *
   _ADC_ISR *
     Absolute function(Fake) *
     _ADC_DefaultInterruptHandler *
     _ADC_temperatura *
       _ADC_GetConversionResult
       ___fladd
         ___fldiv (ARG)
           ___xxtofl (ARG)
         ___flmul (ARG)
           ___fldiv (ARG)
             ___xxtofl (ARG)
           ___xxtofl (ARG)
         ___xxtofl (ARG)
       ___fldiv
         ___xxtofl (ARG)
       ___flmul
         ___fldiv (ARG)
           ___xxtofl (ARG)
         ___xxtofl (ARG)
       ___fltol
         ___fladd (ARG)
           ___fldiv (ARG)
             ___xxtofl (ARG)
           ___flmul (ARG)
             ___fldiv (ARG)
               ___xxtofl (ARG)
             ___xxtofl (ARG)
           ___xxtofl (ARG)
         ___fldiv (ARG)
           ___xxtofl (ARG)
         ___flmul (ARG)
           ___fldiv (ARG)
             ___xxtofl (ARG)
           ___xxtofl (ARG)
         ___xxtofl (ARG)
       ___xxtofl
   _EUSART1_Receive_ISR *
     Absolute function(Fake) *
     _EUSART1_DefaultErrorHandler *
       _EUSART1_RxDataHandler
     _EUSART1_DefaultFramingErrorHandler *
     _EUSART1_DefaultOverrunErrorHandler *
     _EUSART1_RxDataHandler *
   _INT0_ISR *
     _INT0_CallBack
       Absolute function(Fake) *
       _INT0_DefaultInterruptHandler *
       _teclado_coluna_1 *
   _INT1_ISR *
     _INT1_CallBack
       Absolute function(Fake) *
       _INT1_DefaultInterruptHandler *
       _teclado_coluna_2 *
   _INT2_ISR *
     _INT2_CallBack
       Absolute function(Fake) *
       _INT2_DefaultInterruptHandler *
       _teclado_coluna_3 *
   _TMR0_ISR *
     Absolute function(Fake) *
     _TMR0_DefaultInterruptHandler *
     _Timer_0 *
       _ADC_StartConversion

 Address spaces:
Name               Size   Autos  Total    Cost      Usage
BIGRAM             5FF      0       0      16        0.0%
EEDATA             100      0       0       0        0.0%
BITBANK5           100      0       0      14        0.0%
BANK5              100      0       0      15        0.0%
BITBANK4           100      0       0      12        0.0%
BANK4              100      0       0      13        0.0%
BITBANK3           100      0       0      10        0.0%
BANK3              100      0       0      11        0.0%
BITBANK2           100      0       0       7        0.0%
BANK2              100      0       0       8        0.0%
BITBANK1           100      0       0       5        0.0%
BANK1              100      5      B3       6       69.9%
BITBANK0            A0      0       0       3        0.0%
BANK0               A0     74      9A       4       96.3%
BITCOMRAM           5E      0       0       0        0.0%
COMRAM              5E     5A      5E       1      100.0%
BITSFR_1             0      0       0     200        0.0%
SFR_1                0      0       0     200        0.0%
BITSFR               0      0       0     200        0.0%
SFR                  0      0       0     200        0.0%
STACK                0      0       0       2        0.0%
NULL                 0      0       0       0        0.0%
ABS                  0      0     1AB       9        0.0%
DATA                 0      0     1AB      17        0.0%
CODE                 0      0       0       0        0.0%


Microchip Technology PIC18 Macro Assembler V2.10 build 88905656 
Symbol Table                                                                                   Thu May 21 21:02:01 2020

                                  ___fldiv@aexp 0027                                    ___fldiv@bexp 0026  
                                  ___fldiv@sign 001F                                              l21 3750  
                                            l43 39CC                                              l74 39EA  
                                            l87 39E0                             ___wmul@multiplicand 0068  
                               _timer0ReloadVal 00F8                                ?_ADC_temperatura 0001  
                                  __CFG_CP0$OFF 000000                                    __CFG_CP1$OFF 000000  
                                  __CFG_CP2$OFF 000000                                    __CFG_CP3$OFF 000000  
                                   __CFG_LVP$ON 000000                                             l100 39D6  
                                           l106 362C                                             l221 34DE  
                                           l303 38DA                                             l135 39C2  
                                           l331 3A1C                                             l405 3950  
                                           l237 3988                                             l421 3926  
                                           l182 39B4                                             l430 39A6  
                                           l424 3938                                             l273 3920  
                                           l418 340A                                             l179 38B4  
                                           l453 3A08                                             l613 0502  
                                           l462 39F4                                             l711 3900  
                                           l456 39FE                                             l608 03AA  
                                           l714 3964                                             l459 3A12  
                                           l708 3998                                             l900 3312  
                                           l397 32B4                                             l735 2C48  
                                           l738 3512                                             l906 1CCC  
                                           l739 3524                                             l764 35AC  
                                           l908 1CD4                                             l749 3116  
                                           l941 1C2A                                             l926 1F0E  
                                           l950 3178                                             l767 3568  
                                           l951 3180                                             l857 2124  
                                           l954 388E                                             l891 2EA8  
                                           l893 2EE4                                             l888 2E64  
                                  __CFG_CPB$OFF 000000                          _temp_ambiente_anterior 011A  
                                           _PR2 000FBB                                    __CFG_CPD$OFF 000000  
                    ??_INT0_SetInterruptHandler 0068                                             _abs 35AE  
                                           _pad 2E1C                                 __end_of_ADC_ISR 3784  
                                           _pin 0110                 __end_of_ADC_SetInterruptHandler 3A1E  
                         __size_of_WriteCmdXLCD 0044                                 _TMR2_Initialize 397A  
                                           tosl 000FFD                                             wreg 000FE8  
                                    _TXSTA1bits 000FAC                                   _INT0_CallBack 37E4  
                                  ___flmul@aexp 0039                                    ___flmul@bexp 003A  
                  ?_ADC_DefaultInterruptHandler 0001                                    ___flmul@sign 0034  
                                  ___flmul@temp 003F                                    ___flmul@prod 003B  
                                 _INT1_CallBack 37B4                                    ___fltol@exp1 005A  
                                          ?_abs 0078                                            l1081 2B3E  
                                          l1068 2860                                            l1632 35EE  
                                          l1721 3866                                            l1714 33B8  
                                          l1707 3452                                            l1660 2322  
                                          l1629 35E6                                            l1663 232A  
                                          l1727 36DE                                            l1681 29D8  
                                          l6001 2840                                            l1737 30A2  
                                          l1666 3718                                            l1674 3366  
                                          l6011 2A0E                                            l6101 32CA  
                                          l6021 2A66                                            l6013 2A12  
                                          l6005 29DA                                            l6103 32D6  
                                          l6031 2AE8                                            l6023 2A7A  
                                          l6015 2A20                                            l6007 29E0  
                                          l6201 3588                                            l6041 3314  
                                          l6105 32E2                                            l6025 2A88  
                                          l6033 2AEE                                            l6017 2A40  
                                          l6009 29EE                                            l6121 1CA4  
                                          l6113 1C2C                                            l7001 0A5A  
                                          l6211 35A2                                            l6203 358A  
                                          l6043 331A                                            l1699 2E1A  
                                          l6107 32E6                                            l6035 2AFE  
                                          l6027 2AB6                                            l6019 2A5E  
                                          l6131 1CFC                                            l6123 1CA6  
                                          l6115 1C4C                                            l7011 0AA2  
                                          l7003 0A5E                                            l6221 34E8  
                                          l6213 35A6                                            l6205 358E  
                                          l6045 332E                                            l6061 2174  
                                          l6053 2126                                            l6109 32EC  
                                          l6037 2B1E                                            l6029 2AD6  
                                          l6141 1D9E                                            l6133 1D02  
                                          l6125 1CC0                                            l6117 1C76  
                                          l6301 1988                                            l7021 0B04  
                                          l7013 0AAA                                            l7005 0A72  
                                          ?_pad 0078                                            l6231 3508  
                                          l6223 34EE                                            l6207 359C  
                                          l6047 335C                                            l6071 21E4  
                                          l6063 21C2                                            l6055 213C  
                                          l6151 1E48                                            l6143 1DA4  
                                          l6135 1D0A                                            l6127 1CDC  
                                          l6119 1C96                                            l6311 1A38  
                                          l6303 19C2                                            l7031 0B68  
                                          l7015 0AC8                                            l7023 0B24  
                                          l7007 0A78                                            l6241 3514  
                                          l6233 350A                                            l6225 34FC  
                                          l6217 34E0                                            l6209 35A0  
                                          l6401 3902                                            l6049 3360  
                                          l6081 228E                                            l6073 21EC  
                                          l6065 21C6                                            l6057 2140  
                                          l6161 1EAA                                            l6153 1E62  
                                          l6145 1DAA                                            l6137 1D14  
                                          l6129 1CEE                                            l6321 1ABC  
                                          l6305 19E2                                            l6313 1A4A  
                                          l7041 0BB8                                            l7033 0B7C  
                                          l7025 0B40                                            l7017 0AE4  
                                          l7009 0A8C                                            l6243 3518  
                                          l6235 350C                                            l6227 34FE  
                                          l6219 34E4                                            l6411 3262  
                                          l6403 397A                                            l6075 21F4  
                                          l6059 2144                                            l6163 1EB0  
                                          l6171 1EE6                                            l6155 1E7C  
                                          l6139 1D1A                                            l6147 1E0E  
                                          l6331 1B84                                            l6323 1AE0  
                                          l6315 1A6E                                            l6307 19F0  
                                          l7051 0BF8                                            l7043 0BD2  
                                          l7035 0B82                                            l7027 0B46  
                                          l7019 0AEC                                            l6245 351E  
                                          l6229 3502                                            l6253 38DC  
                                          l6501 2BB2                                            l6261 352A  
                                          l6421 3276                                            l6413 3266  
                                          l6181 39CE                                            l6405 3982  
                                          l6085 22E2                                            l6077 223E  
                                          l6069 21CE                                            l6165 1EC2  
                                          l6149 1E2A                                            l6157 1E8A  
                                          l6333 1BA8                                            l6341 1BD8  
                                          l6325 1B04                                            l6317 1AA0  
                                          l7061 0C10                                            l7053 0BFA  
                                          l7045 0BD8                                            l7037 0B96  
                                          l7029 0B5A                                            l6095 398A  
                                          l6247 3520                                            l6511 2BFA  
                                          l6503 2BC6                                            l6271 3546  
                                          l6263 353C                                            l6431 30A8  
                                          l6183 3A14                                            l6191 3A0A  
                                          l6423 3284                                            l6415 326A  
                                          l6407 3252                                            l6175 39C4  
                                          l6087 22F4                                            l7207 2228  
                                          l6167 1ECE                                            l6159 1E9C  
                                          l6343 1BE6                                            l6335 1BB6  
                                          l6327 1B4C                                            l7071 0C28  
                                          l7063 0C12                                            l7055 0BFC  
                                          l7039 0BA4                                            l7047 0BEC  
                                          l6249 3522                                            l6257 3952  
                                          l6193 356E                                            l6521 2C42  
                                          l6513 2C0E                                            l6505 2BCC  
                                          l6441 2B44                                            l6281 3562  
                                          l6273 354A                                            l6265 353E  
                                          l6433 30BC                                            l6601 1FAA  
                                          l6185 39EC                                            l6425 3292  
                                          l6417 326E                                            l6409 3254  
                                          l6177 39E2                                            l6361 373C  
                                          l6089 2306                                            l6169 1ED6  
                                          l6337 1BCA                                            l7081 0C40  
                                          l7073 0C2A                                            l7065 0C14  
                                          l7057 0BFE                                            l7049 0BF6  
                                          l6195 3580                                            l6515 2C14  
                                          l6507 2BE0                                            l6451 2B52  
                                          l6443 2B48                                            l6275 3558  
                                          l6267 3540                                            l6435 30E0  
                                          l6611 1FF2                                            l6603 1FB0  
                                          l6187 3A00                                            l6427 32B2  
                                          l6419 3272                                            l6179 39D8  
                                          l6371 35F4                                            l6363 373E  
                                          l6355 371A                                            l6099 32B6  
                                          l6291 1926                                            l6347 1BF2  
                                          l6531 315C                                            l7083 0C42  
                                          l7075 0C2C                                            l7067 0C16  
                                          l7059 0C0E                                            l6197 3582  
                                          l6517 2C28                                            l6509 2BE6  
                                          l6461 2B64                                            l6453 2B54  
                                          l6445 2B4C                                            l6277 355C  
                                          l6269 3544                                            l6437 30E6  
                                          l6429 30A4                                            l6621 2034  
                                          l6613 2006                                            l6605 1FC4  
                                          l6189 39F6                                            l6381 3618  
                                          l6373 3602                                            l6365 3740  
                                          l6357 371C                                            l6541 38A0  
                                          l6533 3890                                            l5901 2D9E  
                                          l6349 1C18                                            l6293 192A  
                                          l6285 18E2                                            l6525 3118  
                                          l6701 304C                                            l7085 0C44  
                                          l7077 0C2E                                            l7069 0C26  
                                          l6551 393A                                            l6199 3584  
                                          l6519 2C2E                                            l6471 2B74  
                                          l6463 2B68                                            l6455 2B56  
                                          l6447 2B4E                                            l6439 2B40  
                                          l6279 355E                                            l6623 2048  
                                          l6615 200C                                            l6607 1FD2  
                                          l6383 361A                                            l6375 3604  
                                          l6391 34DC                                            l6367 374C  
                                          l6359 3724                                            l6543 38A4  
                                          l6535 3894                                            l5903 2DD4  
                                          l5911 342C                                            l6295 194E  
                                          l6287 1906                                            l6527 3120  
                                          l6711 3092                                            l6703 3060  
                                          l7087 0C46                                            l7079 0C3E  
                                          l6561 33EC                                            l6481 2B8C  
                                          l6473 2B78                                            l6465 2B6A  
                                          l6457 2B5C                                            l6449 2B50  
                                          l6633 207A                                            l6625 2056  
                                          l6617 2020                                            l6609 1FEC  
                                          l6385 362A                                            l6377 3606  
                                          l6369 35F0                                            l6393 39A8  
                                          l6545 38A8                                            l6537 3898  
                                          l5913 3432                                            l5921 36D0  
                                          l6297 1956                                            l6289 1914  
                                          l6529 312E                                            l6721 3382  
                                          l6713 309E                                            l6705 3064  
                                          l6801 0332                                            l6571 3406  
                                          l6563 33EE                                            l6555 33BA  
                                          l6491 2BA4                                            l6483 2B90  
                                          l6475 2B7C                                            l6467 2B6E  
                                          l6459 2B60                                            l6651 20F0  
                                          l6643 209E                                            l6635 2080  
                                          l6627 2070                                            l6619 202E  
                                          l6395 38B6                                            l6379 3616  
                                          l6387 39B6                                            l6547 38AC  
                                          l6539 389C                                            l5907 340C  
                                          l5915 36A6                                            l5931 2E50  
                                          l6299 1964                                            l6723 338A  
                                          l6707 3068                                            l6811 03CE  
                                          l6803 036A                                            l6573 3408  
                                          l6565 33FE                                            l6557 33BA  
                                          l6493 2BA6                                            l6485 2B94  
                                          l6477 2B80                                            l6469 2B70  
                                          l6653 210A                                            l6645 20AE  
                                          l6637 2094                                            l6581 1F20  
                                          l6397 38CA                                            l6389 349A  
                                          l6549 38B0                                            l5909 341A  
                                          l5917 36B2                                            l5941 2EB6  
                                          l5933 2E5C                                            l5925 2E1C  
                                          l6725 33A6                                            l6717 3368  
                                          l6709 307A                                            l6901 071E  
                                          l6821 0434                                            l6813 03D8  
                                          l6805 037E                                            l6741 013C  
                                          l6733 0132                                            l6567 3402  
                                          l6559 33CC                                            l6495 2BA8  
                                          l6487 2B9A                                            l6479 2B86  
                                          l6655 2110                                            l6647 20D0  
                                          l6591 1F68                                            l6583 1F34  
                                          l6399 38CC                                            l6663 2862  
                                          l5951 36E0                                            l5919 36B8  
                                          l5943 2ECA                                            l5935 2E70  
                                          l5927 2E2C                                            l6719 337A  
                                          l6911 0760                                            l6903 0726  
                                          l6831 0476                                            l6823 043E  
                                          l6807 038A                                            l6815 03E0  
                                          l6751 0178                                            l6743 0140  
                                          l6735 0136                                            l6569 3404  
                                          l6497 2BAC                                            l6489 2BA0  
                                          l6649 20D4                                            l6593 1F6E  
                                          l6585 1F3A                                            l6577 1F10  
                                          l6681 2962                                            l6673 28C4  
                                          l5937 2E84                                            l5929 2E40  
                                          l5961 26D8                                            l6657 3840  
                                          l6913 0772                                            l6905 072C  
                                          l6841 04E0                                            l6833 048A  
                                          l6825 0452                                            l6817 03F2  
                                          l6809 039E                                            l6761 01AC  
                                          l6753 0186                                            l6745 014E  
                                          l6737 0138                                            l6499 2BAE  
                                          l6595 1F82                                            l6587 1F4E  
                                          l6579 1F1A                                            l6691 29C2  
                                          l6675 291C                                            l6667 2882  
                                          l5955 3868                                            l5891 399E  
                                          l5939 2E8A                                            l5971 271E  
                                          l5963 26DE                                            l5947 35AE  
                                          l6659 384A                                            l6931 07F0  
                                          l6915 0784                                            l6923 07AA  
                                          l6907 0740                                            l6843 04F2  
                                          l6835 049E                                            l6851 0574  
                                          l6827 045C                                            l6819 0404  
                                          l6771 01F2                                            l6763 01B4  
                                          l6755 0190                                            l6747 015C  
                                          l6739 0138                                            l6597 1F88  
                                          l6589 1F54                                            l6693 29C6  
                                          l6685 297C                                            l6669 288E  
                                          l5957 3886                                            l5893 2D50  
                                          l5981 2774                                            l5973 273E  
                                          l5965 26EC                                            l5949 35CA  
                                          l6941 084A                                            l6933 0804  
                                          l6925 07BC                                            l6917 078C  
                                          l6909 074E                                            l6861 05CC  
                                          l6853 0588                                            l6845 051E  
                                          l6837 04BC                                            l6829 0464  
                                          l6781 027A                                            l6773 0206  
                                          l6765 01BC                                            l6757 0198  
                                          l6749 016A                                            l6599 1F9C  
                                          l6687 29B0                                            l6679 2936  
                                          l5887 3926                                            l5895 2D64  
                                          l5991 27F6                                            l5983 2788  
                                          l5975 2742                                            l5967 270C  
                                          l6695 302C                                            l6951 08B0  
                                          l6943 085E                                            l6935 0812  
                                          l6927 07CE                                            l6919 0792  
                                          l6871 0614                                            l6863 05D4  
                                          l6855 059A                                            l6839 04D8  
                                          l6847 0540                                            l6783 028E  
                                          l6791 02D6                                            l6775 021A  
                                          l6767 01C4                                            l6759 01A2  
                                          l6689 29BC                                            l5889 3934  
                                          l5897 2D76                                            l5993 27F8  
                                          l5985 2796                                            l5977 274E  
                                          l5969 2710                                            l6697 302C  
                                          l6961 08F2                                            l6953 08B6  
                                          l6945 086C                                            l6937 0826  
                                          l6929 07EA                                            l6881 066E  
                                          l6873 0626                                            l6857 05AE  
                                          l6865 05DE                                            l6793 02EA  
                                          l6785 02A2                                            l6777 023E  
                                          l6769 01CC                                            l5899 2D80  
                                          l5995 280A                                            l5987 27A8  
                                          l5979 276C                                            l6699 3046  
                                          l6971 094E                                            l6963 0906  
                                          l6955 08CA                                            l6939 0844  
                                          l6947 0880                                            l6891 06B2  
                                          l6883 0680                                            l6875 0638  
                                          l6867 05F0                                            l6859 05C2  
                                          l6795 02FC                                            l6787 02C6  
                                          l6779 0254                                            l5989 27D6  
                                          l5997 2810                                            l6981 09A8  
                                          l6973 0960                                            l6965 0914  
                                          l6957 08D8                                            l6949 0894  
                                          l6893 06D0                                            l6877 064A  
                                          l6869 0602                                            l6885 0692  
                                          l6797 030E                                            l6789 02D4  
                                          l5999 2820                                            l6983 09BA  
                                          l6975 0972                                            l6991 0A02  
                                          l6959 08EC                                            l6967 0928  
                                          l6887 06A6                                            l6879 065C  
                                          l6895 06E6                                            l6799 0320  
                                          l6993 0A1E                                            l6985 09CC  
                                          l6977 0984                                            l6969 093C  
                                          l6897 06FA                                            l6889 06AA  
                                          l6995 0A24                                            l6987 09DE  
                                          l6979 0996                                            l6899 070C  
                                          l6997 0A38                                            l6989 09F0  
                                          l6999 0A46                                            STR_1 7FFC  
                                          STR_2 7E30                                            STR_3 7F58  
                                          STR_4 7F74                                            STR_5 7F3B  
                                          STR_6 7F1C                                            STR_7 7EB2  
                                          STR_8 7E01                                            STR_9 7F1C  
                                          _LATA 000F89                                            _LATB 000F8A  
                                          _LATC 000F8B                                            _LATD 000F8C  
                                          _LATE 000F8D                                            u7000 2306  
                                          u7001 2302                                            u7010 32CA  
                                          u7011 32C6                                            u7100 1E48  
                                          u7020 1C5E                                            u7101 1E44  
                                          u7021 1C58                                            u7110 1E62  
                                          u7030 1C60                                            u7111 1E5E  
                                          u7120 1E7C                                            u7040 1C76  
                                          u7200 1988                                            u8000 06FA  
                                          u7121 1E78                                            u7041 1C72  
                                          u7201 1984                                            u8001 06F6  
                                          u7130 1E8A                                            u7050 1CA4  
                                          u7210 1A32                                            u8010 070C  
                                          u7131 1E86                                            u7051 1CA0  
                                          u7211 1A2C                                            u8011 0708  
                                          u7300 3106                                            u7140 1E9C  
                                          u7060 1CC0                                            u7220 1A34  
                                          u8100 0804                                            u8020 071E  
                                          u7141 1E98                                            u7061 1CBC  
                                          u8101 0800                                            u8021 071A  
                                          u7310 3116                                            u7150 1EAA  
                                          u7070 1CEE                                            u7230 1A4A  
                                          u8110 0826                                            u8030 0740  
                                          u7311 3112                                            u7151 1EA6  
                                          u7071 1CEA                                            u7231 1A46  
                                          u8111 0822                                            u8031 073C  
                                          i2l40 3668                                            u7400 3950  
                                          u7320 2BC6                                            u6600 3934  
                                          u7160 1EC2                                            u7080 1CFC  
                                          u7240 1A6E                                            u8200 094E  
                                          u8120 085E                                            u8040 0760  
                                          u7321 2BC2                                            u6601 3930  
                                          u7161 1EBE                                            u7081 1CF8  
                                          u7241 1A6A                                            u8201 094A  
                                          u8121 085A                                            u8041 075C  
                                          u7410 33CC                                            u7170 34FC  
                                          u7330 2BE0                                            u6610 2D64  
                                          u7090 1E2A                                            u7250 1AE0  
                                          u8210 0960                                            u8130 0880  
                                          u8050 0772                                            u7411 33C8  
                                          u7171 34F8                                            u7331 2BDC  
                                          u7307 30FC                                            u6611 2D60  
                                          u7091 1E26                                            u7251 1ADC  
                                          u8211 095C                                            u8131 087C  
                                          u8051 076E                                            u7420 33FE  
                                          u7340 2BFA                                            u7500 2020  
                                          u6620 2D76                                            u6700 2EB6  
                                          u7260 1B04                                            u7180 1906  
                                          u8300 0A02                                            u8220 0972  
                                          u8140 0894                                            u8060 0784  
                                          u7421 33FA                                            u7341 2BF6  
                                          u7501 201C                                            u6621 2D72  
                                          u6701 2EB2                                            u7261 1B00  
                                          u7181 1902                                            u8301 09FE  
                                          u8221 096E                                            u8141 0890  
                                          u8061 0780                                            i2l46 3A48  
                                          u7350 2C0E                                            u7510 2048  
                                          u7430 1F34                                            u6630 2D9E  
                                          u6710 35CA                                            u7270 1BA8  
                                          u7190 194E                                            u8310 0A38  
                                          u8230 0984                                            u8150 08CA  
                                          u8070 07A6                                            i2l71 3812  
                                          u7351 2C0A                                            u7511 2044  
                                          u7431 1F30                                            u6631 2D9A  
                                          u6711 35C6                                            u7271 1BA4  
                                          u7191 194A                                            u8311 0A34  
                                          u8231 0980                                            u8151 08C6  
                                          u8071 07A2                                            i2l80 3A2C  
                                          u7360 2C28                                            u7280 30BC  
                                          u7520 2094                                            u7440 1F4E  
                                          u7600 29D8                                            u6720 3712  
                                          u6640 2DD4                                            u6800 2820  
                                          u8400 0BB8                                            u8320 0A5A  
                                          u8240 0996                                            u8160 08EC  
                                          u8080 07BC                                            u7361 2C24  
                                          u7281 30B8                                            u7521 2090  
                                          u7441 1F4A                                            u7601 29D4  
                                          u6721 370C                                            u6641 2DD0  
                                          u6801 281C                                            u8401 0BB4  
                                          u8321 0A56                                            u8241 0992  
                                          u8161 08E8                                            u8081 07B8  
                                          i2l90 3A4C                                            u7370 2C42  
                                          u7290 30DC                                            u7530 20D0  
                                          u7450 1F68                                            u6730 3714  
                                          u6650 3452                                            u6810 29EE  
                                          u7610 307A                                            u8410 0BEC  
                                          u8330 0A72                                            u8250 09A8  
                                          u8170 0906                                            u8090 07CE  
                                          i2l67 3A34                                            u7371 2C3E  
                                          u7531 20CC                                            u7451 1F64  
                                          u6651 344E                                            u6811 29EA  
                                          u7611 3076                                            u8411 0BE8  
                                          u8331 0A6E                                            u8251 09A4  
                                          u8171 0902                                            u8091 07CA  
                                          i2l84 37E2                                            u7540 20F0  
                                          u7460 1F82                                            u6900 2174  
                                          u6660 36D0                                            u6740 26EC  
                                          u6820 2A20                                            u7380 3178  
                                          u7620 3092                                            u8340 0A8C  
                                          u8260 09BA                                            u8180 0928  
                                          u7700 02C6                                            i2l77 3A4E  
                                          i2l93 3A24                                            u7541 20EC  
                                          u7461 1F7E                                            u6901 2170  
                                          u6661 36CC                                            u6741 26E8  
                                          u6821 2A1C                                            u7381 3174  
                                          u7621 308E                                            u8341 0A88  
                                          u8261 09B6                                            u8181 0924  
                                          u7701 02C2                                            u7390 394E  
                                          u7550 2124                                            u7470 1F9C  
                                          u6910 219E                                            u6670 2E2C  
                                          u6750 271E                                            u6830 2A5E  
                                          u8350 0AC8                                            u8270 09CC  
                                          u8190 093C                                            u7710 02EA  
                                          u7630 01F2                                            u7391 3948  
                                          u7551 2120                                            u7471 1F98  
                                          u6671 2E28                                            u6751 271A  
                                          u6831 2A5A                                            u8351 0AC4  
                                          u8271 09C8                                            u8191 0938  
                                          u7711 02E6                                            u7631 01EE  
                                          u7480 1FC4                                            u7560 287E  
                                          u6920 21C2                                            u6680 2E50  
                                          u6840 2A88                                            u8360 0AE4  
                                          u8280 09DE                                            u7800 0452  
                                          u7720 02FC                                            u7640 0206  
                                          i2l97 37B2                                            u7297 30D2  
                                          u7481 1FC0                                            u7561 287A  
                                          u6921 21BE                                            u6681 2E4C  
                                          u6761 2748                                            u6841 2A84  
                                          u8361 0AE0                                            u8281 09DA  
                                          u7801 044E                                            u7721 02F8  
                                          u7641 0202                                            u7490 2006  
                                          u7570 28C0                                            u6930 21E0  
                                          u6690 2EA8                                            u6770 276C  
                                          u6850 2AB6                                            u8370 0B5A  
                                          u8290 09F0                                            u7810 0476  
                                          u7730 030E                                            u7650 021A  
                                          u8507 2062                                            u7491 2002  
                                          u7571 28BC                                            u6931 21DC  
                                          u6691 2EA4                                            u6771 2768  
                                          u6851 2AB2                                            u8371 0B56  
                                          u8291 09EC                                            u7811 0472  
                                          u7731 030A                                            u7651 0216  
                                          u7580 2932                                            u6940 2214  
                                          u6780 2796                                            u6860 2AFE  
                                          u8380 0B7C                                            u7900 0602  
                                          u7820 048A                                            u7740 0320  
                                          u7660 023E                                            u8517 20A6  
                                          u7581 292E                                            u6917 2194  
                                          u6781 2792                                            u6861 2AFA  
                                          u8381 0B78                                            u7901 05FE  
                                          u7821 0486                                            u7741 031C  
                                          u7661 023A                                            u7590 2978  
                                          u6870 332E                                            u6950 2272  
                                          u6790 27D6                                            u8390 0B96  
                                          u7910 0614                                            u7830 04BC  
                                          u7750 0332                                            u7670 027A  
                                          u8527 20FC                                            u7591 2974  
                                          u6871 332A                                            u6791 27D2  
                                          u8447 0BC4                                            u8391 0B92  
                                          u7911 0610                                            u7831 04B8  
                                          u7751 032E                                            u7671 0276  
                               _temp_alarme_LCD 014C                                            u6880 335C  
                                          u6960 22B6                                            u7920 0626  
                                          u7840 04D8                                            u7760 037E  
                                          u7680 028E                                            u8537 395A  
                                          u6881 3358                                            u8457 0C06  
                                          u7921 0622                                            u7841 04D4  
                                          u7761 037A                                            u7681 028A  
                                          u6970 22DC                                            u6890 2164  
                                          u7930 0638                                            u7850 04F2  
                                          u7770 039E                                            u7690 02A2  
                                          u8547 38E4                                            u6971 22D6  
                                          u6947 220A                                            u8467 0C1E  
                                          u7931 0634                                            u7851 04EE  
                                          u7771 039A                                            u7691 029E  
                                          u6980 22DE                                            u7940 064A  
                                          u7860 0588                                            u7780 03F2  
                                          u8557 38F6                                            u6957 2268  
                                          u8477 0C36                                            u7941 0646  
                                          u7861 0584                                            u7781 03EE  
                                          u6990 22F4                                            u7950 065C  
                                          u7870 059A                                            u7790 0404  
                                          u8567 398C                                            u6991 22F0  
                                          u6967 22AC                                            u8487 0C4E  
                                          u7951 0658                                            u7871 0596  
                                          u7791 0400                                            u7960 066E  
                                          u7880 05AE                                            u8577 3992  
                                          u8497 1FDE                                            u6897 215A  
                                          u7961 066A                                            u7881 05AA  
                                          u7970 0680                                            u7890 05F0  
                                          u7971 067C                                            u7891 05EC  
                                          u7980 0692                                            u7981 068E  
                                          u7990 06A6                                            u7991 06A2  
                                          _TMR2 000FBC                                            _WPUB 000F61  
                                 _INT2_CallBack 3784                                _LCD_inicio_teste 1F10  
                                 _EUSART1_Write 3922                                            abs@a 0078  
                                          _dbuf 0174                                            _atoi 2126  
                                          _ctoa 32B6                                            _main 0132  
                                          _dtoa 1C2C                                   ?_EUSART1_Read 0001  
                                          _prec 00DA                                            _nout 0114  
                                          pad@i 007F                                            pad@p 007C  
                                          fsr1h 000FE2                                            fsr2h 000FDA  
                                          indf1 000FE7                                            indf2 000FDF  
                                          fsr1l 000FE1                                            pad@w 0081  
                                          fsr2l 000FD9                                            btemp 005F  
                                 __CFG_BORV$190 000000               __size_of_INT2_SetInterruptHandler 000A  
                     ?_INT2_SetInterruptHandler 0066                          __size_of_WriteDataXLCD 0044  
                                          prodh 000FF4                                            prodl 000FF3  
                                          start 012E                                   __CFG_IESO$OFF 000000  
                               ___fldiv@new_exp 0020                  fp__EUSART1_DefaultErrorHandler 0000  
                                  ___param_bank 000000                                           ??_abs 007A  
                                         ??_pad 007E                                    _WriteCmdXLCD 356A  
                       __end_of_TMR0_Initialize 3752                                __end_of_INT0_ISR 3A36  
                              __end_of_INT1_ISR 3A2E                                __end_of_INT2_ISR 3A26  
                ??_TMR0_DefaultInterruptHandler 0001                                 __end_of_Timer_0 36A6  
                __size_of_OSCILLATOR_Initialize 000E                   __end_of_OSCILLATOR_Initialize 39B6  
                         _eusart1RxStatusBuffer 0100                                   ___fltol@sign1 0059  
                               __end_of___aodiv 2862                                           ?_atoi 006D  
                                         ?_ctoa 0083                                 __end_of___fladd 111E  
                                         ?_main 0001                                           ?_dtoa 0083  
                               __end_of___aomod 2B40                                 __end_of___fldiv 18E2  
                                         STR_10 7E5F                                           STR_11 7FFC  
                                         STR_20 7FDA                                           STR_12 7DD1  
                                         STR_21 7FF1                                           STR_13 7E8A  
                                         STR_14 7E5F                                           STR_22 7FBB  
                                         STR_15 7FFC                                           STR_23 7FE6  
                                         STR_24 7F8E                                           STR_16 7EFB  
                                         STR_25 7FA5                                           STR_17 7ED9  
                                         STR_18 7ED9                                           STR_19 7FCE  
                               __end_of___flmul 1548                                 __end_of___fltol 2D50  
                                         _T0CON 000FD5                                           _T2CON 000FBA  
                                __CFG_DEBUG$OFF 000000                                           i2l103 3A4A  
                                         i2l140 0046                                           i2l142 0082  
                                         i2l144 00A6                                           i2l152 0112  
                                         i2l146 00CA                                           i2l315 3978  
                                         i2l147 0112                                           i2l148 00EE  
                                         i2l309 3A44                                           i2l334 3A52  
                                         i2l328 3782                                           i2l441 383E  
                                         i2l450 3A40                                           i2l444 3A50  
                                         i2l437 2FAC                                           i2l447 3A3A  
                                         i2l800 2FCE                                           i2l802 2FE4  
                                         i2l803 302A                                           i2l804 2FFA  
                                         i2l580 36A4                                           i2l807 302A  
                                         i2l585 2522                                           i2l780 3202  
                                         i2l781 3246                                           i2l782 321A  
                                         i2l790 319A                                           i2l791 31DE  
                                         i2l784 3232                                           i2l792 31B2  
                                         i2l794 31CA                                           i2l787 3250  
                                         i2l797 31E8                                    vfpfcnvrt@fmt 00A9  
                                         _TMR0H 000FD7                                           _TMR0L 000FD6  
                                         _PORTD 000F83                               ?_teclado_coluna_1 0001  
                             ?_teclado_coluna_2 0001                               ?_teclado_coluna_3 0001  
                                         _TRISA 000F92                                           _TRISB 000F93  
                                ?_INT0_CallBack 0001                                           _TRISC 000F94  
                                         _TRISD 000F95                                           _TRISE 000F96  
              __size_of_ADC_GetConversionResult 0014               __size_of_TMR0_SetInterruptHandler 000A  
                                 __CFG_WRT0$OFF 000000                                   __CFG_WRT1$OFF 000000  
                                 __CFG_WRT2$OFF 000000                       ?_TMR0_SetInterruptHandler 0066  
                                 __CFG_WRT3$OFF 000000                                  __CFG_EBTR0$OFF 000000  
                                __CFG_FCMEN$OFF 000000                                  __CFG_EBTR1$OFF 000000  
                                __CFG_EBTR2$OFF 000000                                  __CFG_EBTR3$OFF 000000  
                              __end_of_TMR0_ISR 366A                              ??_teclado_coluna_1 0001  
                            ??_teclado_coluna_2 0001                              ??_teclado_coluna_3 0001  
                                 __CFG_WRTB$OFF 000000                                   __CFG_WRTC$OFF 000000  
                                 __CFG_WRTD$OFF 000000                                  ?_INT1_CallBack 0001  
                                __CFG_EBTRB$OFF 000000                                           _flags 00DC  
                                         _enter 00DE                  ??_INT1_DefaultInterruptHandler 0001  
                                         _fputc 2D50                                           _fputs 340C  
                               __end_of_isdigit 371A                              __CFG_MCLRE$EXTMCLR 000000  
                                         atoi@n 007A                                           pad@fp 0078  
                                         atoi@s 006D                                           _width 00D8  
                                         ctoa@c 0085                                           _putch 399A  
                                         ctoa@w 0086                                           dtoa@d 0085  
                                         dtoa@i 00A5                                           dtoa@n 009D  
                                         dtoa@p 0097                                           dtoa@s 009B  
                                         dtoa@w 0099                                  ?_INT2_CallBack 0001  
                               __end_of_isspace 3368                        _INT1_SetInterruptHandler 39D8  
                                ?_EUSART1_Write 0001                                           pclath 000FFA  
                                         tablat 000FF5                                  ??_EUSART1_Read 0066  
                                         ttemp5 0060                                           ttemp6 0063  
                                         ttemp7 0067                                           status 000FD8  
                                         wtemp8 0060                                 __end_of_sprintf 33BA  
                                __CFG_HFOFST$ON 000000                                 __end_of_strncat 30A4  
         fp__EUSART1_DefaultFramingErrorHandler 0000      __end_of_EUSART1_DefaultFramingErrorHandler 3A52  
   __size_of_EUSART1_DefaultFramingErrorHandler 0002            ??_EUSART1_DefaultFramingErrorHandler 0001  
           ?_EUSART1_DefaultFramingErrorHandler 0001              _EUSART1_DefaultFramingErrorHandler 3A50  
                                __CFG_PBADEN$ON 000000                                 __initialization 3454  
                                  __end_of_atoi 232C                                    __end_of_ctoa 3314  
                    __end_of_EUSART1_Initialize 32B6                                    __end_of_main 0C5E  
                                  __end_of_dtoa 1F10                                __end_of_BusyXLCD 3526  
                            __size_of_DelayXLCD 0014                           __size_of_DelayPORXLCD 0026  
                       __end_of_TMR2_Initialize 398A                                       ??_ADC_ISR 005B  
                              __end_of_OpenXLCD 2C4A                                          ??_atoi 006F  
                                        ??_ctoa 0086                                          ??_main 01AC  
                                        ??_dtoa 008D                                   __activetblptr 000002  
                                 _WriteDataXLCD 3526                                          _ADCON0 000FC2  
                                        _ADCON1 000FC1                                          _ADCON2 000FC0  
                                        ?_fputc 0068                                          ?_fputs 0071  
                                        _ADRESH 000FC4                                          _ADRESL 000FC3  
                                        _CCPR1H 000FBF                                          _CCPR1L 000FBE  
                                        _ANSELA 000F38                                          ?_putch 0001  
                                        _ANSELB 000F39                                          _ANSELC 000F3A  
                                        _ANSELD 000F3B                                          _ANSELE 000F3C  
                  __size_of_EUSART1_is_rx_ready 0018                                          i2l1251 2D4E  
                                        i2l1508 1036                                          i2l1612 26D6  
                                        i2l1509 1024                                          i2l1541 1704  
                                        i2l1550 17EC                                          i2l1623 266E  
                                        i2l1536 18E0                                          i2l1616 2612  
                                        i2l1609 257A                                          i2l1482 0E4C  
                                        i2l1538 1740                                          i2l1491 111C  
                                        i2l1483 0E3A                                          i2l1547 1786  
                                        i2l5011 366A                                          i2l1484 0E00  
                                        i2l1572 1546                                          i2l1549 17FE  
                                        i2l5021 23CC                                          i2l5013 367E  
                                __CFG_WDTEN$OFF 000000                                          i2l1575 13D8  
                                        i2l5023 24E8                                          i2l5007 3A36  
                                        i2l4143 3A42                                          i2l5015 36A0  
                                        i2l1568 11E2                                          i2l4145 3966  
                                        i2l4401 0D2E                                          i2l1585 1508  
                                        i2l1577 1450                                          i2l5025 2502  
                                        i2l5017 232C                                          i2l4161 3828  
                                        i2l5009 3A3C                                          i2l1578 143E  
                                        i2l1499 0F66                                          i2l4411 0D66  
                                        i2l4403 0D3E                                          i2l5027 250C  
                                        i2l5019 2338                                          i2l4163 3838  
                                        i2l5211 2F06                                          i2l4421 0D7A  
                                        i2l4413 0D6A                                          i2l4405 0D50  
                                        i2l5029 2518                                          i2l4165 383C  
                                        i2l4157 3814                                          i2l5221 2F6A  
                                        i2l5213 2F16                                          i2l4261 31F8  
                                        i2l5141 363A                                          i2l4511 0FC8  
                                        i2l4503 0FA0                                          i2l4431 0D8E  
                                        i2l4423 0D7E                                          i2l4415 0D6E  
                                        i2l4407 0D5E                                          i2l4159 3826  
                                        i2l5223 2F88                                          i2l5215 2F30  
                                        i2l5207 2EE6                                          i2l4263 3210  
                                        i2l4271 3190                                          i2l5151 3A28  
                                        i2l5143 364E                                          i2l5135 362E  
                                        i2l4513 0FD0                                          i2l4505 0FAA  
                                        i2l4521 0FF4                                          i2l4441 0DA2  
                                        i2l4433 0D92                                          i2l4425 0D82  
                                        i2l4417 0D72                                          i2l4409 0D62  
                                        i2l4361 0C5E                                          i2l4601 1614  
                                        i2l5161 3780                                          i2l5225 2FA8  
                                        i2l5217 2F3E                                          i2l5209 2EF8  
                                        i2l4265 3228                                          i2l5145 3A2E  
                                        i2l4273 31A8                                          i2l4281 2FB8  
                                        i2l5153 3A1E                                          i2l5137 3630  
                                        i2l5401 00D8                                          i2l4531 1046  
                                        i2l4523 0FF8                                          i2l4515 0FD4  
                                        i2l4507 0FB8                                          i2l4451 0E1A  
                                        i2l4443 0DCC                                          i2l4435 0D96  
                                        i2l4427 0D86                                          i2l4419 0D76  
                                        i2l4371 0C9A                                          i2l4363 0C6A  
                                        i2l4603 162A                                          i2l5219 2F50  
                                        i2l4267 3240                                          i2l4259 31EA  
                                        i2l5147 3A30                                          i2l4275 31C0  
                                        i2l4283 2FC6                                          i2l5155 3A20  
                                        i2l5139 3636                                          i2l5403 00E6  
                                        i2l4541 10AC                                          i2l4533 1052  
                                        i2l4525 1006                                          i2l4517 0FE4  
                                        i2l4509 0FBA                                          i2l4461 0E5A  
                                        i2l4453 0E1E                                          i2l4445 0DE8  
                                        i2l4437 0D9A                                          i2l4429 0D8A  
                                        i2l4381 0CCA                                          i2l4373 0CAA  
                                        i2l4365 0C78                                          i2l4621 167E  
                                        i2l4605 163A                                          i2l4613 165A  
                                        i2l4701 111E                                          i2l5157 3752  
                                        i2l4277 31D8                                          i2l4269 3182  
                                        i2l5149 3A26                                          i2l4285 2FDC  
                                        i2l5405 00FC                                          i2l4551 10F4  
                                        i2l4543 10BC                                          i2l4535 1060  
                                        i2l4527 101C                                          i2l4519 0FE6  
                                        i2l4471 0E9C                                          i2l4463 0E6A  
                                        i2l4455 0E2C                                          i2l4447 0DF8  
                                        i2l4439 0D9E                                          i2l4391 0CF4  
                                        i2l4383 0CDC                                          i2l4375 0CAC  
                                        i2l4367 0C7A                                          i2l4631 16D0  
                                        i2l4623 1698                                          i2l4615 166A  
                                        i2l4607 1642                                          i2l4711 115A  
                                        i2l4703 112A                                          i2l5159 3766  
                                        i2l4287 2FF2                                          i2l4279 2FAE  
                                        i2l5407 010A                                          i2l4553 10F6  
                                        i2l4545 10DC                                          i2l4537 109A  
                                        i2l4481 0ECA                                          i2l4473 0EAA  
                                        i2l4457 0E2E                                          i2l4449 0E0E  
                                        i2l4393 0D04                                          i2l4385 0CDE  
                                        i2l4369 0C8A                                          i2l4377 0CB4  
                                        i2l4641 172C                                          i2l4633 16E0  
                                        i2l4625 16A8                                          i2l4617 166A  
                                        i2l4609 1646                                          i2l4801 1460  
                                        i2l4721 118C                                          i2l4713 116A  
                                        i2l4705 1138                                          i2l4289 3008  
                                        i2l4555 10FC                                          i2l4547 10E0  
                                        i2l4539 109C                                          i2l4491 0F36  
                                        i2l4483 0ED4                                          i2l4475 0EB6  
                                        i2l4467 0E7E                                          i2l4459 0E38  
                                        i2l4395 0D14                                          i2l4387 0CE4  
                                        i2l4379 0CC4                                          i2l4651 176C  
                                        i2l4643 172E                                          i2l4635 16F4  
                                        i2l4627 16B8                                          i2l4571 1574  
                                        i2l4563 1548                                          i2l4811 14C2  
                                        i2l4803 146C                                          i2l4731 11CC  
                                        i2l4723 119A                                          i2l4715 1170  
                                        i2l4707 113A                                          i2l4557 110A  
                                        i2l4549 10EE                                          i2l4493 0F46  
                                        i2l4477 0EBA                                          i2l4469 0E8E  
                                        i2l4485 0EDA                                          i2l4397 0D24  
                                        i2l4389 0CF2                                          i2l4661 17A8  
                                        i2l4653 1776                                          i2l4645 173E  
                                        i2l4637 1702                                          i2l4629 16C8  
                                        i2l4581 15AE                                          i2l4573 1584  
                                        i2l4565 1554                                          i2l4821 152A  
                                        i2l4813 14D6                                          i2l4805 147A  
                                        i2l4741 1216                                          i2l4733 11D2  
                                        i2l4725 119C                                          i2l4717 1180  
                                        i2l4709 114A                                          i2l4901 2650  
                                        i2l4559 110C                                          i2l4487 0F00  
                                        i2l4495 0F56                                          i2l4479 0EC8  
                                        i2l4399 0D26                                          i2l4671 181A  
                                        i2l4663 17B6                                          i2l4655 1784  
                                        i2l4647 1750                                          i2l4639 170E  
                                        i2l4591 15DA                                          i2l4583 15B4  
                                        i2l4575 1594                                          i2l4567 1562  
                                        i2l4823 152C                                          i2l4815 14F0  
                                        i2l4807 14A4                                          i2l4751 1266  
                                        i2l4743 1222                                          i2l4735 11F2  
                                        i2l4727 11AC                                          i2l4719 1186  
                                        i2l4831 2C4A                                          i2l4911 26A6  
                                        i2l4903 265E                                          i2l5391 0062  
                                        i2l5383 0022                                          i2l4497 0F7C  
                                        i2l4489 0F34                                          i2l4681 1886  
                                        i2l4673 1828                                          i2l4665 17E4  
                                        i2l4649 1766                                          i2l4657 1796  
                                        i2l4593 15EA                                          i2l4585 15BA  
                                        i2l4577 1596                                          i2l4569 1564  
                                        i2l4817 150C                                          i2l4825 1532  
                                        i2l4809 14A8                                          i2l4761 12A8  
                                        i2l4753 1272                                          i2l4745 122C  
                                        i2l4737 1202                                          i2l4729 11BC  
                                        i2l4841 2CA0                                          i2l4833 2C60  
                                        i2l4913 26B6                                          i2l4905 267C  
                                        i2l5393 0090                                          i2l5385 0030  
                                        i2l4499 0F8C                                          i2l4691 18D4  
                                        i2l4683 18A0                                          i2l4675 1852  
                                        i2l4659 17A4                                          i2l4595 15FA  
                                        i2l4587 15C8                                          i2l4579 159E  
                                        i2l4827 1536                                          i2l4819 151C  
                                        i2l4771 130A                                          i2l4763 12B4  
                                        i2l4755 127E                                          i2l4747 1242  
                                        i2l4843 2CB0                                          i2l4915 26C4  
                                        i2l4907 267E                                          i2l5395 009E  
                                        i2l5387 003E                                          i2l4693 18D6  
                                        i2l4685 18BC                                          i2l4669 180E  
                                        i2l4677 1856                                          i2l4597 15FC  
                                        i2l4589 15CA                                          i2l4781 13A0  
                                        i2l4773 1316                                          i2l4765 12C4  
                                        i2l4757 128C                                          i2l4749 124E  
                                        i2l4853 2CDA                                          i2l4845 2CB4  
                                        i2l4837 2C74                                          i2l4917 26C6  
                                        i2l4909 2682                                          i2l4941 37C8  
                                        i2l5397 00B4                                          i2l5389 0054  
                                        i2l4687 18C0                                          i2l4679 1870  
                                        i2l4599 1604                                          i2l4791 13F6  
                                        i2l4783 13BE                                          i2l4775 1332  
                                        i2l4767 12DE                                          i2l4759 1298  
                                        i2l4871 2D3E                                          i2l4863 2D02  
                                        i2l4855 2CE4                                          i2l4847 2CC2  
                                        i2l4839 2C9E                                          i2l4935 37E4  
                                        i2l4943 3784                                          i2l5399 00C2  
                                        i2l4689 18CE                                          i2l4793 13FA  
                                        i2l4785 13C8                                          i2l4777 135C  
                                        i2l4769 12EE                                          i2l4865 2D0E  
                                        i2l4857 2CEE                                          i2l4881 258A  
                                        i2l4937 37F8                                          i2l4945 3798  
                                        i2l4795 1408                                          i2l4787 13D6  
                                        i2l4779 1392                                          i2l4867 2D1E  
                                        i2l4891 25C8                                          i2l4883 25A0  
                                        i2l4875 2526                                          i2l4939 37B4  
                                        i2l4797 1436                                          i2l4789 13E8  
                                        i2l4869 2D2E                                          i2l4893 25FA  
                                        i2l4877 2536                                          i2l4895 25FC  
                                        i2l4887 25B4                                          i2l4879 2544  
                                        i2l4897 2608                                          i2l4889 25BC  
                                        i2l4899 2644                                          _RCREG1 000FAE  
                             _mudar_temp_alarme 00EE                                          _RCSTA1 000FAB  
                                        _OSCCON 000FD3                               _temp_ambiente_LCD 0124  
                                        _SPBRG1 000FAF                                          _TXREG1 000FAD  
                              __end_of___xxtofl 26D8                                          _TXSTA1 000FAC  
                                  _DelayPORXLCD 38DC                                  __CFG_XINST$OFF 000000  
                                     ??_Timer_0 0001                                    _CCPTMRS0bits 000F49  
                             _temp_alarme_intro 00F6                                    vfprintf@cfmt 00C2  
          __size_of_ADC_DefaultInterruptHandler 0002                __size_of_ADC_SetInterruptHandler 000A  
                                     ??___aodiv 0076                                       ??___fladd 0049  
                                     ??___aomod 0076                                          ___wmul 3868  
                                     ??___fldiv 0017                                  __CFG_STVREN$ON 000000  
                                     ??___flmul 0030                                       ??___fltol 0055  
                      ?_EUSART1_SetErrorHandler 0066                                ?_TMR0_Initialize 0001  
                                        _memset 2862                                          clear_0 3472  
                                        clear_1 347E                                          _tensao 00D4  
                                        _printf 3840                                          pad@buf 007A  
              ??_EUSART1_SetOverrunErrorHandler 0068                 ?_EUSART1_SetOverrunErrorHandler 0066  
                                        ctoa@fp 0083                                 ??_INT0_CallBack 0001  
                                ?_WriteDataXLCD 0001                                          dtoa@fp 0083  
                                        _strlen 36A6                                          fputc@c 0068  
          __end_of_INT2_DefaultInterruptHandler 3A4C           __size_of_INT2_DefaultInterruptHandler 0002  
                  _INT2_DefaultInterruptHandler 3A4A                                          fputs@c 0075  
                                        fputs@i 0076                                          fputs@s 0071  
                                     ??_isdigit 0068                                 ??_INT1_CallBack 0001  
                                  __mediumconst 7DD0                                       ??_isspace 0068  
                                        tblptrh 000FF7                                          tblptrl 000FF6  
                                        tblptru 000FF8                                __end_of_putsXLCD 3118  
                               ??_INT2_CallBack 0001                                __end_of_vfprintf 3182  
                               ??_EUSART1_Write 0066         ADC_SetInterruptHandler@InterruptHandler 0066  
      INT2_SetInterruptHandler@InterruptHandler 0066        INT1_SetInterruptHandler@InterruptHandler 0066  
      INT0_SetInterruptHandler@InterruptHandler 0066        TMR0_SetInterruptHandler@InterruptHandler 0066  
                                     ??_sprintf 00CA                                       ??_strncat 0070  
                               _eusart1RxBuffer 0108                   __size_of_INTERRUPT_Initialize 000E  
                             __end_of_DelayXLCD 3966                                    ___xxtofl@arg 000B  
                                  ___xxtofl@exp 000A                 ?_INTERRUPT_InterruptManagerHigh 0001  
              ??_INTERRUPT_InterruptManagerHigh 0060                               _SYSTEM_Initialize 3890  
                                  ___xxtofl@val 0001                                      __accesstop 0060  
                       __end_of__initialization 348C                                       ?_INT0_ISR 0001  
                                     ?_INT1_ISR 0001                                       ?_INT2_ISR 0001  
                            ?_SYSTEM_Initialize 0001                                   ___rparam_used 000001  
                                    ___fltol@f1 0051                  __size_of_EUSART1_RxDataHandler 002C  
                 __end_of_EUSART1_RxDataHandler 3840                               ?_EPWM1_Initialize 0001  
                  __size_of_ADC_StartConversion 0004                                  __pcstackCOMRAM 0001  
                                  __pidataBANK1 3A46                             ??_SYSTEM_Initialize 006A  
                                     ?_TMR0_ISR 0001                              ??_EPWM1_Initialize 0066  
                                 __end_of_fputc 2E1C                                   __end_of_fputs 3454  
                                 __end_of_putch 39A8                                ?_TMR2_Initialize 0001  
                      __end_of_LCD_inicio_teste 2126                            __end_of_EUSART1_Read 340C  
                       _ADC_GetConversionResult 3966                     __size_of_EXT_INT_Initialize 003E  
                                  _alarme_ativo 00E4                __end_of_INT2_SetInterruptHandler 39D8  
                   __end_of_EUSART1_Receive_ISR 2FAE                 fp__INT2_DefaultInterruptHandler 0000  
                 ?_INT2_DefaultInterruptHandler 0001                                         ??_fputc 006C  
                     __end_of_SYSTEM_Initialize 38B6                                         ??_fputs 0075  
                        __size_of_DelayFor18TCY 0010                                         ??_putch 0067  
                                 _eusart1RxHead 00F5                                   _eusart1RxTail 00F4  
                                    __pbssBANK0 00D4                                      __pbssBANK1 0100  
                                     ?_BusyXLCD 0001                 ??_EUSART1_SetRxInterruptHandler 0068  
                               __CFG_PLLCFG$OFF 000000                                 WriteCmdXLCD@cmd 0066  
                         _INT0_InterruptHandler 01A8                                      ??_INT0_ISR 0001  
                                    ??_INT1_ISR 0001                                      ??_INT2_ISR 0001  
                                     ?_OpenXLCD 0001                 __end_of_EUSART1_SetErrorHandler 3A14  
                            __CFG_CCP2MX$PORTC1 000000                               WriteDataXLCD@data 0066  
              __end_of_TMR0_SetInterruptHandler 39CE                                         ?___wmul 0066  
                                    ??_TMR0_ISR 0002                              __CFG_CCP3MX$PORTB5 000000  
                                       _CCP1CON 000FBD                                 ??_WriteDataXLCD 0066  
                                       _ECCP1AS 000FB6                                         _ADC_ISR 3752  
                                       ?_memset 0066                                         ?_printf 00C4  
                       __size_of_ADC_Initialize 0026                                         ?_strlen 0066  
        __end_of_EUSART1_SetFramingErrorHandler 3A0A         __size_of_EUSART1_SetFramingErrorHandler 000A  
                _EUSART1_SetFramingErrorHandler 3A00                      ??_INT1_SetInterruptHandler 0068  
                                     ?___xxtofl 0001                    ?_EUSART1_DefaultErrorHandler 0001  
                                       _OSCCON2 000FD2                              __size_of_vfpfcnvrt 034A  
                                       _OSCTUNE 000F9B                                         _PWM1CON 000FB7  
                                       _SPBRGH1 000FB0                        __size_of_ADC_temperatura 01F8  
                            fp__ADC_temperatura 0000                                      ??_BusyXLCD 0066  
             __size_of_INT0_SetInterruptHandler 000A                       __size_of_teclado_coluna_1 0068  
                     __size_of_teclado_coluna_2 0068                       __size_of_teclado_coluna_3 007E  
                     ?_INT0_SetInterruptHandler 0066                                      ??_OpenXLCD 0067  
                               __CFG_PWRTEN$OFF 000000                            _ADC_InterruptHandler 01A0  
                                       __Hparam 0000                         _ADC_SetInterruptHandler 3A14  
                                       __Lparam 0000                                         _Timer_0 366A  
                                       ___aodiv 26D8                                         ___fladd 0C5E  
                                       ___aomod 29DA                                         ___fldiv 1548  
                                 _DelayFor18TCY 398A                                         ___flmul 111E  
                                       ___fltol 2C4A                                 __size_of___wmul 0028  
                            _temp_alarme_string 0194                                       ?_putsXLCD 0067  
                                     ?_vfprintf 00BC                             _EUSART1_is_rx_ready 393A  
                     ??_ADC_GetConversionResult 0003                                         __pcinit 3454  
                               __size_of_memset 0178                                         __ramtop 0600  
                                       __ptext0 0132                                         __ptext1 302C  
                                       __ptext2 3368                                         __ptext3 3840  
                                       __ptext4 3118                                         __ptext5 18E2  
                                       __ptext6 1C2C                                         __ptext7 35AE  
                                       __ptext8 29DA                                         __ptext9 26D8  
                               __size_of_printf 0028                                       _T0CONbits 000FD5  
                               __size_of_strlen 003A                           _OSCILLATOR_Initialize 39A8  
                                     _T2CONbits 000FBA                                    __size_of_abs 0042  
                                  __size_of_pad 00CA                                         _isdigit 36E0  
                                    ??___xxtofl 0005                                         _tecla_n 00F0  
                            _EUSART1_Initialize 3252                        ??_PIN_MANAGER_Initialize 0066  
                                       _isspace 3314                   ??_EUSART1_DefaultErrorHandler 0001  
                                       atoi@neg 0073                      __size_of_SYSTEM_Initialize 0026  
                                       _sprintf 3368                                         _strncat 302C  
                          end_of_initialization 348C                            ?_EUSART1_is_rx_ready 0001  
                      _INT2_SetInterruptHandler 39CE                             ?_EUSART1_Initialize 0001  
                ??_INT2_DefaultInterruptHandler 0001                              _update_temp_alarme 00E6  
                                       fputc@fp 006A                                         memset@c 0068  
                                       memset@k 006E                                         memset@n 006A  
                                       memset@s 0070                                   __Lmediumconst 7DD0  
                   _EUSART1_OverrunErrorHandler 019C                                         fputs@fp 0073  
         __end_of_EUSART1_SetRxInterruptHandler 39F6          __size_of_EUSART1_SetRxInterruptHandler 000A  
                 _EUSART1_SetRxInterruptHandler 39EC                               __end_of_vfpfcnvrt 1C2C  
                                ?_DelayFor18TCY 0001                                 _menu_estado_LCD 0120  
                                       postdec2 000FDD                                         postinc0 000FEE  
                                       postinc1 000FE6                                         postinc2 000FDE  
                         __size_of_EUSART1_Read 0052                                      _temp_mudou 00E8  
                                    ??_putsXLCD 0069                                      ??_vfprintf 00C2  
                                    fp__Timer_0 0000                            ??_EUSART1_Initialize 0068  
                                       strlen@a 0068                                         strlen@s 0066  
                      _TMR0_SetInterruptHandler 39C4                           _INT1_InterruptHandler 01A6  
                                     _PORTBbits 000F81                                     ___fladd@grs 0050  
           __end_of_ADC_DefaultInterruptHandler 3A54                     _ADC_DefaultInterruptHandler 3A52  
                                 ___xxtofl@sign 0009                                       _TRISDbits 000F95  
                           _ADC_StartConversion 3A42                                     ___fldiv@grs 0022  
                                   ___fldiv@rem 001B                __size_of_EUSART1_SetErrorHandler 000A  
                           EUSART1_Write@txData 0066                           ??_EUSART1_is_rx_ready 0066  
                             LCD_inicio_teste@i 006B                               LCD_inicio_teste@j 006D  
                                   ___flmul@grs 0035                   ??_ADC_DefaultInterruptHandler 0001  
                        _temp_alarme_provisoria 00EC                       ??_ADC_SetInterruptHandler 0068  
                                   _CCP1CONbits 000FBD                               ??_ADC_temperatura 005B  
                                  _EUSART1_Read 33BA                                       _DelayXLCD 3952  
                                    main@rxData 01B0                               __size_of_INT0_ISR 0008  
                             __size_of_INT1_ISR 0008                               __size_of_INT2_ISR 0008  
          __size_of_EUSART1_DefaultErrorHandler 0006                            ?_ADC_StartConversion 0001  
                  __end_of_INTERRUPT_Initialize 39C4            __end_of_INT0_DefaultInterruptHandler 3A50  
         __size_of_INT0_DefaultInterruptHandler 0002                    _INT0_DefaultInterruptHandler 3A4E  
                                   vfpfcnvrt@ap 00AB                                     vfpfcnvrt@fp 00A7  
                                   vfpfcnvrt@ll 00B1                                  __end_of___wmul 3890  
                             __size_of_TMR0_ISR 003C                                  _ADC_Initialize 38B6  
                             ?_LCD_inicio_teste 0001                          ?_OSCILLATOR_Initialize 0001  
                                __end_of_memset 29DA                                  __end_of_printf 3868  
                         __end_of_INT0_CallBack 3814                              ??_LCD_inicio_teste 0069  
                                __end_of_strlen 36E0                             start_initialization 3454  
                     __size_of_EPWM1_Initialize 0020                        __size_of_TMR0_Initialize 0038  
               __size_of_PIN_MANAGER_Initialize 0046                                     __end_of_abs 35F0  
                         __end_of_INT1_CallBack 37E4                                     __end_of_pad 2EE6  
 EUSART1_SetRxInterruptHandler@interruptHandler 0066                                   _tecla_premida 00F7  
                                _codigo_digital 0198                                     putch@txData 0067  
                         __end_of_INT2_CallBack 37B4                           __end_of_EUSART1_Write 393A  
                               _limpar_terminal 0118                          fp__EUSART1_Receive_ISR 0000  
                              _teclado_coluna_1 31EA                                _teclado_coluna_2 3182  
                              _teclado_coluna_3 2FAE                               __size_of_BusyXLCD 0046  
                                    ?_DelayXLCD 0001                            _digitos_introduzidos 005D  
                               ??_DelayFor18TCY 0066                           ??_ADC_StartConversion 0001  
                                   vfprintf@fmt 00BE                               __size_of_OpenXLCD 010A  
                                      ??___wmul 006A                           _EUSART1_RxDataHandler 3814  
                                 ?_WriteCmdXLCD 0001                  ?_EUSART1_SetRxInterruptHandler 0066  
                        __end_of_ADC_Initialize 38DC                                     __pdataBANK1 01B1  
                                      ?_ADC_ISR 0001                                        ??_memset 006C  
                    __end_of_EXT_INT_Initialize 362E                                      memset@dest 0066  
               fp__INT0_DefaultInterruptHandler 0000                   ?_INT0_DefaultInterruptHandler 0001  
                                      ??_printf 00C8                                        ??_strlen 0068  
                                _eusart1RxCount 00F3                                       ___fladd@a 0045  
                                     ___fladd@b 0041                                       ___fldiv@a 0013  
                                     ___fldiv@b 000F                                       ___flmul@a 002C  
                                     ___flmul@b 0028                                     __pbssCOMRAM 005B  
             _EUSART1_RxDefaultInterruptHandler 01A2                __end_of_INT0_SetInterruptHandler 39EC  
                                 __pcstackBANK0 0060                                   __pcstackBANK1 01AC  
                              ___aodiv@dividend 0066                        __size_of_TMR2_Initialize 0010  
                             __size_of___xxtofl 01B4                ??_EUSART1_SetFramingErrorHandler 0068  
               ?_EUSART1_SetFramingErrorHandler 0066                    __size_of_EUSART1_Receive_ISR 00C8  
                         _INT2_InterruptHandler 01A4                                       _atoi$2356 0075  
                                     _atoi$2357 0079                                       _atoi$2358 0077  
                         _TMR0_InterruptHandler 01AA                                       __pnvBANK0 00F8  
                                     __pnvBANK1 019A                                  putsXLCD@buffer 0067  
                        _PIN_MANAGER_Initialize 349A                                       _dtoa$1884 0095  
                                      ?_Timer_0 0001                                       __pintcode 0008  
                                 __pmediumconst 7DD0                                  ??_WriteCmdXLCD 0066  
                                      ?___aodiv 0066                                        ?___fladd 0041  
                                      ?___aomod 0066                                        ?___fldiv 000F  
                              ___aodiv@quotient 0078                                        ?___flmul 0028  
                                      ?___fltol 0051                                 ?_ADC_Initialize 0001  
                                  _menu_entrada 00E0                                __CFG_PRICLKEN$ON 000000  
                             __size_of_putsXLCD 0074                           __end_of_WriteDataXLCD 356A  
                             __size_of_vfprintf 006A                      ??_INT2_SetInterruptHandler 0068  
                                      _BAUDCON1 000FB8           fp__EUSART1_DefaultOverrunErrorHandler 0000  
    __end_of_EUSART1_DefaultOverrunErrorHandler 3A3C     __size_of_EUSART1_DefaultOverrunErrorHandler 0006  
          ??_EUSART1_DefaultOverrunErrorHandler 0001             ?_EUSART1_DefaultOverrunErrorHandler 0001  
            _EUSART1_DefaultOverrunErrorHandler 3A36                                        ?_isdigit 0066  
                          _EUSART1_ErrorHandler 019A                                        ?_isspace 0066  
                       _EUSART1_SetErrorHandler 3A0A                                        ?_sprintf 00C4  
                                __size_of_fputc 00CC                                  __size_of_fputs 0048  
                                      ?_strncat 006A                                  __size_of_putch 000E  
                          _INTERRUPT_Initialize 39B6                               ??_TMR0_Initialize 0068  
                                      _INT0_ISR 3A2E                                        _INT1_ISR 3A26  
                                      _INT2_ISR 3A1E                                  ___wmul@product 006A  
                                      _LATAbits 000F89         EUSART1_SetErrorHandler@interruptHandler 0066  
                                      _LATBbits 000F8A                                        _LATDbits 000F8C  
             __size_of_INT1_SetInterruptHandler 000A                       ?_INT1_SetInterruptHandler 0066  
                                   ??_DelayXLCD 0066                                        _IPR1bits 000F9F  
                                      _PIE1bits 000F9D                                   ?_DelayPORXLCD 0001  
                                      i2u400_40 2FC6                                        i2u400_41 2FC2  
                                      i2u401_40 2FDC                                        i2u401_41 2FD8  
                                      i2u402_40 2FF2                                        i2u402_41 2FEE  
                                      i2u403_40 3008                                        i2u403_41 3004  
                                      i2u420_40 0D14                                        i2u500_40 2D1E  
                                      i2u420_41 0D10                                        i2u500_41 2D1A  
                                      i2u421_40 0D50                                        i2u501_40 2D2E  
                    ??_TMR0_SetInterruptHandler 0068                                        i2u421_41 0D4C  
                                      i2u501_41 2D2A                                        i2u430_40 0E6A  
                                      i2u422_40 0D5E                                        i2u414_40 0C78  
                                      i2u510_40 26B6                                        i2u502_40 2536  
                                      i2u430_41 0E66                                        i2u422_41 0D5A  
                                      i2u414_41 0C74                                        i2u510_41 26B2  
                                      i2u502_41 2532                                        i2u431_40 0E9C  
                                      i2u423_40 0DCC                                        i2u415_40 0C8A  
                                      i2u511_40 26C4                                        i2u503_40 2544  
                                      i2u431_41 0E98                                        i2u423_41 0DC8  
                                      i2u415_41 0C86                                        i2u511_41 26C0  
                                      i2u503_41 2540                                        i2u440_40 0FE4  
                                      i2u432_40 0EAA                                        i2u424_40 0DE4  
                                      i2u416_40 0C9A                                        i2u504_40 25A0  
                                      i2u520_40 2502                                        i2u512_40 37F8  
                                      i2u440_41 0FE0                                        i2u432_41 0EA6  
                                      i2u424_41 0DDE                                        i2u416_41 0C96  
                                      i2u504_41 259C                                        i2u520_41 24FE  
                                      i2u512_41 37F4                                        i2u441_40 0FF4  
                                      i2u433_40 0EC8                                        i2u425_40 0DE6  
                                      i2u417_40 0CDC                                        i2u505_40 25F6  
                                      i2u441_41 0FF0                                        i2u433_41 0EC4  
                                      i2u417_41 0CD8                                        i2u505_41 25F2  
                                      _PIR1bits 000F9E                                 OpenXLCD@lcdtype 0001  
                                      i2u450_40 10DC                                        i2u442_40 1006  
                                      i2u434_40 0F00                                        i2u426_40 0E0E  
                                      i2u418_40 0CF2                                        i2u506_40 2640  
                                      i2u513_48 37FE                                        i2u514_40 37C8  
                                      i2u450_41 10D8                                        i2u442_41 1002  
                                      i2u434_41 0EFC                                        i2u426_41 0E0A  
                                      i2u418_41 0CEE                                        i2u506_41 263C  
                                      i2u513_49 3812                                        i2u514_41 37C4  
                                      i2u451_40 10EE                                        i2u443_40 101C  
                                      i2u435_40 0F46                                        i2u427_40 0E2C  
                                      i2u419_40 0D04                                        i2u507_40 265E  
                                      i2u451_41 10EA                                        i2u443_41 1018  
                                      i2u435_41 0F42                                        i2u427_41 0E28  
                                      i2u419_41 0D00                                        i2u507_41 265A  
                                      i2u452_40 110A                                        i2u444_40 1032  
                                      i2u436_40 0F7C                                        i2u428_40 0E4C  
                                      i2u460_40 166A                                        i2u508_40 266E  
                                      i2u540_40 2F06                                        i2u515_48 37CE  
                                      i2u516_40 3798                                        i2u532_40 364E  
                                      i2u452_41 1106                                        i2u444_41 102E  
                                      i2u436_41 0F78                                        i2u428_41 0E48  
                                      i2u460_41 1666                                        i2u508_41 266A  
                                      i2u540_41 2F02                                        i2u515_49 37E2  
                                      i2u516_41 3794                                        i2u532_41 364A  
                                      i2u445_40 1046                                        i2u437_40 0F8C  
                                      i2u429_40 0E5A                                        i2u461_40 16E0  
                                      i2u453_40 1562                                        i2u509_40 267C  
                                      i2u445_41 1042                                        i2u437_41 0F88  
                                      i2u429_41 0E56                                        i2u461_41 16DC  
                                      i2u453_41 155E                                        i2u509_41 2678  
                                      i2u446_40 1060                                        i2u438_40 0FB8  
                                      i2u470_40 17FA                                        i2u462_40 1702  
                                      i2u454_40 1574                                        i2u534_40 3766  
                                      i2u390_40 3838                                        i2u542_40 2F3E  
                                      i2u541_48 2F1C                                        i2u517_48 379E  
                                      i2u518_40 367E                                        i2u533_48 3654  
                                      i2u446_41 105C                                        i2u438_41 0FB4  
                                      i2u470_41 17F6                                        i2u462_41 16FE  
                                      i2u454_41 1570                                        i2u534_41 3762  
                                      i2u390_41 3834                                        i2u542_41 2F3A  
                                      i2u541_49 2F30                                        i2u517_49 37B2  
                                      i2u518_41 367A                                        i2u533_49 3668  
                                      i2u447_40 109A                                        i2u439_40 0FC8  
                                      i2u471_40 180E                                        i2u463_40 172C  
                                      i2u455_40 1584                                        i2u519_40 368E  
                                      i2u447_41 1096                                        i2u439_41 0FC4  
                                      i2u471_41 180A                                        i2u463_41 1728  
                                      i2u455_41 1580                                        i2u519_41 3688  
                                      i2u519_46 3690                                        i2u448_40 10AC  
                                      i2u472_40 1828                                        i2u464_40 1750  
                                      i2u456_40 15C8                                        i2u480_40 11AC  
                                      i2u535_48 376C                                        i2u544_40 2F88  
                                      i2u543_48 2F56                                        i2u392_40 31F8  
                                      i2u448_41 10A8                                        i2u472_41 1824  
                                      i2u464_41 174C                                        i2u456_41 15C4  
                                      i2u480_41 11A8                                        i2u535_49 3780  
                                      i2u544_41 2F84                                        i2u543_49 2F6A  
                                      i2u392_41 31F4                                        i2u449_40 10BC  
                                      i2u473_40 1870                                        i2u465_40 1766  
                                      i2u457_40 15DA                                        i2u481_40 11BC  
                                      i2u393_40 3210                                        i2u449_41 10B8  
                                      i2u473_41 186C                                        i2u465_41 1762  
                                      i2u457_41 15D6                                        i2u481_41 11B8  
                                      i2u393_41 320C                                        i2u474_40 18A0  
                                      i2u466_40 1784                                        i2u458_40 15EA  
                                      i2u490_40 1460                                        i2u482_40 11F2  
                                      i2u545_48 2F8E                                        i2u394_40 3228  
                                      i2u474_41 189C                                        i2u466_41 1780  
                                      i2u458_41 15E6                                        i2u490_41 145C  
                                      i2u482_41 11EE                                        i2u545_49 2FA4  
                                      i2u394_41 3224                                        i2u475_40 18CE  
                                      i2u467_40 17A4                                        i2u459_40 162A  
                                      i2u491_40 147A                                        i2u483_40 1202  
                                      i2u395_40 3240                                        i2u571_40 0090  
                                      i2u570_48 0068                                        i2u475_41 18CA  
                                      i2u467_41 17A0                                        i2u459_41 1626  
                                      i2u491_41 1476                                        i2u483_41 11FE  
                                      i2u395_41 323C                                        i2u571_41 008C  
                                      i2u570_49 007E                                        i2u468_40 17B6  
                                      i2u492_40 14C2                                        i2u484_40 137C  
                                      i2u476_40 1138                                        i2u396_40 3190  
                                      i2u572_40 009E                                        i2u468_41 17B2  
                                      i2u492_41 14BE                                        i2u476_41 1134  
                                      i2u396_41 318C                                        i2u572_41 009A  
                                      i2u484_45 1372                                        i2u469_40 17E4  
                                      i2u493_40 14F0                                        i2u485_40 13D6  
                                      i2u477_40 114A                                        i2u397_40 31A8  
                                      i2u573_40 00B4                                        i2u469_41 17E0  
                                      i2u493_41 14EC                                        i2u485_41 13D2  
                                      i2u477_41 1146                                        i2u397_41 31A4  
                                      i2u573_41 00B0                                        i2u494_40 152A  
                                      i2u486_40 13F6                                        i2u478_40 115A  
                                      i2u398_40 31C0                                        i2u574_40 00C2  
                                      i2u566_40 0030                                        i2u494_41 1526  
                                      i2u486_41 13F2                                        i2u478_41 1156  
                                      i2u398_41 31BC                                        i2u574_41 00BE  
                                      i2u566_41 002C                                        i2u487_40 1408  
                                      i2u479_40 119A                                        i2u495_40 2C60  
                                      i2u399_40 31D8                                        i2u575_40 00D8  
                                      i2u567_40 003E                                        i2u487_41 1404  
                                      i2u479_41 1196                                        i2u495_41 2C5C  
                                      i2u399_41 31D4                                        i2u575_41 00D4  
                                      i2u567_41 003A                                        i2u488_40 1436  
                                      i2u496_40 2C94                                        i2u576_40 00E6  
                                      i2u568_40 0054                                        i2u488_41 1432  
                                      i2u576_41 00E2                                        i2u568_41 0050  
                                      i2u496_45 2C8A                                        i2u489_40 144C  
                                      i2u497_40 2CC2                                        i2u577_40 00FC  
                                      i2u569_40 0062                                        i2u489_41 1448  
                                      i2u497_41 2CBE                                        i2u577_41 00F8  
                                      i2u569_41 005E                                        i2u498_40 2CD6  
                                      i2u578_40 010A                                        i2u498_41 2CD2  
                                      i2u578_41 0106                                        i2u499_40 2CFE  
                                      i2u499_41 2CFA                          ?_EUSART1_RxDataHandler 0001  
                                      _RCONbits 000FD0                                __CFG_WDTPS$32768 000000  
                fp__ADC_DefaultInterruptHandler 0000                                        _TMR0_ISR 362E  
                                      _PSTR1CON 000FB9                                       _vfpfcnvrt 18E2  
                              __size_of_ADC_ISR 0032                                      _ADCON0bits 000FC2  
                             ___wmul@multiplier 0066                                   _temp_ambiente 005B  
                              _EPWM1_Initialize 3902                  ??_INT0_DefaultInterruptHandler 0001  
                               _ADC_temperatura 232C                                    _isspace$2374 006C  
                                    vfpfcnvrt@c 00B9                                     _INTCON2bits 000FF1  
                                   _INTCON3bits 000FF0                           ?_INTERRUPT_Initialize 0001  
                      _INT0_SetInterruptHandler 39E2                                        _BusyXLCD 34E0  
                                  _tecla_limpar 0122                               ??_TMR2_Initialize 0066  
                         EUSART1_Read@readValue 0066                                  ??_DelayPORXLCD 0066  
                                      _OpenXLCD 2B40                                        __Hrparam 0000  
                                    vfprintf@ap 00C0                                        __Lrparam 0000  
                                    vfprintf@fp 00BC                        ?_ADC_GetConversionResult 0001  
                           fp__teclado_coluna_1 0000                             fp__teclado_coluna_2 0000  
                           fp__teclado_coluna_3 0000                              __CFG_BOREN$SBORDIS 000000  
                              __size_of_Timer_0 003C                               __CFG_P2BMX$PORTD2 000000  
                       ??_OSCILLATOR_Initialize 0066                                __size_of___aodiv 018A  
                              __size_of___fladd 04C0                                __size_of___aomod 0166  
                              __size_of___fldiv 039A                                __size_of___flmul 042A  
                              __size_of___fltol 0106                     __size_of_EUSART1_Initialize 0064  
                                    ?_vfpfcnvrt 00A7                                 ___aodiv@divisor 006E  
                               ___aodiv@counter 0076                        __end_of_teclado_coluna_1 3252  
                      __end_of_teclado_coluna_2 31EA                        __end_of_teclado_coluna_3 302C  
                     ??_EUSART1_SetErrorHandler 0068             __end_of_EUSART1_DefaultErrorHandler 3A42  
                   _EUSART1_DefaultErrorHandler 3A3C                                      sprintf@fmt 00C6  
                   __end_of_EUSART1_is_rx_ready 3952                                        ___xxtofl 2524  
                              __size_of_isdigit 003A                                __size_of_isspace 0054  
                                      __ptext10 32B6                                        __ptext11 2E1C  
                                      __ptext20 3868                                        __ptext12 36A6  
                                      __ptext21 2862                                        __ptext13 340C  
                                      __ptext30 39CE                                        __ptext22 3890  
                                      __ptext14 2D50                                        __ptext31 39D8  
                                      __ptext23 397A                                        __ptext15 399A  
                                      __ptext40 3A14                                        __ptext32 39E2  
                                      __ptext24 371A                                        __ptext16 3922  
                                      __ptext41 1F10                                        __ptext33 3252  
                                      __ptext25 39C4                                        __ptext17 2126  
                                      __ptext50 393A                                        __ptext42 30A4  
                                      __ptext34 39EC                                        __ptext26 349A  
                                      __ptext18 3314                                        __ptext51 33BA  
                                      __ptext43 3526                                        __ptext35 39F6  
                                      __ptext27 39A8                                        __ptext19 36E0  
                                      __ptext60 2FAE                                        __ptext44 2B40  
                                      __ptext36 3A00                                        __ptext28 39B6  
                                      __ptext61 3A26                                        __ptext53 362E  
                                      __ptext45 356A                                        __ptext37 3A0A  
                                      __ptext29 35F0                                        __ptext70 3A36  
                                      __ptext62 37B4                                        __ptext54 3A48  
                                      __ptext46 3952                                        __ptext38 3902  
                                      __ptext71 3A50                                        __ptext63 3A4C  
                                      __ptext55 366A                                        __ptext47 38DC  
                                      __ptext39 38B6                                        __ptext80 1548  
                                      __ptext72 3A3C                                        __ptext64 3182  
                                      __ptext56 3A42                                        __ptext48 34E0  
                                      __ptext81 0C5E                                        __ptext73 3814  
                                      __ptext65 3A2E                                        __ptext57 3A1E  
                                      __ptext49 398A                                        __ptext82 3966  
                                      __ptext74 3752                                        __ptext66 37E4  
                                      __ptext58 3784                                        __ptext83 0000  
                                      __ptext75 3A52                                        __ptext67 3A4E  
                                      __ptext59 3A4A                                        __ptext76 232C  
                                      __ptext68 31EA                                        __ptext77 2524  
                                      __ptext69 2EE6                                        __ptext78 2C4A  
                                      __ptext79 111E                                     _menu_estado 00E2  
                          __end_of_WriteCmdXLCD 35AE                                __size_of_sprintf 0052  
                              __size_of_strncat 0078                       __size_of_LCD_inicio_teste 0216  
                                 __size_of_atoi 0206                                   __size_of_ctoa 005E  
                                 __size_of_main 0B2C                                   __size_of_dtoa 02E4  
          __end_of_TMR0_DefaultInterruptHandler 3A4A           __size_of_TMR0_DefaultInterruptHandler 0002  
                  _TMR0_DefaultInterruptHandler 3A48                                        _pin_real 011C  
                                      _pin_intr 011E  EUSART1_SetOverrunErrorHandler@interruptHandler 0066  
                                      int$flags 005F                                        _putsXLCD 30A4  
                                      _vfprintf 3118                                       printf@fmt 00C4  
                       __end_of_ADC_temperatura 2524                     _EUSART1_FramingErrorHandler 019E  
                           _EUSART1_Receive_ISR 2EE6            __end_of_INT1_DefaultInterruptHandler 3A4E  
         __size_of_INT1_DefaultInterruptHandler 0002                    _INT1_DefaultInterruptHandler 3A4C  
                              ___aomod@dividend 0066                                  _vfpfcnvrt$1898 00BA  
                                    _INTCONbits 000FF2                            _contador_colunas_LCD 01B1  
                                      isdigit@c 0066                          ??_INTERRUPT_Initialize 0066  
                            _EXT_INT_Initialize 35F0                        ?_ADC_SetInterruptHandler 0066  
                                      intlevel2 0000                                       sprintf@ap 00CC  
                          ?_EUSART1_Receive_ISR 0001                     __end_of_ADC_StartConversion 3A46  
                                      isspace@c 0066                         ?_PIN_MANAGER_Initialize 0001  
               __end_of_ADC_GetConversionResult 397A                             ?_EXT_INT_Initialize 0001  
        __end_of_EUSART1_SetOverrunErrorHandler 3A00         __size_of_EUSART1_SetOverrunErrorHandler 000A  
                _EUSART1_SetOverrunErrorHandler 39F6                                      _RCSTA1bits 000FAB  
                              ??_ADC_Initialize 0068                          __size_of_INT0_CallBack 0030  
               fp__TMR0_DefaultInterruptHandler 0000                   ?_TMR0_DefaultInterruptHandler 0001  
                         __end_of_DelayFor18TCY 399A                                        printf@ap 00CA  
                        __size_of_INT1_CallBack 0030                                     _temp_alarme 00EA  
EUSART1_SetFramingErrorHandler@interruptHandler 0066                                 ___aomod@divisor 006E  
                                   ??_vfpfcnvrt 00AD                                 ___aomod@counter 0076  
                        __size_of_INT2_CallBack 0030                                     _temp_valida 0116  
                        __size_of_EUSART1_Write 0018                              _eusart1RxLastError 00F2  
        __end_of_INTERRUPT_InterruptManagerHigh 012E         __size_of_INTERRUPT_InterruptManagerHigh 0126  
                _INTERRUPT_InterruptManagerHigh 0008                            ??_EXT_INT_Initialize 0068  
                                      sprintf@f 00CE                                        sprintf@s 00C4  
               fp__INT1_DefaultInterruptHandler 0000                   ?_INT1_DefaultInterruptHandler 0001  
                          __end_of_DelayPORXLCD 3902                                 _TMR0_Initialize 371A  
                                      strncat@d 006A                                        strncat@n 006E  
                                      strncat@s 006C                __end_of_INT1_SetInterruptHandler 39E2  
                             __CFG_T3CMX$PORTC0 000000                                   ___fladd@signs 004D  
                             __CFG_FOSC$ECMPIO6 000000                                    ___aodiv@sign 0077  
                         ??_EUSART1_Receive_ISR 0001                  __end_of_PIN_MANAGER_Initialize 34E0  
                                  ___fladd@aexp 004E                                    ___fladd@bexp 004F  
                       ??_EUSART1_RxDataHandler 0001                                    ___aomod@sign 0077  
                      __end_of_EPWM1_Initialize 3922  
