

Microchip MPLAB XC8 Assembler V2.10 build 88905656 
                                                                                               Tue May 05 19:42:11 2020

Microchip MPLAB XC8 C Compiler v2.10 (Free license) build 20190730164152 Og1 
     1                           	processor	18F45K22
     2                           	fnconf	rparam,??,?,0
     3                           	opt	pw 120
     4                           	opt	flic
     5                           	psect	idataBANK0,global,class=CODE,delta=1,noexec
     6                           	psect	nvBANK0,global,class=BANK0,space=1,delta=1,lowdata,noexec
     7                           	psect	nvBANK1,global,class=BANK1,space=1,delta=1,lowdata,noexec
     8                           	psect	smallconst,global,reloc=2,class=SMALLCONST,delta=1,noexec
     9                           	psect	cinit,global,reloc=2,class=CODE,delta=1
    10                           	psect	bssBANK0,global,class=BANK0,space=1,delta=1,lowdata,noexec
    11                           	psect	dataBANK0,global,class=BANK0,space=1,delta=1,lowdata,noexec
    12                           	psect	bssBANK1,global,class=BANK1,space=1,delta=1,lowdata,noexec
    13                           	psect	cstackBANK1,global,class=BANK1,space=1,delta=1,noexec
    14                           	psect	cstackBANK0,global,class=BANK0,space=1,delta=1,noexec
    15                           	psect	cstackCOMRAM,global,class=COMRAM,space=1,delta=1,noexec
    16                           	psect	text0,global,reloc=2,class=CODE,delta=1
    17                           	psect	text1,global,reloc=2,class=CODE,delta=1,group=2
    18                           	psect	text2,global,reloc=2,class=CODE,delta=1,group=2
    19                           	psect	text3,global,reloc=2,class=CODE,delta=1
    20                           	psect	text4,global,reloc=2,class=CODE,delta=1
    21                           	psect	text5,global,reloc=2,class=CODE,delta=1,group=2
    22                           	psect	text6,global,reloc=2,class=CODE,delta=1
    23                           	psect	text7,global,reloc=2,class=CODE,delta=1
    24                           	psect	text8,global,reloc=2,class=CODE,delta=1
    25                           	psect	text9,global,reloc=2,class=CODE,delta=1
    26                           	psect	text10,global,reloc=2,class=CODE,delta=1,group=2
    27                           	psect	text11,global,reloc=2,class=CODE,delta=1,group=2
    28                           	psect	text12,global,reloc=2,class=CODE,delta=1,group=2
    29                           	psect	text13,global,reloc=2,class=CODE,delta=1
    30                           	psect	text14,global,reloc=2,class=CODE,delta=1
    31                           	psect	text15,global,reloc=2,class=CODE,delta=1,group=2
    32                           	psect	text16,global,reloc=2,class=CODE,delta=1,group=1
    33                           	psect	text17,global,reloc=2,class=CODE,delta=1,group=1
    34                           	psect	text18,global,reloc=2,class=CODE,delta=1,group=2
    35                           	psect	text19,global,reloc=2,class=CODE,delta=1,group=2
    36                           	psect	text20,global,reloc=2,class=CODE,delta=1,group=2
    37                           	psect	text21,global,reloc=2,class=CODE,delta=1,group=1
    38                           	psect	text22,global,reloc=2,class=CODE,delta=1
    39                           	psect	text23,global,reloc=2,class=CODE,delta=1
    40                           	psect	text24,global,reloc=2,class=CODE,delta=1
    41                           	psect	text25,global,reloc=2,class=CODE,delta=1
    42                           	psect	text26,global,reloc=2,class=CODE,delta=1
    43                           	psect	text27,global,reloc=2,class=CODE,delta=1
    44                           	psect	text28,global,reloc=2,class=CODE,delta=1
    45                           	psect	text29,global,reloc=2,class=CODE,delta=1
    46                           	psect	text30,global,reloc=2,class=CODE,delta=1
    47                           	psect	text31,global,reloc=2,class=CODE,delta=1
    48                           	psect	text32,global,reloc=2,class=CODE,delta=1
    49                           	psect	text33,global,reloc=2,class=CODE,delta=1
    50                           	psect	text34,global,reloc=2,class=CODE,delta=1
    51                           	psect	text35,global,reloc=2,class=CODE,delta=1
    52                           	psect	text36,global,reloc=2,class=CODE,delta=1
    53                           	psect	text37,global,reloc=2,class=CODE,delta=1
    54                           	psect	text38,global,reloc=2,class=CODE,delta=1
    55                           	psect	text39,global,reloc=2,class=CODE,delta=1
    56                           	psect	text40,global,reloc=2,class=CODE,delta=1
    57                           	psect	text41,global,reloc=2,class=CODE,delta=1
    58                           	psect	text42,global,reloc=2,class=CODE,delta=1
    59                           	psect	text43,global,reloc=2,class=CODE,delta=1
    60                           	psect	text44,global,reloc=2,class=CODE,delta=1
    61                           	psect	text45,global,reloc=2,class=CODE,delta=1
    62                           	psect	text46,global,reloc=2,class=CODE,delta=1
    63                           	psect	text47,global,reloc=2,class=CODE,delta=1
    64                           	psect	text48,global,reloc=2,class=CODE,delta=1
    65                           	psect	text49,global,reloc=2,class=CODE,delta=1
    66                           	psect	intcode,global,reloc=2,class=CODE,delta=1
    67                           	psect	text51,global,reloc=2,class=CODE,delta=1
    68                           	psect	text52,global,reloc=2,class=CODE,delta=1
    69                           	psect	text53,global,reloc=2,class=CODE,delta=1
    70                           	psect	text54,global,reloc=2,class=CODE,delta=1
    71                           	psect	text55,global,reloc=2,class=CODE,delta=1
    72                           	psect	text56,global,reloc=2,class=CODE,delta=1
    73                           	psect	text57,global,reloc=2,class=CODE,delta=1
    74                           	psect	text58,global,reloc=2,class=CODE,delta=1
    75                           	psect	text59,global,reloc=2,class=CODE,delta=1
    76                           	psect	text60,global,reloc=2,class=CODE,delta=1
    77                           	psect	text61,global,reloc=2,class=CODE,delta=1
    78                           	psect	text62,global,reloc=2,class=CODE,delta=1
    79                           	psect	text63,global,reloc=2,class=CODE,delta=1
    80                           	psect	text64,global,reloc=2,class=CODE,delta=1
    81                           	psect	text65,global,reloc=2,class=CODE,delta=1
    82                           	psect	text66,global,reloc=2,class=CODE,delta=1
    83                           	psect	text67,global,reloc=2,class=CODE,delta=1
    84                           	psect	text68,global,reloc=2,class=CODE,delta=1
    85                           	psect	text69,global,reloc=2,class=CODE,delta=1
    86                           	psect	text70,global,reloc=2,class=CODE,delta=1
    87                           	psect	text71,global,reloc=2,class=CODE,delta=1
    88                           	psect	text72,global,reloc=2,class=CODE,delta=1
    89                           	psect	text73,global,reloc=2,class=CODE,delta=1
    90                           	psect	text74,global,reloc=2,class=CODE,delta=1
    91                           	psect	text75,global,reloc=2,class=CODE,delta=1,group=1
    92                           	psect	text76,global,reloc=2,class=CODE,delta=1,group=1
    93                           	psect	text77,global,reloc=2,class=CODE,delta=1,group=1
    94                           	psect	text78,global,reloc=2,class=CODE,delta=1,group=1
    95                           	psect	text79,global,reloc=2,class=CODE,delta=1,group=1
    96                           	psect	text80,global,reloc=2,class=CODE,delta=1
    97                           	psect	intsave_regs,global,class=BIGRAM,space=1,delta=1,noexec
    98                           	psect	text81,global,reloc=2,class=CODE,delta=1
    99                           	psect	rparam,global,class=COMRAM,space=1,delta=1,noexec
   100                           	psect	temp,global,ovrld,common,class=COMRAM,space=1,delta=1
   101  0000                     
   102                           ; Version 2.10
   103                           ; Generated 31/07/2019 GMT
   104                           ; 
   105                           ; Copyright © 2019, Microchip Technology Inc. and its subsidiaries ("Microchip")
   106                           ; All rights reserved.
   107                           ; 
   108                           ; This software is developed by Microchip Technology Inc. and its subsidiaries ("Microch
      +                          ip").
   109                           ; 
   110                           ; Redistribution and use in source and binary forms, with or without modification, are
   111                           ; permitted provided that the following conditions are met:
   112                           ; 
   113                           ;     1. Redistributions of source code must retain the above copyright notice, this lis
      +                          t of
   114                           ;        conditions and the following disclaimer.
   115                           ; 
   116                           ;     2. Redistributions in binary form must reproduce the above copyright notice, this 
      +                          list
   117                           ;        of conditions and the following disclaimer in the documentation and/or other
   118                           ;        materials provided with the distribution.
   119                           ; 
   120                           ;     3. Microchip's name may not be used to endorse or promote products derived from th
      +                          is
   121                           ;        software without specific prior written permission.
   122                           ; 
   123                           ; THIS SOFTWARE IS PROVIDED BY MICROCHIP "AS IS" AND ANY EXPRESS OR IMPLIED WARRANTIES,
   124                           ; INCLUDING, BUT NOT LIMITED TO, THE IMPLIED WARRANTIES OF MERCHANTABILITY AND FITNESS F
      +                          OR
   125                           ; PURPOSE ARE DISCLAIMED.  IN NO EVENT SHALL MICROCHIP BE LIABLE FOR ANY DIRECT, INDIREC
      +                          T,
   126                           ; INCIDENTAL, SPECIAL, EXEMPLARY, OR CONSEQUENTIAL DAMAGES (INCLUDING BUT NOT LIMITED TO
   127                           ; PROCUREMENT OF SUBSTITUTE GOODS OR SERVICES; LOSS OF USE, DATA OR PROFITS; OR BUSINESS
   128                           ; INTERRUPTION) HOWSOEVER CAUSED AND ON ANY THEORY OF LIABILITY, WHETHER IN CONTRACT, ST
      +                          RICT
   129                           ; LIABILITY, OR TORT (INCLUDING NEGLIGENCE OR OTHERWISE) ARISING IN ANY WAY OUT OF THE U
      +                          SE OF
   130                           ; THIS SOFTWARE, EVEN IF ADVISED OF THE POSSIBILITY OF SUCH DAMAGE.
   131                           ; 
   132                           ; 
   133                           ; Code-generator required, PIC18F45K22 Definitions
   134                           ; 
   135                           ; SFR Addresses
   136  0000                     
   137                           	psect	idataBANK0
   138  003156                     __pidataBANK0:
   139                           	opt callstack 0
   140                           
   141                           ;initializer for _LCD_linha_2
   142  003156  00C0               	dw	192
   143                           
   144                           ;initializer for _LCD_linha_1
   145  003158  0080               	dw	128
   146                           
   147                           ;initializer for _contador_colunas_LCD
   148  00315A  00C0               	dw	192
   149                           
   150                           	psect	nvBANK0
   151  0000F3                     __pnvBANK0:
   152                           	opt callstack 0
   153  0000F3                     _timer0ReloadVal:
   154                           	opt callstack 0
   155  0000F3                     	ds	2
   156  0000F5                     _TMR0_InterruptHandler:
   157                           	opt callstack 0
   158  0000F5                     	ds	2
   159                           
   160                           	psect	nvBANK1
   161  00014C                     __pnvBANK1:
   162                           	opt callstack 0
   163  00014C                     _EUSART1_ErrorHandler:
   164                           	opt callstack 0
   165  00014C                     	ds	2
   166  00014E                     _EUSART1_OverrunErrorHandler:
   167                           	opt callstack 0
   168  00014E                     	ds	2
   169  000150                     _EUSART1_FramingErrorHandler:
   170                           	opt callstack 0
   171  000150                     	ds	2
   172  000152                     _ADC_InterruptHandler:
   173                           	opt callstack 0
   174  000152                     	ds	2
   175  000154                     _EUSART1_RxDefaultInterruptHandler:
   176                           	opt callstack 0
   177  000154                     	ds	2
   178  000156                     _INT2_InterruptHandler:
   179                           	opt callstack 0
   180  000156                     	ds	2
   181  000158                     _INT1_InterruptHandler:
   182                           	opt callstack 0
   183  000158                     	ds	2
   184  00015A                     _INT0_InterruptHandler:
   185                           	opt callstack 0
   186  00015A                     	ds	2
   187  0000                     _CCPTMRS0bits	set	3913
   188  0000                     _ANSELA	set	3896
   189  0000                     _ANSELE	set	3900
   190  0000                     _ANSELB	set	3897
   191  0000                     _ANSELC	set	3898
   192  0000                     _ANSELD	set	3899
   193  0000                     _PORTBbits	set	3969
   194  0000                     _LATDbits	set	3980
   195  0000                     _TRISDbits	set	3989
   196  0000                     _PORTD	set	3971
   197  0000                     _LATBbits	set	3978
   198  0000                     _CCP1CONbits	set	4029
   199  0000                     _LATAbits	set	3977
   200  0000                     _RCREG1	set	4014
   201  0000                     _RCSTA1bits	set	4011
   202  0000                     _TXREG1	set	4013
   203  0000                     _TXSTA1bits	set	4012
   204  0000                     _SPBRGH1	set	4016
   205  0000                     _SPBRG1	set	4015
   206  0000                     _TXSTA1	set	4012
   207  0000                     _RCSTA1	set	4011
   208  0000                     _BAUDCON1	set	4024
   209  0000                     _ADCON0bits	set	4034
   210  0000                     _ADRESH	set	4036
   211  0000                     _ADRESL	set	4035
   212  0000                     _ADCON2	set	4032
   213  0000                     _ADCON1	set	4033
   214  0000                     _ADCON0	set	4034
   215  0000                     _CCPR1L	set	4030
   216  0000                     _CCPR1H	set	4031
   217  0000                     _PSTR1CON	set	4025
   218  0000                     _PWM1CON	set	4023
   219  0000                     _ECCP1AS	set	4022
   220  0000                     _CCP1CON	set	4029
   221  0000                     _T2CONbits	set	4026
   222  0000                     _T2CON	set	4026
   223  0000                     _TMR2	set	4028
   224  0000                     _PR2	set	4027
   225  0000                     _WPUB	set	3937
   226  0000                     _TRISD	set	3989
   227  0000                     _TRISC	set	3988
   228  0000                     _TRISB	set	3987
   229  0000                     _TRISA	set	3986
   230  0000                     _TRISE	set	3990
   231  0000                     _LATC	set	3979
   232  0000                     _LATB	set	3978
   233  0000                     _LATA	set	3977
   234  0000                     _LATD	set	3980
   235  0000                     _LATE	set	3981
   236  0000                     _OSCTUNE	set	3995
   237  0000                     _OSCCON2	set	4050
   238  0000                     _OSCCON	set	4051
   239  0000                     _PIR1bits	set	3998
   240  0000                     _PIE1bits	set	3997
   241  0000                     _IPR1bits	set	3999
   242  0000                     _RCONbits	set	4048
   243  0000                     _INTCON2bits	set	4081
   244  0000                     _INTCON3bits	set	4080
   245  0000                     _T0CON	set	4053
   246  0000                     _INTCONbits	set	4082
   247  0000                     _TMR0L	set	4054
   248  0000                     _TMR0H	set	4055
   249  0000                     _T0CONbits	set	4053
   250                           
   251                           	psect	smallconst
   252  000600                     __psmallconst:
   253                           	opt callstack 0
   254  000600  00                 	db	0
   255  000601                     STR_5:
   256  000601  0D                 	db	13
   257  000602  0A                 	db	10
   258  000603  20                 	db	32
   259  000604  49                 	db	73	;'I'
   260  000605  6E                 	db	110	;'n'
   261  000606  74                 	db	116	;'t'
   262  000607  72                 	db	114	;'r'
   263  000608  6F                 	db	111	;'o'
   264  000609  64                 	db	100	;'d'
   265  00060A  75                 	db	117	;'u'
   266  00060B  7A                 	db	122	;'z'
   267  00060C  61                 	db	97	;'a'
   268  00060D  20                 	db	32
   269  00060E  61                 	db	97	;'a'
   270  00060F  20                 	db	32
   271  000610  74                 	db	116	;'t'
   272  000611  65                 	db	101	;'e'
   273  000612  6D                 	db	109	;'m'
   274  000613  70                 	db	112	;'p'
   275  000614  65                 	db	101	;'e'
   276  000615  72                 	db	114	;'r'
   277  000616  61                 	db	97	;'a'
   278  000617  74                 	db	116	;'t'
   279  000618  75                 	db	117	;'u'
   280  000619  72                 	db	114	;'r'
   281  00061A  61                 	db	97	;'a'
   282  00061B  20                 	db	32
   283  00061C  64                 	db	100	;'d'
   284  00061D  65                 	db	101	;'e'
   285  00061E  20                 	db	32
   286  00061F  61                 	db	97	;'a'
   287  000620  6C                 	db	108	;'l'
   288  000621  61                 	db	97	;'a'
   289  000622  72                 	db	114	;'r'
   290  000623  6D                 	db	109	;'m'
   291  000624  65                 	db	101	;'e'
   292  000625  3A                 	db	58	;':'
   293  000626  20                 	db	32
   294  000627  00                 	db	0
   295  000628                     STR_3:
   296  000628  0D                 	db	13
   297  000629  0A                 	db	10
   298  00062A  20                 	db	32
   299  00062B  45                 	db	69	;'E'
   300  00062C  73                 	db	115	;'s'
   301  00062D  74                 	db	116	;'t'
   302  00062E  61                 	db	97	;'a'
   303  00062F  64                 	db	100	;'d'
   304  000630  6F                 	db	111	;'o'
   305  000631  20                 	db	32
   306  000632  64                 	db	100	;'d'
   307  000633  6F                 	db	111	;'o'
   308  000634  20                 	db	32
   309  000635  61                 	db	97	;'a'
   310  000636  6C                 	db	108	;'l'
   311  000637  61                 	db	97	;'a'
   312  000638  72                 	db	114	;'r'
   313  000639  6D                 	db	109	;'m'
   314  00063A  65                 	db	101	;'e'
   315  00063B  3A                 	db	58	;':'
   316  00063C  20                 	db	32
   317  00063D  44                 	db	68	;'D'
   318  00063E  65                 	db	101	;'e'
   319  00063F  73                 	db	115	;'s'
   320  000640  61                 	db	97	;'a'
   321  000641  74                 	db	116	;'t'
   322  000642  69                 	db	105	;'i'
   323  000643  76                 	db	118	;'v'
   324  000644  6F                 	db	111	;'o'
   325  000645  00                 	db	0
   326  000646                     STR_4:
   327  000646  0D                 	db	13
   328  000647  0A                 	db	10
   329  000648  0A                 	db	10
   330  000649  54                 	db	84	;'T'
   331  00064A  65                 	db	101	;'e'
   332  00064B  6D                 	db	109	;'m'
   333  00064C  70                 	db	112	;'p'
   334  00064D  65                 	db	101	;'e'
   335  00064E  72                 	db	114	;'r'
   336  00064F  61                 	db	97	;'a'
   337  000650  74                 	db	116	;'t'
   338  000651  75                 	db	117	;'u'
   339  000652  72                 	db	114	;'r'
   340  000653  61                 	db	97	;'a'
   341  000654  20                 	db	32
   342  000655  64                 	db	100	;'d'
   343  000656  65                 	db	101	;'e'
   344  000657  20                 	db	32
   345  000658  61                 	db	97	;'a'
   346  000659  6C                 	db	108	;'l'
   347  00065A  61                 	db	97	;'a'
   348  00065B  72                 	db	114	;'r'
   349  00065C  6D                 	db	109	;'m'
   350  00065D  65                 	db	101	;'e'
   351  00065E  3A                 	db	58	;':'
   352  00065F  20                 	db	32
   353  000660  25                 	db	37
   354  000661  64                 	db	100	;'d'
   355  000662  00                 	db	0
   356  000663                     STR_1:
   357  000663  0D                 	db	13
   358  000664  0A                 	db	10
   359  000665  20                 	db	32
   360  000666  54                 	db	84	;'T'
   361  000667  65                 	db	101	;'e'
   362  000668  6D                 	db	109	;'m'
   363  000669  70                 	db	112	;'p'
   364  00066A  65                 	db	101	;'e'
   365  00066B  72                 	db	114	;'r'
   366  00066C  61                 	db	97	;'a'
   367  00066D  74                 	db	116	;'t'
   368  00066E  75                 	db	117	;'u'
   369  00066F  72                 	db	114	;'r'
   370  000670  61                 	db	97	;'a'
   371  000671  20                 	db	32
   372  000672  61                 	db	97	;'a'
   373  000673  74                 	db	116	;'t'
   374  000674  75                 	db	117	;'u'
   375  000675  61                 	db	97	;'a'
   376  000676  6C                 	db	108	;'l'
   377  000677  20                 	db	32
   378  000678  3D                 	db	61	;'='
   379  000679  20                 	db	32
   380  00067A  25                 	db	37
   381  00067B  64                 	db	100	;'d'
   382  00067C  43                 	db	67	;'C'
   383  00067D  00                 	db	0
   384  00067E                     STR_2:
   385  00067E  0D                 	db	13
   386  00067F  0A                 	db	10
   387  000680  20                 	db	32
   388  000681  45                 	db	69	;'E'
   389  000682  73                 	db	115	;'s'
   390  000683  74                 	db	116	;'t'
   391  000684  61                 	db	97	;'a'
   392  000685  64                 	db	100	;'d'
   393  000686  6F                 	db	111	;'o'
   394  000687  20                 	db	32
   395  000688  64                 	db	100	;'d'
   396  000689  6F                 	db	111	;'o'
   397  00068A  20                 	db	32
   398  00068B  61                 	db	97	;'a'
   399  00068C  6C                 	db	108	;'l'
   400  00068D  61                 	db	97	;'a'
   401  00068E  72                 	db	114	;'r'
   402  00068F  6D                 	db	109	;'m'
   403  000690  65                 	db	101	;'e'
   404  000691  3A                 	db	58	;':'
   405  000692  20                 	db	32
   406  000693  41                 	db	65	;'A'
   407  000694  74                 	db	116	;'t'
   408  000695  69                 	db	105	;'i'
   409  000696  76                 	db	118	;'v'
   410  000697  6F                 	db	111	;'o'
   411  000698  00                 	db	0
   412  000699                     STR_7:
   413  000699  20                 	db	32
   414  00069A  20                 	db	32
   415  00069B  20                 	db	32
   416  00069C  20                 	db	32
   417  00069D  20                 	db	32
   418  00069E  20                 	db	32
   419  00069F  20                 	db	32
   420  0006A0  20                 	db	32
   421  0006A1  20                 	db	32
   422  0006A2  20                 	db	32
   423  0006A3  20                 	db	32
   424  0006A4  20                 	db	32
   425  0006A5  20                 	db	32
   426  0006A6  20                 	db	32
   427  0006A7  20                 	db	32
   428  0006A8  20                 	db	32
   429  0006A9  20                 	db	32
   430  0006AA  20                 	db	32
   431  0006AB  20                 	db	32
   432  0006AC  20                 	db	32
   433  0006AD  00                 	db	0
   434  0006AE                     STR_6:
   435  0006AE  74                 	db	116	;'t'
   436  0006AF  65                 	db	101	;'e'
   437  0006B0  6D                 	db	109	;'m'
   438  0006B1  70                 	db	112	;'p'
   439  0006B2  20                 	db	32
   440  0006B3  3D                 	db	61	;'='
   441  0006B4  20                 	db	32
   442  0006B5  25                 	db	37
   443  0006B6  64                 	db	100	;'d'
   444  0006B7  43                 	db	67	;'C'
   445  0006B8  00                 	db	0
   446                           
   447                           ; #config settings
   448  0006B9  00                 	db	0	; dummy byte at the end
   449  0000                     
   450                           	psect	cinit
   451  002B8A                     __pcinit:
   452                           	opt callstack 0
   453  002B8A                     start_initialization:
   454                           	opt callstack 0
   455  002B8A                     __initialization:
   456                           	opt callstack 0
   457                           
   458                           ; Initialize objects allocated to BANK0 (6 bytes)
   459                           ; load TBLPTR registers with __pidataBANK0
   460  002B8A  0E56               	movlw	low __pidataBANK0
   461  002B8C  6EF6               	movwf	tblptrl,c
   462  002B8E  0E31               	movlw	high __pidataBANK0
   463  002B90  6EF7               	movwf	tblptrh,c
   464  002B92  0E00               	movlw	low (__pidataBANK0 shr (0+16))
   465  002B94  6EF8               	movwf	tblptru,c
   466  002B96  EE00  F0ED         	lfsr	0,__pdataBANK0
   467  002B9A  EE10 F006          	lfsr	1,6
   468  002B9E                     copy_data0:
   469  002B9E  0009               	tblrd		*+
   470  002BA0  CFF5 FFEE          	movff	tablat,postinc0
   471  002BA4  50E5               	movf	postdec1,w,c
   472  002BA6  50E1               	movf	fsr1l,w,c
   473  002BA8  E1FA               	bnz	copy_data0
   474                           
   475                           ; Clear objects allocated to BANK1 (76 bytes)
   476  002BAA  EE01  F000         	lfsr	0,__pbssBANK1
   477  002BAE  0E4C               	movlw	76
   478  002BB0                     clear_0:
   479  002BB0  6AEE               	clrf	postinc0,c
   480  002BB2  06E8               	decf	wreg,f,c
   481  002BB4  E1FD               	bnz	clear_0
   482                           
   483                           ; Clear objects allocated to BANK0 (34 bytes)
   484  002BB6  EE00  F0CB         	lfsr	0,__pbssBANK0
   485  002BBA  0E22               	movlw	34
   486  002BBC                     clear_1:
   487  002BBC  6AEE               	clrf	postinc0,c
   488  002BBE  06E8               	decf	wreg,f,c
   489  002BC0  E1FD               	bnz	clear_1
   490  002BC2                     end_of_initialization:
   491                           	opt callstack 0
   492  002BC2                     __end_of__initialization:
   493                           	opt callstack 0
   494  002BC2  905F               	bcf	int$flags,0,c	;clear compiler interrupt flag (level 1)
   495  002BC4  925F               	bcf	int$flags,1,c	;clear compiler interrupt flag (level 2)
   496  002BC6  0E00               	movlw	low (__Lmediumconst shr (0+16))
   497  002BC8  6EF8               	movwf	tblptru,c
   498  002BCA  0100               	movlb	0
   499  002BCC  EF9F  F009         	goto	_main	;jump to C main() function
   500                           
   501                           	psect	bssBANK0
   502  0000CB                     __pbssBANK0:
   503                           	opt callstack 0
   504  0000CB                     _nout:
   505                           	opt callstack 0
   506  0000CB                     	ds	2
   507  0000CD                     _width:
   508                           	opt callstack 0
   509  0000CD                     	ds	2
   510  0000CF                     _prec:
   511                           	opt callstack 0
   512  0000CF                     	ds	2
   513  0000D1                     _flags:
   514                           	opt callstack 0
   515  0000D1                     	ds	2
   516  0000D3                     _alarme_ativo:
   517                           	opt callstack 0
   518  0000D3                     	ds	2
   519  0000D5                     _temp_ambiente_anterior:
   520                           	opt callstack 0
   521  0000D5                     	ds	2
   522  0000D7                     _temp_ambiente:
   523                           	opt callstack 0
   524  0000D7                     	ds	2
   525  0000D9                     _codigo_digital:
   526                           	opt callstack 0
   527  0000D9                     	ds	2
   528  0000DB                     _temp_mudou:
   529                           	opt callstack 0
   530  0000DB                     	ds	2
   531  0000DD                     _temp_alarme:
   532                           	opt callstack 0
   533  0000DD                     	ds	2
   534  0000DF                     _pin_real:
   535                           	opt callstack 0
   536  0000DF                     	ds	2
   537  0000E1                     _pin_intr:
   538                           	opt callstack 0
   539  0000E1                     	ds	2
   540  0000E3                     _tecla_limpar:
   541                           	opt callstack 0
   542  0000E3                     	ds	2
   543  0000E5                     _tecla_n:
   544                           	opt callstack 0
   545  0000E5                     	ds	2
   546  0000E7                     _eusart1RxLastError:
   547                           	opt callstack 0
   548  0000E7                     	ds	1
   549  0000E8                     _eusart1RxCount:
   550                           	opt callstack 0
   551  0000E8                     	ds	1
   552  0000E9                     _eusart1RxTail:
   553                           	opt callstack 0
   554  0000E9                     	ds	1
   555  0000EA                     _eusart1RxHead:
   556                           	opt callstack 0
   557  0000EA                     	ds	1
   558  0000EB                     _temp_alarme_intro:
   559                           	opt callstack 0
   560  0000EB                     	ds	1
   561  0000EC                     _tecla_premida:
   562                           	opt callstack 0
   563  0000EC                     	ds	1
   564                           
   565                           	psect	dataBANK0
   566  0000ED                     __pdataBANK0:
   567                           	opt callstack 0
   568  0000ED                     _LCD_linha_2:
   569                           	opt callstack 0
   570  0000ED                     	ds	2
   571  0000EF                     _LCD_linha_1:
   572                           	opt callstack 0
   573  0000EF                     	ds	2
   574  0000F1                     _contador_colunas_LCD:
   575                           	opt callstack 0
   576  0000F1                     	ds	2
   577                           
   578                           	psect	bssBANK1
   579  000100                     __pbssBANK1:
   580                           	opt callstack 0
   581  000100                     _eusart1RxStatusBuffer:
   582                           	opt callstack 0
   583  000100                     	ds	8
   584  000108                     _eusart1RxBuffer:
   585                           	opt callstack 0
   586  000108                     	ds	8
   587  000110                     _dbuf:
   588                           	opt callstack 0
   589  000110                     	ds	32
   590  000130                     _temp_ambiente_LCD:
   591                           	opt callstack 0
   592  000130                     	ds	20
   593  000144                     _temp_alarme_string:
   594                           	opt callstack 0
   595  000144                     	ds	4
   596  000148                     _pin:
   597                           	opt callstack 0
   598  000148                     	ds	4
   599                           
   600                           	psect	cstackBANK1
   601  00015C                     __pcstackBANK1:
   602                           	opt callstack 0
   603  00015C                     	ds	2
   604  00015E                     sprintf@ap:
   605                           	opt callstack 0
   606                           
   607                           ; 2 bytes @ 0x2
   608  00015E                     	ds	2
   609  000160                     sprintf@f:
   610                           	opt callstack 0
   611                           
   612                           ; 6 bytes @ 0x4
   613  000160                     	ds	6
   614                           
   615                           	psect	cstackBANK0
   616  000060                     __pcstackBANK0:
   617                           	opt callstack 0
   618  000060                     ??_INTERRUPT_InterruptManagerHigh:
   619                           
   620                           ; 1 bytes @ 0x0
   621  000060                     	ds	6
   622  000066                     ??_DelayPORXLCD:
   623  000066                     ??_DelayXLCD:
   624  000066                     ?_strlen:
   625                           	opt callstack 0
   626  000066                     ?_isspace:
   627                           	opt callstack 0
   628  000066                     ?_isdigit:
   629                           	opt callstack 0
   630  000066                     ?___wmul:
   631                           	opt callstack 0
   632  000066                     ?___aodiv:
   633                           	opt callstack 0
   634  000066                     ?___aomod:
   635                           	opt callstack 0
   636  000066                     EUSART1_Read@readValue:
   637                           	opt callstack 0
   638  000066                     EUSART1_Write@txData:
   639                           	opt callstack 0
   640  000066                     WriteCmdXLCD@cmd:
   641                           	opt callstack 0
   642  000066                     WriteDataXLCD@data:
   643                           	opt callstack 0
   644  000066                     TMR0_SetInterruptHandler@InterruptHandler:
   645                           	opt callstack 0
   646  000066                     INT0_SetInterruptHandler@InterruptHandler:
   647                           	opt callstack 0
   648  000066                     INT1_SetInterruptHandler@InterruptHandler:
   649                           	opt callstack 0
   650  000066                     INT2_SetInterruptHandler@InterruptHandler:
   651                           	opt callstack 0
   652  000066                     ADC_SetInterruptHandler@InterruptHandler:
   653                           	opt callstack 0
   654  000066                     EUSART1_SetFramingErrorHandler@interruptHandler:
   655                           	opt callstack 0
   656  000066                     EUSART1_SetOverrunErrorHandler@interruptHandler:
   657                           	opt callstack 0
   658  000066                     EUSART1_SetErrorHandler@interruptHandler:
   659                           	opt callstack 0
   660  000066                     EUSART1_SetRxInterruptHandler@interruptHandler:
   661                           	opt callstack 0
   662  000066                     ___wmul@multiplier:
   663                           	opt callstack 0
   664  000066                     isdigit@c:
   665                           	opt callstack 0
   666  000066                     isspace@c:
   667                           	opt callstack 0
   668  000066                     strlen@s:
   669                           	opt callstack 0
   670  000066                     ___aodiv@dividend:
   671                           	opt callstack 0
   672  000066                     ___aomod@dividend:
   673                           	opt callstack 0
   674                           
   675                           ; 8 bytes @ 0x6
   676  000066                     	ds	1
   677  000067                     putch@txData:
   678                           	opt callstack 0
   679  000067                     putsXLCD@buffer:
   680                           	opt callstack 0
   681                           
   682                           ; 2 bytes @ 0x7
   683  000067                     	ds	1
   684  000068                     ??_isspace:
   685  000068                     ??_isdigit:
   686  000068                     ??_TMR0_Initialize:
   687  000068                     ___wmul@multiplicand:
   688                           	opt callstack 0
   689  000068                     fputc@c:
   690                           	opt callstack 0
   691  000068                     strlen@a:
   692                           	opt callstack 0
   693                           
   694                           ; 2 bytes @ 0x8
   695  000068                     	ds	1
   696  000069                     
   697                           ; 1 bytes @ 0x9
   698  000069                     	ds	1
   699  00006A                     ___wmul@product:
   700                           	opt callstack 0
   701  00006A                     fputc@fp:
   702                           	opt callstack 0
   703  00006A                     strncat@d:
   704                           	opt callstack 0
   705                           
   706                           ; 2 bytes @ 0xA
   707  00006A                     	ds	2
   708  00006C                     ??_fputc:
   709  00006C                     _isspace$2327:
   710                           	opt callstack 0
   711  00006C                     strncat@s:
   712                           	opt callstack 0
   713                           
   714                           ; 2 bytes @ 0xC
   715  00006C                     	ds	1
   716  00006D                     ?_atoi:
   717                           	opt callstack 0
   718  00006D                     atoi@s:
   719                           	opt callstack 0
   720                           
   721                           ; 2 bytes @ 0xD
   722  00006D                     	ds	1
   723  00006E                     strncat@n:
   724                           	opt callstack 0
   725  00006E                     ___aodiv@divisor:
   726                           	opt callstack 0
   727  00006E                     ___aomod@divisor:
   728                           	opt callstack 0
   729                           
   730                           ; 8 bytes @ 0xE
   731  00006E                     	ds	1
   732  00006F                     ??_atoi:
   733                           
   734                           ; 1 bytes @ 0xF
   735  00006F                     	ds	1
   736  000070                     
   737                           ; 1 bytes @ 0x10
   738  000070                     	ds	1
   739  000071                     fputs@s:
   740                           	opt callstack 0
   741                           
   742                           ; 2 bytes @ 0x11
   743  000071                     	ds	2
   744  000073                     atoi@neg:
   745                           	opt callstack 0
   746  000073                     fputs@fp:
   747                           	opt callstack 0
   748                           
   749                           ; 2 bytes @ 0x13
   750  000073                     	ds	2
   751  000075                     fputs@c:
   752                           	opt callstack 0
   753  000075                     _atoi$2309:
   754                           	opt callstack 0
   755                           
   756                           ; 2 bytes @ 0x15
   757  000075                     	ds	1
   758  000076                     ___aodiv@counter:
   759                           	opt callstack 0
   760  000076                     ___aomod@counter:
   761                           	opt callstack 0
   762  000076                     fputs@i:
   763                           	opt callstack 0
   764                           
   765                           ; 2 bytes @ 0x16
   766  000076                     	ds	1
   767  000077                     ___aodiv@sign:
   768                           	opt callstack 0
   769  000077                     ___aomod@sign:
   770                           	opt callstack 0
   771  000077                     _atoi$2311:
   772                           	opt callstack 0
   773                           
   774                           ; 2 bytes @ 0x17
   775  000077                     	ds	1
   776  000078                     ?_abs:
   777                           	opt callstack 0
   778  000078                     ?_pad:
   779                           	opt callstack 0
   780  000078                     pad@fp:
   781                           	opt callstack 0
   782  000078                     abs@a:
   783                           	opt callstack 0
   784  000078                     ___aodiv@quotient:
   785                           	opt callstack 0
   786                           
   787                           ; 8 bytes @ 0x18
   788  000078                     	ds	1
   789  000079                     _atoi$2310:
   790                           	opt callstack 0
   791                           
   792                           ; 1 bytes @ 0x19
   793  000079                     	ds	1
   794  00007A                     ??_abs:
   795  00007A                     pad@buf:
   796                           	opt callstack 0
   797  00007A                     atoi@n:
   798                           	opt callstack 0
   799                           
   800                           ; 2 bytes @ 0x1A
   801  00007A                     	ds	2
   802  00007C                     pad@p:
   803                           	opt callstack 0
   804                           
   805                           ; 2 bytes @ 0x1C
   806  00007C                     	ds	2
   807  00007E                     ??_pad:
   808                           
   809                           ; 1 bytes @ 0x1E
   810  00007E                     	ds	1
   811  00007F                     pad@i:
   812                           	opt callstack 0
   813                           
   814                           ; 2 bytes @ 0x1F
   815  00007F                     	ds	2
   816  000081                     pad@w:
   817                           	opt callstack 0
   818                           
   819                           ; 2 bytes @ 0x21
   820  000081                     	ds	2
   821  000083                     ?_dtoa:
   822                           	opt callstack 0
   823  000083                     dtoa@fp:
   824                           	opt callstack 0
   825                           
   826                           ; 2 bytes @ 0x23
   827  000083                     	ds	2
   828  000085                     dtoa@d:
   829                           	opt callstack 0
   830                           
   831                           ; 8 bytes @ 0x25
   832  000085                     	ds	8
   833  00008D                     ??_dtoa:
   834                           
   835                           ; 1 bytes @ 0x2D
   836  00008D                     	ds	8
   837  000095                     _dtoa$1834:
   838                           	opt callstack 0
   839                           
   840                           ; 2 bytes @ 0x35
   841  000095                     	ds	2
   842  000097                     dtoa@p:
   843                           	opt callstack 0
   844                           
   845                           ; 2 bytes @ 0x37
   846  000097                     	ds	2
   847  000099                     dtoa@w:
   848                           	opt callstack 0
   849                           
   850                           ; 2 bytes @ 0x39
   851  000099                     	ds	2
   852  00009B                     dtoa@s:
   853                           	opt callstack 0
   854                           
   855                           ; 2 bytes @ 0x3B
   856  00009B                     	ds	2
   857  00009D                     dtoa@n:
   858                           	opt callstack 0
   859                           
   860                           ; 8 bytes @ 0x3D
   861  00009D                     	ds	8
   862  0000A5                     dtoa@i:
   863                           	opt callstack 0
   864                           
   865                           ; 2 bytes @ 0x45
   866  0000A5                     	ds	2
   867  0000A7                     ?_vfpfcnvrt:
   868                           	opt callstack 0
   869  0000A7                     vfpfcnvrt@fp:
   870                           	opt callstack 0
   871                           
   872                           ; 2 bytes @ 0x47
   873  0000A7                     	ds	2
   874  0000A9                     vfpfcnvrt@fmt:
   875                           	opt callstack 0
   876                           
   877                           ; 2 bytes @ 0x49
   878  0000A9                     	ds	2
   879  0000AB                     vfpfcnvrt@ap:
   880                           	opt callstack 0
   881                           
   882                           ; 2 bytes @ 0x4B
   883  0000AB                     	ds	2
   884  0000AD                     ??_vfpfcnvrt:
   885                           
   886                           ; 1 bytes @ 0x4D
   887  0000AD                     	ds	2
   888  0000AF                     vfpfcnvrt@ll:
   889                           	opt callstack 0
   890                           
   891                           ; 8 bytes @ 0x4F
   892  0000AF                     	ds	8
   893  0000B7                     ?_vfprintf:
   894                           	opt callstack 0
   895  0000B7                     vfprintf@fp:
   896                           	opt callstack 0
   897                           
   898                           ; 2 bytes @ 0x57
   899  0000B7                     	ds	2
   900  0000B9                     vfprintf@fmt:
   901                           	opt callstack 0
   902                           
   903                           ; 2 bytes @ 0x59
   904  0000B9                     	ds	2
   905  0000BB                     vfprintf@ap:
   906                           	opt callstack 0
   907                           
   908                           ; 2 bytes @ 0x5B
   909  0000BB                     	ds	2
   910  0000BD                     vfprintf@cfmt:
   911                           	opt callstack 0
   912                           
   913                           ; 2 bytes @ 0x5D
   914  0000BD                     	ds	2
   915  0000BF                     ?_printf:
   916                           	opt callstack 0
   917  0000BF                     ?_sprintf:
   918                           	opt callstack 0
   919  0000BF                     sprintf@s:
   920                           	opt callstack 0
   921  0000BF                     printf@fmt:
   922                           	opt callstack 0
   923                           
   924                           ; 2 bytes @ 0x5F
   925  0000BF                     	ds	2
   926  0000C1                     sprintf@fmt:
   927                           	opt callstack 0
   928                           
   929                           ; 2 bytes @ 0x61
   930  0000C1                     	ds	2
   931  0000C3                     
   932                           ; 1 bytes @ 0x63
   933  0000C3                     	ds	2
   934  0000C5                     printf@ap:
   935                           	opt callstack 0
   936                           
   937                           ; 2 bytes @ 0x65
   938  0000C5                     	ds	2
   939  0000C7                     ??_main:
   940                           
   941                           ; 1 bytes @ 0x67
   942  0000C7                     	ds	1
   943  0000C8                     main@contador_caracteres:
   944                           	opt callstack 0
   945                           
   946                           ; 2 bytes @ 0x68
   947  0000C8                     	ds	2
   948  0000CA                     main@rxData:
   949                           	opt callstack 0
   950                           
   951                           ; 1 bytes @ 0x6A
   952  0000CA                     	ds	1
   953                           
   954                           	psect	cstackCOMRAM
   955  000001                     __pcstackCOMRAM:
   956                           	opt callstack 0
   957  000001                     ??_Timer_0:
   958  000001                     ?_ADC_GetConversionResult:
   959                           	opt callstack 0
   960  000001                     ?___xxtofl:
   961                           	opt callstack 0
   962  000001                     ___xxtofl@val:
   963                           	opt callstack 0
   964                           
   965                           ; 4 bytes @ 0x0
   966  000001                     	ds	1
   967  000002                     
   968                           ; 1 bytes @ 0x1
   969  000002                     	ds	1
   970  000003                     ??_ADC_GetConversionResult:
   971                           
   972                           ; 1 bytes @ 0x2
   973  000003                     	ds	2
   974  000005                     ??___xxtofl:
   975                           
   976                           ; 1 bytes @ 0x4
   977  000005                     	ds	4
   978  000009                     ___xxtofl@sign:
   979                           	opt callstack 0
   980                           
   981                           ; 1 bytes @ 0x8
   982  000009                     	ds	1
   983  00000A                     ___xxtofl@exp:
   984                           	opt callstack 0
   985                           
   986                           ; 1 bytes @ 0x9
   987  00000A                     	ds	1
   988  00000B                     ___xxtofl@arg:
   989                           	opt callstack 0
   990                           
   991                           ; 4 bytes @ 0xA
   992  00000B                     	ds	4
   993  00000F                     ?___flmul:
   994                           	opt callstack 0
   995  00000F                     ___flmul@b:
   996                           	opt callstack 0
   997                           
   998                           ; 4 bytes @ 0xE
   999  00000F                     	ds	4
  1000  000013                     ___flmul@a:
  1001                           	opt callstack 0
  1002                           
  1003                           ; 4 bytes @ 0x12
  1004  000013                     	ds	4
  1005  000017                     ??___flmul:
  1006                           
  1007                           ; 1 bytes @ 0x16
  1008  000017                     	ds	4
  1009  00001B                     ___flmul@sign:
  1010                           	opt callstack 0
  1011                           
  1012                           ; 1 bytes @ 0x1A
  1013  00001B                     	ds	1
  1014  00001C                     ___flmul@grs:
  1015                           	opt callstack 0
  1016                           
  1017                           ; 4 bytes @ 0x1B
  1018  00001C                     	ds	4
  1019  000020                     ___flmul@aexp:
  1020                           	opt callstack 0
  1021                           
  1022                           ; 1 bytes @ 0x1F
  1023  000020                     	ds	1
  1024  000021                     ___flmul@bexp:
  1025                           	opt callstack 0
  1026                           
  1027                           ; 1 bytes @ 0x20
  1028  000021                     	ds	1
  1029  000022                     ___flmul@prod:
  1030                           	opt callstack 0
  1031                           
  1032                           ; 4 bytes @ 0x21
  1033  000022                     	ds	4
  1034  000026                     ___flmul@temp:
  1035                           	opt callstack 0
  1036                           
  1037                           ; 2 bytes @ 0x25
  1038  000026                     	ds	2
  1039  000028                     ?___fladd:
  1040                           	opt callstack 0
  1041  000028                     ___fladd@b:
  1042                           	opt callstack 0
  1043                           
  1044                           ; 4 bytes @ 0x27
  1045  000028                     	ds	4
  1046  00002C                     ___fladd@a:
  1047                           	opt callstack 0
  1048                           
  1049                           ; 4 bytes @ 0x2B
  1050  00002C                     	ds	4
  1051  000030                     ??___fladd:
  1052                           
  1053                           ; 1 bytes @ 0x2F
  1054  000030                     	ds	4
  1055  000034                     ___fladd@signs:
  1056                           	opt callstack 0
  1057                           
  1058                           ; 1 bytes @ 0x33
  1059  000034                     	ds	1
  1060  000035                     ___fladd@aexp:
  1061                           	opt callstack 0
  1062                           
  1063                           ; 1 bytes @ 0x34
  1064  000035                     	ds	1
  1065  000036                     ___fladd@bexp:
  1066                           	opt callstack 0
  1067                           
  1068                           ; 1 bytes @ 0x35
  1069  000036                     	ds	1
  1070  000037                     ___fladd@grs:
  1071                           	opt callstack 0
  1072                           
  1073                           ; 1 bytes @ 0x36
  1074  000037                     	ds	1
  1075  000038                     ?___fldiv:
  1076                           	opt callstack 0
  1077  000038                     ___fldiv@b:
  1078                           	opt callstack 0
  1079                           
  1080                           ; 4 bytes @ 0x37
  1081  000038                     	ds	4
  1082  00003C                     ___fldiv@a:
  1083                           	opt callstack 0
  1084                           
  1085                           ; 4 bytes @ 0x3B
  1086  00003C                     	ds	4
  1087  000040                     ??___fldiv:
  1088                           
  1089                           ; 1 bytes @ 0x3F
  1090  000040                     	ds	4
  1091  000044                     ___fldiv@rem:
  1092                           	opt callstack 0
  1093                           
  1094                           ; 4 bytes @ 0x43
  1095  000044                     	ds	4
  1096  000048                     ___fldiv@sign:
  1097                           	opt callstack 0
  1098                           
  1099                           ; 1 bytes @ 0x47
  1100  000048                     	ds	1
  1101  000049                     ___fldiv@new_exp:
  1102                           	opt callstack 0
  1103                           
  1104                           ; 2 bytes @ 0x48
  1105  000049                     	ds	2
  1106  00004B                     ___fldiv@grs:
  1107                           	opt callstack 0
  1108                           
  1109                           ; 4 bytes @ 0x4A
  1110  00004B                     	ds	4
  1111  00004F                     ___fldiv@bexp:
  1112                           	opt callstack 0
  1113                           
  1114                           ; 1 bytes @ 0x4E
  1115  00004F                     	ds	1
  1116  000050                     ___fldiv@aexp:
  1117                           	opt callstack 0
  1118                           
  1119                           ; 1 bytes @ 0x4F
  1120  000050                     	ds	1
  1121  000051                     ?___fltol:
  1122                           	opt callstack 0
  1123  000051                     ___fltol@f1:
  1124                           	opt callstack 0
  1125                           
  1126                           ; 4 bytes @ 0x50
  1127  000051                     	ds	4
  1128  000055                     ??___fltol:
  1129                           
  1130                           ; 1 bytes @ 0x54
  1131  000055                     	ds	4
  1132  000059                     ___fltol@sign1:
  1133                           	opt callstack 0
  1134                           
  1135                           ; 1 bytes @ 0x58
  1136  000059                     	ds	1
  1137  00005A                     ___fltol@exp1:
  1138                           	opt callstack 0
  1139                           
  1140                           ; 1 bytes @ 0x59
  1141  00005A                     	ds	1
  1142  00005B                     _ADC_temperatura$2715:
  1143                           	opt callstack 0
  1144                           
  1145                           ; 4 bytes @ 0x5A
  1146  00005B                     	ds	4
  1147  00005F                     
  1148                           ; 1 bytes @ 0x5E
  1149 ;;
  1150 ;;Main: autosize = 0, tempsize = 1, incstack = 0, save=0
  1151 ;;
  1152 ;; *************** function _main *****************
  1153 ;; Defined at:
  1154 ;;		line 100 in file "main.c"
  1155 ;; Parameters:    Size  Location     Type
  1156 ;;		None
  1157 ;; Auto vars:     Size  Location     Type
  1158 ;;  contador_car    2  104[BANK0 ] int 
  1159 ;;  rxData          1  106[BANK0 ] unsigned char 
  1160 ;; Return value:  Size  Location     Type
  1161 ;;                  1    wreg      void 
  1162 ;; Registers used:
  1163 ;;		wreg, fsr1l, fsr1h, fsr2l, fsr2h, status,2, status,0, tblptrl, tblptrh, tblptru, prodl, prodh, cstack
  1164 ;; Tracked objects:
  1165 ;;		On entry : 0/0
  1166 ;;		On exit  : 0/0
  1167 ;;		Unchanged: 0/0
  1168 ;; Data sizes:     COMRAM   BANK0   BANK1   BANK2   BANK3   BANK4   BANK5
  1169 ;;      Params:         0       0       0       0       0       0       0
  1170 ;;      Locals:         0       3       0       0       0       0       0
  1171 ;;      Temps:          0       1       0       0       0       0       0
  1172 ;;      Totals:         0       4       0       0       0       0       0
  1173 ;;Total ram usage:        4 bytes
  1174 ;; Hardware stack levels required when called:   13
  1175 ;; This function calls:
  1176 ;;		_ADC_SetInterruptHandler
  1177 ;;		_BusyXLCD
  1178 ;;		_EUSART1_Read
  1179 ;;		_EUSART1_Write
  1180 ;;		_EUSART1_is_rx_ready
  1181 ;;		_INT0_SetInterruptHandler
  1182 ;;		_INT1_SetInterruptHandler
  1183 ;;		_INT2_SetInterruptHandler
  1184 ;;		_LCD_inicio_teste
  1185 ;;		_SYSTEM_Initialize
  1186 ;;		_TMR0_SetInterruptHandler
  1187 ;;		_WriteCmdXLCD
  1188 ;;		_atoi
  1189 ;;		_printf
  1190 ;;		_putsXLCD
  1191 ;;		_sprintf
  1192 ;;		_strncat
  1193 ;; This function is called by:
  1194 ;;		Startup code after reset
  1195 ;; This function uses a non-reentrant model
  1196 ;;
  1197                           
  1198                           	psect	text0
  1199  00133E                     __ptext0:
  1200                           	opt callstack 0
  1201  00133E                     _main:
  1202                           	opt callstack 18
  1203  00133E                     
  1204                           ;main.c: 103:     SYSTEM_Initialize();
  1205  00133E  ECD8  F017         	call	_SYSTEM_Initialize	;wreg free
  1206  001342                     
  1207                           ;main.c: 105:     uint8_t rxData;;main.c: 115:     (INTCONbits.GIEH = 1);
  1208  001342  8EF2               	bsf	242,7,c	;volatile
  1209  001344                     
  1210                           ;main.c: 147:     int contador_caracteres = 4;
  1211  001344  0E00               	movlw	0
  1212  001346  0100               	movlb	0	; () banked
  1213  001348  6FC9               	movwf	(main@contador_caracteres+1)& (0+255),b
  1214  00134A  0E04               	movlw	4
  1215  00134C  6FC8               	movwf	main@contador_caracteres& (0+255),b
  1216  00134E                     
  1217                           ; BSR set to: 0
  1218                           ;main.c: 150:     LCD_inicio_teste();
  1219  00134E  EC21  F014         	call	_LCD_inicio_teste	;wreg free
  1220  001352                     
  1221                           ;main.c: 153:     TMR0_SetInterruptHandler (Timer_0);
  1222  001352  0E88               	movlw	low _Timer_0
  1223  001354  0100               	movlb	0	; () banked
  1224  001356  6F66               	movwf	TMR0_SetInterruptHandler@InterruptHandler& (0+255),b
  1225  001358  0E2F               	movlw	high _Timer_0
  1226  00135A  6F67               	movwf	(TMR0_SetInterruptHandler@InterruptHandler+1)& (0+255),b
  1227  00135C  EC72  F018         	call	_TMR0_SetInterruptHandler	;wreg free
  1228  001360                     
  1229                           ;main.c: 156:     INT0_SetInterruptHandler (teclado_coluna_1);
  1230  001360  0E14               	movlw	low _teclado_coluna_1
  1231  001362  0100               	movlb	0	; () banked
  1232  001364  6F66               	movwf	INT0_SetInterruptHandler@InterruptHandler& (0+255),b
  1233  001366  0E29               	movlw	high _teclado_coluna_1
  1234  001368  6F67               	movwf	(INT0_SetInterruptHandler@InterruptHandler+1)& (0+255),b
  1235  00136A  EC81  F018         	call	_INT0_SetInterruptHandler	;wreg free
  1236  00136E                     
  1237                           ;main.c: 157:     INT1_SetInterruptHandler (teclado_coluna_2);
  1238  00136E  0EAC               	movlw	low _teclado_coluna_2
  1239  001370  0100               	movlb	0	; () banked
  1240  001372  6F66               	movwf	INT1_SetInterruptHandler@InterruptHandler& (0+255),b
  1241  001374  0E28               	movlw	high _teclado_coluna_2
  1242  001376  6F67               	movwf	(INT1_SetInterruptHandler@InterruptHandler+1)& (0+255),b
  1243  001378  EC7C  F018         	call	_INT1_SetInterruptHandler	;wreg free
  1244  00137C                     
  1245                           ;main.c: 158:     INT2_SetInterruptHandler (teclado_coluna_3);
  1246  00137C  0E56               	movlw	low _teclado_coluna_3
  1247  00137E  0100               	movlb	0	; () banked
  1248  001380  6F66               	movwf	INT2_SetInterruptHandler@InterruptHandler& (0+255),b
  1249  001382  0E27               	movlw	high _teclado_coluna_3
  1250  001384  6F67               	movwf	(INT2_SetInterruptHandler@InterruptHandler+1)& (0+255),b
  1251  001386  EC77  F018         	call	_INT2_SetInterruptHandler	;wreg free
  1252  00138A                     
  1253                           ;main.c: 161:     ADC_SetInterruptHandler(ADC_temperatura);
  1254  00138A  0E64               	movlw	low _ADC_temperatura
  1255  00138C  0100               	movlb	0	; () banked
  1256  00138E  6F66               	movwf	ADC_SetInterruptHandler@InterruptHandler& (0+255),b
  1257  001390  0E21               	movlw	high _ADC_temperatura
  1258  001392  6F67               	movwf	(ADC_SetInterruptHandler@InterruptHandler+1)& (0+255),b
  1259  001394  EC9A  F018         	call	_ADC_SetInterruptHandler	;wreg free
  1260  001398                     
  1261                           ;main.c: 163:     CCP1CONbits.CCP1M = 0000;
  1262  001398  0EF0               	movlw	-16
  1263  00139A  16BD               	andwf	189,f,c	;volatile
  1264  00139C                     
  1265                           ;main.c: 165:     temp_alarme = 25;
  1266  00139C  0E00               	movlw	0
  1267  00139E  0100               	movlb	0	; () banked
  1268  0013A0  6FDE               	movwf	(_temp_alarme+1)& (0+255),b
  1269  0013A2  0E19               	movlw	25
  1270  0013A4  6FDD               	movwf	_temp_alarme& (0+255),b
  1271  0013A6                     l5324:
  1272                           
  1273                           ;main.c: 168:     {;main.c: 170:         if (temp_mudou == 1){
  1274  0013A6  0100               	movlb	0	; () banked
  1275  0013A8  05DB               	decf	_temp_mudou& (0+255),w,b
  1276  0013AA  11DC               	iorwf	(_temp_mudou+1)& (0+255),w,b
  1277  0013AC  A4D8               	btfss	status,2,c
  1278  0013AE  EFDB  F009         	goto	u5231
  1279  0013B2  EFDD  F009         	goto	u5230
  1280  0013B6                     u5231:
  1281  0013B6  EF1E  F00A         	goto	l5338
  1282  0013BA                     u5230:
  1283  0013BA                     
  1284                           ; BSR set to: 0
  1285                           ;main.c: 172:             printf("\r\n Temperatura atual = %dC", temp_ambiente);
  1286  0013BA  0E63               	movlw	low STR_1
  1287  0013BC  6FBF               	movwf	printf@fmt& (0+255),b
  1288  0013BE  0E06               	movlw	high STR_1
  1289  0013C0  6FC0               	movwf	(printf@fmt+1)& (0+255),b
  1290  0013C2  C0D7  F0C1         	movff	_temp_ambiente,?_printf+2
  1291  0013C6  C0D8  F0C2         	movff	_temp_ambiente+1,?_printf+3
  1292  0013CA  EC9C  F017         	call	_printf	;wreg free
  1293  0013CE                     
  1294                           ;main.c: 173:             if (alarme_ativo == 1){
  1295  0013CE  0100               	movlb	0	; () banked
  1296  0013D0  05D3               	decf	_alarme_ativo& (0+255),w,b
  1297  0013D2  11D4               	iorwf	(_alarme_ativo+1)& (0+255),w,b
  1298  0013D4  A4D8               	btfss	status,2,c
  1299  0013D6  EFEF  F009         	goto	u5241
  1300  0013DA  EFF1  F009         	goto	u5240
  1301  0013DE                     u5241:
  1302  0013DE  EFF7  F009         	goto	l5332
  1303  0013E2                     u5240:
  1304  0013E2                     
  1305                           ; BSR set to: 0
  1306                           ;main.c: 174:                 printf("\r\n Estado do alarme: Ativo");
  1307  0013E2  0E7E               	movlw	low STR_2
  1308  0013E4  6FBF               	movwf	printf@fmt& (0+255),b
  1309  0013E6  0E06               	movlw	high STR_2
  1310  0013E8  6FC0               	movwf	(printf@fmt+1)& (0+255),b
  1311  0013EA  EC9C  F017         	call	_printf	;wreg free
  1312  0013EE                     l5332:
  1313                           
  1314                           ;main.c: 176:             if (alarme_ativo == 0){
  1315  0013EE  0100               	movlb	0	; () banked
  1316  0013F0  51D3               	movf	_alarme_ativo& (0+255),w,b
  1317  0013F2  11D4               	iorwf	(_alarme_ativo+1)& (0+255),w,b
  1318  0013F4  A4D8               	btfss	status,2,c
  1319  0013F6  EFFF  F009         	goto	u5251
  1320  0013FA  EF01  F00A         	goto	u5250
  1321  0013FE                     u5251:
  1322  0013FE  EF07  F00A         	goto	l569
  1323  001402                     u5250:
  1324  001402                     
  1325                           ; BSR set to: 0
  1326                           ;main.c: 177:                 printf("\r\n Estado do alarme: Desativo");
  1327  001402  0E28               	movlw	low STR_3
  1328  001404  6FBF               	movwf	printf@fmt& (0+255),b
  1329  001406  0E06               	movlw	high STR_3
  1330  001408  6FC0               	movwf	(printf@fmt+1)& (0+255),b
  1331  00140A  EC9C  F017         	call	_printf	;wreg free
  1332  00140E                     l569:
  1333                           
  1334                           ;main.c: 179:             printf("\r\n\nTemperatura de alarme: %d", temp_alarme);
  1335  00140E  0E46               	movlw	low STR_4
  1336  001410  0100               	movlb	0	; () banked
  1337  001412  6FBF               	movwf	printf@fmt& (0+255),b
  1338  001414  0E06               	movlw	high STR_4
  1339  001416  6FC0               	movwf	(printf@fmt+1)& (0+255),b
  1340  001418  C0DD  F0C1         	movff	_temp_alarme,?_printf+2
  1341  00141C  C0DE  F0C2         	movff	_temp_alarme+1,?_printf+3
  1342  001420  EC9C  F017         	call	_printf	;wreg free
  1343                           
  1344                           ;main.c: 180:             printf("\r\n Introduza a temperatura de alarme: ");
  1345  001424  0E01               	movlw	low STR_5
  1346  001426  0100               	movlb	0	; () banked
  1347  001428  6FBF               	movwf	printf@fmt& (0+255),b
  1348  00142A  0E06               	movlw	high STR_5
  1349  00142C  6FC0               	movwf	(printf@fmt+1)& (0+255),b
  1350  00142E  EC9C  F017         	call	_printf	;wreg free
  1351  001432                     
  1352                           ;main.c: 182:             temp_mudou = 0;
  1353  001432  0E00               	movlw	0
  1354  001434  0100               	movlb	0	; () banked
  1355  001436  6FDC               	movwf	(_temp_mudou+1)& (0+255),b
  1356  001438  0E00               	movlw	0
  1357  00143A  6FDB               	movwf	_temp_mudou& (0+255),b
  1358  00143C                     l5338:
  1359                           
  1360                           ; BSR set to: 0
  1361                           ;main.c: 187:         if (EUSART1_is_rx_ready()){
  1362  00143C  EC2D  F018         	call	_EUSART1_is_rx_ready	;wreg free
  1363  001440  0900               	iorlw	0
  1364  001442  B4D8               	btfsc	status,2,c
  1365  001444  EF26  F00A         	goto	u5261
  1366  001448  EF28  F00A         	goto	u5260
  1367  00144C                     u5261:
  1368  00144C  EF4B  F00A         	goto	l5348
  1369  001450                     u5260:
  1370  001450                     
  1371                           ;main.c: 189:             rxData = temp_alarme_intro = EUSART1_Read();
  1372  001450  EC78  F015         	call	_EUSART1_Read	;wreg free
  1373  001454  0100               	movlb	0	; () banked
  1374  001456  6FEB               	movwf	_temp_alarme_intro& (0+255),b
  1375  001458  C0EB  F0CA         	movff	_temp_alarme_intro,main@rxData
  1376  00145C                     
  1377                           ; BSR set to: 0
  1378                           ;main.c: 190:             EUSART1_Write(rxData);
  1379  00145C  51CA               	movf	main@rxData& (0+255),w,b
  1380  00145E  EC21  F018         	call	_EUSART1_Write
  1381  001462                     
  1382                           ;main.c: 193:                 strncat(temp_alarme_string, &temp_alarme_intro, 1);
  1383  001462  0E44               	movlw	low _temp_alarme_string
  1384  001464  0100               	movlb	0	; () banked
  1385  001466  6F6A               	movwf	strncat@d& (0+255),b
  1386  001468  0E01               	movlw	high _temp_alarme_string
  1387  00146A  6F6B               	movwf	(strncat@d+1)& (0+255),b
  1388  00146C  0EEB               	movlw	low _temp_alarme_intro
  1389  00146E  6F6C               	movwf	strncat@s& (0+255),b
  1390  001470  0E00               	movlw	high _temp_alarme_intro
  1391  001472  6F6D               	movwf	(strncat@s+1)& (0+255),b
  1392  001474  0E00               	movlw	0
  1393  001476  6F6F               	movwf	(strncat@n+1)& (0+255),b
  1394  001478  0E01               	movlw	1
  1395  00147A  6F6E               	movwf	strncat@n& (0+255),b
  1396  00147C  EC6F  F013         	call	_strncat	;wreg free
  1397  001480                     
  1398                           ;main.c: 195:                 temp_alarme = atoi (temp_alarme_string);
  1399  001480  0E44               	movlw	low _temp_alarme_string
  1400  001482  0100               	movlb	0	; () banked
  1401  001484  6F6D               	movwf	atoi@s& (0+255),b
  1402  001486  0E01               	movlw	high _temp_alarme_string
  1403  001488  6F6E               	movwf	(atoi@s+1)& (0+255),b
  1404  00148A  EC73  F00E         	call	_atoi	;wreg free
  1405  00148E  C06D  F0DD         	movff	?_atoi,_temp_alarme
  1406  001492  C06E  F0DE         	movff	?_atoi+1,_temp_alarme+1
  1407  001496                     l5348:
  1408                           
  1409                           ;main.c: 206:         sprintf(temp_ambiente_LCD, "temp = %dC", temp_ambiente);
  1410  001496  0E30               	movlw	low _temp_ambiente_LCD
  1411  001498  0100               	movlb	0	; () banked
  1412  00149A  6FBF               	movwf	sprintf@s& (0+255),b
  1413  00149C  0E01               	movlw	high _temp_ambiente_LCD
  1414  00149E  6FC0               	movwf	(sprintf@s+1)& (0+255),b
  1415  0014A0  0EAE               	movlw	low STR_6
  1416  0014A2  6FC1               	movwf	sprintf@fmt& (0+255),b
  1417  0014A4  0E06               	movlw	high STR_6
  1418  0014A6  6FC2               	movwf	(sprintf@fmt+1)& (0+255),b
  1419  0014A8  C0D7  F0C3         	movff	_temp_ambiente,?_sprintf+4
  1420  0014AC  C0D8  F0C4         	movff	_temp_ambiente+1,?_sprintf+5
  1421  0014B0  EC21  F015         	call	_sprintf	;wreg free
  1422  0014B4  0E80               	movlw	128
  1423  0014B6  EC50  F016         	call	_WriteCmdXLCD
  1424  0014BA                     l5352:
  1425  0014BA  EC0B  F016         	call	_BusyXLCD	;wreg free
  1426  0014BE  0900               	iorlw	0
  1427  0014C0  A4D8               	btfss	status,2,c
  1428  0014C2  EF65  F00A         	goto	u5271
  1429  0014C6  EF67  F00A         	goto	u5270
  1430  0014CA                     u5271:
  1431  0014CA  EF5D  F00A         	goto	l5352
  1432  0014CE                     u5270:
  1433  0014CE                     
  1434                           ;main.c: 215:         putsXLCD(temp_ambiente_LCD);
  1435  0014CE  0E30               	movlw	low _temp_ambiente_LCD
  1436  0014D0  0100               	movlb	0	; () banked
  1437  0014D2  6F67               	movwf	putsXLCD@buffer& (0+255),b
  1438  0014D4  0E01               	movlw	high _temp_ambiente_LCD
  1439  0014D6  6F68               	movwf	(putsXLCD@buffer+1)& (0+255),b
  1440  0014D8  ECE7  F013         	call	_putsXLCD	;wreg free
  1441  0014DC                     l5356:
  1442  0014DC  EC0B  F016         	call	_BusyXLCD	;wreg free
  1443  0014E0  0900               	iorlw	0
  1444  0014E2  A4D8               	btfss	status,2,c
  1445  0014E4  EF76  F00A         	goto	u5281
  1446  0014E8  EF78  F00A         	goto	u5280
  1447  0014EC                     u5281:
  1448  0014EC  EF6E  F00A         	goto	l5356
  1449  0014F0                     u5280:
  1450  0014F0                     
  1451                           ;main.c: 219:         if (temp_ambiente >= temp_alarme){
  1452  0014F0  0100               	movlb	0	; () banked
  1453  0014F2  51DD               	movf	_temp_alarme& (0+255),w,b
  1454  0014F4  5DD7               	subwf	_temp_ambiente& (0+255),w,b
  1455  0014F6  51D8               	movf	(_temp_ambiente+1)& (0+255),w,b
  1456  0014F8  0A80               	xorlw	128
  1457  0014FA  6FC7               	movwf	??_main& (0+255),b
  1458  0014FC  51DE               	movf	(_temp_alarme+1)& (0+255),w,b
  1459  0014FE  0A80               	xorlw	128
  1460  001500  59C7               	subwfb	??_main& (0+255),w,b
  1461  001502  A0D8               	btfss	status,0,c
  1462  001504  EF86  F00A         	goto	u5291
  1463  001508  EF88  F00A         	goto	u5290
  1464  00150C                     u5291:
  1465  00150C  EF92  F00A         	goto	l5362
  1466  001510                     u5290:
  1467  001510                     
  1468                           ; BSR set to: 0
  1469                           ;main.c: 221:             CCP1CONbits.CCP1M = 1100;
  1470  001510  50BD               	movf	189,w,c	;volatile
  1471  001512  0BF0               	andlw	-16
  1472  001514  090C               	iorlw	12
  1473  001516  6EBD               	movwf	189,c	;volatile
  1474                           
  1475                           ;main.c: 222:             alarme_ativo = 1;
  1476  001518  0E00               	movlw	0
  1477  00151A  6FD4               	movwf	(_alarme_ativo+1)& (0+255),b
  1478  00151C  0E01               	movlw	1
  1479  00151E  6FD3               	movwf	_alarme_ativo& (0+255),b
  1480                           
  1481                           ;main.c: 224:         }
  1482  001520  EFA7  F00A         	goto	l5366
  1483  001524                     l5362:
  1484                           
  1485                           ; BSR set to: 0
  1486  001524  51DD               	movf	_temp_alarme& (0+255),w,b
  1487  001526  5DD7               	subwf	_temp_ambiente& (0+255),w,b
  1488  001528  51D8               	movf	(_temp_ambiente+1)& (0+255),w,b
  1489  00152A  0A80               	xorlw	128
  1490  00152C  6FC7               	movwf	??_main& (0+255),b
  1491  00152E  51DE               	movf	(_temp_alarme+1)& (0+255),w,b
  1492  001530  0A80               	xorlw	128
  1493  001532  59C7               	subwfb	??_main& (0+255),w,b
  1494  001534  B0D8               	btfsc	status,0,c
  1495  001536  EF9F  F00A         	goto	u5301
  1496  00153A  EFA1  F00A         	goto	u5300
  1497  00153E                     u5301:
  1498  00153E  EFA7  F00A         	goto	l5366
  1499  001542                     u5300:
  1500  001542                     
  1501                           ; BSR set to: 0
  1502                           ;main.c: 227:             CCP1CONbits.CCP1M = 0000;
  1503  001542  0EF0               	movlw	-16
  1504  001544  16BD               	andwf	189,f,c	;volatile
  1505                           
  1506                           ;main.c: 228:             alarme_ativo = 0;
  1507  001546  0E00               	movlw	0
  1508  001548  6FD4               	movwf	(_alarme_ativo+1)& (0+255),b
  1509  00154A  0E00               	movlw	0
  1510  00154C  6FD3               	movwf	_alarme_ativo& (0+255),b
  1511  00154E                     l5366:
  1512                           
  1513                           ; BSR set to: 0
  1514                           ;main.c: 232:         if (tecla_n){
  1515  00154E  51E5               	movf	_tecla_n& (0+255),w,b
  1516  001550  11E6               	iorwf	(_tecla_n+1)& (0+255),w,b
  1517  001552  B4D8               	btfsc	status,2,c
  1518  001554  EFAE  F00A         	goto	u5311
  1519  001558  EFB0  F00A         	goto	u5310
  1520  00155C                     u5311:
  1521  00155C  EFE7  F00A         	goto	l5382
  1522  001560                     u5310:
  1523  001560                     
  1524                           ; BSR set to: 0
  1525                           ;main.c: 236:             strncat(pin, &tecla_premida, 1);
  1526  001560  0E48               	movlw	low _pin
  1527  001562  6F6A               	movwf	strncat@d& (0+255),b
  1528  001564  0E01               	movlw	high _pin
  1529  001566  6F6B               	movwf	(strncat@d+1)& (0+255),b
  1530  001568  0EEC               	movlw	low _tecla_premida
  1531  00156A  6F6C               	movwf	strncat@s& (0+255),b
  1532  00156C  0E00               	movlw	high _tecla_premida
  1533  00156E  6F6D               	movwf	(strncat@s+1)& (0+255),b
  1534  001570  0E00               	movlw	0
  1535  001572  6F6F               	movwf	(strncat@n+1)& (0+255),b
  1536  001574  0E01               	movlw	1
  1537  001576  6F6E               	movwf	strncat@n& (0+255),b
  1538  001578  EC6F  F013         	call	_strncat	;wreg free
  1539  00157C  0EC0               	movlw	192
  1540  00157E  EC50  F016         	call	_WriteCmdXLCD
  1541  001582                     l5372:
  1542  001582  EC0B  F016         	call	_BusyXLCD	;wreg free
  1543  001586  0900               	iorlw	0
  1544  001588  A4D8               	btfss	status,2,c
  1545  00158A  EFC9  F00A         	goto	u5321
  1546  00158E  EFCB  F00A         	goto	u5320
  1547  001592                     u5321:
  1548  001592  EFC1  F00A         	goto	l5372
  1549  001596                     u5320:
  1550  001596                     
  1551                           ;main.c: 248:             putsXLCD(pin);
  1552  001596  0E48               	movlw	low _pin
  1553  001598  0100               	movlb	0	; () banked
  1554  00159A  6F67               	movwf	putsXLCD@buffer& (0+255),b
  1555  00159C  0E01               	movlw	high _pin
  1556  00159E  6F68               	movwf	(putsXLCD@buffer+1)& (0+255),b
  1557  0015A0  ECE7  F013         	call	_putsXLCD	;wreg free
  1558  0015A4                     l5376:
  1559  0015A4  EC0B  F016         	call	_BusyXLCD	;wreg free
  1560  0015A8  0900               	iorlw	0
  1561  0015AA  A4D8               	btfss	status,2,c
  1562  0015AC  EFDA  F00A         	goto	u5331
  1563  0015B0  EFDC  F00A         	goto	u5330
  1564  0015B4                     u5331:
  1565  0015B4  EFD2  F00A         	goto	l5376
  1566  0015B8                     u5330:
  1567  0015B8                     
  1568                           ;main.c: 254:             contador_caracteres++;
  1569  0015B8  0100               	movlb	0	; () banked
  1570  0015BA  4BC8               	infsnz	main@contador_caracteres& (0+255),f,b
  1571  0015BC  2BC9               	incf	(main@contador_caracteres+1)& (0+255),f,b
  1572                           
  1573                           ;main.c: 255:             contador_colunas_LCD++;
  1574  0015BE  4BF1               	infsnz	_contador_colunas_LCD& (0+255),f,b
  1575  0015C0  2BF2               	incf	(_contador_colunas_LCD+1)& (0+255),f,b
  1576  0015C2                     
  1577                           ; BSR set to: 0
  1578                           ;main.c: 256:             tecla_n = 0;
  1579  0015C2  0E00               	movlw	0
  1580  0015C4  6FE6               	movwf	(_tecla_n+1)& (0+255),b
  1581  0015C6  0E00               	movlw	0
  1582  0015C8  6FE5               	movwf	_tecla_n& (0+255),b
  1583                           
  1584                           ;main.c: 257:         }
  1585  0015CA  EF13  F00B         	goto	l5394
  1586  0015CE                     l5382:
  1587                           
  1588                           ; BSR set to: 0
  1589  0015CE  51E3               	movf	_tecla_limpar& (0+255),w,b
  1590  0015D0  11E4               	iorwf	(_tecla_limpar+1)& (0+255),w,b
  1591  0015D2  B4D8               	btfsc	status,2,c
  1592  0015D4  EFEE  F00A         	goto	u5341
  1593  0015D8  EFF0  F00A         	goto	u5340
  1594  0015DC                     u5341:
  1595  0015DC  EF13  F00B         	goto	l5394
  1596  0015E0                     u5340:
  1597  0015E0                     
  1598                           ; BSR set to: 0
  1599                           ;main.c: 259:             WriteCmdXLCD(contador_colunas_LCD);
  1600  0015E0  51F1               	movf	_contador_colunas_LCD& (0+255),w,b
  1601  0015E2  EC50  F016         	call	_WriteCmdXLCD
  1602  0015E6                     l5386:
  1603  0015E6  EC0B  F016         	call	_BusyXLCD	;wreg free
  1604  0015EA  0900               	iorlw	0
  1605  0015EC  A4D8               	btfss	status,2,c
  1606  0015EE  EFFB  F00A         	goto	u5351
  1607  0015F2  EFFD  F00A         	goto	u5350
  1608  0015F6                     u5351:
  1609  0015F6  EFF3  F00A         	goto	l5386
  1610  0015FA                     u5350:
  1611  0015FA                     
  1612                           ;main.c: 262:             putsXLCD("                    ");
  1613  0015FA  0E99               	movlw	low STR_7
  1614  0015FC  0100               	movlb	0	; () banked
  1615  0015FE  6F67               	movwf	putsXLCD@buffer& (0+255),b
  1616  001600  0E06               	movlw	high STR_7
  1617  001602  6F68               	movwf	(putsXLCD@buffer+1)& (0+255),b
  1618  001604  ECE7  F013         	call	_putsXLCD	;wreg free
  1619  001608                     l5390:
  1620  001608  EC0B  F016         	call	_BusyXLCD	;wreg free
  1621  00160C  0900               	iorlw	0
  1622  00160E  A4D8               	btfss	status,2,c
  1623  001610  EF0C  F00B         	goto	u5361
  1624  001614  EF0E  F00B         	goto	u5360
  1625  001618                     u5361:
  1626  001618  EF04  F00B         	goto	l5390
  1627  00161C                     u5360:
  1628  00161C                     
  1629                           ;main.c: 264:             tecla_limpar = 0;
  1630  00161C  0E00               	movlw	0
  1631  00161E  0100               	movlb	0	; () banked
  1632  001620  6FE4               	movwf	(_tecla_limpar+1)& (0+255),b
  1633  001622  0E00               	movlw	0
  1634  001624  6FE3               	movwf	_tecla_limpar& (0+255),b
  1635  001626                     l5394:
  1636                           
  1637                           ; BSR set to: 0
  1638                           ;main.c: 272:         LATBbits.LATB3 = 0;
  1639  001626  968A               	bcf	138,3,c	;volatile
  1640  001628                     
  1641                           ; BSR set to: 0
  1642                           ;main.c: 273:         LATBbits.LATB4 = 1;
  1643  001628  888A               	bsf	138,4,c	;volatile
  1644  00162A                     
  1645                           ; BSR set to: 0
  1646                           ;main.c: 274:         LATBbits.LATB5 = 1;
  1647  00162A  8A8A               	bsf	138,5,c	;volatile
  1648  00162C                     
  1649                           ; BSR set to: 0
  1650                           ;main.c: 275:         LATBbits.LATB6 = 1;
  1651  00162C  8C8A               	bsf	138,6,c	;volatile
  1652  00162E                     
  1653                           ; BSR set to: 0
  1654                           ;main.c: 277:         _delay((unsigned long)((65)*(6000000/4000.0)));
  1655  00162E  0E7F               	movlw	127
  1656  001630  0100               	movlb	0	; () banked
  1657  001632  6FC7               	movwf	??_main& (0+255),b
  1658  001634  0E9E               	movlw	158
  1659  001636                     u5377:
  1660  001636  2EE8               	decfsz	wreg,f,c
  1661  001638  D7FE               	bra	u5377
  1662  00163A  2FC7               	decfsz	??_main& (0+255),f,b
  1663  00163C  D7FC               	bra	u5377
  1664  00163E  F000               	nop	
  1665  001640                     
  1666                           ;main.c: 280:         LATBbits.LATB3 = 1;
  1667  001640  868A               	bsf	138,3,c	;volatile
  1668  001642                     
  1669                           ;main.c: 281:         LATBbits.LATB4 = 0;
  1670  001642  988A               	bcf	138,4,c	;volatile
  1671  001644                     
  1672                           ;main.c: 282:         LATBbits.LATB5 = 1;
  1673  001644  8A8A               	bsf	138,5,c	;volatile
  1674  001646                     
  1675                           ;main.c: 283:         LATBbits.LATB6 = 1;
  1676  001646  8C8A               	bsf	138,6,c	;volatile
  1677  001648                     
  1678                           ;main.c: 285:         _delay((unsigned long)((65)*(6000000/4000.0)));
  1679  001648  0E7F               	movlw	127
  1680  00164A  0100               	movlb	0	; () banked
  1681  00164C  6FC7               	movwf	??_main& (0+255),b
  1682  00164E  0E9E               	movlw	158
  1683  001650                     u5387:
  1684  001650  2EE8               	decfsz	wreg,f,c
  1685  001652  D7FE               	bra	u5387
  1686  001654  2FC7               	decfsz	??_main& (0+255),f,b
  1687  001656  D7FC               	bra	u5387
  1688  001658  F000               	nop	
  1689  00165A                     
  1690                           ;main.c: 288:         LATBbits.LATB3 = 1;
  1691  00165A  868A               	bsf	138,3,c	;volatile
  1692  00165C                     
  1693                           ;main.c: 289:         LATBbits.LATB4 = 1;
  1694  00165C  888A               	bsf	138,4,c	;volatile
  1695  00165E                     
  1696                           ;main.c: 290:         LATBbits.LATB5 = 0;
  1697  00165E  9A8A               	bcf	138,5,c	;volatile
  1698  001660                     
  1699                           ;main.c: 291:         LATBbits.LATB6 = 1;
  1700  001660  8C8A               	bsf	138,6,c	;volatile
  1701  001662                     
  1702                           ;main.c: 293:         _delay((unsigned long)((65)*(6000000/4000.0)));
  1703  001662  0E7F               	movlw	127
  1704  001664  0100               	movlb	0	; () banked
  1705  001666  6FC7               	movwf	??_main& (0+255),b
  1706  001668  0E9E               	movlw	158
  1707  00166A                     u5397:
  1708  00166A  2EE8               	decfsz	wreg,f,c
  1709  00166C  D7FE               	bra	u5397
  1710  00166E  2FC7               	decfsz	??_main& (0+255),f,b
  1711  001670  D7FC               	bra	u5397
  1712  001672  F000               	nop	
  1713  001674                     
  1714                           ;main.c: 296:         LATBbits.LATB3 = 1;
  1715  001674  868A               	bsf	138,3,c	;volatile
  1716  001676                     
  1717                           ;main.c: 297:         LATBbits.LATB4 = 1;
  1718  001676  888A               	bsf	138,4,c	;volatile
  1719  001678                     
  1720                           ;main.c: 298:         LATBbits.LATB5 = 1;
  1721  001678  8A8A               	bsf	138,5,c	;volatile
  1722  00167A                     
  1723                           ;main.c: 299:         LATBbits.LATB6 = 0;
  1724  00167A  9C8A               	bcf	138,6,c	;volatile
  1725  00167C                     
  1726                           ;main.c: 301:         _delay((unsigned long)((65)*(6000000/4000.0)));
  1727  00167C  0E7F               	movlw	127
  1728  00167E  0100               	movlb	0	; () banked
  1729  001680  6FC7               	movwf	??_main& (0+255),b
  1730  001682  0E9E               	movlw	158
  1731  001684                     u5407:
  1732  001684  2EE8               	decfsz	wreg,f,c
  1733  001686  D7FE               	bra	u5407
  1734  001688  2FC7               	decfsz	??_main& (0+255),f,b
  1735  00168A  D7FC               	bra	u5407
  1736  00168C  F000               	nop	
  1737  00168E  EFD3  F009         	goto	l5324
  1738  001692  EF97  F000         	goto	start
  1739  001696                     __end_of_main:
  1740                           	opt callstack 0
  1741                           
  1742 ;; *************** function _strncat *****************
  1743 ;; Defined at:
  1744 ;;		line 3 in file "C:\Program Files (x86)\Microchip\xc8\v2.10\pic\sources\c99\common\strncat.c"
  1745 ;; Parameters:    Size  Location     Type
  1746 ;;  d               2   10[BANK0 ] PTR unsigned char 
  1747 ;;		 -> pin(4), temp_alarme_string(4), 
  1748 ;;  s               2   12[BANK0 ] PTR const unsigned char 
  1749 ;;		 -> tecla_premida(1), temp_alarme_intro(1), 
  1750 ;;  n               2   14[BANK0 ] unsigned int 
  1751 ;; Auto vars:     Size  Location     Type
  1752 ;;  a               2    0        PTR unsigned char 
  1753 ;;		 -> pin(4), temp_alarme_string(4), 
  1754 ;; Return value:  Size  Location     Type
  1755 ;;                  2   10[BANK0 ] PTR unsigned char 
  1756 ;; Registers used:
  1757 ;;		wreg, fsr1l, fsr1h, fsr2l, fsr2h, status,2, status,0, cstack
  1758 ;; Tracked objects:
  1759 ;;		On entry : 0/0
  1760 ;;		On exit  : 0/0
  1761 ;;		Unchanged: 0/0
  1762 ;; Data sizes:     COMRAM   BANK0   BANK1   BANK2   BANK3   BANK4   BANK5
  1763 ;;      Params:         0       6       0       0       0       0       0
  1764 ;;      Locals:         0       2       0       0       0       0       0
  1765 ;;      Temps:          0       0       0       0       0       0       0
  1766 ;;      Totals:         0       8       0       0       0       0       0
  1767 ;;Total ram usage:        8 bytes
  1768 ;; Hardware stack levels used:    1
  1769 ;; Hardware stack levels required when called:    5
  1770 ;; This function calls:
  1771 ;;		_strlen
  1772 ;; This function is called by:
  1773 ;;		_main
  1774 ;; This function uses a non-reentrant model
  1775 ;;
  1776                           
  1777                           	psect	text1
  1778  0026DE                     __ptext1:
  1779                           	opt callstack 0
  1780  0026DE                     _strncat:
  1781                           	opt callstack 25
  1782  0026DE  C06A  F066         	movff	strncat@d,strlen@s
  1783  0026E2  C06B  F067         	movff	strncat@d+1,strlen@s+1
  1784  0026E6  ECB2  F016         	call	_strlen	;wreg free
  1785  0026EA  0100               	movlb	0	; () banked
  1786  0026EC  5166               	movf	?_strlen& (0+255),w,b
  1787  0026EE  276A               	addwf	strncat@d& (0+255),f,b
  1788  0026F0  5167               	movf	(?_strlen+1)& (0+255),w,b
  1789  0026F2  236B               	addwfc	(strncat@d+1)& (0+255),f,b
  1790  0026F4  EF8D  F013         	goto	l5280
  1791  0026F8                     l5272:
  1792                           
  1793                           ; BSR set to: 0
  1794  0026F8  076E               	decf	strncat@n& (0+255),f,b
  1795  0026FA  A0D8               	btfss	status,0,c
  1796  0026FC  076F               	decf	(strncat@n+1)& (0+255),f,b
  1797  0026FE                     
  1798                           ; BSR set to: 0
  1799  0026FE  C06C  FFD9         	movff	strncat@s,fsr2l
  1800  002702  C06D  FFDA         	movff	strncat@s+1,fsr2h
  1801  002706  C06A  FFE1         	movff	strncat@d,fsr1l
  1802  00270A  C06B  FFE2         	movff	strncat@d+1,fsr1h
  1803  00270E  CFDF FFE7          	movff	indf2,indf1
  1804  002712                     
  1805                           ; BSR set to: 0
  1806  002712  4B6C               	infsnz	strncat@s& (0+255),f,b
  1807  002714  2B6D               	incf	(strncat@s+1)& (0+255),f,b
  1808  002716                     
  1809                           ; BSR set to: 0
  1810  002716  4B6A               	infsnz	strncat@d& (0+255),f,b
  1811  002718  2B6B               	incf	(strncat@d+1)& (0+255),f,b
  1812  00271A                     l5280:
  1813                           
  1814                           ; BSR set to: 0
  1815  00271A  516E               	movf	strncat@n& (0+255),w,b
  1816  00271C  116F               	iorwf	(strncat@n+1)& (0+255),w,b
  1817  00271E  B4D8               	btfsc	status,2,c
  1818  002720  EF94  F013         	goto	u5211
  1819  002724  EF96  F013         	goto	u5210
  1820  002728                     u5211:
  1821  002728  EFA2  F013         	goto	l5284
  1822  00272C                     u5210:
  1823  00272C                     
  1824                           ; BSR set to: 0
  1825  00272C  C06C  FFD9         	movff	strncat@s,fsr2l
  1826  002730  C06D  FFDA         	movff	strncat@s+1,fsr2h
  1827  002734  50DF               	movf	indf2,w,c
  1828  002736  A4D8               	btfss	status,2,c
  1829  002738  EFA0  F013         	goto	u5221
  1830  00273C  EFA2  F013         	goto	u5220
  1831  002740                     u5221:
  1832  002740  EF7C  F013         	goto	l5272
  1833  002744                     u5220:
  1834  002744                     l5284:
  1835                           
  1836                           ; BSR set to: 0
  1837  002744  C06A  FFD9         	movff	strncat@d,fsr2l
  1838  002748  C06B  FFDA         	movff	strncat@d+1,fsr2h
  1839  00274C  0E00               	movlw	0
  1840  00274E  6EDF               	movwf	indf2,c
  1841  002750                     
  1842                           ; BSR set to: 0
  1843  002750  4B6A               	infsnz	strncat@d& (0+255),f,b
  1844  002752  2B6B               	incf	(strncat@d+1)& (0+255),f,b
  1845  002754                     
  1846                           ; BSR set to: 0
  1847  002754  0012               	return		;funcret
  1848  002756                     __end_of_strncat:
  1849                           	opt callstack 0
  1850                           
  1851 ;; *************** function _sprintf *****************
  1852 ;; Defined at:
  1853 ;;		line 9 in file "C:\Program Files (x86)\Microchip\xc8\v2.10\pic\sources\c99\common\nf_sprintf.c"
  1854 ;; Parameters:    Size  Location     Type
  1855 ;;  s               2   95[BANK0 ] PTR unsigned char 
  1856 ;;		 -> temp_ambiente_LCD(20), 
  1857 ;;  fmt             2   97[BANK0 ] PTR const unsigned char 
  1858 ;;		 -> STR_6(11), 
  1859 ;; Auto vars:     Size  Location     Type
  1860 ;;  f               6    4[BANK1 ] struct _IO_FILE
  1861 ;;  ap              2    2[BANK1 ] PTR void [1]
  1862 ;;		 -> ?_printf(2), ?_sprintf(2), 
  1863 ;;  ret             2    0        int 
  1864 ;; Return value:  Size  Location     Type
  1865 ;;                  2   95[BANK0 ] int 
  1866 ;; Registers used:
  1867 ;;		wreg, fsr1l, fsr1h, fsr2l, fsr2h, status,2, status,0, tblptrl, tblptrh, tblptru, cstack
  1868 ;; Tracked objects:
  1869 ;;		On entry : 0/0
  1870 ;;		On exit  : 0/0
  1871 ;;		Unchanged: 0/0
  1872 ;; Data sizes:     COMRAM   BANK0   BANK1   BANK2   BANK3   BANK4   BANK5
  1873 ;;      Params:         0       6       0       0       0       0       0
  1874 ;;      Locals:         0       0      10       0       0       0       0
  1875 ;;      Temps:          0       0       0       0       0       0       0
  1876 ;;      Totals:         0       6      10       0       0       0       0
  1877 ;;Total ram usage:       16 bytes
  1878 ;; Hardware stack levels used:    1
  1879 ;; Hardware stack levels required when called:   12
  1880 ;; This function calls:
  1881 ;;		_vfprintf
  1882 ;; This function is called by:
  1883 ;;		_main
  1884 ;; This function uses a non-reentrant model
  1885 ;;
  1886                           
  1887                           	psect	text2
  1888  002A42                     __ptext2:
  1889                           	opt callstack 0
  1890  002A42                     _sprintf:
  1891                           	opt callstack 18
  1892  002A42  0EC3               	movlw	low (?_sprintf+4)
  1893  002A44  0101               	movlb	1	; () banked
  1894  002A46  6F5E               	movwf	sprintf@ap& (0+255),b
  1895  002A48  0E00               	movlw	high (?_sprintf+4)
  1896  002A4A  6F5F               	movwf	(sprintf@ap+1)& (0+255),b
  1897  002A4C  C0BF  F160         	movff	sprintf@s,sprintf@f
  1898  002A50  C0C0  F161         	movff	sprintf@s+1,sprintf@f+1
  1899  002A54                     
  1900                           ; BSR set to: 1
  1901  002A54  0E00               	movlw	0
  1902  002A56  6F63               	movwf	(sprintf@f+3)& (0+255),b
  1903  002A58  0E00               	movlw	0
  1904  002A5A  6F62               	movwf	(sprintf@f+2)& (0+255),b
  1905  002A5C                     
  1906                           ; BSR set to: 1
  1907  002A5C  0E00               	movlw	0
  1908  002A5E  6F65               	movwf	(sprintf@f+5)& (0+255),b
  1909  002A60  0E00               	movlw	0
  1910  002A62  6F64               	movwf	(sprintf@f+4)& (0+255),b
  1911  002A64                     
  1912                           ; BSR set to: 1
  1913  002A64  0E60               	movlw	low sprintf@f
  1914  002A66  0100               	movlb	0	; () banked
  1915  002A68  6FB7               	movwf	vfprintf@fp& (0+255),b
  1916  002A6A  0E01               	movlw	high sprintf@f
  1917  002A6C  6FB8               	movwf	(vfprintf@fp+1)& (0+255),b
  1918  002A6E  C0C1  F0B9         	movff	sprintf@fmt,vfprintf@fmt
  1919  002A72  C0C2  F0BA         	movff	sprintf@fmt+1,vfprintf@fmt+1
  1920  002A76  0E5E               	movlw	low sprintf@ap
  1921  002A78  6FBB               	movwf	vfprintf@ap& (0+255),b
  1922  002A7A  0E01               	movlw	high sprintf@ap
  1923  002A7C  6FBC               	movwf	(vfprintf@ap+1)& (0+255),b
  1924  002A7E  ECF0  F014         	call	_vfprintf	;wreg free
  1925  002A82  0101               	movlb	1	; () banked
  1926  002A84  5162               	movf	(sprintf@f+2)& (0+255),w,b
  1927  002A86  0100               	movlb	0	; () banked
  1928  002A88  25BF               	addwf	sprintf@s& (0+255),w,b
  1929  002A8A  6ED9               	movwf	fsr2l,c
  1930  002A8C  0101               	movlb	1	; () banked
  1931  002A8E  5163               	movf	(sprintf@f+3)& (0+255),w,b
  1932  002A90  0100               	movlb	0	; () banked
  1933  002A92  21C0               	addwfc	(sprintf@s+1)& (0+255),w,b
  1934  002A94  6EDA               	movwf	fsr2h,c
  1935  002A96  0E00               	movlw	0
  1936  002A98  6EDF               	movwf	indf2,c
  1937  002A9A                     
  1938                           ; BSR set to: 0
  1939  002A9A  0012               	return		;funcret
  1940  002A9C                     __end_of_sprintf:
  1941                           	opt callstack 0
  1942                           
  1943 ;; *************** function _putsXLCD *****************
  1944 ;; Defined at:
  1945 ;;		line 302 in file "xlcd.c"
  1946 ;; Parameters:    Size  Location     Type
  1947 ;;  buffer          2    7[BANK0 ] PTR unsigned char 
  1948 ;;		 -> STR_7(21), pin(4), temp_ambiente_LCD(20), 
  1949 ;; Auto vars:     Size  Location     Type
  1950 ;;		None
  1951 ;; Return value:  Size  Location     Type
  1952 ;;                  1    wreg      void 
  1953 ;; Registers used:
  1954 ;;		wreg, fsr1l, fsr1h, status,2, status,0, tblptrl, tblptrh, tblptru, cstack
  1955 ;; Tracked objects:
  1956 ;;		On entry : 0/0
  1957 ;;		On exit  : 0/0
  1958 ;;		Unchanged: 0/0
  1959 ;; Data sizes:     COMRAM   BANK0   BANK1   BANK2   BANK3   BANK4   BANK5
  1960 ;;      Params:         0       2       0       0       0       0       0
  1961 ;;      Locals:         0       0       0       0       0       0       0
  1962 ;;      Temps:          0       0       0       0       0       0       0
  1963 ;;      Totals:         0       2       0       0       0       0       0
  1964 ;;Total ram usage:        2 bytes
  1965 ;; Hardware stack levels used:    1
  1966 ;; Hardware stack levels required when called:    6
  1967 ;; This function calls:
  1968 ;;		_BusyXLCD
  1969 ;;		_WriteDataXLCD
  1970 ;; This function is called by:
  1971 ;;		_main
  1972 ;; This function uses a non-reentrant model
  1973 ;;
  1974                           
  1975                           	psect	text3
  1976  0027CE                     __ptext3:
  1977                           	opt callstack 0
  1978  0027CE                     _putsXLCD:
  1979                           	opt callstack 24
  1980  0027CE                     
  1981                           ;xlcd.c: 303:     while (*buffer)
  1982  0027CE  EF08  F014         	goto	l4720
  1983  0027D2                     l4714:
  1984  0027D2  EC0B  F016         	call	_BusyXLCD	;wreg free
  1985  0027D6  0900               	iorlw	0
  1986  0027D8  A4D8               	btfss	status,2,c
  1987  0027DA  EFF1  F013         	goto	u4431
  1988  0027DE  EFF3  F013         	goto	u4430
  1989  0027E2                     u4431:
  1990  0027E2  EFE9  F013         	goto	l4714
  1991  0027E6                     u4430:
  1992  0027E6                     
  1993                           ;xlcd.c: 306:         WriteDataXLCD(*buffer);
  1994  0027E6  C067  FFF6         	movff	putsXLCD@buffer,tblptrl
  1995  0027EA  C068  FFF7         	movff	putsXLCD@buffer+1,tblptrh
  1996  0027EE  6AF8               	clrf	tblptru,c
  1997  0027F0  0E05               	movlw	(high __ramtop+-1)
  1998  0027F2  64F7               	cpfsgt	tblptrh,c
  1999  0027F4  D003               	bra	u4447
  2000  0027F6  0008               	tblrd		*
  2001  0027F8  50F5               	movf	tablat,w,c
  2002  0027FA  D005               	bra	u4440
  2003  0027FC                     u4447:
  2004  0027FC  CFF6 FFE1          	movff	tblptrl,fsr1l
  2005  002800  CFF7 FFE2          	movff	tblptrh,fsr1h
  2006  002804  50E7               	movf	indf1,w,c
  2007  002806                     u4440:
  2008  002806  EC2E  F016         	call	_WriteDataXLCD
  2009  00280A                     
  2010                           ;xlcd.c: 307:         buffer++;
  2011  00280A  0100               	movlb	0	; () banked
  2012  00280C  4B67               	infsnz	putsXLCD@buffer& (0+255),f,b
  2013  00280E  2B68               	incf	(putsXLCD@buffer+1)& (0+255),f,b
  2014  002810                     l4720:
  2015                           
  2016                           ;xlcd.c: 303:     while (*buffer)
  2017  002810  C067  FFF6         	movff	putsXLCD@buffer,tblptrl
  2018  002814  C068  FFF7         	movff	putsXLCD@buffer+1,tblptrh
  2019  002818  6AF8               	clrf	tblptru,c
  2020  00281A  0E05               	movlw	(high __ramtop+-1)
  2021  00281C  64F7               	cpfsgt	tblptrh,c
  2022  00281E  D003               	bra	u4457
  2023  002820  0008               	tblrd		*
  2024  002822  50F5               	movf	tablat,w,c
  2025  002824  D005               	bra	u4450
  2026  002826                     u4457:
  2027  002826  CFF6 FFE1          	movff	tblptrl,fsr1l
  2028  00282A  CFF7 FFE2          	movff	tblptrh,fsr1h
  2029  00282E  50E7               	movf	indf1,w,c
  2030  002830                     u4450:
  2031  002830  0900               	iorlw	0
  2032  002832  A4D8               	btfss	status,2,c
  2033  002834  EF1E  F014         	goto	u4461
  2034  002838  EF20  F014         	goto	u4460
  2035  00283C                     u4461:
  2036  00283C  EFE9  F013         	goto	l4714
  2037  002840                     u4460:
  2038  002840  0012               	return		;funcret
  2039  002842                     __end_of_putsXLCD:
  2040                           	opt callstack 0
  2041                           
  2042 ;; *************** function _WriteDataXLCD *****************
  2043 ;; Defined at:
  2044 ;;		line 598 in file "xlcd.c"
  2045 ;; Parameters:    Size  Location     Type
  2046 ;;  data            1    wreg     unsigned char 
  2047 ;; Auto vars:     Size  Location     Type
  2048 ;;  data            1    6[BANK0 ] unsigned char 
  2049 ;; Return value:  Size  Location     Type
  2050 ;;                  1    wreg      void 
  2051 ;; Registers used:
  2052 ;;		wreg, status,2, status,0, cstack
  2053 ;; Tracked objects:
  2054 ;;		On entry : 0/0
  2055 ;;		On exit  : 0/0
  2056 ;;		Unchanged: 0/0
  2057 ;; Data sizes:     COMRAM   BANK0   BANK1   BANK2   BANK3   BANK4   BANK5
  2058 ;;      Params:         0       0       0       0       0       0       0
  2059 ;;      Locals:         0       1       0       0       0       0       0
  2060 ;;      Temps:          0       0       0       0       0       0       0
  2061 ;;      Totals:         0       1       0       0       0       0       0
  2062 ;;Total ram usage:        1 bytes
  2063 ;; Hardware stack levels used:    1
  2064 ;; Hardware stack levels required when called:    5
  2065 ;; This function calls:
  2066 ;;		_DelayFor18TCY
  2067 ;; This function is called by:
  2068 ;;		_putsXLCD
  2069 ;; This function uses a non-reentrant model
  2070 ;;
  2071                           
  2072                           	psect	text4
  2073  002C5C                     __ptext4:
  2074                           	opt callstack 0
  2075  002C5C                     _WriteDataXLCD:
  2076                           	opt callstack 24
  2077                           
  2078                           ;incstack = 0
  2079                           ;WriteDataXLCD@data stored from wreg
  2080  002C5C  0100               	movlb	0	; () banked
  2081  002C5E  6F66               	movwf	WriteDataXLCD@data& (0+255),b
  2082  002C60                     
  2083                           ;xlcd.c: 616:     TRISD &= 0xf0;
  2084  002C60  0EF0               	movlw	240
  2085  002C62  1695               	andwf	149,f,c	;volatile
  2086                           
  2087                           ;xlcd.c: 617:     PORTD &= 0xf0;
  2088  002C64  0EF0               	movlw	240
  2089  002C66  1683               	andwf	131,f,c	;volatile
  2090                           
  2091                           ;xlcd.c: 618:     PORTD |= ((data >> 4)&0x0f);
  2092  002C68  0100               	movlb	0	; () banked
  2093  002C6A  3966               	swapf	WriteDataXLCD@data& (0+255),w,b
  2094  002C6C  0B0F               	andlw	15
  2095  002C6E  0B0F               	andlw	15
  2096  002C70  1283               	iorwf	131,f,c	;volatile
  2097  002C72                     
  2098                           ; BSR set to: 0
  2099                           ;xlcd.c: 620:     LATDbits.LATD4 = 1;
  2100  002C72  888C               	bsf	140,4,c	;volatile
  2101  002C74                     
  2102                           ; BSR set to: 0
  2103                           ;xlcd.c: 621:     LATDbits.LATD5 = 0;
  2104  002C74  9A8C               	bcf	140,5,c	;volatile
  2105  002C76                     
  2106                           ; BSR set to: 0
  2107                           ;xlcd.c: 622:     DelayFor18TCY();
  2108  002C76  EC55  F018         	call	_DelayFor18TCY	;wreg free
  2109  002C7A                     
  2110                           ;xlcd.c: 623:     LATDbits.LATD6 = 1;
  2111  002C7A  8C8C               	bsf	140,6,c	;volatile
  2112  002C7C                     
  2113                           ;xlcd.c: 624:     DelayFor18TCY();
  2114  002C7C  EC55  F018         	call	_DelayFor18TCY	;wreg free
  2115  002C80                     
  2116                           ;xlcd.c: 625:     LATDbits.LATD6 = 0;
  2117  002C80  9C8C               	bcf	140,6,c	;volatile
  2118                           
  2119                           ;xlcd.c: 630:     PORTD &= 0xf0;
  2120  002C82  0EF0               	movlw	240
  2121  002C84  1683               	andwf	131,f,c	;volatile
  2122                           
  2123                           ;xlcd.c: 631:     PORTD |= (data & 0x0f);
  2124  002C86  0100               	movlb	0	; () banked
  2125  002C88  5166               	movf	WriteDataXLCD@data& (0+255),w,b
  2126  002C8A  0B0F               	andlw	15
  2127  002C8C  1283               	iorwf	131,f,c	;volatile
  2128  002C8E                     
  2129                           ; BSR set to: 0
  2130                           ;xlcd.c: 633:     DelayFor18TCY();
  2131  002C8E  EC55  F018         	call	_DelayFor18TCY	;wreg free
  2132  002C92                     
  2133                           ;xlcd.c: 634:     LATDbits.LATD6 = 1;
  2134  002C92  8C8C               	bsf	140,6,c	;volatile
  2135  002C94                     
  2136                           ;xlcd.c: 635:     DelayFor18TCY();
  2137  002C94  EC55  F018         	call	_DelayFor18TCY	;wreg free
  2138  002C98                     
  2139                           ;xlcd.c: 636:     LATDbits.LATD6 = 0;
  2140  002C98  9C8C               	bcf	140,6,c	;volatile
  2141                           
  2142                           ;xlcd.c: 640:     TRISD |= 0x0f;
  2143  002C9A  0E0F               	movlw	15
  2144  002C9C  1295               	iorwf	149,f,c	;volatile
  2145  002C9E  0012               	return		;funcret
  2146  002CA0                     __end_of_WriteDataXLCD:
  2147                           	opt callstack 0
  2148                           
  2149 ;; *************** function _printf *****************
  2150 ;; Defined at:
  2151 ;;		line 5 in file "C:\Program Files (x86)\Microchip\xc8\v2.10\pic\sources\c99\common\printf.c"
  2152 ;; Parameters:    Size  Location     Type
  2153 ;;  fmt             2   95[BANK0 ] PTR const unsigned char 
  2154 ;;		 -> STR_5(39), STR_4(29), STR_3(30), STR_2(27), 
  2155 ;;		 -> STR_1(27), 
  2156 ;; Auto vars:     Size  Location     Type
  2157 ;;  ap              2  101[BANK0 ] PTR void [1]
  2158 ;;		 -> ?_printf(2), ?_sprintf(2), 
  2159 ;;  ret             2    0        int 
  2160 ;; Return value:  Size  Location     Type
  2161 ;;                  2   95[BANK0 ] int 
  2162 ;; Registers used:
  2163 ;;		wreg, fsr1l, fsr1h, fsr2l, fsr2h, status,2, status,0, tblptrl, tblptrh, tblptru, cstack
  2164 ;; Tracked objects:
  2165 ;;		On entry : 0/0
  2166 ;;		On exit  : 0/0
  2167 ;;		Unchanged: 0/0
  2168 ;; Data sizes:     COMRAM   BANK0   BANK1   BANK2   BANK3   BANK4   BANK5
  2169 ;;      Params:         0       4       0       0       0       0       0
  2170 ;;      Locals:         0       4       0       0       0       0       0
  2171 ;;      Temps:          0       0       0       0       0       0       0
  2172 ;;      Totals:         0       8       0       0       0       0       0
  2173 ;;Total ram usage:        8 bytes
  2174 ;; Hardware stack levels used:    1
  2175 ;; Hardware stack levels required when called:   12
  2176 ;; This function calls:
  2177 ;;		_vfprintf
  2178 ;; This function is called by:
  2179 ;;		_main
  2180 ;; This function uses a non-reentrant model
  2181 ;;
  2182                           
  2183                           	psect	text5
  2184  002F38                     __ptext5:
  2185                           	opt callstack 0
  2186  002F38                     _printf:
  2187                           	opt callstack 18
  2188  002F38  0EC1               	movlw	low (?_printf+2)
  2189  002F3A  0100               	movlb	0	; () banked
  2190  002F3C  6FC5               	movwf	printf@ap& (0+255),b
  2191  002F3E  0E00               	movlw	high (?_printf+2)
  2192  002F40  6FC6               	movwf	(printf@ap+1)& (0+255),b
  2193  002F42                     
  2194                           ; BSR set to: 0
  2195  002F42  0E00               	movlw	0
  2196  002F44  6FB7               	movwf	vfprintf@fp& (0+255),b
  2197  002F46  0E00               	movlw	0
  2198  002F48  6FB8               	movwf	(vfprintf@fp+1)& (0+255),b
  2199  002F4A  C0BF  F0B9         	movff	printf@fmt,vfprintf@fmt
  2200  002F4E  C0C0  F0BA         	movff	printf@fmt+1,vfprintf@fmt+1
  2201  002F52  0EC5               	movlw	low printf@ap
  2202  002F54  6FBB               	movwf	vfprintf@ap& (0+255),b
  2203  002F56  0E00               	movlw	high printf@ap
  2204  002F58  6FBC               	movwf	(vfprintf@ap+1)& (0+255),b
  2205  002F5A  ECF0  F014         	call	_vfprintf	;wreg free
  2206  002F5E  0012               	return		;funcret
  2207  002F60                     __end_of_printf:
  2208                           	opt callstack 0
  2209                           
  2210 ;; *************** function _vfprintf *****************
  2211 ;; Defined at:
  2212 ;;		line 1368 in file "C:\Program Files (x86)\Microchip\xc8\v2.10\pic\sources\c99\common\doprnt.c"
  2213 ;; Parameters:    Size  Location     Type
  2214 ;;  fp              2   87[BANK0 ] PTR struct _IO_FILE
  2215 ;;		 -> sprintf@f(6), NULL(0), 
  2216 ;;  fmt             2   89[BANK0 ] PTR const unsigned char 
  2217 ;;		 -> STR_6(11), STR_5(39), STR_4(29), STR_3(30), 
  2218 ;;		 -> STR_2(27), STR_1(27), 
  2219 ;;  ap              2   91[BANK0 ] PTR PTR void 
  2220 ;;		 -> printf@ap(2), sprintf@ap(2), 
  2221 ;; Auto vars:     Size  Location     Type
  2222 ;;  cfmt            2   93[BANK0 ] PTR unsigned char 
  2223 ;;		 -> STR_6(11), STR_5(39), STR_4(29), STR_3(30), 
  2224 ;;		 -> STR_2(27), STR_1(27), 
  2225 ;; Return value:  Size  Location     Type
  2226 ;;                  2   87[BANK0 ] int 
  2227 ;; Registers used:
  2228 ;;		wreg, fsr1l, fsr1h, fsr2l, fsr2h, status,2, status,0, tblptrl, tblptrh, tblptru, cstack
  2229 ;; Tracked objects:
  2230 ;;		On entry : 0/0
  2231 ;;		On exit  : 0/0
  2232 ;;		Unchanged: 0/0
  2233 ;; Data sizes:     COMRAM   BANK0   BANK1   BANK2   BANK3   BANK4   BANK5
  2234 ;;      Params:         0       6       0       0       0       0       0
  2235 ;;      Locals:         0       2       0       0       0       0       0
  2236 ;;      Temps:          0       0       0       0       0       0       0
  2237 ;;      Totals:         0       8       0       0       0       0       0
  2238 ;;Total ram usage:        8 bytes
  2239 ;; Hardware stack levels used:    1
  2240 ;; Hardware stack levels required when called:   11
  2241 ;; This function calls:
  2242 ;;		_vfpfcnvrt
  2243 ;; This function is called by:
  2244 ;;		_sprintf
  2245 ;;		_printf
  2246 ;; This function uses a non-reentrant model
  2247 ;;
  2248                           
  2249                           	psect	text6
  2250  0029E0                     __ptext6:
  2251                           	opt callstack 0
  2252  0029E0                     _vfprintf:
  2253                           	opt callstack 18
  2254  0029E0                     
  2255                           ;C:\Program Files (x86)\Microchip\xc8\v2.10\pic\sources\c99\common\doprnt.c: 1368: int v
      +                          fprintf(FILE *fp, const char *fmt, va_list ap);C:\Program Files (x86)\Microchip\xc8\v2.1
      +                          0\pic\sources\c99\common\doprnt.c: 1369: {;C:\Program Files (x86)\Microchip\xc8\v2.10\pi
      +                          c\sources\c99\common\doprnt.c: 1371:     char *cfmt;;C:\Program Files (x86)\Microchip\xc
      +                          8\v2.10\pic\sources\c99\common\doprnt.c: 1373:     cfmt = (char *)fmt;
  2256  0029E0  C0B9  F0BD         	movff	vfprintf@fmt,vfprintf@cfmt
  2257  0029E4  C0BA  F0BE         	movff	vfprintf@fmt+1,vfprintf@cfmt+1
  2258  0029E8                     
  2259                           ;C:\Program Files (x86)\Microchip\xc8\v2.10\pic\sources\c99\common\doprnt.c: 1374:     n
      +                          out = 0;
  2260  0029E8  0E00               	movlw	0
  2261  0029EA  0100               	movlb	0	; () banked
  2262  0029EC  6FCC               	movwf	(_nout+1)& (0+255),b
  2263  0029EE  0E00               	movlw	0
  2264  0029F0  6FCB               	movwf	_nout& (0+255),b
  2265                           
  2266                           ;C:\Program Files (x86)\Microchip\xc8\v2.10\pic\sources\c99\common\doprnt.c: 1375:     w
      +                          hile (*cfmt) {
  2267  0029F2  EF0E  F015         	goto	l5260
  2268  0029F6                     l5258:
  2269                           
  2270                           ; BSR set to: 0
  2271                           ;C:\Program Files (x86)\Microchip\xc8\v2.10\pic\sources\c99\common\doprnt.c: 1376:      
      +                             nout += vfpfcnvrt(fp, &cfmt, ap);
  2272  0029F6  C0B7  F0A7         	movff	vfprintf@fp,vfpfcnvrt@fp
  2273  0029FA  C0B8  F0A8         	movff	vfprintf@fp+1,vfpfcnvrt@fp+1
  2274  0029FE  0EBD               	movlw	low vfprintf@cfmt
  2275  002A00  6FA9               	movwf	vfpfcnvrt@fmt& (0+255),b
  2276  002A02  0E00               	movlw	high vfprintf@cfmt
  2277  002A04  6FAA               	movwf	(vfpfcnvrt@fmt+1)& (0+255),b
  2278  002A06  C0BB  F0AB         	movff	vfprintf@ap,vfpfcnvrt@ap
  2279  002A0A  C0BC  F0AC         	movff	vfprintf@ap+1,vfpfcnvrt@ap+1
  2280  002A0E  ECBD  F00C         	call	_vfpfcnvrt	;wreg free
  2281  002A12  0100               	movlb	0	; () banked
  2282  002A14  51A7               	movf	?_vfpfcnvrt& (0+255),w,b
  2283  002A16  27CB               	addwf	_nout& (0+255),f,b
  2284  002A18  51A8               	movf	(?_vfpfcnvrt+1)& (0+255),w,b
  2285  002A1A  23CC               	addwfc	(_nout+1)& (0+255),f,b
  2286  002A1C                     l5260:
  2287                           
  2288                           ; BSR set to: 0
  2289                           ;C:\Program Files (x86)\Microchip\xc8\v2.10\pic\sources\c99\common\doprnt.c: 1375:     w
      +                          hile (*cfmt) {
  2290  002A1C  C0BD  FFF6         	movff	vfprintf@cfmt,tblptrl
  2291  002A20  C0BE  FFF7         	movff	vfprintf@cfmt+1,tblptrh
  2292  002A24                     	if	0	;tblptru may be non-zero
  2293  002A24                     	endif
  2294  002A24                     	if	0	;tblptru may be non-zero
  2295  002A24                     	endif
  2296  002A24  0008               	tblrd		*
  2297  002A26  50F5               	movf	tablat,w,c
  2298  002A28  0900               	iorlw	0
  2299  002A2A  A4D8               	btfss	status,2,c
  2300  002A2C  EF1A  F015         	goto	u5201
  2301  002A30  EF1C  F015         	goto	u5200
  2302  002A34                     u5201:
  2303  002A34  EFFB  F014         	goto	l5258
  2304  002A38                     u5200:
  2305  002A38                     
  2306                           ; BSR set to: 0
  2307                           ;C:\Program Files (x86)\Microchip\xc8\v2.10\pic\sources\c99\common\doprnt.c: 1378:     r
      +                          eturn nout;
  2308  002A38  C0CB  F0B7         	movff	_nout,?_vfprintf
  2309  002A3C  C0CC  F0B8         	movff	_nout+1,?_vfprintf+1
  2310  002A40                     
  2311                           ; BSR set to: 0
  2312  002A40  0012               	return		;funcret
  2313  002A42                     __end_of_vfprintf:
  2314                           	opt callstack 0
  2315                           
  2316 ;; *************** function _vfpfcnvrt *****************
  2317 ;; Defined at:
  2318 ;;		line 670 in file "C:\Program Files (x86)\Microchip\xc8\v2.10\pic\sources\c99\common\doprnt.c"
  2319 ;; Parameters:    Size  Location     Type
  2320 ;;  fp              2   71[BANK0 ] PTR struct _IO_FILE
  2321 ;;		 -> sprintf@f(6), NULL(0), 
  2322 ;;  fmt             2   73[BANK0 ] PTR PTR unsigned char 
  2323 ;;		 -> vfprintf@cfmt(2), 
  2324 ;;  ap              2   75[BANK0 ] PTR PTR void 
  2325 ;;		 -> printf@ap(2), sprintf@ap(2), 
  2326 ;; Auto vars:     Size  Location     Type
  2327 ;;  ll              8   79[BANK0 ] long long 
  2328 ;;  llu             8    0        unsigned long long 
  2329 ;;  f               4    0        unsigned long long 
  2330 ;;  vp              3    0        PTR void 
  2331 ;;  ct              3    0        unsigned char [3]
  2332 ;;  cp              3    0        PTR unsigned char 
  2333 ;;  i               2    0        int 
  2334 ;;  done            2    0        int 
  2335 ;;  c               1    0        unsigned char 
  2336 ;; Return value:  Size  Location     Type
  2337 ;;                  2   71[BANK0 ] int 
  2338 ;; Registers used:
  2339 ;;		wreg, fsr1l, fsr1h, fsr2l, fsr2h, status,2, status,0, tblptrl, tblptrh, tblptru, cstack
  2340 ;; Tracked objects:
  2341 ;;		On entry : 0/0
  2342 ;;		On exit  : 0/0
  2343 ;;		Unchanged: 0/0
  2344 ;; Data sizes:     COMRAM   BANK0   BANK1   BANK2   BANK3   BANK4   BANK5
  2345 ;;      Params:         0       6       0       0       0       0       0
  2346 ;;      Locals:         0       8       0       0       0       0       0
  2347 ;;      Temps:          0       2       0       0       0       0       0
  2348 ;;      Totals:         0      16       0       0       0       0       0
  2349 ;;Total ram usage:       16 bytes
  2350 ;; Hardware stack levels used:    1
  2351 ;; Hardware stack levels required when called:   10
  2352 ;; This function calls:
  2353 ;;		_dtoa
  2354 ;;		_fputc
  2355 ;; This function is called by:
  2356 ;;		_vfprintf
  2357 ;; This function uses a non-reentrant model
  2358 ;;
  2359                           
  2360                           	psect	text7
  2361  00197A                     __ptext7:
  2362                           	opt callstack 0
  2363  00197A                     _vfpfcnvrt:
  2364                           	opt callstack 18
  2365  00197A                     
  2366                           ;C:\Program Files (x86)\Microchip\xc8\v2.10\pic\sources\c99\common\doprnt.c: 670: static
      +                           int vfpfcnvrt(FILE *fp, char *fmt[], va_list ap);C:\Program Files (x86)\Microchip\xc8\v
      +                          2.10\pic\sources\c99\common\doprnt.c: 671: {;C:\Program Files (x86)\Microchip\xc8\v2.10\
      +                          pic\sources\c99\common\doprnt.c: 672:     char c, *cp, ct[3];;C:\Program Files (x86)\Mic
      +                          rochip\xc8\v2.10\pic\sources\c99\common\doprnt.c: 673:     int done, i;;C:\Program Files
      +                           (x86)\Microchip\xc8\v2.10\pic\sources\c99\common\doprnt.c: 674:     long long ll;
  2367  00197A  C0A9  FFD9         	movff	vfpfcnvrt@fmt,fsr2l
  2368  00197E  C0AA  FFDA         	movff	vfpfcnvrt@fmt+1,fsr2h
  2369  001982  CFDE FFF6          	movff	postinc2,tblptrl
  2370  001986  CFDD FFF7          	movff	postdec2,tblptrh
  2371  00198A                     	if	0	;tblptru may be non-zero
  2372  00198A                     	endif
  2373  00198A                     	if	0	;tblptru may be non-zero
  2374  00198A                     	endif
  2375  00198A  0008               	tblrd		*
  2376  00198C  50F5               	movf	tablat,w,c
  2377  00198E  0A25               	xorlw	37
  2378  001990  A4D8               	btfss	status,2,c
  2379  001992  EFCD  F00C         	goto	u5161
  2380  001996  EFCF  F00C         	goto	u5160
  2381  00199A                     u5161:
  2382  00199A  EF7C  F00D         	goto	l5246
  2383  00199E                     u5160:
  2384  00199E                     
  2385                           ;C:\Program Files (x86)\Microchip\xc8\v2.10\pic\sources\c99\common\doprnt.c: 681:       
      +                            ++*fmt;
  2386  00199E  C0A9  FFD9         	movff	vfpfcnvrt@fmt,fsr2l
  2387  0019A2  C0AA  FFDA         	movff	vfpfcnvrt@fmt+1,fsr2h
  2388  0019A6  2ADE               	incf	postinc2,f,c
  2389  0019A8  0E00               	movlw	0
  2390  0019AA  22DD               	addwfc	postdec2,f,c
  2391  0019AC                     
  2392                           ;C:\Program Files (x86)\Microchip\xc8\v2.10\pic\sources\c99\common\doprnt.c: 683:       
      +                            flags = width = 0;
  2393  0019AC  0E00               	movlw	0
  2394  0019AE  0100               	movlb	0	; () banked
  2395  0019B0  6FCE               	movwf	(_width+1)& (0+255),b
  2396  0019B2  0E00               	movlw	0
  2397  0019B4  6FCD               	movwf	_width& (0+255),b
  2398  0019B6  C0CD  F0D1         	movff	_width,_flags
  2399  0019BA  C0CE  F0D2         	movff	_width+1,_flags+1
  2400  0019BE                     
  2401                           ; BSR set to: 0
  2402                           ;C:\Program Files (x86)\Microchip\xc8\v2.10\pic\sources\c99\common\doprnt.c: 684:       
      +                            prec = -1;
  2403  0019BE  69CF               	setf	_prec& (0+255),b
  2404  0019C0  69D0               	setf	(_prec+1)& (0+255),b
  2405  0019C2                     
  2406                           ; BSR set to: 0
  2407                           ;C:\Program Files (x86)\Microchip\xc8\v2.10\pic\sources\c99\common\doprnt.c: 825:       
      +                            if ((*fmt[0] == 'd') || (*fmt[0] == 'i')) {
  2408  0019C2  C0A9  FFD9         	movff	vfpfcnvrt@fmt,fsr2l
  2409  0019C6  C0AA  FFDA         	movff	vfpfcnvrt@fmt+1,fsr2h
  2410  0019CA  CFDE FFF6          	movff	postinc2,tblptrl
  2411  0019CE  CFDD FFF7          	movff	postdec2,tblptrh
  2412  0019D2                     	if	0	;tblptru may be non-zero
  2413  0019D2                     	endif
  2414  0019D2                     	if	0	;tblptru may be non-zero
  2415  0019D2                     	endif
  2416  0019D2  0008               	tblrd		*
  2417  0019D4  50F5               	movf	tablat,w,c
  2418  0019D6  0A64               	xorlw	100
  2419  0019D8  B4D8               	btfsc	status,2,c
  2420  0019DA  EFF1  F00C         	goto	u5171
  2421  0019DE  EFF3  F00C         	goto	u5170
  2422  0019E2                     u5171:
  2423  0019E2  EF05  F00D         	goto	l5224
  2424  0019E6                     u5170:
  2425  0019E6                     
  2426                           ; BSR set to: 0
  2427  0019E6  C0A9  FFD9         	movff	vfpfcnvrt@fmt,fsr2l
  2428  0019EA  C0AA  FFDA         	movff	vfpfcnvrt@fmt+1,fsr2h
  2429  0019EE  CFDE FFF6          	movff	postinc2,tblptrl
  2430  0019F2  CFDD FFF7          	movff	postdec2,tblptrh
  2431  0019F6                     	if	0	;tblptru may be non-zero
  2432  0019F6                     	endif
  2433  0019F6                     	if	0	;tblptru may be non-zero
  2434  0019F6                     	endif
  2435  0019F6  0008               	tblrd		*
  2436  0019F8  50F5               	movf	tablat,w,c
  2437  0019FA  0A69               	xorlw	105
  2438  0019FC  A4D8               	btfss	status,2,c
  2439  0019FE  EF03  F00D         	goto	u5181
  2440  001A02  EF05  F00D         	goto	u5180
  2441  001A06                     u5181:
  2442  001A06  EF45  F00D         	goto	l5230
  2443  001A0A                     u5180:
  2444  001A0A                     l5224:
  2445                           
  2446                           ; BSR set to: 0
  2447                           ;C:\Program Files (x86)\Microchip\xc8\v2.10\pic\sources\c99\common\doprnt.c: 827:       
      +                                ++*fmt;
  2448  001A0A  C0A9  FFD9         	movff	vfpfcnvrt@fmt,fsr2l
  2449  001A0E  C0AA  FFDA         	movff	vfpfcnvrt@fmt+1,fsr2h
  2450  001A12  2ADE               	incf	postinc2,f,c
  2451  001A14  0E00               	movlw	0
  2452  001A16  22DD               	addwfc	postdec2,f,c
  2453                           
  2454                           ;C:\Program Files (x86)\Microchip\xc8\v2.10\pic\sources\c99\common\doprnt.c: 828:       
      +                                ll = (long long)(*(int *)__va_arg(*(int **)ap, (int)0));
  2455  001A18  C0AB  FFD9         	movff	vfpfcnvrt@ap,fsr2l
  2456  001A1C  C0AC  FFDA         	movff	vfpfcnvrt@ap+1,fsr2h
  2457  001A20  CFDF F0AD          	movff	indf2,??_vfpfcnvrt
  2458  001A24  0E02               	movlw	2
  2459  001A26  26DE               	addwf	postinc2,f,c
  2460  001A28  CFDF F0AE          	movff	indf2,??_vfpfcnvrt+1
  2461  001A2C  0E00               	movlw	0
  2462  001A2E  22DD               	addwfc	postdec2,f,c
  2463  001A30  C0AD  FFD9         	movff	??_vfpfcnvrt,fsr2l
  2464  001A34  C0AE  FFDA         	movff	??_vfpfcnvrt+1,fsr2h
  2465  001A38  CFDE F0AF          	movff	postinc2,vfpfcnvrt@ll
  2466  001A3C  CFDD F0B0          	movff	postdec2,vfpfcnvrt@ll+1
  2467  001A40  0E00               	movlw	0
  2468  001A42  BFB0               	btfsc	(vfpfcnvrt@ll+1)& (0+255),7,b
  2469  001A44  0EFF               	movlw	-1
  2470  001A46  6FB1               	movwf	(vfpfcnvrt@ll+2)& (0+255),b
  2471  001A48  6FB2               	movwf	(vfpfcnvrt@ll+3)& (0+255),b
  2472  001A4A  6FB3               	movwf	(vfpfcnvrt@ll+4)& (0+255),b
  2473  001A4C  6FB4               	movwf	(vfpfcnvrt@ll+5)& (0+255),b
  2474  001A4E  6FB5               	movwf	(vfpfcnvrt@ll+6)& (0+255),b
  2475  001A50  6FB6               	movwf	(vfpfcnvrt@ll+7)& (0+255),b
  2476  001A52                     
  2477                           ; BSR set to: 0
  2478                           ;C:\Program Files (x86)\Microchip\xc8\v2.10\pic\sources\c99\common\doprnt.c: 830:       
      +                                return dtoa(fp, ll);
  2479  001A52  C0A7  F083         	movff	vfpfcnvrt@fp,dtoa@fp
  2480  001A56  C0A8  F084         	movff	vfpfcnvrt@fp+1,dtoa@fp+1
  2481  001A5A  C0AF  F085         	movff	vfpfcnvrt@ll,dtoa@d
  2482  001A5E  C0B0  F086         	movff	vfpfcnvrt@ll+1,dtoa@d+1
  2483  001A62  C0B1  F087         	movff	vfpfcnvrt@ll+2,dtoa@d+2
  2484  001A66  C0B2  F088         	movff	vfpfcnvrt@ll+3,dtoa@d+3
  2485  001A6A  C0B3  F089         	movff	vfpfcnvrt@ll+4,dtoa@d+4
  2486  001A6E  C0B4  F08A         	movff	vfpfcnvrt@ll+5,dtoa@d+5
  2487  001A72  C0B5  F08B         	movff	vfpfcnvrt@ll+6,dtoa@d+6
  2488  001A76  C0B6  F08C         	movff	vfpfcnvrt@ll+7,dtoa@d+7
  2489  001A7A  EC4B  F00B         	call	_dtoa	;wreg free
  2490  001A7E  C083  F0A7         	movff	?_dtoa,?_vfpfcnvrt
  2491  001A82  C084  F0A8         	movff	?_dtoa+1,?_vfpfcnvrt+1
  2492  001A86  EF98  F00D         	goto	l805
  2493  001A8A                     l5230:
  2494                           
  2495                           ; BSR set to: 0
  2496                           ;C:\Program Files (x86)\Microchip\xc8\v2.10\pic\sources\c99\common\doprnt.c: 1350:      
      +                             if ((*fmt)[0] == '%') {
  2497  001A8A  C0A9  FFD9         	movff	vfpfcnvrt@fmt,fsr2l
  2498  001A8E  C0AA  FFDA         	movff	vfpfcnvrt@fmt+1,fsr2h
  2499  001A92  CFDE FFF6          	movff	postinc2,tblptrl
  2500  001A96  CFDD FFF7          	movff	postdec2,tblptrh
  2501  001A9A                     	if	0	;tblptru may be non-zero
  2502  001A9A                     	endif
  2503  001A9A                     	if	0	;tblptru may be non-zero
  2504  001A9A                     	endif
  2505  001A9A  0008               	tblrd		*
  2506  001A9C  50F5               	movf	tablat,w,c
  2507  001A9E  0A25               	xorlw	37
  2508  001AA0  A4D8               	btfss	status,2,c
  2509  001AA2  EF55  F00D         	goto	u5191
  2510  001AA6  EF57  F00D         	goto	u5190
  2511  001AAA                     u5191:
  2512  001AAA  EF6F  F00D         	goto	l5240
  2513  001AAE                     u5190:
  2514  001AAE                     
  2515                           ; BSR set to: 0
  2516                           ;C:\Program Files (x86)\Microchip\xc8\v2.10\pic\sources\c99\common\doprnt.c: 1351:      
      +                                 ++*fmt;
  2517  001AAE  C0A9  FFD9         	movff	vfpfcnvrt@fmt,fsr2l
  2518  001AB2  C0AA  FFDA         	movff	vfpfcnvrt@fmt+1,fsr2h
  2519  001AB6  2ADE               	incf	postinc2,f,c
  2520  001AB8  0E00               	movlw	0
  2521  001ABA  22DD               	addwfc	postdec2,f,c
  2522  001ABC                     
  2523                           ; BSR set to: 0
  2524                           ;C:\Program Files (x86)\Microchip\xc8\v2.10\pic\sources\c99\common\doprnt.c: 1352:      
      +                                 fputc((int)'%', fp);
  2525  001ABC  0E00               	movlw	0
  2526  001ABE  6F69               	movwf	(fputc@c+1)& (0+255),b
  2527  001AC0  0E25               	movlw	37
  2528  001AC2  6F68               	movwf	fputc@c& (0+255),b
  2529  001AC4  C0A7  F06A         	movff	vfpfcnvrt@fp,fputc@fp
  2530  001AC8  C0A8  F06B         	movff	vfpfcnvrt@fp+1,fputc@fp+1
  2531  001ACC  EC40  F012         	call	_fputc	;wreg free
  2532  001AD0                     l5236:
  2533                           
  2534                           ;C:\Program Files (x86)\Microchip\xc8\v2.10\pic\sources\c99\common\doprnt.c: 1353:      
      +                                 return 1;
  2535  001AD0  0E00               	movlw	0
  2536  001AD2  0100               	movlb	0	; () banked
  2537  001AD4  6FA8               	movwf	(?_vfpfcnvrt+1)& (0+255),b
  2538  001AD6  0E01               	movlw	1
  2539  001AD8  6FA7               	movwf	?_vfpfcnvrt& (0+255),b
  2540  001ADA  EF98  F00D         	goto	l805
  2541  001ADE                     l5240:
  2542                           
  2543                           ; BSR set to: 0
  2544                           ;C:\Program Files (x86)\Microchip\xc8\v2.10\pic\sources\c99\common\doprnt.c: 1357:      
      +                             ++*fmt;
  2545  001ADE  C0A9  FFD9         	movff	vfpfcnvrt@fmt,fsr2l
  2546  001AE2  C0AA  FFDA         	movff	vfpfcnvrt@fmt+1,fsr2h
  2547  001AE6  2ADE               	incf	postinc2,f,c
  2548  001AE8  0E00               	movlw	0
  2549  001AEA  22DD               	addwfc	postdec2,f,c
  2550  001AEC                     
  2551                           ; BSR set to: 0
  2552                           ;C:\Program Files (x86)\Microchip\xc8\v2.10\pic\sources\c99\common\doprnt.c: 1358:      
      +                             return 0;
  2553  001AEC  0E00               	movlw	0
  2554  001AEE  6FA8               	movwf	(?_vfpfcnvrt+1)& (0+255),b
  2555  001AF0  0E00               	movlw	0
  2556  001AF2  6FA7               	movwf	?_vfpfcnvrt& (0+255),b
  2557  001AF4  EF98  F00D         	goto	l805
  2558  001AF8                     l5246:
  2559                           
  2560                           ;C:\Program Files (x86)\Microchip\xc8\v2.10\pic\sources\c99\common\doprnt.c: 1362:     f
      +                          putc((int)(*fmt)[0], fp);
  2561  001AF8  C0A9  FFD9         	movff	vfpfcnvrt@fmt,fsr2l
  2562  001AFC  C0AA  FFDA         	movff	vfpfcnvrt@fmt+1,fsr2h
  2563  001B00  CFDE FFF6          	movff	postinc2,tblptrl
  2564  001B04  CFDD FFF7          	movff	postdec2,tblptrh
  2565  001B08                     	if	0	;tblptru may be non-zero
  2566  001B08                     	endif
  2567  001B08                     	if	0	;tblptru may be non-zero
  2568  001B08                     	endif
  2569  001B08  0008               	tblrd		*
  2570  001B0A  50F5               	movf	tablat,w,c
  2571  001B0C  0100               	movlb	0	; () banked
  2572  001B0E  6F68               	movwf	fputc@c& (0+255),b
  2573  001B10  6B69               	clrf	(fputc@c+1)& (0+255),b
  2574  001B12  C0A7  F06A         	movff	vfpfcnvrt@fp,fputc@fp
  2575  001B16  C0A8  F06B         	movff	vfpfcnvrt@fp+1,fputc@fp+1
  2576  001B1A  EC40  F012         	call	_fputc	;wreg free
  2577  001B1E                     
  2578                           ;C:\Program Files (x86)\Microchip\xc8\v2.10\pic\sources\c99\common\doprnt.c: 1363:     +
      +                          +*fmt;
  2579  001B1E  C0A9  FFD9         	movff	vfpfcnvrt@fmt,fsr2l
  2580  001B22  C0AA  FFDA         	movff	vfpfcnvrt@fmt+1,fsr2h
  2581  001B26  2ADE               	incf	postinc2,f,c
  2582  001B28  0E00               	movlw	0
  2583  001B2A  22DD               	addwfc	postdec2,f,c
  2584  001B2C  EF68  F00D         	goto	l5236
  2585  001B30                     l805:
  2586  001B30  0012               	return		;funcret
  2587  001B32                     __end_of_vfpfcnvrt:
  2588                           	opt callstack 0
  2589                           
  2590 ;; *************** function _dtoa *****************
  2591 ;; Defined at:
  2592 ;;		line 274 in file "C:\Program Files (x86)\Microchip\xc8\v2.10\pic\sources\c99\common\doprnt.c"
  2593 ;; Parameters:    Size  Location     Type
  2594 ;;  fp              2   35[BANK0 ] PTR struct _IO_FILE
  2595 ;;		 -> sprintf@f(6), NULL(0), 
  2596 ;;  d               8   37[BANK0 ] long long 
  2597 ;; Auto vars:     Size  Location     Type
  2598 ;;  n               8   61[BANK0 ] long long 
  2599 ;;  i               2   69[BANK0 ] int 
  2600 ;;  s               2   59[BANK0 ] int 
  2601 ;;  w               2   57[BANK0 ] int 
  2602 ;;  p               2   55[BANK0 ] int 
  2603 ;; Return value:  Size  Location     Type
  2604 ;;                  2   35[BANK0 ] int 
  2605 ;; Registers used:
  2606 ;;		wreg, fsr1l, fsr1h, fsr2l, fsr2h, status,2, status,0, cstack
  2607 ;; Tracked objects:
  2608 ;;		On entry : 0/0
  2609 ;;		On exit  : 0/0
  2610 ;;		Unchanged: 0/0
  2611 ;; Data sizes:     COMRAM   BANK0   BANK1   BANK2   BANK3   BANK4   BANK5
  2612 ;;      Params:         0      10       0       0       0       0       0
  2613 ;;      Locals:         0      18       0       0       0       0       0
  2614 ;;      Temps:          0       8       0       0       0       0       0
  2615 ;;      Totals:         0      36       0       0       0       0       0
  2616 ;;Total ram usage:       36 bytes
  2617 ;; Hardware stack levels used:    1
  2618 ;; Hardware stack levels required when called:    9
  2619 ;; This function calls:
  2620 ;;		___aodiv
  2621 ;;		___aomod
  2622 ;;		_abs
  2623 ;;		_pad
  2624 ;; This function is called by:
  2625 ;;		_vfpfcnvrt
  2626 ;; This function uses a non-reentrant model
  2627 ;;
  2628                           
  2629                           	psect	text8
  2630  001696                     __ptext8:
  2631                           	opt callstack 0
  2632  001696                     _dtoa:
  2633                           	opt callstack 18
  2634  001696                     
  2635                           ;C:\Program Files (x86)\Microchip\xc8\v2.10\pic\sources\c99\common\doprnt.c: 274: static
      +                           int dtoa(FILE *fp, long long d);C:\Program Files (x86)\Microchip\xc8\v2.10\pic\sources\
      +                          c99\common\doprnt.c: 275: {;C:\Program Files (x86)\Microchip\xc8\v2.10\pic\sources\c99\c
      +                          ommon\doprnt.c: 276:     int i, p, s, w;;C:\Program Files (x86)\Microchip\xc8\v2.10\pic\
      +                          sources\c99\common\doprnt.c: 277:     long long n;;C:\Program Files (x86)\Microchip\xc8\
      +                          v2.10\pic\sources\c99\common\doprnt.c: 280:     n = d;
  2636  001696  C085  F09D         	movff	dtoa@d,dtoa@n
  2637  00169A  C086  F09E         	movff	dtoa@d+1,dtoa@n+1
  2638  00169E  C087  F09F         	movff	dtoa@d+2,dtoa@n+2
  2639  0016A2  C088  F0A0         	movff	dtoa@d+3,dtoa@n+3
  2640  0016A6  C089  F0A1         	movff	dtoa@d+4,dtoa@n+4
  2641  0016AA  C08A  F0A2         	movff	dtoa@d+5,dtoa@n+5
  2642  0016AE  C08B  F0A3         	movff	dtoa@d+6,dtoa@n+6
  2643  0016B2  C08C  F0A4         	movff	dtoa@d+7,dtoa@n+7
  2644  0016B6                     
  2645                           ;C:\Program Files (x86)\Microchip\xc8\v2.10\pic\sources\c99\common\doprnt.c: 281:     s 
      +                          = n < 0 ? 1 : 0;
  2646  0016B6  0100               	movlb	0	; () banked
  2647  0016B8  BFA4               	btfsc	(dtoa@n+7)& (0+255),7,b
  2648  0016BA  EF61  F00B         	goto	u5011
  2649  0016BE  EF64  F00B         	goto	u5010
  2650  0016C2                     u5011:
  2651  0016C2  0E01               	movlw	1
  2652  0016C4  EF65  F00B         	goto	u5020
  2653  0016C8                     u5010:
  2654  0016C8  0E00               	movlw	0
  2655  0016CA                     u5020:
  2656  0016CA  6F9B               	movwf	dtoa@s& (0+255),b
  2657  0016CC  6B9C               	clrf	(dtoa@s+1)& (0+255),b
  2658                           
  2659                           ;C:\Program Files (x86)\Microchip\xc8\v2.10\pic\sources\c99\common\doprnt.c: 282:     if
      +                           (s) {
  2660  0016CE  519B               	movf	dtoa@s& (0+255),w,b
  2661  0016D0  119C               	iorwf	(dtoa@s+1)& (0+255),w,b
  2662  0016D2  B4D8               	btfsc	status,2,c
  2663  0016D4  EF6E  F00B         	goto	u5031
  2664  0016D8  EF70  F00B         	goto	u5030
  2665  0016DC                     u5031:
  2666  0016DC  EF80  F00B         	goto	l5156
  2667  0016E0                     u5030:
  2668  0016E0                     
  2669                           ; BSR set to: 0
  2670                           ;C:\Program Files (x86)\Microchip\xc8\v2.10\pic\sources\c99\common\doprnt.c: 283:       
      +                            n = -n;
  2671  0016E0  1FA4               	comf	(dtoa@n+7)& (0+255),f,b
  2672  0016E2  1FA3               	comf	(dtoa@n+6)& (0+255),f,b
  2673  0016E4  1FA2               	comf	(dtoa@n+5)& (0+255),f,b
  2674  0016E6  1FA1               	comf	(dtoa@n+4)& (0+255),f,b
  2675  0016E8  1FA0               	comf	(dtoa@n+3)& (0+255),f,b
  2676  0016EA  1F9F               	comf	(dtoa@n+2)& (0+255),f,b
  2677  0016EC  1F9E               	comf	(dtoa@n+1)& (0+255),f,b
  2678  0016EE  6D9D               	negf	dtoa@n& (0+255),b
  2679  0016F0  0E00               	movlw	0
  2680  0016F2  239E               	addwfc	(dtoa@n+1)& (0+255),f,b
  2681  0016F4  239F               	addwfc	(dtoa@n+2)& (0+255),f,b
  2682  0016F6  23A0               	addwfc	(dtoa@n+3)& (0+255),f,b
  2683  0016F8  23A1               	addwfc	(dtoa@n+4)& (0+255),f,b
  2684  0016FA  23A2               	addwfc	(dtoa@n+5)& (0+255),f,b
  2685  0016FC  23A3               	addwfc	(dtoa@n+6)& (0+255),f,b
  2686  0016FE  23A4               	addwfc	(dtoa@n+7)& (0+255),f,b
  2687  001700                     l5156:
  2688                           
  2689                           ; BSR set to: 0
  2690                           ;C:\Program Files (x86)\Microchip\xc8\v2.10\pic\sources\c99\common\doprnt.c: 287:     if
      +                           (!(prec < 0)) {
  2691  001700  BFD0               	btfsc	(_prec+1)& (0+255),7,b
  2692  001702  EF85  F00B         	goto	u5041
  2693  001706  EF87  F00B         	goto	u5040
  2694  00170A                     u5041:
  2695  00170A  EF88  F00B         	goto	l5160
  2696  00170E                     u5040:
  2697  00170E                     
  2698                           ; BSR set to: 0
  2699                           ;C:\Program Files (x86)\Microchip\xc8\v2.10\pic\sources\c99\common\doprnt.c: 288:       
      +                            flags &= ~(1 << 1);
  2700  00170E  93D1               	bcf	_flags& (0+255),1,b
  2701  001710                     l5160:
  2702                           
  2703                           ; BSR set to: 0
  2704                           ;C:\Program Files (x86)\Microchip\xc8\v2.10\pic\sources\c99\common\doprnt.c: 290:     p 
      +                          = (0 < prec) ? prec : 1;
  2705  001710  BFD0               	btfsc	(_prec+1)& (0+255),7,b
  2706  001712  EF95  F00B         	goto	u5050
  2707  001716  51D0               	movf	(_prec+1)& (0+255),w,b
  2708  001718  E106               	bnz	u5051
  2709  00171A  05CF               	decf	_prec& (0+255),w,b
  2710  00171C  B0D8               	btfsc	status,0,c
  2711  00171E  EF93  F00B         	goto	u5051
  2712  001722  EF95  F00B         	goto	u5050
  2713  001726                     u5051:
  2714  001726  EF9B  F00B         	goto	l778
  2715  00172A                     u5050:
  2716  00172A                     
  2717                           ; BSR set to: 0
  2718  00172A  0E00               	movlw	0
  2719  00172C  6F98               	movwf	(dtoa@p+1)& (0+255),b
  2720  00172E  0E01               	movlw	1
  2721  001730  6F97               	movwf	dtoa@p& (0+255),b
  2722  001732  EF9F  F00B         	goto	l780
  2723  001736                     l778:
  2724                           
  2725                           ; BSR set to: 0
  2726  001736  C0CF  F097         	movff	_prec,dtoa@p
  2727  00173A  C0D0  F098         	movff	_prec+1,dtoa@p+1
  2728  00173E                     l780:
  2729                           
  2730                           ; BSR set to: 0
  2731                           ;C:\Program Files (x86)\Microchip\xc8\v2.10\pic\sources\c99\common\doprnt.c: 291:     w 
      +                          = width;
  2732  00173E  C0CD  F099         	movff	_width,dtoa@w
  2733  001742  C0CE  F09A         	movff	_width+1,dtoa@w+1
  2734  001746                     
  2735                           ; BSR set to: 0
  2736                           ;C:\Program Files (x86)\Microchip\xc8\v2.10\pic\sources\c99\common\doprnt.c: 292:     if
      +                           (s || (flags & (1 << 2))) {
  2737  001746  519B               	movf	dtoa@s& (0+255),w,b
  2738  001748  119C               	iorwf	(dtoa@s+1)& (0+255),w,b
  2739  00174A  A4D8               	btfss	status,2,c
  2740  00174C  EFAA  F00B         	goto	u5061
  2741  001750  EFAC  F00B         	goto	u5060
  2742  001754                     u5061:
  2743  001754  EFB3  F00B         	goto	l5168
  2744  001758                     u5060:
  2745  001758                     
  2746                           ; BSR set to: 0
  2747  001758  A5D1               	btfss	_flags& (0+255),2,b
  2748  00175A  EFB1  F00B         	goto	u5071
  2749  00175E  EFB3  F00B         	goto	u5070
  2750  001762                     u5071:
  2751  001762  EFB6  F00B         	goto	l5170
  2752  001766                     u5070:
  2753  001766                     l5168:
  2754                           
  2755                           ; BSR set to: 0
  2756                           ;C:\Program Files (x86)\Microchip\xc8\v2.10\pic\sources\c99\common\doprnt.c: 293:       
      +                            --w;
  2757  001766  0799               	decf	dtoa@w& (0+255),f,b
  2758  001768  A0D8               	btfss	status,0,c
  2759  00176A  079A               	decf	(dtoa@w+1)& (0+255),f,b
  2760  00176C                     l5170:
  2761                           
  2762                           ; BSR set to: 0
  2763                           ;C:\Program Files (x86)\Microchip\xc8\v2.10\pic\sources\c99\common\doprnt.c: 297:     i 
      +                          = sizeof(dbuf) - 1;
  2764  00176C  0E00               	movlw	0
  2765  00176E  6FA6               	movwf	(dtoa@i+1)& (0+255),b
  2766  001770  0E1F               	movlw	31
  2767  001772  6FA5               	movwf	dtoa@i& (0+255),b
  2768  001774                     
  2769                           ; BSR set to: 0
  2770                           ;C:\Program Files (x86)\Microchip\xc8\v2.10\pic\sources\c99\common\doprnt.c: 298:     db
      +                          uf[i] = '\0';
  2771  001774  0E00               	movlw	0
  2772  001776  0101               	movlb	1	; () banked
  2773  001778  6F2F               	movwf	(_dbuf+31)& (0+255),b
  2774                           
  2775                           ;C:\Program Files (x86)\Microchip\xc8\v2.10\pic\sources\c99\common\doprnt.c: 299:     wh
      +                          ile (!(i < 1) && (n || (0 < p) || ((0 < w) && (flags & (1 << 1))))) {
  2776  00177A  EF3C  F00C         	goto	l5184
  2777  00177E                     l5174:
  2778                           
  2779                           ; BSR set to: 0
  2780                           ;C:\Program Files (x86)\Microchip\xc8\v2.10\pic\sources\c99\common\doprnt.c: 300:       
      +                            --i;
  2781  00177E  07A5               	decf	dtoa@i& (0+255),f,b
  2782  001780  A0D8               	btfss	status,0,c
  2783  001782  07A6               	decf	(dtoa@i+1)& (0+255),f,b
  2784  001784                     
  2785                           ; BSR set to: 0
  2786                           ;C:\Program Files (x86)\Microchip\xc8\v2.10\pic\sources\c99\common\doprnt.c: 301:       
      +                            dbuf[i] = '0' + abs(n % 10);
  2787  001784  0E10               	movlw	low _dbuf
  2788  001786  25A5               	addwf	dtoa@i& (0+255),w,b
  2789  001788  6ED9               	movwf	fsr2l,c
  2790  00178A  0E01               	movlw	high _dbuf
  2791  00178C  21A6               	addwfc	(dtoa@i+1)& (0+255),w,b
  2792  00178E  6EDA               	movwf	fsr2h,c
  2793  001790  C09D  F066         	movff	dtoa@n,___aomod@dividend
  2794  001794  C09E  F067         	movff	dtoa@n+1,___aomod@dividend+1
  2795  001798  C09F  F068         	movff	dtoa@n+2,___aomod@dividend+2
  2796  00179C  C0A0  F069         	movff	dtoa@n+3,___aomod@dividend+3
  2797  0017A0  C0A1  F06A         	movff	dtoa@n+4,___aomod@dividend+4
  2798  0017A4  C0A2  F06B         	movff	dtoa@n+5,___aomod@dividend+5
  2799  0017A8  C0A3  F06C         	movff	dtoa@n+6,___aomod@dividend+6
  2800  0017AC  C0A4  F06D         	movff	dtoa@n+7,___aomod@dividend+7
  2801  0017B0  0E0A               	movlw	10
  2802  0017B2  6F6E               	movwf	___aomod@divisor& (0+255),b
  2803  0017B4  0E00               	movlw	0
  2804  0017B6  6F6F               	movwf	(___aomod@divisor+1)& (0+255),b
  2805  0017B8  0E00               	movlw	0
  2806  0017BA  6F70               	movwf	(___aomod@divisor+2)& (0+255),b
  2807  0017BC  0E00               	movlw	0
  2808  0017BE  6F71               	movwf	(___aomod@divisor+3)& (0+255),b
  2809  0017C0  0E00               	movlw	0
  2810  0017C2  6F72               	movwf	(___aomod@divisor+4)& (0+255),b
  2811  0017C4  0E00               	movlw	0
  2812  0017C6  6F73               	movwf	(___aomod@divisor+5)& (0+255),b
  2813  0017C8  0E00               	movlw	0
  2814  0017CA  6F74               	movwf	(___aomod@divisor+6)& (0+255),b
  2815  0017CC  0E00               	movlw	0
  2816  0017CE  6F75               	movwf	(___aomod@divisor+7)& (0+255),b
  2817  0017D0  ECFF  F00F         	call	___aomod	;wreg free
  2818  0017D4  C066  F08D         	movff	?___aomod,??_dtoa
  2819  0017D8  C067  F08E         	movff	?___aomod+1,??_dtoa+1
  2820  0017DC  C068  F08F         	movff	?___aomod+2,??_dtoa+2
  2821  0017E0  C069  F090         	movff	?___aomod+3,??_dtoa+3
  2822  0017E4  C06A  F091         	movff	?___aomod+4,??_dtoa+4
  2823  0017E8  C06B  F092         	movff	?___aomod+5,??_dtoa+5
  2824  0017EC  C06C  F093         	movff	?___aomod+6,??_dtoa+6
  2825  0017F0  C06D  F094         	movff	?___aomod+7,??_dtoa+7
  2826  0017F4  C08D  F078         	movff	??_dtoa,abs@a
  2827  0017F8  C08F  F079         	movff	??_dtoa+2,abs@a+1
  2828  0017FC  EC72  F016         	call	_abs	;wreg free
  2829  001800  0100               	movlb	0	; () banked
  2830  001802  5178               	movf	?_abs& (0+255),w,b
  2831  001804  0F30               	addlw	48
  2832  001806  6EDF               	movwf	indf2,c
  2833  001808                     
  2834                           ; BSR set to: 0
  2835                           ;C:\Program Files (x86)\Microchip\xc8\v2.10\pic\sources\c99\common\doprnt.c: 302:       
      +                            --p;
  2836  001808  0797               	decf	dtoa@p& (0+255),f,b
  2837  00180A  A0D8               	btfss	status,0,c
  2838  00180C  0798               	decf	(dtoa@p+1)& (0+255),f,b
  2839  00180E                     
  2840                           ; BSR set to: 0
  2841                           ;C:\Program Files (x86)\Microchip\xc8\v2.10\pic\sources\c99\common\doprnt.c: 303:       
      +                            --w;
  2842  00180E  0799               	decf	dtoa@w& (0+255),f,b
  2843  001810  A0D8               	btfss	status,0,c
  2844  001812  079A               	decf	(dtoa@w+1)& (0+255),f,b
  2845  001814                     
  2846                           ; BSR set to: 0
  2847                           ;C:\Program Files (x86)\Microchip\xc8\v2.10\pic\sources\c99\common\doprnt.c: 304:       
      +                            n = n / 10;
  2848  001814  C09D  F066         	movff	dtoa@n,___aodiv@dividend
  2849  001818  C09E  F067         	movff	dtoa@n+1,___aodiv@dividend+1
  2850  00181C  C09F  F068         	movff	dtoa@n+2,___aodiv@dividend+2
  2851  001820  C0A0  F069         	movff	dtoa@n+3,___aodiv@dividend+3
  2852  001824  C0A1  F06A         	movff	dtoa@n+4,___aodiv@dividend+4
  2853  001828  C0A2  F06B         	movff	dtoa@n+5,___aodiv@dividend+5
  2854  00182C  C0A3  F06C         	movff	dtoa@n+6,___aodiv@dividend+6
  2855  001830  C0A4  F06D         	movff	dtoa@n+7,___aodiv@dividend+7
  2856  001834  0E0A               	movlw	10
  2857  001836  6F6E               	movwf	___aodiv@divisor& (0+255),b
  2858  001838  0E00               	movlw	0
  2859  00183A  6F6F               	movwf	(___aodiv@divisor+1)& (0+255),b
  2860  00183C  0E00               	movlw	0
  2861  00183E  6F70               	movwf	(___aodiv@divisor+2)& (0+255),b
  2862  001840  0E00               	movlw	0
  2863  001842  6F71               	movwf	(___aodiv@divisor+3)& (0+255),b
  2864  001844  0E00               	movlw	0
  2865  001846  6F72               	movwf	(___aodiv@divisor+4)& (0+255),b
  2866  001848  0E00               	movlw	0
  2867  00184A  6F73               	movwf	(___aodiv@divisor+5)& (0+255),b
  2868  00184C  0E00               	movlw	0
  2869  00184E  6F74               	movwf	(___aodiv@divisor+6)& (0+255),b
  2870  001850  0E00               	movlw	0
  2871  001852  6F75               	movwf	(___aodiv@divisor+7)& (0+255),b
  2872  001854  EC3A  F00F         	call	___aodiv	;wreg free
  2873  001858  C066  F09D         	movff	?___aodiv,dtoa@n
  2874  00185C  C067  F09E         	movff	?___aodiv+1,dtoa@n+1
  2875  001860  C068  F09F         	movff	?___aodiv+2,dtoa@n+2
  2876  001864  C069  F0A0         	movff	?___aodiv+3,dtoa@n+3
  2877  001868  C06A  F0A1         	movff	?___aodiv+4,dtoa@n+4
  2878  00186C  C06B  F0A2         	movff	?___aodiv+5,dtoa@n+5
  2879  001870  C06C  F0A3         	movff	?___aodiv+6,dtoa@n+6
  2880  001874  C06D  F0A4         	movff	?___aodiv+7,dtoa@n+7
  2881  001878                     l5184:
  2882                           
  2883                           ;C:\Program Files (x86)\Microchip\xc8\v2.10\pic\sources\c99\common\doprnt.c: 299:     wh
      +                          ile (!(i < 1) && (n || (0 < p) || ((0 < w) && (flags & (1 << 1))))) {
  2884  001878  0100               	movlb	0	; () banked
  2885  00187A  BFA6               	btfsc	(dtoa@i+1)& (0+255),7,b
  2886  00187C  EF48  F00C         	goto	u5081
  2887  001880  51A6               	movf	(dtoa@i+1)& (0+255),w,b
  2888  001882  E108               	bnz	u5080
  2889  001884  05A5               	decf	dtoa@i& (0+255),w,b
  2890  001886  A0D8               	btfss	status,0,c
  2891  001888  EF48  F00C         	goto	u5081
  2892  00188C  EF4A  F00C         	goto	u5080
  2893  001890                     u5081:
  2894  001890  EF7A  F00C         	goto	l5194
  2895  001894                     u5080:
  2896  001894                     
  2897                           ; BSR set to: 0
  2898  001894  519D               	movf	dtoa@n& (0+255),w,b
  2899  001896  119E               	iorwf	(dtoa@n+1)& (0+255),w,b
  2900  001898  119F               	iorwf	(dtoa@n+2)& (0+255),w,b
  2901  00189A  11A0               	iorwf	(dtoa@n+3)& (0+255),w,b
  2902  00189C  11A1               	iorwf	(dtoa@n+4)& (0+255),w,b
  2903  00189E  11A2               	iorwf	(dtoa@n+5)& (0+255),w,b
  2904  0018A0  11A3               	iorwf	(dtoa@n+6)& (0+255),w,b
  2905  0018A2  11A4               	iorwf	(dtoa@n+7)& (0+255),w,b
  2906  0018A4  A4D8               	btfss	status,2,c
  2907  0018A6  EF57  F00C         	goto	u5091
  2908  0018AA  EF59  F00C         	goto	u5090
  2909  0018AE                     u5091:
  2910  0018AE  EFBF  F00B         	goto	l5174
  2911  0018B2                     u5090:
  2912  0018B2                     
  2913                           ; BSR set to: 0
  2914  0018B2  BF98               	btfsc	(dtoa@p+1)& (0+255),7,b
  2915  0018B4  EF66  F00C         	goto	u5100
  2916  0018B8  5198               	movf	(dtoa@p+1)& (0+255),w,b
  2917  0018BA  E106               	bnz	u5101
  2918  0018BC  0597               	decf	dtoa@p& (0+255),w,b
  2919  0018BE  B0D8               	btfsc	status,0,c
  2920  0018C0  EF64  F00C         	goto	u5101
  2921  0018C4  EF66  F00C         	goto	u5100
  2922  0018C8                     u5101:
  2923  0018C8  EFBF  F00B         	goto	l5174
  2924  0018CC                     u5100:
  2925  0018CC                     
  2926                           ; BSR set to: 0
  2927  0018CC  BF9A               	btfsc	(dtoa@w+1)& (0+255),7,b
  2928  0018CE  EF71  F00C         	goto	u5111
  2929  0018D2  519A               	movf	(dtoa@w+1)& (0+255),w,b
  2930  0018D4  E108               	bnz	u5110
  2931  0018D6  0599               	decf	dtoa@w& (0+255),w,b
  2932  0018D8  A0D8               	btfss	status,0,c
  2933  0018DA  EF71  F00C         	goto	u5111
  2934  0018DE  EF73  F00C         	goto	u5110
  2935  0018E2                     u5111:
  2936  0018E2  EF7A  F00C         	goto	l5194
  2937  0018E6                     u5110:
  2938  0018E6                     
  2939                           ; BSR set to: 0
  2940  0018E6  B3D1               	btfsc	_flags& (0+255),1,b
  2941  0018E8  EF78  F00C         	goto	u5121
  2942  0018EC  EF7A  F00C         	goto	u5120
  2943  0018F0                     u5121:
  2944  0018F0  EFBF  F00B         	goto	l5174
  2945  0018F4                     u5120:
  2946  0018F4                     l5194:
  2947                           
  2948                           ; BSR set to: 0
  2949                           ;C:\Program Files (x86)\Microchip\xc8\v2.10\pic\sources\c99\common\doprnt.c: 308:     if
      +                           (s || (flags & (1 << 2))) {
  2950  0018F4  519B               	movf	dtoa@s& (0+255),w,b
  2951  0018F6  119C               	iorwf	(dtoa@s+1)& (0+255),w,b
  2952  0018F8  A4D8               	btfss	status,2,c
  2953  0018FA  EF81  F00C         	goto	u5131
  2954  0018FE  EF83  F00C         	goto	u5130
  2955  001902                     u5131:
  2956  001902  EF8A  F00C         	goto	l5198
  2957  001906                     u5130:
  2958  001906                     
  2959                           ; BSR set to: 0
  2960  001906  A5D1               	btfss	_flags& (0+255),2,b
  2961  001908  EF88  F00C         	goto	u5141
  2962  00190C  EF8A  F00C         	goto	u5140
  2963  001910                     u5141:
  2964  001910  EFA8  F00C         	goto	l5208
  2965  001914                     u5140:
  2966  001914                     l5198:
  2967                           
  2968                           ; BSR set to: 0
  2969                           ;C:\Program Files (x86)\Microchip\xc8\v2.10\pic\sources\c99\common\doprnt.c: 309:       
      +                            --i;
  2970  001914  07A5               	decf	dtoa@i& (0+255),f,b
  2971  001916  A0D8               	btfss	status,0,c
  2972  001918  07A6               	decf	(dtoa@i+1)& (0+255),f,b
  2973  00191A                     
  2974                           ; BSR set to: 0
  2975                           ;C:\Program Files (x86)\Microchip\xc8\v2.10\pic\sources\c99\common\doprnt.c: 310:       
      +                            dbuf[i] = s ? '-' : '+';
  2976  00191A  519B               	movf	dtoa@s& (0+255),w,b
  2977  00191C  119C               	iorwf	(dtoa@s+1)& (0+255),w,b
  2978  00191E  A4D8               	btfss	status,2,c
  2979  001920  EF94  F00C         	goto	u5151
  2980  001924  EF96  F00C         	goto	u5150
  2981  001928                     u5151:
  2982  001928  EF9C  F00C         	goto	l5204
  2983  00192C                     u5150:
  2984  00192C                     
  2985                           ; BSR set to: 0
  2986  00192C  0E00               	movlw	0
  2987  00192E  6F96               	movwf	(_dtoa$1834+1)& (0+255),b
  2988  001930  0E2B               	movlw	43
  2989  001932  6F95               	movwf	_dtoa$1834& (0+255),b
  2990  001934  EFA0  F00C         	goto	l5206
  2991  001938                     l5204:
  2992                           
  2993                           ; BSR set to: 0
  2994  001938  0E00               	movlw	0
  2995  00193A  6F96               	movwf	(_dtoa$1834+1)& (0+255),b
  2996  00193C  0E2D               	movlw	45
  2997  00193E  6F95               	movwf	_dtoa$1834& (0+255),b
  2998  001940                     l5206:
  2999                           
  3000                           ; BSR set to: 0
  3001  001940  0E10               	movlw	low _dbuf
  3002  001942  25A5               	addwf	dtoa@i& (0+255),w,b
  3003  001944  6ED9               	movwf	fsr2l,c
  3004  001946  0E01               	movlw	high _dbuf
  3005  001948  21A6               	addwfc	(dtoa@i+1)& (0+255),w,b
  3006  00194A  6EDA               	movwf	fsr2h,c
  3007  00194C  C095  FFDF         	movff	_dtoa$1834,indf2
  3008  001950                     l5208:
  3009                           
  3010                           ; BSR set to: 0
  3011                           ;C:\Program Files (x86)\Microchip\xc8\v2.10\pic\sources\c99\common\doprnt.c: 314:     re
      +                          turn pad(fp, &dbuf[i], w);
  3012  001950  C083  F078         	movff	dtoa@fp,pad@fp
  3013  001954  C084  F079         	movff	dtoa@fp+1,pad@fp+1
  3014  001958  0E10               	movlw	low _dbuf
  3015  00195A  25A5               	addwf	dtoa@i& (0+255),w,b
  3016  00195C  6F7A               	movwf	pad@buf& (0+255),b
  3017  00195E  0E01               	movlw	high _dbuf
  3018  001960  21A6               	addwfc	(dtoa@i+1)& (0+255),w,b
  3019  001962  6F7B               	movwf	(pad@buf+1)& (0+255),b
  3020  001964  C099  F07C         	movff	dtoa@w,pad@p
  3021  001968  C09A  F07D         	movff	dtoa@w+1,pad@p+1
  3022  00196C  ECA6  F012         	call	_pad	;wreg free
  3023  001970  C078  F083         	movff	?_pad,?_dtoa
  3024  001974  C079  F084         	movff	?_pad+1,?_dtoa+1
  3025  001978  0012               	return		;funcret
  3026  00197A                     __end_of_dtoa:
  3027                           	opt callstack 0
  3028                           
  3029 ;; *************** function _pad *****************
  3030 ;; Defined at:
  3031 ;;		line 72 in file "C:\Program Files (x86)\Microchip\xc8\v2.10\pic\sources\c99\common\doprnt.c"
  3032 ;; Parameters:    Size  Location     Type
  3033 ;;  fp              2   24[BANK0 ] PTR struct _IO_FILE
  3034 ;;		 -> sprintf@f(6), NULL(0), 
  3035 ;;  buf             2   26[BANK0 ] PTR unsigned char 
  3036 ;;		 -> dbuf(32), 
  3037 ;;  p               2   28[BANK0 ] int 
  3038 ;; Auto vars:     Size  Location     Type
  3039 ;;  w               2   33[BANK0 ] int 
  3040 ;;  i               2   31[BANK0 ] int 
  3041 ;; Return value:  Size  Location     Type
  3042 ;;                  2   24[BANK0 ] int 
  3043 ;; Registers used:
  3044 ;;		wreg, fsr1l, fsr1h, fsr2l, fsr2h, status,2, status,0, cstack
  3045 ;; Tracked objects:
  3046 ;;		On entry : 0/0
  3047 ;;		On exit  : 0/0
  3048 ;;		Unchanged: 0/0
  3049 ;; Data sizes:     COMRAM   BANK0   BANK1   BANK2   BANK3   BANK4   BANK5
  3050 ;;      Params:         0       6       0       0       0       0       0
  3051 ;;      Locals:         0       4       0       0       0       0       0
  3052 ;;      Temps:          0       1       0       0       0       0       0
  3053 ;;      Totals:         0      11       0       0       0       0       0
  3054 ;;Total ram usage:       11 bytes
  3055 ;; Hardware stack levels used:    1
  3056 ;; Hardware stack levels required when called:    8
  3057 ;; This function calls:
  3058 ;;		_fputc
  3059 ;;		_fputs
  3060 ;;		_strlen
  3061 ;; This function is called by:
  3062 ;;		_dtoa
  3063 ;; This function uses a non-reentrant model
  3064 ;;
  3065                           
  3066                           	psect	text9
  3067  00254C                     __ptext9:
  3068                           	opt callstack 0
  3069  00254C                     _pad:
  3070                           	opt callstack 18
  3071  00254C                     
  3072                           ;C:\Program Files (x86)\Microchip\xc8\v2.10\pic\sources\c99\common\doprnt.c: 72: static 
      +                          int pad(FILE *fp, char *buf, int p);C:\Program Files (x86)\Microchip\xc8\v2.10\pic\sourc
      +                          es\c99\common\doprnt.c: 73: {;C:\Program Files (x86)\Microchip\xc8\v2.10\pic\sources\c99
      +                          \common\doprnt.c: 74:     int i, w;;C:\Program Files (x86)\Microchip\xc8\v2.10\pic\sourc
      +                          es\c99\common\doprnt.c: 77:     if (flags & (1 << 0)) {
  3073  00254C  0100               	movlb	0	; () banked
  3074  00254E  A1D1               	btfss	_flags& (0+255),0,b
  3075  002550  EFAC  F012         	goto	u4831
  3076  002554  EFAE  F012         	goto	u4830
  3077  002558                     u4831:
  3078  002558  EFB8  F012         	goto	l5048
  3079  00255C                     u4830:
  3080  00255C                     
  3081                           ; BSR set to: 0
  3082                           ;C:\Program Files (x86)\Microchip\xc8\v2.10\pic\sources\c99\common\doprnt.c: 78:        
      +                           fputs((const char *)buf, fp);
  3083  00255C  C07A  F071         	movff	pad@buf,fputs@s
  3084  002560  C07B  F072         	movff	pad@buf+1,fputs@s+1
  3085  002564  C078  F073         	movff	pad@fp,fputs@fp
  3086  002568  C079  F074         	movff	pad@fp+1,fputs@fp+1
  3087  00256C  ECA1  F015         	call	_fputs	;wreg free
  3088  002570                     l5048:
  3089                           
  3090                           ;C:\Program Files (x86)\Microchip\xc8\v2.10\pic\sources\c99\common\doprnt.c: 82:     w =
      +                           (p < 0) ? 0 : p;
  3091  002570  0100               	movlb	0	; () banked
  3092  002572  BF7D               	btfsc	(pad@p+1)& (0+255),7,b
  3093  002574  EFBE  F012         	goto	u4841
  3094  002578  EFC0  F012         	goto	u4840
  3095  00257C                     u4841:
  3096  00257C  EFC6  F012         	goto	l5052
  3097  002580                     u4840:
  3098  002580                     
  3099                           ; BSR set to: 0
  3100  002580  C07C  F081         	movff	pad@p,pad@w
  3101  002584  C07D  F082         	movff	pad@p+1,pad@w+1
  3102  002588  EFCA  F012         	goto	l767
  3103  00258C                     l5052:
  3104                           
  3105                           ; BSR set to: 0
  3106  00258C  0E00               	movlw	0
  3107  00258E  6F82               	movwf	(pad@w+1)& (0+255),b
  3108  002590  0E00               	movlw	0
  3109  002592  6F81               	movwf	pad@w& (0+255),b
  3110  002594                     l767:
  3111                           
  3112                           ; BSR set to: 0
  3113                           ;C:\Program Files (x86)\Microchip\xc8\v2.10\pic\sources\c99\common\doprnt.c: 83:     i =
      +                           0;
  3114  002594  0E00               	movlw	0
  3115  002596  6F80               	movwf	(pad@i+1)& (0+255),b
  3116  002598  0E00               	movlw	0
  3117  00259A  6F7F               	movwf	pad@i& (0+255),b
  3118                           
  3119                           ;C:\Program Files (x86)\Microchip\xc8\v2.10\pic\sources\c99\common\doprnt.c: 84:     whi
      +                          le (i < w) {
  3120  00259C  EFDD  F012         	goto	l5058
  3121  0025A0                     l5054:
  3122                           
  3123                           ; BSR set to: 0
  3124                           ;C:\Program Files (x86)\Microchip\xc8\v2.10\pic\sources\c99\common\doprnt.c: 85:        
      +                           fputc(' ', fp);
  3125  0025A0  0E00               	movlw	0
  3126  0025A2  6F69               	movwf	(fputc@c+1)& (0+255),b
  3127  0025A4  0E20               	movlw	32
  3128  0025A6  6F68               	movwf	fputc@c& (0+255),b
  3129  0025A8  C078  F06A         	movff	pad@fp,fputc@fp
  3130  0025AC  C079  F06B         	movff	pad@fp+1,fputc@fp+1
  3131  0025B0  EC40  F012         	call	_fputc	;wreg free
  3132  0025B4                     
  3133                           ;C:\Program Files (x86)\Microchip\xc8\v2.10\pic\sources\c99\common\doprnt.c: 86:        
      +                           ++i;
  3134  0025B4  0100               	movlb	0	; () banked
  3135  0025B6  4B7F               	infsnz	pad@i& (0+255),f,b
  3136  0025B8  2B80               	incf	(pad@i+1)& (0+255),f,b
  3137  0025BA                     l5058:
  3138                           
  3139                           ; BSR set to: 0
  3140                           ;C:\Program Files (x86)\Microchip\xc8\v2.10\pic\sources\c99\common\doprnt.c: 84:     whi
      +                          le (i < w) {
  3141  0025BA  5181               	movf	pad@w& (0+255),w,b
  3142  0025BC  5D7F               	subwf	pad@i& (0+255),w,b
  3143  0025BE  5180               	movf	(pad@i+1)& (0+255),w,b
  3144  0025C0  0A80               	xorlw	128
  3145  0025C2  6F7E               	movwf	??_pad& (0+255),b
  3146  0025C4  5182               	movf	(pad@w+1)& (0+255),w,b
  3147  0025C6  0A80               	xorlw	128
  3148  0025C8  597E               	subwfb	??_pad& (0+255),w,b
  3149  0025CA  A0D8               	btfss	status,0,c
  3150  0025CC  EFEA  F012         	goto	u4851
  3151  0025D0  EFEC  F012         	goto	u4850
  3152  0025D4                     u4851:
  3153  0025D4  EFD0  F012         	goto	l5054
  3154  0025D8                     u4850:
  3155  0025D8                     
  3156                           ; BSR set to: 0
  3157                           ;C:\Program Files (x86)\Microchip\xc8\v2.10\pic\sources\c99\common\doprnt.c: 90:     if 
      +                          (!(flags & (1 << 0))) {
  3158  0025D8  B1D1               	btfsc	_flags& (0+255),0,b
  3159  0025DA  EFF1  F012         	goto	u4861
  3160  0025DE  EFF3  F012         	goto	u4860
  3161  0025E2                     u4861:
  3162  0025E2  EFFD  F012         	goto	l5062
  3163  0025E6                     u4860:
  3164  0025E6                     
  3165                           ; BSR set to: 0
  3166                           ;C:\Program Files (x86)\Microchip\xc8\v2.10\pic\sources\c99\common\doprnt.c: 91:        
      +                           fputs((const char *)buf, fp);
  3167  0025E6  C07A  F071         	movff	pad@buf,fputs@s
  3168  0025EA  C07B  F072         	movff	pad@buf+1,fputs@s+1
  3169  0025EE  C078  F073         	movff	pad@fp,fputs@fp
  3170  0025F2  C079  F074         	movff	pad@fp+1,fputs@fp+1
  3171  0025F6  ECA1  F015         	call	_fputs	;wreg free
  3172  0025FA                     l5062:
  3173                           
  3174                           ;C:\Program Files (x86)\Microchip\xc8\v2.10\pic\sources\c99\common\doprnt.c: 94:     ret
      +                          urn strlen(buf) + w;
  3175  0025FA  C07A  F066         	movff	pad@buf,strlen@s
  3176  0025FE  C07B  F067         	movff	pad@buf+1,strlen@s+1
  3177  002602  ECB2  F016         	call	_strlen	;wreg free
  3178  002606  0100               	movlb	0	; () banked
  3179  002608  5181               	movf	pad@w& (0+255),w,b
  3180  00260A  2566               	addwf	?_strlen& (0+255),w,b
  3181  00260C  6F78               	movwf	?_pad& (0+255),b
  3182  00260E  5182               	movf	(pad@w+1)& (0+255),w,b
  3183  002610  2167               	addwfc	(?_strlen+1)& (0+255),w,b
  3184  002612  6F79               	movwf	(?_pad+1)& (0+255),b
  3185  002614                     
  3186                           ; BSR set to: 0
  3187  002614  0012               	return		;funcret
  3188  002616                     __end_of_pad:
  3189                           	opt callstack 0
  3190                           
  3191 ;; *************** function _strlen *****************
  3192 ;; Defined at:
  3193 ;;		line 5 in file "C:\Program Files (x86)\Microchip\xc8\v2.10\pic\sources\c99\common\strlen.c"
  3194 ;; Parameters:    Size  Location     Type
  3195 ;;  s               2    6[BANK0 ] PTR const unsigned char 
  3196 ;;		 -> dbuf(32), pin(4), temp_alarme_string(4), 
  3197 ;; Auto vars:     Size  Location     Type
  3198 ;;  a               2    8[BANK0 ] PTR const unsigned char 
  3199 ;;		 -> dbuf(32), pin(4), temp_alarme_string(4), 
  3200 ;; Return value:  Size  Location     Type
  3201 ;;                  2    6[BANK0 ] unsigned int 
  3202 ;; Registers used:
  3203 ;;		wreg, fsr2l, fsr2h, status,2, status,0
  3204 ;; Tracked objects:
  3205 ;;		On entry : 0/0
  3206 ;;		On exit  : 0/0
  3207 ;;		Unchanged: 0/0
  3208 ;; Data sizes:     COMRAM   BANK0   BANK1   BANK2   BANK3   BANK4   BANK5
  3209 ;;      Params:         0       2       0       0       0       0       0
  3210 ;;      Locals:         0       2       0       0       0       0       0
  3211 ;;      Temps:          0       0       0       0       0       0       0
  3212 ;;      Totals:         0       4       0       0       0       0       0
  3213 ;;Total ram usage:        4 bytes
  3214 ;; Hardware stack levels used:    1
  3215 ;; Hardware stack levels required when called:    4
  3216 ;; This function calls:
  3217 ;;		Nothing
  3218 ;; This function is called by:
  3219 ;;		_pad
  3220 ;;		_strncat
  3221 ;; This function uses a non-reentrant model
  3222 ;;
  3223                           
  3224                           	psect	text10
  3225  002D64                     __ptext10:
  3226                           	opt callstack 0
  3227  002D64                     _strlen:
  3228                           	opt callstack 25
  3229  002D64  C066  F068         	movff	strlen@s,strlen@a
  3230  002D68  C067  F069         	movff	strlen@s+1,strlen@a+1
  3231  002D6C  EFBB  F016         	goto	l5038
  3232  002D70                     l5036:
  3233  002D70  0100               	movlb	0	; () banked
  3234  002D72  4B66               	infsnz	strlen@s& (0+255),f,b
  3235  002D74  2B67               	incf	(strlen@s+1)& (0+255),f,b
  3236  002D76                     l5038:
  3237  002D76  C066  FFD9         	movff	strlen@s,fsr2l
  3238  002D7A  C067  FFDA         	movff	strlen@s+1,fsr2h
  3239  002D7E  50DF               	movf	indf2,w,c
  3240  002D80  A4D8               	btfss	status,2,c
  3241  002D82  EFC5  F016         	goto	u4821
  3242  002D86  EFC7  F016         	goto	u4820
  3243  002D8A                     u4821:
  3244  002D8A  EFB8  F016         	goto	l5036
  3245  002D8E                     u4820:
  3246  002D8E  0100               	movlb	0	; () banked
  3247  002D90  5168               	movf	strlen@a& (0+255),w,b
  3248  002D92  5D66               	subwf	strlen@s& (0+255),w,b
  3249  002D94  6F66               	movwf	?_strlen& (0+255),b
  3250  002D96  5169               	movf	(strlen@a+1)& (0+255),w,b
  3251  002D98  5967               	subwfb	(strlen@s+1)& (0+255),w,b
  3252  002D9A  6F67               	movwf	(?_strlen+1)& (0+255),b
  3253  002D9C                     
  3254                           ; BSR set to: 0
  3255  002D9C  0012               	return		;funcret
  3256  002D9E                     __end_of_strlen:
  3257                           	opt callstack 0
  3258                           
  3259 ;; *************** function _fputs *****************
  3260 ;; Defined at:
  3261 ;;		line 8 in file "C:\Program Files (x86)\Microchip\xc8\v2.10\pic\sources\c99\common\nf_fputs.c"
  3262 ;; Parameters:    Size  Location     Type
  3263 ;;  s               2   17[BANK0 ] PTR const unsigned char 
  3264 ;;		 -> dbuf(32), 
  3265 ;;  fp              2   19[BANK0 ] PTR struct _IO_FILE
  3266 ;;		 -> sprintf@f(6), NULL(0), 
  3267 ;; Auto vars:     Size  Location     Type
  3268 ;;  i               2   22[BANK0 ] int 
  3269 ;;  c               1   21[BANK0 ] unsigned char 
  3270 ;; Return value:  Size  Location     Type
  3271 ;;                  2   17[BANK0 ] int 
  3272 ;; Registers used:
  3273 ;;		wreg, fsr1l, fsr1h, fsr2l, fsr2h, status,2, status,0, cstack
  3274 ;; Tracked objects:
  3275 ;;		On entry : 0/0
  3276 ;;		On exit  : 0/0
  3277 ;;		Unchanged: 0/0
  3278 ;; Data sizes:     COMRAM   BANK0   BANK1   BANK2   BANK3   BANK4   BANK5
  3279 ;;      Params:         0       4       0       0       0       0       0
  3280 ;;      Locals:         0       3       0       0       0       0       0
  3281 ;;      Temps:          0       0       0       0       0       0       0
  3282 ;;      Totals:         0       7       0       0       0       0       0
  3283 ;;Total ram usage:        7 bytes
  3284 ;; Hardware stack levels used:    1
  3285 ;; Hardware stack levels required when called:    7
  3286 ;; This function calls:
  3287 ;;		_fputc
  3288 ;; This function is called by:
  3289 ;;		_pad
  3290 ;; This function uses a non-reentrant model
  3291 ;;
  3292                           
  3293                           	psect	text11
  3294  002B42                     __ptext11:
  3295                           	opt callstack 0
  3296  002B42                     _fputs:
  3297                           	opt callstack 18
  3298  002B42  0E00               	movlw	0
  3299  002B44  0100               	movlb	0	; () banked
  3300  002B46  6F77               	movwf	(fputs@i+1)& (0+255),b
  3301  002B48  0E00               	movlw	0
  3302  002B4A  6F76               	movwf	fputs@i& (0+255),b
  3303  002B4C  EFB4  F015         	goto	l5032
  3304  002B50                     l5028:
  3305                           
  3306                           ; BSR set to: 0
  3307  002B50  C075  F068         	movff	fputs@c,fputc@c
  3308  002B54  6B69               	clrf	(fputc@c+1)& (0+255),b
  3309  002B56  C073  F06A         	movff	fputs@fp,fputc@fp
  3310  002B5A  C074  F06B         	movff	fputs@fp+1,fputc@fp+1
  3311  002B5E  EC40  F012         	call	_fputc	;wreg free
  3312  002B62  0100               	movlb	0	; () banked
  3313  002B64  4B76               	infsnz	fputs@i& (0+255),f,b
  3314  002B66  2B77               	incf	(fputs@i+1)& (0+255),f,b
  3315  002B68                     l5032:
  3316                           
  3317                           ; BSR set to: 0
  3318  002B68  5176               	movf	fputs@i& (0+255),w,b
  3319  002B6A  2571               	addwf	fputs@s& (0+255),w,b
  3320  002B6C  6ED9               	movwf	fsr2l,c
  3321  002B6E  5177               	movf	(fputs@i+1)& (0+255),w,b
  3322  002B70  2172               	addwfc	(fputs@s+1)& (0+255),w,b
  3323  002B72  6EDA               	movwf	fsr2h,c
  3324  002B74  50DF               	movf	indf2,w,c
  3325  002B76  6F75               	movwf	fputs@c& (0+255),b
  3326  002B78  5175               	movf	fputs@c& (0+255),w,b
  3327  002B7A  A4D8               	btfss	status,2,c
  3328  002B7C  EFC2  F015         	goto	u4811
  3329  002B80  EFC4  F015         	goto	u4810
  3330  002B84                     u4811:
  3331  002B84  EFA8  F015         	goto	l5028
  3332  002B88                     u4810:
  3333  002B88                     
  3334                           ; BSR set to: 0
  3335  002B88  0012               	return		;funcret
  3336  002B8A                     __end_of_fputs:
  3337                           	opt callstack 0
  3338                           
  3339 ;; *************** function _fputc *****************
  3340 ;; Defined at:
  3341 ;;		line 8 in file "C:\Program Files (x86)\Microchip\xc8\v2.10\pic\sources\c99\common\nf_fputc.c"
  3342 ;; Parameters:    Size  Location     Type
  3343 ;;  c               2    8[BANK0 ] int 
  3344 ;;  fp              2   10[BANK0 ] PTR struct _IO_FILE
  3345 ;;		 -> sprintf@f(6), NULL(0), 
  3346 ;; Auto vars:     Size  Location     Type
  3347 ;;		None
  3348 ;; Return value:  Size  Location     Type
  3349 ;;                  2    8[BANK0 ] int 
  3350 ;; Registers used:
  3351 ;;		wreg, fsr1l, fsr1h, fsr2l, fsr2h, status,2, status,0, cstack
  3352 ;; Tracked objects:
  3353 ;;		On entry : 0/0
  3354 ;;		On exit  : 0/0
  3355 ;;		Unchanged: 0/0
  3356 ;; Data sizes:     COMRAM   BANK0   BANK1   BANK2   BANK3   BANK4   BANK5
  3357 ;;      Params:         0       4       0       0       0       0       0
  3358 ;;      Locals:         0       0       0       0       0       0       0
  3359 ;;      Temps:          0       5       0       0       0       0       0
  3360 ;;      Totals:         0       9       0       0       0       0       0
  3361 ;;Total ram usage:        9 bytes
  3362 ;; Hardware stack levels used:    1
  3363 ;; Hardware stack levels required when called:    6
  3364 ;; This function calls:
  3365 ;;		_putch
  3366 ;; This function is called by:
  3367 ;;		_pad
  3368 ;;		_vfpfcnvrt
  3369 ;;		_fputs
  3370 ;; This function uses a non-reentrant model
  3371 ;;
  3372                           
  3373                           	psect	text12
  3374  002480                     __ptext12:
  3375                           	opt callstack 0
  3376  002480                     _fputc:
  3377                           	opt callstack 21
  3378  002480  0100               	movlb	0	; () banked
  3379  002482  516A               	movf	fputc@fp& (0+255),w,b
  3380  002484  116B               	iorwf	(fputc@fp+1)& (0+255),w,b
  3381  002486  B4D8               	btfsc	status,2,c
  3382  002488  EF48  F012         	goto	u4771
  3383  00248C  EF4A  F012         	goto	u4770
  3384  002490                     u4771:
  3385  002490  EF53  F012         	goto	l5016
  3386  002494                     u4770:
  3387  002494                     
  3388                           ; BSR set to: 0
  3389  002494  516A               	movf	fputc@fp& (0+255),w,b
  3390  002496  116B               	iorwf	(fputc@fp+1)& (0+255),w,b
  3391  002498  A4D8               	btfss	status,2,c
  3392  00249A  EF51  F012         	goto	u4781
  3393  00249E  EF53  F012         	goto	u4780
  3394  0024A2                     u4781:
  3395  0024A2  EF58  F012         	goto	l5018
  3396  0024A6                     u4780:
  3397  0024A6                     l5016:
  3398                           
  3399                           ; BSR set to: 0
  3400  0024A6  5168               	movf	fputc@c& (0+255),w,b
  3401  0024A8  EC5D  F018         	call	_putch
  3402  0024AC  EFA5  F012         	goto	l1550
  3403  0024B0                     l5018:
  3404                           
  3405                           ; BSR set to: 0
  3406  0024B0  EE20 F004          	lfsr	2,4
  3407  0024B4  516A               	movf	fputc@fp& (0+255),w,b
  3408  0024B6  26D9               	addwf	fsr2l,f,c
  3409  0024B8  516B               	movf	(fputc@fp+1)& (0+255),w,b
  3410  0024BA  22DA               	addwfc	fsr2h,f,c
  3411  0024BC  50DE               	movf	postinc2,w,c
  3412  0024BE  10DE               	iorwf	postinc2,w,c
  3413  0024C0  B4D8               	btfsc	status,2,c
  3414  0024C2  EF65  F012         	goto	u4791
  3415  0024C6  EF67  F012         	goto	u4790
  3416  0024CA                     u4791:
  3417  0024CA  EF82  F012         	goto	l5022
  3418  0024CE                     u4790:
  3419  0024CE                     
  3420                           ; BSR set to: 0
  3421  0024CE  EE20 F004          	lfsr	2,4
  3422  0024D2  516A               	movf	fputc@fp& (0+255),w,b
  3423  0024D4  26D9               	addwf	fsr2l,f,c
  3424  0024D6  516B               	movf	(fputc@fp+1)& (0+255),w,b
  3425  0024D8  22DA               	addwfc	fsr2h,f,c
  3426  0024DA  EE10 F002          	lfsr	1,2
  3427  0024DE  516A               	movf	fputc@fp& (0+255),w,b
  3428  0024E0  26E1               	addwf	fsr1l,f,c
  3429  0024E2  516B               	movf	(fputc@fp+1)& (0+255),w,b
  3430  0024E4  22E2               	addwfc	fsr1h,f,c
  3431  0024E6  50DE               	movf	postinc2,w,c
  3432  0024E8  5CE6               	subwf	postinc1,w,c
  3433  0024EA  50E6               	movf	postinc1,w,c
  3434  0024EC  0A80               	xorlw	128
  3435  0024EE  6F70               	movwf	(??_fputc+4)& (0+255),b
  3436  0024F0  50DE               	movf	postinc2,w,c
  3437  0024F2  0A80               	xorlw	128
  3438  0024F4  5970               	subwfb	(??_fputc+4)& (0+255),w,b
  3439  0024F6  B0D8               	btfsc	status,0,c
  3440  0024F8  EF80  F012         	goto	u4801
  3441  0024FC  EF82  F012         	goto	u4800
  3442  002500                     u4801:
  3443  002500  EFA5  F012         	goto	l1550
  3444  002504                     u4800:
  3445  002504                     l5022:
  3446                           
  3447                           ; BSR set to: 0
  3448  002504  EE20 F002          	lfsr	2,2
  3449  002508  516A               	movf	fputc@fp& (0+255),w,b
  3450  00250A  26D9               	addwf	fsr2l,f,c
  3451  00250C  516B               	movf	(fputc@fp+1)& (0+255),w,b
  3452  00250E  22DA               	addwfc	fsr2h,f,c
  3453  002510  CFDE F06C          	movff	postinc2,??_fputc
  3454  002514  CFDD F06D          	movff	postdec2,??_fputc+1
  3455  002518  C06A  FFD9         	movff	fputc@fp,fsr2l
  3456  00251C  C06B  FFDA         	movff	fputc@fp+1,fsr2h
  3457  002520  CFDE F06E          	movff	postinc2,??_fputc+2
  3458  002524  CFDD F06F          	movff	postdec2,??_fputc+3
  3459  002528  516C               	movf	??_fputc& (0+255),w,b
  3460  00252A  256E               	addwf	(??_fputc+2)& (0+255),w,b
  3461  00252C  6ED9               	movwf	fsr2l,c
  3462  00252E  516D               	movf	(??_fputc+1)& (0+255),w,b
  3463  002530  216F               	addwfc	(??_fputc+3)& (0+255),w,b
  3464  002532  6EDA               	movwf	fsr2h,c
  3465  002534  C068  FFDF         	movff	fputc@c,indf2
  3466  002538  EE20 F002          	lfsr	2,2
  3467  00253C  516A               	movf	fputc@fp& (0+255),w,b
  3468  00253E  26D9               	addwf	fsr2l,f,c
  3469  002540  516B               	movf	(fputc@fp+1)& (0+255),w,b
  3470  002542  22DA               	addwfc	fsr2h,f,c
  3471  002544  2ADE               	incf	postinc2,f,c
  3472  002546  0E00               	movlw	0
  3473  002548  22DD               	addwfc	postdec2,f,c
  3474  00254A                     l1550:
  3475  00254A  0012               	return		;funcret
  3476  00254C                     __end_of_fputc:
  3477                           	opt callstack 0
  3478                           
  3479 ;; *************** function _putch *****************
  3480 ;; Defined at:
  3481 ;;		line 176 in file "mcc_generated_files/eusart1.c"
  3482 ;; Parameters:    Size  Location     Type
  3483 ;;  txData          1    wreg     unsigned char 
  3484 ;; Auto vars:     Size  Location     Type
  3485 ;;  txData          1    7[BANK0 ] unsigned char 
  3486 ;; Return value:  Size  Location     Type
  3487 ;;                  1    wreg      void 
  3488 ;; Registers used:
  3489 ;;		wreg, status,2, cstack
  3490 ;; Tracked objects:
  3491 ;;		On entry : 0/0
  3492 ;;		On exit  : 0/0
  3493 ;;		Unchanged: 0/0
  3494 ;; Data sizes:     COMRAM   BANK0   BANK1   BANK2   BANK3   BANK4   BANK5
  3495 ;;      Params:         0       0       0       0       0       0       0
  3496 ;;      Locals:         0       1       0       0       0       0       0
  3497 ;;      Temps:          0       0       0       0       0       0       0
  3498 ;;      Totals:         0       1       0       0       0       0       0
  3499 ;;Total ram usage:        1 bytes
  3500 ;; Hardware stack levels used:    1
  3501 ;; Hardware stack levels required when called:    5
  3502 ;; This function calls:
  3503 ;;		_EUSART1_Write
  3504 ;; This function is called by:
  3505 ;;		_fputc
  3506 ;; This function uses a non-reentrant model
  3507 ;;
  3508                           
  3509                           	psect	text13
  3510  0030BA                     __ptext13:
  3511                           	opt callstack 0
  3512  0030BA                     _putch:
  3513                           	opt callstack 21
  3514                           
  3515                           ;incstack = 0
  3516                           ;putch@txData stored from wreg
  3517  0030BA  0100               	movlb	0	; () banked
  3518  0030BC  6F67               	movwf	putch@txData& (0+255),b
  3519  0030BE                     
  3520                           ;mcc_generated_files/eusart1.c: 176: void putch(char txData);mcc_generated_files/eusart1
      +                          .c: 177: {;mcc_generated_files/eusart1.c: 178:     EUSART1_Write(txData);
  3521  0030BE  0100               	movlb	0	; () banked
  3522  0030C0  5167               	movf	putch@txData& (0+255),w,b
  3523  0030C2  EC21  F018         	call	_EUSART1_Write
  3524  0030C6  0012               	return		;funcret
  3525  0030C8                     __end_of_putch:
  3526                           	opt callstack 0
  3527                           
  3528 ;; *************** function _EUSART1_Write *****************
  3529 ;; Defined at:
  3530 ;;		line 162 in file "mcc_generated_files/eusart1.c"
  3531 ;; Parameters:    Size  Location     Type
  3532 ;;  txData          1    wreg     unsigned char 
  3533 ;; Auto vars:     Size  Location     Type
  3534 ;;  txData          1    6[BANK0 ] unsigned char 
  3535 ;; Return value:  Size  Location     Type
  3536 ;;                  1    wreg      void 
  3537 ;; Registers used:
  3538 ;;		wreg
  3539 ;; Tracked objects:
  3540 ;;		On entry : 0/0
  3541 ;;		On exit  : 0/0
  3542 ;;		Unchanged: 0/0
  3543 ;; Data sizes:     COMRAM   BANK0   BANK1   BANK2   BANK3   BANK4   BANK5
  3544 ;;      Params:         0       0       0       0       0       0       0
  3545 ;;      Locals:         0       1       0       0       0       0       0
  3546 ;;      Temps:          0       0       0       0       0       0       0
  3547 ;;      Totals:         0       1       0       0       0       0       0
  3548 ;;Total ram usage:        1 bytes
  3549 ;; Hardware stack levels used:    1
  3550 ;; Hardware stack levels required when called:    4
  3551 ;; This function calls:
  3552 ;;		Nothing
  3553 ;; This function is called by:
  3554 ;;		_putch
  3555 ;;		_main
  3556 ;; This function uses a non-reentrant model
  3557 ;;
  3558                           
  3559                           	psect	text14
  3560  003042                     __ptext14:
  3561                           	opt callstack 0
  3562  003042                     _EUSART1_Write:
  3563                           	opt callstack 21
  3564                           
  3565                           ;incstack = 0
  3566                           ;EUSART1_Write@txData stored from wreg
  3567  003042  0100               	movlb	0	; () banked
  3568  003044  6F66               	movwf	EUSART1_Write@txData& (0+255),b
  3569  003046                     l421:
  3570                           
  3571                           ;mcc_generated_files/eusart1.c: 164:     while(0 == PIR1bits.TX1IF)
  3572  003046  A89E               	btfss	158,4,c	;volatile
  3573  003048  EF28  F018         	goto	u4761
  3574  00304C  EF2A  F018         	goto	u4760
  3575  003050                     u4761:
  3576  003050  EF23  F018         	goto	l421
  3577  003054                     u4760:
  3578  003054                     
  3579                           ;mcc_generated_files/eusart1.c: 168:     TXREG1 = txData;
  3580  003054  C066  FFAD         	movff	EUSART1_Write@txData,4013	;volatile
  3581  003058  0012               	return		;funcret
  3582  00305A                     __end_of_EUSART1_Write:
  3583                           	opt callstack 0
  3584                           
  3585 ;; *************** function _abs *****************
  3586 ;; Defined at:
  3587 ;;		line 1 in file "C:\Program Files (x86)\Microchip\xc8\v2.10\pic\sources\c99\common\abs.c"
  3588 ;; Parameters:    Size  Location     Type
  3589 ;;  a               2   24[BANK0 ] int 
  3590 ;; Auto vars:     Size  Location     Type
  3591 ;;		None
  3592 ;; Return value:  Size  Location     Type
  3593 ;;                  2   24[BANK0 ] int 
  3594 ;; Registers used:
  3595 ;;		wreg, status,2, status,0
  3596 ;; Tracked objects:
  3597 ;;		On entry : 0/0
  3598 ;;		On exit  : 0/0
  3599 ;;		Unchanged: 0/0
  3600 ;; Data sizes:     COMRAM   BANK0   BANK1   BANK2   BANK3   BANK4   BANK5
  3601 ;;      Params:         0       2       0       0       0       0       0
  3602 ;;      Locals:         0       0       0       0       0       0       0
  3603 ;;      Temps:          0       2       0       0       0       0       0
  3604 ;;      Totals:         0       4       0       0       0       0       0
  3605 ;;Total ram usage:        4 bytes
  3606 ;; Hardware stack levels used:    1
  3607 ;; Hardware stack levels required when called:    4
  3608 ;; This function calls:
  3609 ;;		Nothing
  3610 ;; This function is called by:
  3611 ;;		_dtoa
  3612 ;; This function uses a non-reentrant model
  3613 ;;
  3614                           
  3615                           	psect	text15
  3616  002CE4                     __ptext15:
  3617                           	opt callstack 0
  3618  002CE4                     _abs:
  3619                           	opt callstack 22
  3620  002CE4  0100               	movlb	0	; () banked
  3621  002CE6  BF79               	btfsc	(abs@a+1)& (0+255),7,b
  3622  002CE8  EF80  F016         	goto	u4870
  3623  002CEC  5179               	movf	(abs@a+1)& (0+255),w,b
  3624  002CEE  E106               	bnz	u4871
  3625  002CF0  0578               	decf	abs@a& (0+255),w,b
  3626  002CF2  B0D8               	btfsc	status,0,c
  3627  002CF4  EF7E  F016         	goto	u4871
  3628  002CF8  EF80  F016         	goto	u4870
  3629  002CFC                     u4871:
  3630  002CFC  EF8E  F016         	goto	l1490
  3631  002D00                     u4870:
  3632  002D00                     
  3633                           ; BSR set to: 0
  3634  002D00  C078  F07A         	movff	abs@a,??_abs
  3635  002D04  C079  F07B         	movff	abs@a+1,??_abs+1
  3636  002D08  1F7A               	comf	??_abs& (0+255),f,b
  3637  002D0A  1F7B               	comf	(??_abs+1)& (0+255),f,b
  3638  002D0C  4B7A               	infsnz	??_abs& (0+255),f,b
  3639  002D0E  2B7B               	incf	(??_abs+1)& (0+255),f,b
  3640  002D10  C07A  F078         	movff	??_abs,?_abs
  3641  002D14  C07B  F079         	movff	??_abs+1,?_abs+1
  3642  002D18  EF92  F016         	goto	l1493
  3643  002D1C                     l1490:
  3644                           
  3645                           ; BSR set to: 0
  3646  002D1C  C078  F078         	movff	abs@a,?_abs
  3647  002D20  C079  F079         	movff	abs@a+1,?_abs+1
  3648  002D24                     l1493:
  3649                           
  3650                           ; BSR set to: 0
  3651  002D24  0012               	return		;funcret
  3652  002D26                     __end_of_abs:
  3653                           	opt callstack 0
  3654                           
  3655 ;; *************** function ___aomod *****************
  3656 ;; Defined at:
  3657 ;;		line 9 in file "C:\Program Files (x86)\Microchip\xc8\v2.10\pic\sources\c99\common\aomod.c"
  3658 ;; Parameters:    Size  Location     Type
  3659 ;;  dividend        8    6[BANK0 ] long long 
  3660 ;;  divisor         8   14[BANK0 ] long long 
  3661 ;; Auto vars:     Size  Location     Type
  3662 ;;  sign            1   23[BANK0 ] unsigned char 
  3663 ;;  counter         1   22[BANK0 ] unsigned char 
  3664 ;; Return value:  Size  Location     Type
  3665 ;;                  8    6[BANK0 ] long long 
  3666 ;; Registers used:
  3667 ;;		wreg, status,2, status,0
  3668 ;; Tracked objects:
  3669 ;;		On entry : 0/0
  3670 ;;		On exit  : 0/0
  3671 ;;		Unchanged: 0/0
  3672 ;; Data sizes:     COMRAM   BANK0   BANK1   BANK2   BANK3   BANK4   BANK5
  3673 ;;      Params:         0      16       0       0       0       0       0
  3674 ;;      Locals:         0       2       0       0       0       0       0
  3675 ;;      Temps:          0       0       0       0       0       0       0
  3676 ;;      Totals:         0      18       0       0       0       0       0
  3677 ;;Total ram usage:       18 bytes
  3678 ;; Hardware stack levels used:    1
  3679 ;; Hardware stack levels required when called:    4
  3680 ;; This function calls:
  3681 ;;		Nothing
  3682 ;; This function is called by:
  3683 ;;		_dtoa
  3684 ;; This function uses a non-reentrant model
  3685 ;;
  3686                           
  3687                           	psect	text16
  3688  001FFE                     __ptext16:
  3689                           	opt callstack 0
  3690  001FFE                     ___aomod:
  3691                           	opt callstack 22
  3692  001FFE  0E00               	movlw	0
  3693  002000  0100               	movlb	0	; () banked
  3694  002002  6F77               	movwf	___aomod@sign& (0+255),b
  3695  002004                     
  3696                           ; BSR set to: 0
  3697  002004  BF6D               	btfsc	(___aomod@dividend+7)& (0+255),7,b
  3698  002006  EF09  F010         	goto	u4950
  3699  00200A  EF07  F010         	goto	u4951
  3700  00200E                     u4951:
  3701  00200E  EF1B  F010         	goto	l5122
  3702  002012                     u4950:
  3703  002012                     
  3704                           ; BSR set to: 0
  3705  002012  1F6D               	comf	(___aomod@dividend+7)& (0+255),f,b
  3706  002014  1F6C               	comf	(___aomod@dividend+6)& (0+255),f,b
  3707  002016  1F6B               	comf	(___aomod@dividend+5)& (0+255),f,b
  3708  002018  1F6A               	comf	(___aomod@dividend+4)& (0+255),f,b
  3709  00201A  1F69               	comf	(___aomod@dividend+3)& (0+255),f,b
  3710  00201C  1F68               	comf	(___aomod@dividend+2)& (0+255),f,b
  3711  00201E  1F67               	comf	(___aomod@dividend+1)& (0+255),f,b
  3712  002020  6D66               	negf	___aomod@dividend& (0+255),b
  3713  002022  0E00               	movlw	0
  3714  002024  2367               	addwfc	(___aomod@dividend+1)& (0+255),f,b
  3715  002026  2368               	addwfc	(___aomod@dividend+2)& (0+255),f,b
  3716  002028  2369               	addwfc	(___aomod@dividend+3)& (0+255),f,b
  3717  00202A  236A               	addwfc	(___aomod@dividend+4)& (0+255),f,b
  3718  00202C  236B               	addwfc	(___aomod@dividend+5)& (0+255),f,b
  3719  00202E  236C               	addwfc	(___aomod@dividend+6)& (0+255),f,b
  3720  002030  236D               	addwfc	(___aomod@dividend+7)& (0+255),f,b
  3721  002032                     
  3722                           ; BSR set to: 0
  3723  002032  0E01               	movlw	1
  3724  002034  6F77               	movwf	___aomod@sign& (0+255),b
  3725  002036                     l5122:
  3726                           
  3727                           ; BSR set to: 0
  3728  002036  BF75               	btfsc	(___aomod@divisor+7)& (0+255),7,b
  3729  002038  EF22  F010         	goto	u4960
  3730  00203C  EF20  F010         	goto	u4961
  3731  002040                     u4961:
  3732  002040  EF32  F010         	goto	l5126
  3733  002044                     u4960:
  3734  002044                     
  3735                           ; BSR set to: 0
  3736  002044  1F75               	comf	(___aomod@divisor+7)& (0+255),f,b
  3737  002046  1F74               	comf	(___aomod@divisor+6)& (0+255),f,b
  3738  002048  1F73               	comf	(___aomod@divisor+5)& (0+255),f,b
  3739  00204A  1F72               	comf	(___aomod@divisor+4)& (0+255),f,b
  3740  00204C  1F71               	comf	(___aomod@divisor+3)& (0+255),f,b
  3741  00204E  1F70               	comf	(___aomod@divisor+2)& (0+255),f,b
  3742  002050  1F6F               	comf	(___aomod@divisor+1)& (0+255),f,b
  3743  002052  6D6E               	negf	___aomod@divisor& (0+255),b
  3744  002054  0E00               	movlw	0
  3745  002056  236F               	addwfc	(___aomod@divisor+1)& (0+255),f,b
  3746  002058  2370               	addwfc	(___aomod@divisor+2)& (0+255),f,b
  3747  00205A  2371               	addwfc	(___aomod@divisor+3)& (0+255),f,b
  3748  00205C  2372               	addwfc	(___aomod@divisor+4)& (0+255),f,b
  3749  00205E  2373               	addwfc	(___aomod@divisor+5)& (0+255),f,b
  3750  002060  2374               	addwfc	(___aomod@divisor+6)& (0+255),f,b
  3751  002062  2375               	addwfc	(___aomod@divisor+7)& (0+255),f,b
  3752  002064                     l5126:
  3753                           
  3754                           ; BSR set to: 0
  3755  002064  516E               	movf	___aomod@divisor& (0+255),w,b
  3756  002066  116F               	iorwf	(___aomod@divisor+1)& (0+255),w,b
  3757  002068  1170               	iorwf	(___aomod@divisor+2)& (0+255),w,b
  3758  00206A  1171               	iorwf	(___aomod@divisor+3)& (0+255),w,b
  3759  00206C  1172               	iorwf	(___aomod@divisor+4)& (0+255),w,b
  3760  00206E  1173               	iorwf	(___aomod@divisor+5)& (0+255),w,b
  3761  002070  1174               	iorwf	(___aomod@divisor+6)& (0+255),w,b
  3762  002072  1175               	iorwf	(___aomod@divisor+7)& (0+255),w,b
  3763  002074  B4D8               	btfsc	status,2,c
  3764  002076  EF3F  F010         	goto	u4971
  3765  00207A  EF41  F010         	goto	u4970
  3766  00207E                     u4971:
  3767  00207E  EF89  F010         	goto	l5142
  3768  002082                     u4970:
  3769  002082                     
  3770                           ; BSR set to: 0
  3771  002082  0E01               	movlw	1
  3772  002084  6F76               	movwf	___aomod@counter& (0+255),b
  3773  002086  EF4F  F010         	goto	l5132
  3774  00208A                     l5130:
  3775                           
  3776                           ; BSR set to: 0
  3777  00208A  90D8               	bcf	status,0,c
  3778  00208C  376E               	rlcf	___aomod@divisor& (0+255),f,b
  3779  00208E  376F               	rlcf	(___aomod@divisor+1)& (0+255),f,b
  3780  002090  3770               	rlcf	(___aomod@divisor+2)& (0+255),f,b
  3781  002092  3771               	rlcf	(___aomod@divisor+3)& (0+255),f,b
  3782  002094  3772               	rlcf	(___aomod@divisor+4)& (0+255),f,b
  3783  002096  3773               	rlcf	(___aomod@divisor+5)& (0+255),f,b
  3784  002098  3774               	rlcf	(___aomod@divisor+6)& (0+255),f,b
  3785  00209A  3775               	rlcf	(___aomod@divisor+7)& (0+255),f,b
  3786  00209C  2B76               	incf	___aomod@counter& (0+255),f,b
  3787  00209E                     l5132:
  3788                           
  3789                           ; BSR set to: 0
  3790  00209E  AF75               	btfss	(___aomod@divisor+7)& (0+255),7,b
  3791  0020A0  EF54  F010         	goto	u4981
  3792  0020A4  EF56  F010         	goto	u4980
  3793  0020A8                     u4981:
  3794  0020A8  EF45  F010         	goto	l5130
  3795  0020AC                     u4980:
  3796  0020AC                     l5134:
  3797                           
  3798                           ; BSR set to: 0
  3799  0020AC  516E               	movf	___aomod@divisor& (0+255),w,b
  3800  0020AE  5D66               	subwf	___aomod@dividend& (0+255),w,b
  3801  0020B0  516F               	movf	(___aomod@divisor+1)& (0+255),w,b
  3802  0020B2  5967               	subwfb	(___aomod@dividend+1)& (0+255),w,b
  3803  0020B4  5170               	movf	(___aomod@divisor+2)& (0+255),w,b
  3804  0020B6  5968               	subwfb	(___aomod@dividend+2)& (0+255),w,b
  3805  0020B8  5171               	movf	(___aomod@divisor+3)& (0+255),w,b
  3806  0020BA  5969               	subwfb	(___aomod@dividend+3)& (0+255),w,b
  3807  0020BC  5172               	movf	(___aomod@divisor+4)& (0+255),w,b
  3808  0020BE  596A               	subwfb	(___aomod@dividend+4)& (0+255),w,b
  3809  0020C0  5173               	movf	(___aomod@divisor+5)& (0+255),w,b
  3810  0020C2  596B               	subwfb	(___aomod@dividend+5)& (0+255),w,b
  3811  0020C4  5174               	movf	(___aomod@divisor+6)& (0+255),w,b
  3812  0020C6  596C               	subwfb	(___aomod@dividend+6)& (0+255),w,b
  3813  0020C8  5175               	movf	(___aomod@divisor+7)& (0+255),w,b
  3814  0020CA  596D               	subwfb	(___aomod@dividend+7)& (0+255),w,b
  3815  0020CC  A0D8               	btfss	status,0,c
  3816  0020CE  EF6B  F010         	goto	u4991
  3817  0020D2  EF6D  F010         	goto	u4990
  3818  0020D6                     u4991:
  3819  0020D6  EF7D  F010         	goto	l5138
  3820  0020DA                     u4990:
  3821  0020DA                     
  3822                           ; BSR set to: 0
  3823  0020DA  516E               	movf	___aomod@divisor& (0+255),w,b
  3824  0020DC  5F66               	subwf	___aomod@dividend& (0+255),f,b
  3825  0020DE  516F               	movf	(___aomod@divisor+1)& (0+255),w,b
  3826  0020E0  5B67               	subwfb	(___aomod@dividend+1)& (0+255),f,b
  3827  0020E2  5170               	movf	(___aomod@divisor+2)& (0+255),w,b
  3828  0020E4  5B68               	subwfb	(___aomod@dividend+2)& (0+255),f,b
  3829  0020E6  5171               	movf	(___aomod@divisor+3)& (0+255),w,b
  3830  0020E8  5B69               	subwfb	(___aomod@dividend+3)& (0+255),f,b
  3831  0020EA  5172               	movf	(___aomod@divisor+4)& (0+255),w,b
  3832  0020EC  5B6A               	subwfb	(___aomod@dividend+4)& (0+255),f,b
  3833  0020EE  5173               	movf	(___aomod@divisor+5)& (0+255),w,b
  3834  0020F0  5B6B               	subwfb	(___aomod@dividend+5)& (0+255),f,b
  3835  0020F2  5174               	movf	(___aomod@divisor+6)& (0+255),w,b
  3836  0020F4  5B6C               	subwfb	(___aomod@dividend+6)& (0+255),f,b
  3837  0020F6  5175               	movf	(___aomod@divisor+7)& (0+255),w,b
  3838  0020F8  5B6D               	subwfb	(___aomod@dividend+7)& (0+255),f,b
  3839  0020FA                     l5138:
  3840                           
  3841                           ; BSR set to: 0
  3842  0020FA  90D8               	bcf	status,0,c
  3843  0020FC  3375               	rrcf	(___aomod@divisor+7)& (0+255),f,b
  3844  0020FE  3374               	rrcf	(___aomod@divisor+6)& (0+255),f,b
  3845  002100  3373               	rrcf	(___aomod@divisor+5)& (0+255),f,b
  3846  002102  3372               	rrcf	(___aomod@divisor+4)& (0+255),f,b
  3847  002104  3371               	rrcf	(___aomod@divisor+3)& (0+255),f,b
  3848  002106  3370               	rrcf	(___aomod@divisor+2)& (0+255),f,b
  3849  002108  336F               	rrcf	(___aomod@divisor+1)& (0+255),f,b
  3850  00210A  336E               	rrcf	___aomod@divisor& (0+255),f,b
  3851  00210C                     
  3852                           ; BSR set to: 0
  3853  00210C  2F76               	decfsz	___aomod@counter& (0+255),f,b
  3854  00210E  EF56  F010         	goto	l5134
  3855  002112                     l5142:
  3856                           
  3857                           ; BSR set to: 0
  3858  002112  5177               	movf	___aomod@sign& (0+255),w,b
  3859  002114  B4D8               	btfsc	status,2,c
  3860  002116  EF8F  F010         	goto	u5001
  3861  00211A  EF91  F010         	goto	u5000
  3862  00211E                     u5001:
  3863  00211E  EFA1  F010         	goto	l5146
  3864  002122                     u5000:
  3865  002122                     
  3866                           ; BSR set to: 0
  3867  002122  1F6D               	comf	(___aomod@dividend+7)& (0+255),f,b
  3868  002124  1F6C               	comf	(___aomod@dividend+6)& (0+255),f,b
  3869  002126  1F6B               	comf	(___aomod@dividend+5)& (0+255),f,b
  3870  002128  1F6A               	comf	(___aomod@dividend+4)& (0+255),f,b
  3871  00212A  1F69               	comf	(___aomod@dividend+3)& (0+255),f,b
  3872  00212C  1F68               	comf	(___aomod@dividend+2)& (0+255),f,b
  3873  00212E  1F67               	comf	(___aomod@dividend+1)& (0+255),f,b
  3874  002130  6D66               	negf	___aomod@dividend& (0+255),b
  3875  002132  0E00               	movlw	0
  3876  002134  2367               	addwfc	(___aomod@dividend+1)& (0+255),f,b
  3877  002136  2368               	addwfc	(___aomod@dividend+2)& (0+255),f,b
  3878  002138  2369               	addwfc	(___aomod@dividend+3)& (0+255),f,b
  3879  00213A  236A               	addwfc	(___aomod@dividend+4)& (0+255),f,b
  3880  00213C  236B               	addwfc	(___aomod@dividend+5)& (0+255),f,b
  3881  00213E  236C               	addwfc	(___aomod@dividend+6)& (0+255),f,b
  3882  002140  236D               	addwfc	(___aomod@dividend+7)& (0+255),f,b
  3883  002142                     l5146:
  3884                           
  3885                           ; BSR set to: 0
  3886  002142  C066  F066         	movff	___aomod@dividend,?___aomod
  3887  002146  C067  F067         	movff	___aomod@dividend+1,?___aomod+1
  3888  00214A  C068  F068         	movff	___aomod@dividend+2,?___aomod+2
  3889  00214E  C069  F069         	movff	___aomod@dividend+3,?___aomod+3
  3890  002152  C06A  F06A         	movff	___aomod@dividend+4,?___aomod+4
  3891  002156  C06B  F06B         	movff	___aomod@dividend+5,?___aomod+5
  3892  00215A  C06C  F06C         	movff	___aomod@dividend+6,?___aomod+6
  3893  00215E  C06D  F06D         	movff	___aomod@dividend+7,?___aomod+7
  3894  002162                     
  3895                           ; BSR set to: 0
  3896  002162  0012               	return		;funcret
  3897  002164                     __end_of___aomod:
  3898                           	opt callstack 0
  3899                           
  3900 ;; *************** function ___aodiv *****************
  3901 ;; Defined at:
  3902 ;;		line 9 in file "C:\Program Files (x86)\Microchip\xc8\v2.10\pic\sources\c99\common\aodiv.c"
  3903 ;; Parameters:    Size  Location     Type
  3904 ;;  dividend        8    6[BANK0 ] long long 
  3905 ;;  divisor         8   14[BANK0 ] long long 
  3906 ;; Auto vars:     Size  Location     Type
  3907 ;;  quotient        8   24[BANK0 ] long long 
  3908 ;;  sign            1   23[BANK0 ] unsigned char 
  3909 ;;  counter         1   22[BANK0 ] unsigned char 
  3910 ;; Return value:  Size  Location     Type
  3911 ;;                  8    6[BANK0 ] long long 
  3912 ;; Registers used:
  3913 ;;		wreg, fsr2l, fsr2h, status,2, status,0
  3914 ;; Tracked objects:
  3915 ;;		On entry : 0/0
  3916 ;;		On exit  : 0/0
  3917 ;;		Unchanged: 0/0
  3918 ;; Data sizes:     COMRAM   BANK0   BANK1   BANK2   BANK3   BANK4   BANK5
  3919 ;;      Params:         0      16       0       0       0       0       0
  3920 ;;      Locals:         0      10       0       0       0       0       0
  3921 ;;      Temps:          0       0       0       0       0       0       0
  3922 ;;      Totals:         0      26       0       0       0       0       0
  3923 ;;Total ram usage:       26 bytes
  3924 ;; Hardware stack levels used:    1
  3925 ;; Hardware stack levels required when called:    4
  3926 ;; This function calls:
  3927 ;;		Nothing
  3928 ;; This function is called by:
  3929 ;;		_dtoa
  3930 ;; This function uses a non-reentrant model
  3931 ;;
  3932                           
  3933                           	psect	text17
  3934  001E74                     __ptext17:
  3935                           	opt callstack 0
  3936  001E74                     ___aodiv:
  3937                           	opt callstack 22
  3938  001E74  0E00               	movlw	0
  3939  001E76  0100               	movlb	0	; () banked
  3940  001E78  6F77               	movwf	___aodiv@sign& (0+255),b
  3941  001E7A                     
  3942                           ; BSR set to: 0
  3943  001E7A  BF75               	btfsc	(___aodiv@divisor+7)& (0+255),7,b
  3944  001E7C  EF44  F00F         	goto	u4880
  3945  001E80  EF42  F00F         	goto	u4881
  3946  001E84                     u4881:
  3947  001E84  EF56  F00F         	goto	l5078
  3948  001E88                     u4880:
  3949  001E88                     
  3950                           ; BSR set to: 0
  3951  001E88  1F75               	comf	(___aodiv@divisor+7)& (0+255),f,b
  3952  001E8A  1F74               	comf	(___aodiv@divisor+6)& (0+255),f,b
  3953  001E8C  1F73               	comf	(___aodiv@divisor+5)& (0+255),f,b
  3954  001E8E  1F72               	comf	(___aodiv@divisor+4)& (0+255),f,b
  3955  001E90  1F71               	comf	(___aodiv@divisor+3)& (0+255),f,b
  3956  001E92  1F70               	comf	(___aodiv@divisor+2)& (0+255),f,b
  3957  001E94  1F6F               	comf	(___aodiv@divisor+1)& (0+255),f,b
  3958  001E96  6D6E               	negf	___aodiv@divisor& (0+255),b
  3959  001E98  0E00               	movlw	0
  3960  001E9A  236F               	addwfc	(___aodiv@divisor+1)& (0+255),f,b
  3961  001E9C  2370               	addwfc	(___aodiv@divisor+2)& (0+255),f,b
  3962  001E9E  2371               	addwfc	(___aodiv@divisor+3)& (0+255),f,b
  3963  001EA0  2372               	addwfc	(___aodiv@divisor+4)& (0+255),f,b
  3964  001EA2  2373               	addwfc	(___aodiv@divisor+5)& (0+255),f,b
  3965  001EA4  2374               	addwfc	(___aodiv@divisor+6)& (0+255),f,b
  3966  001EA6  2375               	addwfc	(___aodiv@divisor+7)& (0+255),f,b
  3967  001EA8                     
  3968                           ; BSR set to: 0
  3969  001EA8  0E01               	movlw	1
  3970  001EAA  6F77               	movwf	___aodiv@sign& (0+255),b
  3971  001EAC                     l5078:
  3972                           
  3973                           ; BSR set to: 0
  3974  001EAC  BF6D               	btfsc	(___aodiv@dividend+7)& (0+255),7,b
  3975  001EAE  EF5D  F00F         	goto	u4890
  3976  001EB2  EF5B  F00F         	goto	u4891
  3977  001EB6                     u4891:
  3978  001EB6  EF6F  F00F         	goto	l5084
  3979  001EBA                     u4890:
  3980  001EBA                     
  3981                           ; BSR set to: 0
  3982  001EBA  1F6D               	comf	(___aodiv@dividend+7)& (0+255),f,b
  3983  001EBC  1F6C               	comf	(___aodiv@dividend+6)& (0+255),f,b
  3984  001EBE  1F6B               	comf	(___aodiv@dividend+5)& (0+255),f,b
  3985  001EC0  1F6A               	comf	(___aodiv@dividend+4)& (0+255),f,b
  3986  001EC2  1F69               	comf	(___aodiv@dividend+3)& (0+255),f,b
  3987  001EC4  1F68               	comf	(___aodiv@dividend+2)& (0+255),f,b
  3988  001EC6  1F67               	comf	(___aodiv@dividend+1)& (0+255),f,b
  3989  001EC8  6D66               	negf	___aodiv@dividend& (0+255),b
  3990  001ECA  0E00               	movlw	0
  3991  001ECC  2367               	addwfc	(___aodiv@dividend+1)& (0+255),f,b
  3992  001ECE  2368               	addwfc	(___aodiv@dividend+2)& (0+255),f,b
  3993  001ED0  2369               	addwfc	(___aodiv@dividend+3)& (0+255),f,b
  3994  001ED2  236A               	addwfc	(___aodiv@dividend+4)& (0+255),f,b
  3995  001ED4  236B               	addwfc	(___aodiv@dividend+5)& (0+255),f,b
  3996  001ED6  236C               	addwfc	(___aodiv@dividend+6)& (0+255),f,b
  3997  001ED8  236D               	addwfc	(___aodiv@dividend+7)& (0+255),f,b
  3998  001EDA                     
  3999                           ; BSR set to: 0
  4000  001EDA  0E01               	movlw	1
  4001  001EDC  1B77               	xorwf	___aodiv@sign& (0+255),f,b
  4002  001EDE                     l5084:
  4003                           
  4004                           ; BSR set to: 0
  4005  001EDE  EE20  F078         	lfsr	2,___aodiv@quotient
  4006  001EE2  0E07               	movlw	7
  4007  001EE4                     u4901:
  4008  001EE4  6ADE               	clrf	postinc2,c
  4009  001EE6  06E8               	decf	wreg,f,c
  4010  001EE8  E2FD               	bc	u4901
  4011  001EEA                     
  4012                           ; BSR set to: 0
  4013  001EEA  516E               	movf	___aodiv@divisor& (0+255),w,b
  4014  001EEC  116F               	iorwf	(___aodiv@divisor+1)& (0+255),w,b
  4015  001EEE  1170               	iorwf	(___aodiv@divisor+2)& (0+255),w,b
  4016  001EF0  1171               	iorwf	(___aodiv@divisor+3)& (0+255),w,b
  4017  001EF2  1172               	iorwf	(___aodiv@divisor+4)& (0+255),w,b
  4018  001EF4  1173               	iorwf	(___aodiv@divisor+5)& (0+255),w,b
  4019  001EF6  1174               	iorwf	(___aodiv@divisor+6)& (0+255),w,b
  4020  001EF8  1175               	iorwf	(___aodiv@divisor+7)& (0+255),w,b
  4021  001EFA  B4D8               	btfsc	status,2,c
  4022  001EFC  EF82  F00F         	goto	u4911
  4023  001F00  EF84  F00F         	goto	u4910
  4024  001F04                     u4911:
  4025  001F04  EFD6  F00F         	goto	l5106
  4026  001F08                     u4910:
  4027  001F08                     
  4028                           ; BSR set to: 0
  4029  001F08  0E01               	movlw	1
  4030  001F0A  6F76               	movwf	___aodiv@counter& (0+255),b
  4031  001F0C  EF92  F00F         	goto	l5092
  4032  001F10                     l5090:
  4033                           
  4034                           ; BSR set to: 0
  4035  001F10  90D8               	bcf	status,0,c
  4036  001F12  376E               	rlcf	___aodiv@divisor& (0+255),f,b
  4037  001F14  376F               	rlcf	(___aodiv@divisor+1)& (0+255),f,b
  4038  001F16  3770               	rlcf	(___aodiv@divisor+2)& (0+255),f,b
  4039  001F18  3771               	rlcf	(___aodiv@divisor+3)& (0+255),f,b
  4040  001F1A  3772               	rlcf	(___aodiv@divisor+4)& (0+255),f,b
  4041  001F1C  3773               	rlcf	(___aodiv@divisor+5)& (0+255),f,b
  4042  001F1E  3774               	rlcf	(___aodiv@divisor+6)& (0+255),f,b
  4043  001F20  3775               	rlcf	(___aodiv@divisor+7)& (0+255),f,b
  4044  001F22  2B76               	incf	___aodiv@counter& (0+255),f,b
  4045  001F24                     l5092:
  4046                           
  4047                           ; BSR set to: 0
  4048  001F24  AF75               	btfss	(___aodiv@divisor+7)& (0+255),7,b
  4049  001F26  EF97  F00F         	goto	u4921
  4050  001F2A  EF99  F00F         	goto	u4920
  4051  001F2E                     u4921:
  4052  001F2E  EF88  F00F         	goto	l5090
  4053  001F32                     u4920:
  4054  001F32                     l5094:
  4055                           
  4056                           ; BSR set to: 0
  4057  001F32  90D8               	bcf	status,0,c
  4058  001F34  3778               	rlcf	___aodiv@quotient& (0+255),f,b
  4059  001F36  3779               	rlcf	(___aodiv@quotient+1)& (0+255),f,b
  4060  001F38  377A               	rlcf	(___aodiv@quotient+2)& (0+255),f,b
  4061  001F3A  377B               	rlcf	(___aodiv@quotient+3)& (0+255),f,b
  4062  001F3C  377C               	rlcf	(___aodiv@quotient+4)& (0+255),f,b
  4063  001F3E  377D               	rlcf	(___aodiv@quotient+5)& (0+255),f,b
  4064  001F40  377E               	rlcf	(___aodiv@quotient+6)& (0+255),f,b
  4065  001F42  377F               	rlcf	(___aodiv@quotient+7)& (0+255),f,b
  4066  001F44                     
  4067                           ; BSR set to: 0
  4068  001F44  516E               	movf	___aodiv@divisor& (0+255),w,b
  4069  001F46  5D66               	subwf	___aodiv@dividend& (0+255),w,b
  4070  001F48  516F               	movf	(___aodiv@divisor+1)& (0+255),w,b
  4071  001F4A  5967               	subwfb	(___aodiv@dividend+1)& (0+255),w,b
  4072  001F4C  5170               	movf	(___aodiv@divisor+2)& (0+255),w,b
  4073  001F4E  5968               	subwfb	(___aodiv@dividend+2)& (0+255),w,b
  4074  001F50  5171               	movf	(___aodiv@divisor+3)& (0+255),w,b
  4075  001F52  5969               	subwfb	(___aodiv@dividend+3)& (0+255),w,b
  4076  001F54  5172               	movf	(___aodiv@divisor+4)& (0+255),w,b
  4077  001F56  596A               	subwfb	(___aodiv@dividend+4)& (0+255),w,b
  4078  001F58  5173               	movf	(___aodiv@divisor+5)& (0+255),w,b
  4079  001F5A  596B               	subwfb	(___aodiv@dividend+5)& (0+255),w,b
  4080  001F5C  5174               	movf	(___aodiv@divisor+6)& (0+255),w,b
  4081  001F5E  596C               	subwfb	(___aodiv@dividend+6)& (0+255),w,b
  4082  001F60  5175               	movf	(___aodiv@divisor+7)& (0+255),w,b
  4083  001F62  596D               	subwfb	(___aodiv@dividend+7)& (0+255),w,b
  4084  001F64  A0D8               	btfss	status,0,c
  4085  001F66  EFB7  F00F         	goto	u4931
  4086  001F6A  EFB9  F00F         	goto	u4930
  4087  001F6E                     u4931:
  4088  001F6E  EFCA  F00F         	goto	l5102
  4089  001F72                     u4930:
  4090  001F72                     
  4091                           ; BSR set to: 0
  4092  001F72  516E               	movf	___aodiv@divisor& (0+255),w,b
  4093  001F74  5F66               	subwf	___aodiv@dividend& (0+255),f,b
  4094  001F76  516F               	movf	(___aodiv@divisor+1)& (0+255),w,b
  4095  001F78  5B67               	subwfb	(___aodiv@dividend+1)& (0+255),f,b
  4096  001F7A  5170               	movf	(___aodiv@divisor+2)& (0+255),w,b
  4097  001F7C  5B68               	subwfb	(___aodiv@dividend+2)& (0+255),f,b
  4098  001F7E  5171               	movf	(___aodiv@divisor+3)& (0+255),w,b
  4099  001F80  5B69               	subwfb	(___aodiv@dividend+3)& (0+255),f,b
  4100  001F82  5172               	movf	(___aodiv@divisor+4)& (0+255),w,b
  4101  001F84  5B6A               	subwfb	(___aodiv@dividend+4)& (0+255),f,b
  4102  001F86  5173               	movf	(___aodiv@divisor+5)& (0+255),w,b
  4103  001F88  5B6B               	subwfb	(___aodiv@dividend+5)& (0+255),f,b
  4104  001F8A  5174               	movf	(___aodiv@divisor+6)& (0+255),w,b
  4105  001F8C  5B6C               	subwfb	(___aodiv@dividend+6)& (0+255),f,b
  4106  001F8E  5175               	movf	(___aodiv@divisor+7)& (0+255),w,b
  4107  001F90  5B6D               	subwfb	(___aodiv@dividend+7)& (0+255),f,b
  4108  001F92                     
  4109                           ; BSR set to: 0
  4110  001F92  8178               	bsf	___aodiv@quotient& (0+255),0,b
  4111  001F94                     l5102:
  4112                           
  4113                           ; BSR set to: 0
  4114  001F94  90D8               	bcf	status,0,c
  4115  001F96  3375               	rrcf	(___aodiv@divisor+7)& (0+255),f,b
  4116  001F98  3374               	rrcf	(___aodiv@divisor+6)& (0+255),f,b
  4117  001F9A  3373               	rrcf	(___aodiv@divisor+5)& (0+255),f,b
  4118  001F9C  3372               	rrcf	(___aodiv@divisor+4)& (0+255),f,b
  4119  001F9E  3371               	rrcf	(___aodiv@divisor+3)& (0+255),f,b
  4120  001FA0  3370               	rrcf	(___aodiv@divisor+2)& (0+255),f,b
  4121  001FA2  336F               	rrcf	(___aodiv@divisor+1)& (0+255),f,b
  4122  001FA4  336E               	rrcf	___aodiv@divisor& (0+255),f,b
  4123  001FA6                     
  4124                           ; BSR set to: 0
  4125  001FA6  2F76               	decfsz	___aodiv@counter& (0+255),f,b
  4126  001FA8  EF99  F00F         	goto	l5094
  4127  001FAC                     l5106:
  4128                           
  4129                           ; BSR set to: 0
  4130  001FAC  5177               	movf	___aodiv@sign& (0+255),w,b
  4131  001FAE  B4D8               	btfsc	status,2,c
  4132  001FB0  EFDC  F00F         	goto	u4941
  4133  001FB4  EFDE  F00F         	goto	u4940
  4134  001FB8                     u4941:
  4135  001FB8  EFEE  F00F         	goto	l5110
  4136  001FBC                     u4940:
  4137  001FBC                     
  4138                           ; BSR set to: 0
  4139  001FBC  1F7F               	comf	(___aodiv@quotient+7)& (0+255),f,b
  4140  001FBE  1F7E               	comf	(___aodiv@quotient+6)& (0+255),f,b
  4141  001FC0  1F7D               	comf	(___aodiv@quotient+5)& (0+255),f,b
  4142  001FC2  1F7C               	comf	(___aodiv@quotient+4)& (0+255),f,b
  4143  001FC4  1F7B               	comf	(___aodiv@quotient+3)& (0+255),f,b
  4144  001FC6  1F7A               	comf	(___aodiv@quotient+2)& (0+255),f,b
  4145  001FC8  1F79               	comf	(___aodiv@quotient+1)& (0+255),f,b
  4146  001FCA  6D78               	negf	___aodiv@quotient& (0+255),b
  4147  001FCC  0E00               	movlw	0
  4148  001FCE  2379               	addwfc	(___aodiv@quotient+1)& (0+255),f,b
  4149  001FD0  237A               	addwfc	(___aodiv@quotient+2)& (0+255),f,b
  4150  001FD2  237B               	addwfc	(___aodiv@quotient+3)& (0+255),f,b
  4151  001FD4  237C               	addwfc	(___aodiv@quotient+4)& (0+255),f,b
  4152  001FD6  237D               	addwfc	(___aodiv@quotient+5)& (0+255),f,b
  4153  001FD8  237E               	addwfc	(___aodiv@quotient+6)& (0+255),f,b
  4154  001FDA  237F               	addwfc	(___aodiv@quotient+7)& (0+255),f,b
  4155  001FDC                     l5110:
  4156                           
  4157                           ; BSR set to: 0
  4158  001FDC  C078  F066         	movff	___aodiv@quotient,?___aodiv
  4159  001FE0  C079  F067         	movff	___aodiv@quotient+1,?___aodiv+1
  4160  001FE4  C07A  F068         	movff	___aodiv@quotient+2,?___aodiv+2
  4161  001FE8  C07B  F069         	movff	___aodiv@quotient+3,?___aodiv+3
  4162  001FEC  C07C  F06A         	movff	___aodiv@quotient+4,?___aodiv+4
  4163  001FF0  C07D  F06B         	movff	___aodiv@quotient+5,?___aodiv+5
  4164  001FF4  C07E  F06C         	movff	___aodiv@quotient+6,?___aodiv+6
  4165  001FF8  C07F  F06D         	movff	___aodiv@quotient+7,?___aodiv+7
  4166  001FFC                     
  4167                           ; BSR set to: 0
  4168  001FFC  0012               	return		;funcret
  4169  001FFE                     __end_of___aodiv:
  4170                           	opt callstack 0
  4171                           
  4172 ;; *************** function _atoi *****************
  4173 ;; Defined at:
  4174 ;;		line 4 in file "C:\Program Files (x86)\Microchip\xc8\v2.10\pic\sources\c99\common\atoi.c"
  4175 ;; Parameters:    Size  Location     Type
  4176 ;;  s               2   13[BANK0 ] PTR const unsigned char 
  4177 ;;		 -> temp_alarme_string(4), 
  4178 ;; Auto vars:     Size  Location     Type
  4179 ;;  n               2   26[BANK0 ] int 
  4180 ;;  neg             2   19[BANK0 ] int 
  4181 ;; Return value:  Size  Location     Type
  4182 ;;                  2   13[BANK0 ] int 
  4183 ;; Registers used:
  4184 ;;		wreg, fsr2l, fsr2h, status,2, status,0, prodl, prodh, cstack
  4185 ;; Tracked objects:
  4186 ;;		On entry : 0/0
  4187 ;;		On exit  : 0/0
  4188 ;;		Unchanged: 0/0
  4189 ;; Data sizes:     COMRAM   BANK0   BANK1   BANK2   BANK3   BANK4   BANK5
  4190 ;;      Params:         0       2       0       0       0       0       0
  4191 ;;      Locals:         0       9       0       0       0       0       0
  4192 ;;      Temps:          0       4       0       0       0       0       0
  4193 ;;      Totals:         0      15       0       0       0       0       0
  4194 ;;Total ram usage:       15 bytes
  4195 ;; Hardware stack levels used:    1
  4196 ;; Hardware stack levels required when called:    5
  4197 ;; This function calls:
  4198 ;;		___wmul
  4199 ;;		_isdigit
  4200 ;;		_isspace
  4201 ;; This function is called by:
  4202 ;;		_main
  4203 ;; This function uses a non-reentrant model
  4204 ;;
  4205                           
  4206                           	psect	text18
  4207  001CE6                     __ptext18:
  4208                           	opt callstack 0
  4209  001CE6                     _atoi:
  4210                           	opt callstack 25
  4211  001CE6  0E00               	movlw	0
  4212  001CE8  0100               	movlb	0	; () banked
  4213  001CEA  6F7B               	movwf	(atoi@n+1)& (0+255),b
  4214  001CEC  0E00               	movlw	0
  4215  001CEE  6F7A               	movwf	atoi@n& (0+255),b
  4216  001CF0  0E00               	movlw	0
  4217  001CF2  6F74               	movwf	(atoi@neg+1)& (0+255),b
  4218  001CF4  0E00               	movlw	0
  4219  001CF6  6F73               	movwf	atoi@neg& (0+255),b
  4220  001CF8  EF80  F00E         	goto	l4662
  4221  001CFC                     l4660:
  4222                           
  4223                           ; BSR set to: 0
  4224  001CFC  4B6D               	infsnz	atoi@s& (0+255),f,b
  4225  001CFE  2B6E               	incf	(atoi@s+1)& (0+255),f,b
  4226  001D00                     l4662:
  4227                           
  4228                           ; BSR set to: 0
  4229  001D00  0E01               	movlw	1
  4230  001D02  6F79               	movwf	_atoi$2310& (0+255),b
  4231  001D04                     
  4232                           ; BSR set to: 0
  4233  001D04  C06D  FFD9         	movff	atoi@s,fsr2l
  4234  001D08  C06E  FFDA         	movff	atoi@s+1,fsr2h
  4235  001D0C  0E20               	movlw	32
  4236  001D0E  18DE               	xorwf	postinc2,w,c
  4237  001D10  B4D8               	btfsc	status,2,c
  4238  001D12  EF8D  F00E         	goto	u4361
  4239  001D16  EF8F  F00E         	goto	u4360
  4240  001D1A                     u4361:
  4241  001D1A  EFAB  F00E         	goto	l4670
  4242  001D1E                     u4360:
  4243  001D1E                     
  4244                           ; BSR set to: 0
  4245  001D1E  0EF7               	movlw	247
  4246  001D20  6F6F               	movwf	??_atoi& (0+255),b
  4247  001D22  0EFF               	movlw	255
  4248  001D24  6F70               	movwf	(??_atoi+1)& (0+255),b
  4249  001D26  C06D  FFD9         	movff	atoi@s,fsr2l
  4250  001D2A  C06E  FFDA         	movff	atoi@s+1,fsr2h
  4251  001D2E  50DF               	movf	indf2,w,c
  4252  001D30  6F71               	movwf	(??_atoi+2)& (0+255),b
  4253  001D32  6B72               	clrf	(??_atoi+3)& (0+255),b
  4254  001D34  516F               	movf	??_atoi& (0+255),w,b
  4255  001D36  2771               	addwf	(??_atoi+2)& (0+255),f,b
  4256  001D38  5170               	movf	(??_atoi+1)& (0+255),w,b
  4257  001D3A  2372               	addwfc	(??_atoi+3)& (0+255),f,b
  4258  001D3C  5172               	movf	(??_atoi+3)& (0+255),w,b
  4259  001D3E  E109               	bnz	u4370
  4260  001D40  0E05               	movlw	5
  4261  001D42  5D71               	subwf	(??_atoi+2)& (0+255),w,b
  4262  001D44  A0D8               	btfss	status,0,c
  4263  001D46  EFA7  F00E         	goto	u4371
  4264  001D4A  EFA9  F00E         	goto	u4370
  4265  001D4E                     u4371:
  4266  001D4E  EFAB  F00E         	goto	l4670
  4267  001D52                     u4370:
  4268  001D52                     
  4269                           ; BSR set to: 0
  4270  001D52  0E00               	movlw	0
  4271  001D54  6F79               	movwf	_atoi$2310& (0+255),b
  4272  001D56                     l4670:
  4273                           
  4274                           ; BSR set to: 0
  4275  001D56  C079  F075         	movff	_atoi$2310,_atoi$2309
  4276  001D5A  6B76               	clrf	(_atoi$2309+1)& (0+255),b
  4277  001D5C                     
  4278                           ; BSR set to: 0
  4279  001D5C  5175               	movf	_atoi$2309& (0+255),w,b
  4280  001D5E  1176               	iorwf	(_atoi$2309+1)& (0+255),w,b
  4281  001D60  A4D8               	btfss	status,2,c
  4282  001D62  EFB5  F00E         	goto	u4381
  4283  001D66  EFB7  F00E         	goto	u4380
  4284  001D6A                     u4381:
  4285  001D6A  EF7E  F00E         	goto	l4660
  4286  001D6E                     u4380:
  4287  001D6E  EFC1  F00E         	goto	l4680
  4288  001D72                     l4676:
  4289                           
  4290                           ; BSR set to: 0
  4291  001D72  0E00               	movlw	0
  4292  001D74  6F74               	movwf	(atoi@neg+1)& (0+255),b
  4293  001D76  0E01               	movlw	1
  4294  001D78  6F73               	movwf	atoi@neg& (0+255),b
  4295  001D7A                     l4678:
  4296                           
  4297                           ; BSR set to: 0
  4298  001D7A  4B6D               	infsnz	atoi@s& (0+255),f,b
  4299  001D7C  2B6E               	incf	(atoi@s+1)& (0+255),f,b
  4300  001D7E  EFF7  F00E         	goto	l4686
  4301  001D82                     l4680:
  4302                           
  4303                           ; BSR set to: 0
  4304  001D82  C06D  FFD9         	movff	atoi@s,fsr2l
  4305  001D86  C06E  FFDA         	movff	atoi@s+1,fsr2h
  4306  001D8A  50DF               	movf	indf2,w,c
  4307  001D8C  6F6F               	movwf	??_atoi& (0+255),b
  4308  001D8E  6B70               	clrf	(??_atoi+1)& (0+255),b
  4309                           
  4310                           ; Switch on 2 bytes has been partitioned into a top level switch of size 1, and 1 sub-sw
      +                          itches
  4311                           ; Switch size 1, requested type "simple"
  4312                           ; Number of cases is 1, Range of values is 0 to 0
  4313                           ; switch strategies available:
  4314                           ; Name         Instructions Cycles
  4315                           ; simple_byte            4     3 (average)
  4316                           ;	Chosen strategy is simple_byte
  4317  001D90  5170               	movf	(??_atoi+1)& (0+255),w,b
  4318  001D92  0A00               	xorlw	0	; case 0
  4319  001D94  B4D8               	btfsc	status,2,c
  4320  001D96  EFCF  F00E         	goto	l5454
  4321  001D9A  EFF7  F00E         	goto	l4686
  4322  001D9E                     l5454:
  4323                           
  4324                           ; BSR set to: 0
  4325                           ; Switch size 1, requested type "simple"
  4326                           ; Number of cases is 2, Range of values is 43 to 45
  4327                           ; switch strategies available:
  4328                           ; Name         Instructions Cycles
  4329                           ; simple_byte            7     4 (average)
  4330                           ;	Chosen strategy is simple_byte
  4331  001D9E  516F               	movf	??_atoi& (0+255),w,b
  4332  001DA0  0A2B               	xorlw	43	; case 43
  4333  001DA2  B4D8               	btfsc	status,2,c
  4334  001DA4  EFBD  F00E         	goto	l4678
  4335  001DA8  0A06               	xorlw	6	; case 45
  4336  001DAA  B4D8               	btfsc	status,2,c
  4337  001DAC  EFB9  F00E         	goto	l4676
  4338  001DB0  EFF7  F00E         	goto	l4686
  4339  001DB4                     l4682:
  4340                           
  4341                           ; BSR set to: 0
  4342  001DB4  C07A  F066         	movff	atoi@n,___wmul@multiplier
  4343  001DB8  C07B  F067         	movff	atoi@n+1,___wmul@multiplier+1
  4344  001DBC  0E00               	movlw	0
  4345  001DBE  6F69               	movwf	(___wmul@multiplicand+1)& (0+255),b
  4346  001DC0  0E0A               	movlw	10
  4347  001DC2  6F68               	movwf	___wmul@multiplicand& (0+255),b
  4348  001DC4  ECB0  F017         	call	___wmul	;wreg free
  4349  001DC8  C06D  FFD9         	movff	atoi@s,fsr2l
  4350  001DCC  C06E  FFDA         	movff	atoi@s+1,fsr2h
  4351  001DD0  50DF               	movf	indf2,w,c
  4352  001DD2  0100               	movlb	0	; () banked
  4353  001DD4  6F6F               	movwf	??_atoi& (0+255),b
  4354  001DD6  516F               	movf	??_atoi& (0+255),w,b
  4355  001DD8  5F66               	subwf	?___wmul& (0+255),f,b
  4356  001DDA  0E00               	movlw	0
  4357  001DDC  5B67               	subwfb	(?___wmul+1)& (0+255),f,b
  4358  001DDE  0E30               	movlw	48
  4359  001DE0  2566               	addwf	?___wmul& (0+255),w,b
  4360  001DE2  6F7A               	movwf	atoi@n& (0+255),b
  4361  001DE4  0E00               	movlw	0
  4362  001DE6  2167               	addwfc	(?___wmul+1)& (0+255),w,b
  4363  001DE8  6F7B               	movwf	(atoi@n+1)& (0+255),b
  4364  001DEA  EFBD  F00E         	goto	l4678
  4365  001DEE                     l4686:
  4366                           
  4367                           ; BSR set to: 0
  4368  001DEE  0ED0               	movlw	208
  4369  001DF0  6F6F               	movwf	??_atoi& (0+255),b
  4370  001DF2  0EFF               	movlw	255
  4371  001DF4  6F70               	movwf	(??_atoi+1)& (0+255),b
  4372  001DF6  C06D  FFD9         	movff	atoi@s,fsr2l
  4373  001DFA  C06E  FFDA         	movff	atoi@s+1,fsr2h
  4374  001DFE  50DF               	movf	indf2,w,c
  4375  001E00  6F71               	movwf	(??_atoi+2)& (0+255),b
  4376  001E02  6B72               	clrf	(??_atoi+3)& (0+255),b
  4377  001E04  516F               	movf	??_atoi& (0+255),w,b
  4378  001E06  2771               	addwf	(??_atoi+2)& (0+255),f,b
  4379  001E08  5170               	movf	(??_atoi+1)& (0+255),w,b
  4380  001E0A  2372               	addwfc	(??_atoi+3)& (0+255),f,b
  4381  001E0C  5172               	movf	(??_atoi+3)& (0+255),w,b
  4382  001E0E  E10A               	bnz	u4390
  4383  001E10  0E0A               	movlw	10
  4384  001E12  5D71               	subwf	(??_atoi+2)& (0+255),w,b
  4385  001E14  A0D8               	btfss	status,0,c
  4386  001E16  EF0F  F00F         	goto	u4391
  4387  001E1A  EF12  F00F         	goto	u4390
  4388  001E1E                     u4391:
  4389  001E1E  0E01               	movlw	1
  4390  001E20  EF13  F00F         	goto	u4400
  4391  001E24                     u4390:
  4392  001E24  0E00               	movlw	0
  4393  001E26                     u4400:
  4394  001E26  6F77               	movwf	_atoi$2311& (0+255),b
  4395  001E28  6B78               	clrf	(_atoi$2311+1)& (0+255),b
  4396  001E2A                     
  4397                           ; BSR set to: 0
  4398  001E2A  5177               	movf	_atoi$2311& (0+255),w,b
  4399  001E2C  1178               	iorwf	(_atoi$2311+1)& (0+255),w,b
  4400  001E2E  A4D8               	btfss	status,2,c
  4401  001E30  EF1C  F00F         	goto	u4411
  4402  001E34  EF1E  F00F         	goto	u4410
  4403  001E38                     u4411:
  4404  001E38  EFDA  F00E         	goto	l4682
  4405  001E3C                     u4410:
  4406  001E3C                     
  4407                           ; BSR set to: 0
  4408  001E3C  5173               	movf	atoi@neg& (0+255),w,b
  4409  001E3E  1174               	iorwf	(atoi@neg+1)& (0+255),w,b
  4410  001E40  A4D8               	btfss	status,2,c
  4411  001E42  EF25  F00F         	goto	u4421
  4412  001E46  EF27  F00F         	goto	u4420
  4413  001E4A                     u4421:
  4414  001E4A  EF35  F00F         	goto	l1521
  4415  001E4E                     u4420:
  4416  001E4E                     
  4417                           ; BSR set to: 0
  4418  001E4E  C07A  F06F         	movff	atoi@n,??_atoi
  4419  001E52  C07B  F070         	movff	atoi@n+1,??_atoi+1
  4420  001E56  1F6F               	comf	??_atoi& (0+255),f,b
  4421  001E58  1F70               	comf	(??_atoi+1)& (0+255),f,b
  4422  001E5A  4B6F               	infsnz	??_atoi& (0+255),f,b
  4423  001E5C  2B70               	incf	(??_atoi+1)& (0+255),f,b
  4424  001E5E  C06F  F06D         	movff	??_atoi,?_atoi
  4425  001E62  C070  F06E         	movff	??_atoi+1,?_atoi+1
  4426  001E66  EF39  F00F         	goto	l1524
  4427  001E6A                     l1521:
  4428                           
  4429                           ; BSR set to: 0
  4430  001E6A  C07A  F06D         	movff	atoi@n,?_atoi
  4431  001E6E  C07B  F06E         	movff	atoi@n+1,?_atoi+1
  4432  001E72                     l1524:
  4433                           
  4434                           ; BSR set to: 0
  4435  001E72  0012               	return		;funcret
  4436  001E74                     __end_of_atoi:
  4437                           	opt callstack 0
  4438                           
  4439 ;; *************** function _isspace *****************
  4440 ;; Defined at:
  4441 ;;		line 5 in file "C:\Program Files (x86)\Microchip\xc8\v2.10\pic\sources\c99\common\isspace.c"
  4442 ;; Parameters:    Size  Location     Type
  4443 ;;  c               2    6[BANK0 ] int 
  4444 ;; Auto vars:     Size  Location     Type
  4445 ;;		None
  4446 ;; Return value:  Size  Location     Type
  4447 ;;                  2    6[BANK0 ] int 
  4448 ;; Registers used:
  4449 ;;		wreg, status,2, status,0
  4450 ;; Tracked objects:
  4451 ;;		On entry : 0/0
  4452 ;;		On exit  : 0/0
  4453 ;;		Unchanged: 0/0
  4454 ;; Data sizes:     COMRAM   BANK0   BANK1   BANK2   BANK3   BANK4   BANK5
  4455 ;;      Params:         0       2       0       0       0       0       0
  4456 ;;      Locals:         0       1       0       0       0       0       0
  4457 ;;      Temps:          0       4       0       0       0       0       0
  4458 ;;      Totals:         0       7       0       0       0       0       0
  4459 ;;Total ram usage:        7 bytes
  4460 ;; Hardware stack levels used:    1
  4461 ;; Hardware stack levels required when called:    4
  4462 ;; This function calls:
  4463 ;;		Nothing
  4464 ;; This function is called by:
  4465 ;;		_atoi
  4466 ;; This function uses a non-reentrant model
  4467 ;;
  4468                           
  4469                           	psect	text19
  4470  002A9C                     __ptext19:
  4471                           	opt callstack 0
  4472  002A9C                     _isspace:
  4473                           	opt callstack 25
  4474  002A9C  0E01               	movlw	1
  4475  002A9E  0100               	movlb	0	; () banked
  4476  002AA0  6F6C               	movwf	_isspace$2327& (0+255),b
  4477  002AA2                     
  4478                           ; BSR set to: 0
  4479  002AA2  0E20               	movlw	32
  4480  002AA4  1966               	xorwf	isspace@c& (0+255),w,b
  4481  002AA6  1167               	iorwf	(isspace@c+1)& (0+255),w,b
  4482  002AA8  B4D8               	btfsc	status,2,c
  4483  002AAA  EF59  F015         	goto	u4121
  4484  002AAE  EF5B  F015         	goto	u4120
  4485  002AB2                     u4121:
  4486  002AB2  EF74  F015         	goto	l4514
  4487  002AB6                     u4120:
  4488  002AB6                     
  4489                           ; BSR set to: 0
  4490  002AB6  0EF7               	movlw	247
  4491  002AB8  6F68               	movwf	??_isspace& (0+255),b
  4492  002ABA  0EFF               	movlw	255
  4493  002ABC  6F69               	movwf	(??_isspace+1)& (0+255),b
  4494  002ABE  C066  F06A         	movff	isspace@c,??_isspace+2
  4495  002AC2  C067  F06B         	movff	isspace@c+1,??_isspace+3
  4496  002AC6  5168               	movf	??_isspace& (0+255),w,b
  4497  002AC8  276A               	addwf	(??_isspace+2)& (0+255),f,b
  4498  002ACA  5169               	movf	(??_isspace+1)& (0+255),w,b
  4499  002ACC  236B               	addwfc	(??_isspace+3)& (0+255),f,b
  4500  002ACE  516B               	movf	(??_isspace+3)& (0+255),w,b
  4501  002AD0  E109               	bnz	u4130
  4502  002AD2  0E05               	movlw	5
  4503  002AD4  5D6A               	subwf	(??_isspace+2)& (0+255),w,b
  4504  002AD6  A0D8               	btfss	status,0,c
  4505  002AD8  EF70  F015         	goto	u4131
  4506  002ADC  EF72  F015         	goto	u4130
  4507  002AE0                     u4131:
  4508  002AE0  EF74  F015         	goto	l4514
  4509  002AE4                     u4130:
  4510  002AE4                     
  4511                           ; BSR set to: 0
  4512  002AE4  0E00               	movlw	0
  4513  002AE6  6F6C               	movwf	_isspace$2327& (0+255),b
  4514  002AE8                     l4514:
  4515                           
  4516                           ; BSR set to: 0
  4517  002AE8  C06C  F066         	movff	_isspace$2327,?_isspace
  4518  002AEC  6B67               	clrf	(?_isspace+1)& (0+255),b
  4519  002AEE                     
  4520                           ; BSR set to: 0
  4521  002AEE  0012               	return		;funcret
  4522  002AF0                     __end_of_isspace:
  4523                           	opt callstack 0
  4524                           
  4525 ;; *************** function _isdigit *****************
  4526 ;; Defined at:
  4527 ;;		line 5 in file "C:\Program Files (x86)\Microchip\xc8\v2.10\pic\sources\c99\common\isdigit.c"
  4528 ;; Parameters:    Size  Location     Type
  4529 ;;  c               2    6[BANK0 ] int 
  4530 ;; Auto vars:     Size  Location     Type
  4531 ;;		None
  4532 ;; Return value:  Size  Location     Type
  4533 ;;                  2    6[BANK0 ] int 
  4534 ;; Registers used:
  4535 ;;		wreg, status,2, status,0
  4536 ;; Tracked objects:
  4537 ;;		On entry : 0/0
  4538 ;;		On exit  : 0/0
  4539 ;;		Unchanged: 0/0
  4540 ;; Data sizes:     COMRAM   BANK0   BANK1   BANK2   BANK3   BANK4   BANK5
  4541 ;;      Params:         0       2       0       0       0       0       0
  4542 ;;      Locals:         0       0       0       0       0       0       0
  4543 ;;      Temps:          0       4       0       0       0       0       0
  4544 ;;      Totals:         0       6       0       0       0       0       0
  4545 ;;Total ram usage:        6 bytes
  4546 ;; Hardware stack levels used:    1
  4547 ;; Hardware stack levels required when called:    4
  4548 ;; This function calls:
  4549 ;;		Nothing
  4550 ;; This function is called by:
  4551 ;;		_atoi
  4552 ;; This function uses a non-reentrant model
  4553 ;;
  4554                           
  4555                           	psect	text20
  4556  002D9E                     __ptext20:
  4557                           	opt callstack 0
  4558  002D9E                     _isdigit:
  4559                           	opt callstack 25
  4560  002D9E  0ED0               	movlw	208
  4561  002DA0  0100               	movlb	0	; () banked
  4562  002DA2  6F68               	movwf	??_isdigit& (0+255),b
  4563  002DA4  0EFF               	movlw	255
  4564  002DA6  6F69               	movwf	(??_isdigit+1)& (0+255),b
  4565  002DA8  C066  F06A         	movff	isdigit@c,??_isdigit+2
  4566  002DAC  C067  F06B         	movff	isdigit@c+1,??_isdigit+3
  4567  002DB0  5168               	movf	??_isdigit& (0+255),w,b
  4568  002DB2  276A               	addwf	(??_isdigit+2)& (0+255),f,b
  4569  002DB4  5169               	movf	(??_isdigit+1)& (0+255),w,b
  4570  002DB6  236B               	addwfc	(??_isdigit+3)& (0+255),f,b
  4571  002DB8  516B               	movf	(??_isdigit+3)& (0+255),w,b
  4572  002DBA  E10A               	bnz	u4140
  4573  002DBC  0E0A               	movlw	10
  4574  002DBE  5D6A               	subwf	(??_isdigit+2)& (0+255),w,b
  4575  002DC0  A0D8               	btfss	status,0,c
  4576  002DC2  EFE5  F016         	goto	u4141
  4577  002DC6  EFE8  F016         	goto	u4140
  4578  002DCA                     u4141:
  4579  002DCA  0E01               	movlw	1
  4580  002DCC  EFE9  F016         	goto	u4150
  4581  002DD0                     u4140:
  4582  002DD0  0E00               	movlw	0
  4583  002DD2                     u4150:
  4584  002DD2  6F66               	movwf	?_isdigit& (0+255),b
  4585  002DD4  6B67               	clrf	(?_isdigit+1)& (0+255),b
  4586  002DD6                     
  4587                           ; BSR set to: 0
  4588  002DD6  0012               	return		;funcret
  4589  002DD8                     __end_of_isdigit:
  4590                           	opt callstack 0
  4591                           
  4592 ;; *************** function ___wmul *****************
  4593 ;; Defined at:
  4594 ;;		line 15 in file "C:\Program Files (x86)\Microchip\xc8\v2.10\pic\sources\c99\common\Umul16.c"
  4595 ;; Parameters:    Size  Location     Type
  4596 ;;  multiplier      2    6[BANK0 ] unsigned int 
  4597 ;;  multiplicand    2    8[BANK0 ] unsigned int 
  4598 ;; Auto vars:     Size  Location     Type
  4599 ;;  product         2   10[BANK0 ] unsigned int 
  4600 ;; Return value:  Size  Location     Type
  4601 ;;                  2    6[BANK0 ] unsigned int 
  4602 ;; Registers used:
  4603 ;;		wreg, status,2, status,0, prodl, prodh
  4604 ;; Tracked objects:
  4605 ;;		On entry : 0/0
  4606 ;;		On exit  : 0/0
  4607 ;;		Unchanged: 0/0
  4608 ;; Data sizes:     COMRAM   BANK0   BANK1   BANK2   BANK3   BANK4   BANK5
  4609 ;;      Params:         0       4       0       0       0       0       0
  4610 ;;      Locals:         0       2       0       0       0       0       0
  4611 ;;      Temps:          0       0       0       0       0       0       0
  4612 ;;      Totals:         0       6       0       0       0       0       0
  4613 ;;Total ram usage:        6 bytes
  4614 ;; Hardware stack levels used:    1
  4615 ;; Hardware stack levels required when called:    4
  4616 ;; This function calls:
  4617 ;;		Nothing
  4618 ;; This function is called by:
  4619 ;;		_atoi
  4620 ;; This function uses a non-reentrant model
  4621 ;;
  4622                           
  4623                           	psect	text21
  4624  002F60                     __ptext21:
  4625                           	opt callstack 0
  4626  002F60                     ___wmul:
  4627                           	opt callstack 25
  4628  002F60  0100               	movlb	0	; () banked
  4629  002F62  5166               	movf	___wmul@multiplier& (0+255),w,b
  4630  002F64  0368               	mulwf	___wmul@multiplicand& (0+255),b
  4631  002F66  CFF3 F06A          	movff	prodl,___wmul@product
  4632  002F6A  CFF4 F06B          	movff	prodh,___wmul@product+1
  4633  002F6E  5166               	movf	___wmul@multiplier& (0+255),w,b
  4634  002F70  0369               	mulwf	(___wmul@multiplicand+1)& (0+255),b
  4635  002F72  50F3               	movf	243,w,c
  4636  002F74  276B               	addwf	(___wmul@product+1)& (0+255),f,b
  4637  002F76  5167               	movf	(___wmul@multiplier+1)& (0+255),w,b
  4638  002F78  0368               	mulwf	___wmul@multiplicand& (0+255),b
  4639  002F7A  50F3               	movf	243,w,c
  4640  002F7C  276B               	addwf	(___wmul@product+1)& (0+255),f,b
  4641  002F7E                     
  4642                           ; BSR set to: 0
  4643  002F7E  C06A  F066         	movff	___wmul@product,?___wmul
  4644  002F82  C06B  F067         	movff	___wmul@product+1,?___wmul+1
  4645  002F86                     
  4646                           ; BSR set to: 0
  4647  002F86  0012               	return		;funcret
  4648  002F88                     __end_of___wmul:
  4649                           	opt callstack 0
  4650                           
  4651 ;; *************** function _SYSTEM_Initialize *****************
  4652 ;; Defined at:
  4653 ;;		line 50 in file "mcc_generated_files/mcc.c"
  4654 ;; Parameters:    Size  Location     Type
  4655 ;;		None
  4656 ;; Auto vars:     Size  Location     Type
  4657 ;;		None
  4658 ;; Return value:  Size  Location     Type
  4659 ;;                  1    wreg      void 
  4660 ;; Registers used:
  4661 ;;		wreg, status,2, status,0, cstack
  4662 ;; Tracked objects:
  4663 ;;		On entry : 0/0
  4664 ;;		On exit  : 0/0
  4665 ;;		Unchanged: 0/0
  4666 ;; Data sizes:     COMRAM   BANK0   BANK1   BANK2   BANK3   BANK4   BANK5
  4667 ;;      Params:         0       0       0       0       0       0       0
  4668 ;;      Locals:         0       0       0       0       0       0       0
  4669 ;;      Temps:          0       0       0       0       0       0       0
  4670 ;;      Totals:         0       0       0       0       0       0       0
  4671 ;;Total ram usage:        0 bytes
  4672 ;; Hardware stack levels used:    1
  4673 ;; Hardware stack levels required when called:    6
  4674 ;; This function calls:
  4675 ;;		_ADC_Initialize
  4676 ;;		_EPWM1_Initialize
  4677 ;;		_EUSART1_Initialize
  4678 ;;		_EXT_INT_Initialize
  4679 ;;		_INTERRUPT_Initialize
  4680 ;;		_OSCILLATOR_Initialize
  4681 ;;		_PIN_MANAGER_Initialize
  4682 ;;		_TMR0_Initialize
  4683 ;;		_TMR2_Initialize
  4684 ;; This function is called by:
  4685 ;;		_main
  4686 ;; This function uses a non-reentrant model
  4687 ;;
  4688                           
  4689                           	psect	text22
  4690  002FB0                     __ptext22:
  4691                           	opt callstack 0
  4692  002FB0                     _SYSTEM_Initialize:
  4693                           	opt callstack 24
  4694  002FB0                     
  4695                           ;mcc_generated_files/mcc.c: 53:     INTERRUPT_Initialize();
  4696  002FB0  EC6B  F018         	call	_INTERRUPT_Initialize	;wreg free
  4697  002FB4                     
  4698                           ;mcc_generated_files/mcc.c: 54:     PIN_MANAGER_Initialize();
  4699  002FB4  ECE8  F015         	call	_PIN_MANAGER_Initialize	;wreg free
  4700  002FB8                     
  4701                           ;mcc_generated_files/mcc.c: 55:     OSCILLATOR_Initialize();
  4702  002FB8  EC64  F018         	call	_OSCILLATOR_Initialize	;wreg free
  4703  002FBC                     
  4704                           ;mcc_generated_files/mcc.c: 56:     ADC_Initialize();
  4705  002FBC  ECEB  F017         	call	_ADC_Initialize	;wreg free
  4706  002FC0                     
  4707                           ;mcc_generated_files/mcc.c: 57:     EPWM1_Initialize();
  4708  002FC0  EC11  F018         	call	_EPWM1_Initialize	;wreg free
  4709  002FC4                     
  4710                           ;mcc_generated_files/mcc.c: 58:     TMR2_Initialize();
  4711  002FC4  EC4D  F018         	call	_TMR2_Initialize	;wreg free
  4712  002FC8                     
  4713                           ;mcc_generated_files/mcc.c: 59:     EXT_INT_Initialize();
  4714  002FC8  EC93  F016         	call	_EXT_INT_Initialize	;wreg free
  4715  002FCC                     
  4716                           ;mcc_generated_files/mcc.c: 60:     TMR0_Initialize();
  4717  002FCC  EC09  F017         	call	_TMR0_Initialize	;wreg free
  4718  002FD0                     
  4719                           ;mcc_generated_files/mcc.c: 61:     EUSART1_Initialize();
  4720  002FD0  ECBE  F014         	call	_EUSART1_Initialize	;wreg free
  4721  002FD4  0012               	return		;funcret
  4722  002FD6                     __end_of_SYSTEM_Initialize:
  4723                           	opt callstack 0
  4724                           
  4725 ;; *************** function _TMR2_Initialize *****************
  4726 ;; Defined at:
  4727 ;;		line 62 in file "mcc_generated_files/tmr2.c"
  4728 ;; Parameters:    Size  Location     Type
  4729 ;;		None
  4730 ;; Auto vars:     Size  Location     Type
  4731 ;;		None
  4732 ;; Return value:  Size  Location     Type
  4733 ;;                  1    wreg      void 
  4734 ;; Registers used:
  4735 ;;		wreg, status,2
  4736 ;; Tracked objects:
  4737 ;;		On entry : 0/0
  4738 ;;		On exit  : 0/0
  4739 ;;		Unchanged: 0/0
  4740 ;; Data sizes:     COMRAM   BANK0   BANK1   BANK2   BANK3   BANK4   BANK5
  4741 ;;      Params:         0       0       0       0       0       0       0
  4742 ;;      Locals:         0       0       0       0       0       0       0
  4743 ;;      Temps:          0       0       0       0       0       0       0
  4744 ;;      Totals:         0       0       0       0       0       0       0
  4745 ;;Total ram usage:        0 bytes
  4746 ;; Hardware stack levels used:    1
  4747 ;; Hardware stack levels required when called:    4
  4748 ;; This function calls:
  4749 ;;		Nothing
  4750 ;; This function is called by:
  4751 ;;		_SYSTEM_Initialize
  4752 ;; This function uses a non-reentrant model
  4753 ;;
  4754                           
  4755                           	psect	text23
  4756  00309A                     __ptext23:
  4757                           	opt callstack 0
  4758  00309A                     _TMR2_Initialize:
  4759                           	opt callstack 25
  4760  00309A                     
  4761                           ;mcc_generated_files/tmr2.c: 67:     PR2 = 0x4A;
  4762  00309A  0E4A               	movlw	74
  4763  00309C  6EBB               	movwf	187,c	;volatile
  4764                           
  4765                           ;mcc_generated_files/tmr2.c: 70:     TMR2 = 0x00;
  4766  00309E  0E00               	movlw	0
  4767  0030A0  6EBC               	movwf	188,c	;volatile
  4768  0030A2                     
  4769                           ;mcc_generated_files/tmr2.c: 73:     PIR1bits.TMR2IF = 0;
  4770  0030A2  929E               	bcf	158,1,c	;volatile
  4771                           
  4772                           ;mcc_generated_files/tmr2.c: 76:     T2CON = 0x05;
  4773  0030A4  0E05               	movlw	5
  4774  0030A6  6EBA               	movwf	186,c	;volatile
  4775  0030A8  0012               	return		;funcret
  4776  0030AA                     __end_of_TMR2_Initialize:
  4777                           	opt callstack 0
  4778                           
  4779 ;; *************** function _TMR0_Initialize *****************
  4780 ;; Defined at:
  4781 ;;		line 67 in file "mcc_generated_files/tmr0.c"
  4782 ;; Parameters:    Size  Location     Type
  4783 ;;		None
  4784 ;; Auto vars:     Size  Location     Type
  4785 ;;		None
  4786 ;; Return value:  Size  Location     Type
  4787 ;;                  1    wreg      void 
  4788 ;; Registers used:
  4789 ;;		wreg, status,2, status,0, cstack
  4790 ;; Tracked objects:
  4791 ;;		On entry : 0/0
  4792 ;;		On exit  : 0/0
  4793 ;;		Unchanged: 0/0
  4794 ;; Data sizes:     COMRAM   BANK0   BANK1   BANK2   BANK3   BANK4   BANK5
  4795 ;;      Params:         0       0       0       0       0       0       0
  4796 ;;      Locals:         0       0       0       0       0       0       0
  4797 ;;      Temps:          0       2       0       0       0       0       0
  4798 ;;      Totals:         0       2       0       0       0       0       0
  4799 ;;Total ram usage:        2 bytes
  4800 ;; Hardware stack levels used:    1
  4801 ;; Hardware stack levels required when called:    5
  4802 ;; This function calls:
  4803 ;;		_TMR0_SetInterruptHandler
  4804 ;; This function is called by:
  4805 ;;		_SYSTEM_Initialize
  4806 ;; This function uses a non-reentrant model
  4807 ;;
  4808                           
  4809                           	psect	text24
  4810  002E12                     __ptext24:
  4811                           	opt callstack 0
  4812  002E12                     _TMR0_Initialize:
  4813                           	opt callstack 24
  4814  002E12                     
  4815                           ;mcc_generated_files/tmr0.c: 72:     T0CONbits.T08BIT = 0;
  4816  002E12  9CD5               	bcf	213,6,c	;volatile
  4817  002E14                     
  4818                           ;mcc_generated_files/tmr0.c: 75:     TMR0H = 0x48;
  4819  002E14  0E48               	movlw	72
  4820  002E16  6ED7               	movwf	215,c	;volatile
  4821                           
  4822                           ;mcc_generated_files/tmr0.c: 78:     TMR0L = 0xE4;
  4823  002E18  0EE4               	movlw	228
  4824  002E1A  6ED6               	movwf	214,c	;volatile
  4825  002E1C                     
  4826                           ;mcc_generated_files/tmr0.c: 82:     timer0ReloadVal = (uint16_t)((TMR0H << 8) | TMR0L);
  4827  002E1C  50D6               	movf	214,w,c	;volatile
  4828  002E1E  CFD7 F068          	movff	4055,??_TMR0_Initialize	;volatile
  4829  002E22  0100               	movlb	0	; () banked
  4830  002E24  6B69               	clrf	(??_TMR0_Initialize+1)& (0+255),b
  4831  002E26  C068  F069         	movff	??_TMR0_Initialize,??_TMR0_Initialize+1
  4832  002E2A  6B68               	clrf	??_TMR0_Initialize& (0+255),b
  4833  002E2C  1168               	iorwf	??_TMR0_Initialize& (0+255),w,b
  4834  002E2E  6FF3               	movwf	_timer0ReloadVal& (0+255),b	;volatile
  4835  002E30  5169               	movf	(??_TMR0_Initialize+1)& (0+255),w,b
  4836  002E32  6FF4               	movwf	(_timer0ReloadVal+1)& (0+255),b	;volatile
  4837  002E34                     
  4838                           ; BSR set to: 0
  4839                           ;mcc_generated_files/tmr0.c: 85:     INTCONbits.TMR0IF = 0;
  4840  002E34  94F2               	bcf	242,2,c	;volatile
  4841  002E36                     
  4842                           ; BSR set to: 0
  4843                           ;mcc_generated_files/tmr0.c: 88:     INTCONbits.TMR0IE = 1;
  4844  002E36  8AF2               	bsf	242,5,c	;volatile
  4845  002E38                     
  4846                           ; BSR set to: 0
  4847                           ;mcc_generated_files/tmr0.c: 91:     TMR0_SetInterruptHandler(TMR0_DefaultInterruptHandl
      +                          er);
  4848  002E38  0E6C               	movlw	low _TMR0_DefaultInterruptHandler
  4849  002E3A  6F66               	movwf	TMR0_SetInterruptHandler@InterruptHandler& (0+255),b
  4850  002E3C  0E31               	movlw	high _TMR0_DefaultInterruptHandler
  4851  002E3E  6F67               	movwf	(TMR0_SetInterruptHandler@InterruptHandler+1)& (0+255),b
  4852  002E40  EC72  F018         	call	_TMR0_SetInterruptHandler	;wreg free
  4853  002E44                     
  4854                           ;mcc_generated_files/tmr0.c: 94:     T0CON = 0x93;
  4855  002E44  0E93               	movlw	147
  4856  002E46  6ED5               	movwf	213,c	;volatile
  4857  002E48  0012               	return		;funcret
  4858  002E4A                     __end_of_TMR0_Initialize:
  4859                           	opt callstack 0
  4860                           
  4861 ;; *************** function _TMR0_SetInterruptHandler *****************
  4862 ;; Defined at:
  4863 ;;		line 156 in file "mcc_generated_files/tmr0.c"
  4864 ;; Parameters:    Size  Location     Type
  4865 ;;  InterruptHan    2    6[BANK0 ] PTR FTN()void 
  4866 ;;		 -> Timer_0(1), TMR0_DefaultInterruptHandler(1), 
  4867 ;; Auto vars:     Size  Location     Type
  4868 ;;		None
  4869 ;; Return value:  Size  Location     Type
  4870 ;;                  1    wreg      void 
  4871 ;; Registers used:
  4872 ;;		wreg, status,2, status,0
  4873 ;; Tracked objects:
  4874 ;;		On entry : 0/0
  4875 ;;		On exit  : 0/0
  4876 ;;		Unchanged: 0/0
  4877 ;; Data sizes:     COMRAM   BANK0   BANK1   BANK2   BANK3   BANK4   BANK5
  4878 ;;      Params:         0       2       0       0       0       0       0
  4879 ;;      Locals:         0       0       0       0       0       0       0
  4880 ;;      Temps:          0       0       0       0       0       0       0
  4881 ;;      Totals:         0       2       0       0       0       0       0
  4882 ;;Total ram usage:        2 bytes
  4883 ;; Hardware stack levels used:    1
  4884 ;; Hardware stack levels required when called:    4
  4885 ;; This function calls:
  4886 ;;		Nothing
  4887 ;; This function is called by:
  4888 ;;		_TMR0_Initialize
  4889 ;;		_main
  4890 ;; This function uses a non-reentrant model
  4891 ;;
  4892                           
  4893                           	psect	text25
  4894  0030E4                     __ptext25:
  4895                           	opt callstack 0
  4896  0030E4                     _TMR0_SetInterruptHandler:
  4897                           	opt callstack 26
  4898  0030E4                     
  4899                           ;mcc_generated_files/tmr0.c: 157:     TMR0_InterruptHandler = InterruptHandler;
  4900  0030E4  C066  F0F5         	movff	TMR0_SetInterruptHandler@InterruptHandler,_TMR0_InterruptHandler
  4901  0030E8  C067  F0F6         	movff	TMR0_SetInterruptHandler@InterruptHandler+1,_TMR0_InterruptHandler+1
  4902  0030EC  0012               	return		;funcret
  4903  0030EE                     __end_of_TMR0_SetInterruptHandler:
  4904                           	opt callstack 0
  4905                           
  4906 ;; *************** function _PIN_MANAGER_Initialize *****************
  4907 ;; Defined at:
  4908 ;;		line 55 in file "mcc_generated_files/pin_manager.c"
  4909 ;; Parameters:    Size  Location     Type
  4910 ;;		None
  4911 ;; Auto vars:     Size  Location     Type
  4912 ;;		None
  4913 ;; Return value:  Size  Location     Type
  4914 ;;                  1    wreg      void 
  4915 ;; Registers used:
  4916 ;;		wreg, status,2
  4917 ;; Tracked objects:
  4918 ;;		On entry : 0/0
  4919 ;;		On exit  : 0/0
  4920 ;;		Unchanged: 0/0
  4921 ;; Data sizes:     COMRAM   BANK0   BANK1   BANK2   BANK3   BANK4   BANK5
  4922 ;;      Params:         0       0       0       0       0       0       0
  4923 ;;      Locals:         0       0       0       0       0       0       0
  4924 ;;      Temps:          0       0       0       0       0       0       0
  4925 ;;      Totals:         0       0       0       0       0       0       0
  4926 ;;Total ram usage:        0 bytes
  4927 ;; Hardware stack levels used:    1
  4928 ;; Hardware stack levels required when called:    4
  4929 ;; This function calls:
  4930 ;;		Nothing
  4931 ;; This function is called by:
  4932 ;;		_SYSTEM_Initialize
  4933 ;; This function uses a non-reentrant model
  4934 ;;
  4935                           
  4936                           	psect	text26
  4937  002BD0                     __ptext26:
  4938                           	opt callstack 0
  4939  002BD0                     _PIN_MANAGER_Initialize:
  4940                           	opt callstack 25
  4941  002BD0                     
  4942                           ;mcc_generated_files/pin_manager.c: 60:     LATE = 0x00;
  4943  002BD0  0E00               	movlw	0
  4944  002BD2  6E8D               	movwf	141,c	;volatile
  4945                           
  4946                           ;mcc_generated_files/pin_manager.c: 61:     LATD = 0x00;
  4947  002BD4  0E00               	movlw	0
  4948  002BD6  6E8C               	movwf	140,c	;volatile
  4949                           
  4950                           ;mcc_generated_files/pin_manager.c: 62:     LATA = 0x00;
  4951  002BD8  0E00               	movlw	0
  4952  002BDA  6E89               	movwf	137,c	;volatile
  4953                           
  4954                           ;mcc_generated_files/pin_manager.c: 63:     LATB = 0x00;
  4955  002BDC  0E00               	movlw	0
  4956  002BDE  6E8A               	movwf	138,c	;volatile
  4957                           
  4958                           ;mcc_generated_files/pin_manager.c: 64:     LATC = 0x00;
  4959  002BE0  0E00               	movlw	0
  4960  002BE2  6E8B               	movwf	139,c	;volatile
  4961                           
  4962                           ;mcc_generated_files/pin_manager.c: 69:     TRISE = 0x07;
  4963  002BE4  0E07               	movlw	7
  4964  002BE6  6E96               	movwf	150,c	;volatile
  4965                           
  4966                           ;mcc_generated_files/pin_manager.c: 70:     TRISA = 0xFD;
  4967  002BE8  0EFD               	movlw	253
  4968  002BEA  6E92               	movwf	146,c	;volatile
  4969                           
  4970                           ;mcc_generated_files/pin_manager.c: 71:     TRISB = 0x87;
  4971  002BEC  0E87               	movlw	135
  4972  002BEE  6E93               	movwf	147,c	;volatile
  4973                           
  4974                           ;mcc_generated_files/pin_manager.c: 72:     TRISC = 0xBB;
  4975  002BF0  0EBB               	movlw	187
  4976  002BF2  6E94               	movwf	148,c	;volatile
  4977                           
  4978                           ;mcc_generated_files/pin_manager.c: 73:     TRISD = 0x00;
  4979  002BF4  0E00               	movlw	0
  4980  002BF6  6E95               	movwf	149,c	;volatile
  4981                           
  4982                           ;mcc_generated_files/pin_manager.c: 78:     ANSELD = 0x00;
  4983  002BF8  0E00               	movlw	0
  4984  002BFA  010F               	movlb	15	; () banked
  4985  002BFC  6F3B               	movwf	59,b	;volatile
  4986                           
  4987                           ;mcc_generated_files/pin_manager.c: 79:     ANSELC = 0x38;
  4988  002BFE  0E38               	movlw	56
  4989  002C00  6F3A               	movwf	58,b	;volatile
  4990                           
  4991                           ;mcc_generated_files/pin_manager.c: 80:     ANSELB = 0x00;
  4992  002C02  0E00               	movlw	0
  4993  002C04  6F39               	movwf	57,b	;volatile
  4994                           
  4995                           ;mcc_generated_files/pin_manager.c: 81:     ANSELE = 0x07;
  4996  002C06  0E07               	movlw	7
  4997  002C08  6F3C               	movwf	60,b	;volatile
  4998                           
  4999                           ;mcc_generated_files/pin_manager.c: 82:     ANSELA = 0x2D;
  5000  002C0A  0E2D               	movlw	45
  5001  002C0C  6F38               	movwf	56,b	;volatile
  5002                           
  5003                           ;mcc_generated_files/pin_manager.c: 87:     WPUB = 0x07;
  5004  002C0E  0E07               	movlw	7
  5005  002C10  6E61               	movwf	97,c	;volatile
  5006  002C12                     
  5007                           ; BSR set to: 15
  5008                           ;mcc_generated_files/pin_manager.c: 88:     INTCON2bits.nRBPU = 0;
  5009  002C12  9EF1               	bcf	241,7,c	;volatile
  5010  002C14                     
  5011                           ; BSR set to: 15
  5012  002C14  0012               	return		;funcret
  5013  002C16                     __end_of_PIN_MANAGER_Initialize:
  5014                           	opt callstack 0
  5015                           
  5016 ;; *************** function _OSCILLATOR_Initialize *****************
  5017 ;; Defined at:
  5018 ;;		line 64 in file "mcc_generated_files/mcc.c"
  5019 ;; Parameters:    Size  Location     Type
  5020 ;;		None
  5021 ;; Auto vars:     Size  Location     Type
  5022 ;;		None
  5023 ;; Return value:  Size  Location     Type
  5024 ;;                  1    wreg      void 
  5025 ;; Registers used:
  5026 ;;		wreg, status,2
  5027 ;; Tracked objects:
  5028 ;;		On entry : 0/0
  5029 ;;		On exit  : 0/0
  5030 ;;		Unchanged: 0/0
  5031 ;; Data sizes:     COMRAM   BANK0   BANK1   BANK2   BANK3   BANK4   BANK5
  5032 ;;      Params:         0       0       0       0       0       0       0
  5033 ;;      Locals:         0       0       0       0       0       0       0
  5034 ;;      Temps:          0       0       0       0       0       0       0
  5035 ;;      Totals:         0       0       0       0       0       0       0
  5036 ;;Total ram usage:        0 bytes
  5037 ;; Hardware stack levels used:    1
  5038 ;; Hardware stack levels required when called:    4
  5039 ;; This function calls:
  5040 ;;		Nothing
  5041 ;; This function is called by:
  5042 ;;		_SYSTEM_Initialize
  5043 ;; This function uses a non-reentrant model
  5044 ;;
  5045                           
  5046                           	psect	text27
  5047  0030C8                     __ptext27:
  5048                           	opt callstack 0
  5049  0030C8                     _OSCILLATOR_Initialize:
  5050                           	opt callstack 25
  5051  0030C8                     
  5052                           ;mcc_generated_files/mcc.c: 67:     OSCCON = 0x30;
  5053  0030C8  0E30               	movlw	48
  5054  0030CA  6ED3               	movwf	211,c	;volatile
  5055                           
  5056                           ;mcc_generated_files/mcc.c: 69:     OSCCON2 = 0x04;
  5057  0030CC  0E04               	movlw	4
  5058  0030CE  6ED2               	movwf	210,c	;volatile
  5059                           
  5060                           ;mcc_generated_files/mcc.c: 71:     OSCTUNE = 0x00;
  5061  0030D0  0E00               	movlw	0
  5062  0030D2  6E9B               	movwf	155,c	;volatile
  5063  0030D4  0012               	return		;funcret
  5064  0030D6                     __end_of_OSCILLATOR_Initialize:
  5065                           	opt callstack 0
  5066                           
  5067 ;; *************** function _INTERRUPT_Initialize *****************
  5068 ;; Defined at:
  5069 ;;		line 52 in file "mcc_generated_files/interrupt_manager.c"
  5070 ;; Parameters:    Size  Location     Type
  5071 ;;		None
  5072 ;; Auto vars:     Size  Location     Type
  5073 ;;		None
  5074 ;; Return value:  Size  Location     Type
  5075 ;;                  1    wreg      void 
  5076 ;; Registers used:
  5077 ;;		None
  5078 ;; Tracked objects:
  5079 ;;		On entry : 0/0
  5080 ;;		On exit  : 0/0
  5081 ;;		Unchanged: 0/0
  5082 ;; Data sizes:     COMRAM   BANK0   BANK1   BANK2   BANK3   BANK4   BANK5
  5083 ;;      Params:         0       0       0       0       0       0       0
  5084 ;;      Locals:         0       0       0       0       0       0       0
  5085 ;;      Temps:          0       0       0       0       0       0       0
  5086 ;;      Totals:         0       0       0       0       0       0       0
  5087 ;;Total ram usage:        0 bytes
  5088 ;; Hardware stack levels used:    1
  5089 ;; Hardware stack levels required when called:    4
  5090 ;; This function calls:
  5091 ;;		Nothing
  5092 ;; This function is called by:
  5093 ;;		_SYSTEM_Initialize
  5094 ;; This function uses a non-reentrant model
  5095 ;;
  5096                           
  5097                           	psect	text28
  5098  0030D6                     __ptext28:
  5099                           	opt callstack 0
  5100  0030D6                     _INTERRUPT_Initialize:
  5101                           	opt callstack 25
  5102  0030D6                     
  5103                           ;mcc_generated_files/interrupt_manager.c: 55:     RCONbits.IPEN = 1;
  5104  0030D6  8ED0               	bsf	208,7,c	;volatile
  5105                           
  5106                           ;mcc_generated_files/interrupt_manager.c: 60:     IPR1bits.ADIP = 1;
  5107  0030D8  8C9F               	bsf	159,6,c	;volatile
  5108                           
  5109                           ;mcc_generated_files/interrupt_manager.c: 63:     IPR1bits.RC1IP = 1;
  5110  0030DA  8A9F               	bsf	159,5,c	;volatile
  5111                           
  5112                           ;mcc_generated_files/interrupt_manager.c: 68:     INTCON2bits.TMR0IP = 1;
  5113  0030DC  84F1               	bsf	241,2,c	;volatile
  5114                           
  5115                           ;mcc_generated_files/interrupt_manager.c: 71:     INTCON3bits.INT1IP = 1;
  5116  0030DE  8CF0               	bsf	240,6,c	;volatile
  5117                           
  5118                           ;mcc_generated_files/interrupt_manager.c: 74:     INTCON3bits.INT2IP = 1;
  5119  0030E0  8EF0               	bsf	240,7,c	;volatile
  5120  0030E2  0012               	return		;funcret
  5121  0030E4                     __end_of_INTERRUPT_Initialize:
  5122                           	opt callstack 0
  5123                           
  5124 ;; *************** function _EXT_INT_Initialize *****************
  5125 ;; Defined at:
  5126 ;;		line 113 in file "mcc_generated_files/ext_int.c"
  5127 ;; Parameters:    Size  Location     Type
  5128 ;;		None
  5129 ;; Auto vars:     Size  Location     Type
  5130 ;;		None
  5131 ;; Return value:  Size  Location     Type
  5132 ;;                  1    wreg      void 
  5133 ;; Registers used:
  5134 ;;		wreg, status,2, status,0, cstack
  5135 ;; Tracked objects:
  5136 ;;		On entry : 0/0
  5137 ;;		On exit  : 0/0
  5138 ;;		Unchanged: 0/0
  5139 ;; Data sizes:     COMRAM   BANK0   BANK1   BANK2   BANK3   BANK4   BANK5
  5140 ;;      Params:         0       0       0       0       0       0       0
  5141 ;;      Locals:         0       0       0       0       0       0       0
  5142 ;;      Temps:          0       0       0       0       0       0       0
  5143 ;;      Totals:         0       0       0       0       0       0       0
  5144 ;;Total ram usage:        0 bytes
  5145 ;; Hardware stack levels used:    1
  5146 ;; Hardware stack levels required when called:    5
  5147 ;; This function calls:
  5148 ;;		_INT0_SetInterruptHandler
  5149 ;;		_INT1_SetInterruptHandler
  5150 ;;		_INT2_SetInterruptHandler
  5151 ;; This function is called by:
  5152 ;;		_SYSTEM_Initialize
  5153 ;; This function uses a non-reentrant model
  5154 ;;
  5155                           
  5156                           	psect	text29
  5157  002D26                     __ptext29:
  5158                           	opt callstack 0
  5159  002D26                     _EXT_INT_Initialize:
  5160                           	opt callstack 24
  5161  002D26                     
  5162                           ;mcc_generated_files/ext_int.c: 118:     (INTCONbits.INT0IF = 0);
  5163  002D26  92F2               	bcf	242,1,c	;volatile
  5164                           
  5165                           ;mcc_generated_files/ext_int.c: 119:     (INTCON2bits.INTEDG0 = 0);
  5166  002D28  9CF1               	bcf	241,6,c	;volatile
  5167  002D2A                     
  5168                           ;mcc_generated_files/ext_int.c: 121:     INT0_SetInterruptHandler(INT0_DefaultInterruptH
      +                          andler);
  5169  002D2A  0E72               	movlw	low _INT0_DefaultInterruptHandler
  5170  002D2C  0100               	movlb	0	; () banked
  5171  002D2E  6F66               	movwf	INT0_SetInterruptHandler@InterruptHandler& (0+255),b
  5172  002D30  0E31               	movlw	high _INT0_DefaultInterruptHandler
  5173  002D32  6F67               	movwf	(INT0_SetInterruptHandler@InterruptHandler+1)& (0+255),b
  5174  002D34  EC81  F018         	call	_INT0_SetInterruptHandler	;wreg free
  5175  002D38                     
  5176                           ;mcc_generated_files/ext_int.c: 122:     (INTCONbits.INT0IE = 1);
  5177  002D38  88F2               	bsf	242,4,c	;volatile
  5178  002D3A                     
  5179                           ;mcc_generated_files/ext_int.c: 127:     (INTCON3bits.INT1IF = 0);
  5180  002D3A  90F0               	bcf	240,0,c	;volatile
  5181  002D3C                     
  5182                           ;mcc_generated_files/ext_int.c: 128:     (INTCON2bits.INTEDG1 = 0);
  5183  002D3C  9AF1               	bcf	241,5,c	;volatile
  5184                           
  5185                           ;mcc_generated_files/ext_int.c: 130:     INT1_SetInterruptHandler(INT1_DefaultInterruptH
      +                          andler);
  5186  002D3E  0E70               	movlw	low _INT1_DefaultInterruptHandler
  5187  002D40  0100               	movlb	0	; () banked
  5188  002D42  6F66               	movwf	INT1_SetInterruptHandler@InterruptHandler& (0+255),b
  5189  002D44  0E31               	movlw	high _INT1_DefaultInterruptHandler
  5190  002D46  6F67               	movwf	(INT1_SetInterruptHandler@InterruptHandler+1)& (0+255),b
  5191  002D48  EC7C  F018         	call	_INT1_SetInterruptHandler	;wreg free
  5192  002D4C                     
  5193                           ;mcc_generated_files/ext_int.c: 131:     (INTCON3bits.INT1IE = 1);
  5194  002D4C  86F0               	bsf	240,3,c	;volatile
  5195  002D4E                     
  5196                           ;mcc_generated_files/ext_int.c: 136:     (INTCON3bits.INT2IF = 0);
  5197  002D4E  92F0               	bcf	240,1,c	;volatile
  5198  002D50                     
  5199                           ;mcc_generated_files/ext_int.c: 137:     (INTCON2bits.INTEDG2 = 0);
  5200  002D50  98F1               	bcf	241,4,c	;volatile
  5201                           
  5202                           ;mcc_generated_files/ext_int.c: 139:     INT2_SetInterruptHandler(INT2_DefaultInterruptH
      +                          andler);
  5203  002D52  0E6E               	movlw	low _INT2_DefaultInterruptHandler
  5204  002D54  0100               	movlb	0	; () banked
  5205  002D56  6F66               	movwf	INT2_SetInterruptHandler@InterruptHandler& (0+255),b
  5206  002D58  0E31               	movlw	high _INT2_DefaultInterruptHandler
  5207  002D5A  6F67               	movwf	(INT2_SetInterruptHandler@InterruptHandler+1)& (0+255),b
  5208  002D5C  EC77  F018         	call	_INT2_SetInterruptHandler	;wreg free
  5209  002D60                     
  5210                           ;mcc_generated_files/ext_int.c: 140:     (INTCON3bits.INT2IE = 1);
  5211  002D60  88F0               	bsf	240,4,c	;volatile
  5212  002D62  0012               	return		;funcret
  5213  002D64                     __end_of_EXT_INT_Initialize:
  5214                           	opt callstack 0
  5215                           
  5216 ;; *************** function _INT2_SetInterruptHandler *****************
  5217 ;; Defined at:
  5218 ;;		line 104 in file "mcc_generated_files/ext_int.c"
  5219 ;; Parameters:    Size  Location     Type
  5220 ;;  InterruptHan    2    6[BANK0 ] PTR FTN()void 
  5221 ;;		 -> teclado_coluna_3(1), INT2_DefaultInterruptHandler(1), 
  5222 ;; Auto vars:     Size  Location     Type
  5223 ;;		None
  5224 ;; Return value:  Size  Location     Type
  5225 ;;                  1    wreg      void 
  5226 ;; Registers used:
  5227 ;;		wreg, status,2, status,0
  5228 ;; Tracked objects:
  5229 ;;		On entry : 0/0
  5230 ;;		On exit  : 0/0
  5231 ;;		Unchanged: 0/0
  5232 ;; Data sizes:     COMRAM   BANK0   BANK1   BANK2   BANK3   BANK4   BANK5
  5233 ;;      Params:         0       2       0       0       0       0       0
  5234 ;;      Locals:         0       0       0       0       0       0       0
  5235 ;;      Temps:          0       0       0       0       0       0       0
  5236 ;;      Totals:         0       2       0       0       0       0       0
  5237 ;;Total ram usage:        2 bytes
  5238 ;; Hardware stack levels used:    1
  5239 ;; Hardware stack levels required when called:    4
  5240 ;; This function calls:
  5241 ;;		Nothing
  5242 ;; This function is called by:
  5243 ;;		_EXT_INT_Initialize
  5244 ;;		_main
  5245 ;; This function uses a non-reentrant model
  5246 ;;
  5247                           
  5248                           	psect	text30
  5249  0030EE                     __ptext30:
  5250                           	opt callstack 0
  5251  0030EE                     _INT2_SetInterruptHandler:
  5252                           	opt callstack 24
  5253  0030EE                     
  5254                           ;mcc_generated_files/ext_int.c: 105:     INT2_InterruptHandler = InterruptHandler;
  5255  0030EE  C066  F156         	movff	INT2_SetInterruptHandler@InterruptHandler,_INT2_InterruptHandler
  5256  0030F2  C067  F157         	movff	INT2_SetInterruptHandler@InterruptHandler+1,_INT2_InterruptHandler+1
  5257  0030F6  0012               	return		;funcret
  5258  0030F8                     __end_of_INT2_SetInterruptHandler:
  5259                           	opt callstack 0
  5260                           
  5261 ;; *************** function _INT1_SetInterruptHandler *****************
  5262 ;; Defined at:
  5263 ;;		line 78 in file "mcc_generated_files/ext_int.c"
  5264 ;; Parameters:    Size  Location     Type
  5265 ;;  InterruptHan    2    6[BANK0 ] PTR FTN()void 
  5266 ;;		 -> teclado_coluna_2(1), INT1_DefaultInterruptHandler(1), 
  5267 ;; Auto vars:     Size  Location     Type
  5268 ;;		None
  5269 ;; Return value:  Size  Location     Type
  5270 ;;                  1    wreg      void 
  5271 ;; Registers used:
  5272 ;;		wreg, status,2, status,0
  5273 ;; Tracked objects:
  5274 ;;		On entry : 0/0
  5275 ;;		On exit  : 0/0
  5276 ;;		Unchanged: 0/0
  5277 ;; Data sizes:     COMRAM   BANK0   BANK1   BANK2   BANK3   BANK4   BANK5
  5278 ;;      Params:         0       2       0       0       0       0       0
  5279 ;;      Locals:         0       0       0       0       0       0       0
  5280 ;;      Temps:          0       0       0       0       0       0       0
  5281 ;;      Totals:         0       2       0       0       0       0       0
  5282 ;;Total ram usage:        2 bytes
  5283 ;; Hardware stack levels used:    1
  5284 ;; Hardware stack levels required when called:    4
  5285 ;; This function calls:
  5286 ;;		Nothing
  5287 ;; This function is called by:
  5288 ;;		_EXT_INT_Initialize
  5289 ;;		_main
  5290 ;; This function uses a non-reentrant model
  5291 ;;
  5292                           
  5293                           	psect	text31
  5294  0030F8                     __ptext31:
  5295                           	opt callstack 0
  5296  0030F8                     _INT1_SetInterruptHandler:
  5297                           	opt callstack 24
  5298  0030F8                     
  5299                           ;mcc_generated_files/ext_int.c: 79:     INT1_InterruptHandler = InterruptHandler;
  5300  0030F8  C066  F158         	movff	INT1_SetInterruptHandler@InterruptHandler,_INT1_InterruptHandler
  5301  0030FC  C067  F159         	movff	INT1_SetInterruptHandler@InterruptHandler+1,_INT1_InterruptHandler+1
  5302  003100  0012               	return		;funcret
  5303  003102                     __end_of_INT1_SetInterruptHandler:
  5304                           	opt callstack 0
  5305                           
  5306 ;; *************** function _INT0_SetInterruptHandler *****************
  5307 ;; Defined at:
  5308 ;;		line 52 in file "mcc_generated_files/ext_int.c"
  5309 ;; Parameters:    Size  Location     Type
  5310 ;;  InterruptHan    2    6[BANK0 ] PTR FTN()void 
  5311 ;;		 -> teclado_coluna_1(1), INT0_DefaultInterruptHandler(1), 
  5312 ;; Auto vars:     Size  Location     Type
  5313 ;;		None
  5314 ;; Return value:  Size  Location     Type
  5315 ;;                  1    wreg      void 
  5316 ;; Registers used:
  5317 ;;		wreg, status,2, status,0
  5318 ;; Tracked objects:
  5319 ;;		On entry : 0/0
  5320 ;;		On exit  : 0/0
  5321 ;;		Unchanged: 0/0
  5322 ;; Data sizes:     COMRAM   BANK0   BANK1   BANK2   BANK3   BANK4   BANK5
  5323 ;;      Params:         0       2       0       0       0       0       0
  5324 ;;      Locals:         0       0       0       0       0       0       0
  5325 ;;      Temps:          0       0       0       0       0       0       0
  5326 ;;      Totals:         0       2       0       0       0       0       0
  5327 ;;Total ram usage:        2 bytes
  5328 ;; Hardware stack levels used:    1
  5329 ;; Hardware stack levels required when called:    4
  5330 ;; This function calls:
  5331 ;;		Nothing
  5332 ;; This function is called by:
  5333 ;;		_EXT_INT_Initialize
  5334 ;;		_main
  5335 ;; This function uses a non-reentrant model
  5336 ;;
  5337                           
  5338                           	psect	text32
  5339  003102                     __ptext32:
  5340                           	opt callstack 0
  5341  003102                     _INT0_SetInterruptHandler:
  5342                           	opt callstack 24
  5343  003102                     
  5344                           ;mcc_generated_files/ext_int.c: 53:     INT0_InterruptHandler = InterruptHandler;
  5345  003102  C066  F15A         	movff	INT0_SetInterruptHandler@InterruptHandler,_INT0_InterruptHandler
  5346  003106  C067  F15B         	movff	INT0_SetInterruptHandler@InterruptHandler+1,_INT0_InterruptHandler+1
  5347  00310A  0012               	return		;funcret
  5348  00310C                     __end_of_INT0_SetInterruptHandler:
  5349                           	opt callstack 0
  5350                           
  5351 ;; *************** function _EUSART1_Initialize *****************
  5352 ;; Defined at:
  5353 ;;		line 83 in file "mcc_generated_files/eusart1.c"
  5354 ;; Parameters:    Size  Location     Type
  5355 ;;		None
  5356 ;; Auto vars:     Size  Location     Type
  5357 ;;		None
  5358 ;; Return value:  Size  Location     Type
  5359 ;;                  1    wreg      void 
  5360 ;; Registers used:
  5361 ;;		wreg, status,2, status,0, cstack
  5362 ;; Tracked objects:
  5363 ;;		On entry : 0/0
  5364 ;;		On exit  : 0/0
  5365 ;;		Unchanged: 0/0
  5366 ;; Data sizes:     COMRAM   BANK0   BANK1   BANK2   BANK3   BANK4   BANK5
  5367 ;;      Params:         0       0       0       0       0       0       0
  5368 ;;      Locals:         0       0       0       0       0       0       0
  5369 ;;      Temps:          0       0       0       0       0       0       0
  5370 ;;      Totals:         0       0       0       0       0       0       0
  5371 ;;Total ram usage:        0 bytes
  5372 ;; Hardware stack levels used:    1
  5373 ;; Hardware stack levels required when called:    5
  5374 ;; This function calls:
  5375 ;;		_EUSART1_SetErrorHandler
  5376 ;;		_EUSART1_SetFramingErrorHandler
  5377 ;;		_EUSART1_SetOverrunErrorHandler
  5378 ;;		_EUSART1_SetRxInterruptHandler
  5379 ;; This function is called by:
  5380 ;;		_SYSTEM_Initialize
  5381 ;; This function uses a non-reentrant model
  5382 ;;
  5383                           
  5384                           	psect	text33
  5385  00297C                     __ptext33:
  5386                           	opt callstack 0
  5387  00297C                     _EUSART1_Initialize:
  5388                           	opt callstack 24
  5389  00297C                     
  5390                           ;mcc_generated_files/eusart1.c: 86:     PIE1bits.RC1IE = 0;
  5391  00297C  9A9D               	bcf	157,5,c	;volatile
  5392  00297E                     
  5393                           ;mcc_generated_files/eusart1.c: 87:     EUSART1_SetRxInterruptHandler(EUSART1_Receive_IS
      +                          R);
  5394  00297E  0E16               	movlw	low _EUSART1_Receive_ISR
  5395  002980  0100               	movlb	0	; () banked
  5396  002982  6F66               	movwf	EUSART1_SetRxInterruptHandler@interruptHandler& (0+255),b
  5397  002984  0E26               	movlw	high _EUSART1_Receive_ISR
  5398  002986  6F67               	movwf	(EUSART1_SetRxInterruptHandler@interruptHandler+1)& (0+255),b
  5399  002988  EC86  F018         	call	_EUSART1_SetRxInterruptHandler	;wreg free
  5400  00298C                     
  5401                           ;mcc_generated_files/eusart1.c: 91:     BAUDCON1 = 0x08;
  5402  00298C  0E08               	movlw	8
  5403  00298E  6EB8               	movwf	184,c	;volatile
  5404  002990                     
  5405                           ;mcc_generated_files/eusart1.c: 94:     RCSTA1 = 0x90;
  5406  002990  0E90               	movlw	144
  5407  002992  6EAB               	movwf	171,c	;volatile
  5408  002994                     
  5409                           ;mcc_generated_files/eusart1.c: 97:     TXSTA1 = 0x24;
  5410  002994  0E24               	movlw	36
  5411  002996  6EAC               	movwf	172,c	;volatile
  5412  002998                     
  5413                           ;mcc_generated_files/eusart1.c: 100:     SPBRG1 = 0x9B;
  5414  002998  0E9B               	movlw	155
  5415  00299A  6EAF               	movwf	175,c	;volatile
  5416  00299C                     
  5417                           ;mcc_generated_files/eusart1.c: 103:     SPBRGH1 = 0x00;
  5418  00299C  0E00               	movlw	0
  5419  00299E  6EB0               	movwf	176,c	;volatile
  5420  0029A0                     
  5421                           ;mcc_generated_files/eusart1.c: 106:     EUSART1_SetFramingErrorHandler(EUSART1_DefaultF
      +                          ramingErrorHandler);
  5422  0029A0  0E74               	movlw	low _EUSART1_DefaultFramingErrorHandler
  5423  0029A2  0100               	movlb	0	; () banked
  5424  0029A4  6F66               	movwf	EUSART1_SetFramingErrorHandler@interruptHandler& (0+255),b
  5425  0029A6  0E31               	movlw	high _EUSART1_DefaultFramingErrorHandler
  5426  0029A8  6F67               	movwf	(EUSART1_SetFramingErrorHandler@interruptHandler+1)& (0+255),b
  5427  0029AA  EC90  F018         	call	_EUSART1_SetFramingErrorHandler	;wreg free
  5428  0029AE                     
  5429                           ;mcc_generated_files/eusart1.c: 107:     EUSART1_SetOverrunErrorHandler(EUSART1_DefaultO
      +                          verrunErrorHandler);
  5430  0029AE  0E5C               	movlw	low _EUSART1_DefaultOverrunErrorHandler
  5431  0029B0  0100               	movlb	0	; () banked
  5432  0029B2  6F66               	movwf	EUSART1_SetOverrunErrorHandler@interruptHandler& (0+255),b
  5433  0029B4  0E31               	movlw	high _EUSART1_DefaultOverrunErrorHandler
  5434  0029B6  6F67               	movwf	(EUSART1_SetOverrunErrorHandler@interruptHandler+1)& (0+255),b
  5435  0029B8  EC8B  F018         	call	_EUSART1_SetOverrunErrorHandler	;wreg free
  5436  0029BC                     
  5437                           ;mcc_generated_files/eusart1.c: 108:     EUSART1_SetErrorHandler(EUSART1_DefaultErrorHan
      +                          dler);
  5438  0029BC  0E62               	movlw	low _EUSART1_DefaultErrorHandler
  5439  0029BE  0100               	movlb	0	; () banked
  5440  0029C0  6F66               	movwf	EUSART1_SetErrorHandler@interruptHandler& (0+255),b
  5441  0029C2  0E31               	movlw	high _EUSART1_DefaultErrorHandler
  5442  0029C4  6F67               	movwf	(EUSART1_SetErrorHandler@interruptHandler+1)& (0+255),b
  5443  0029C6  EC95  F018         	call	_EUSART1_SetErrorHandler	;wreg free
  5444                           
  5445                           ;mcc_generated_files/eusart1.c: 110:     eusart1RxLastError.status = 0;
  5446  0029CA  0E00               	movlw	0
  5447  0029CC  0100               	movlb	0	; () banked
  5448  0029CE  6FE7               	movwf	_eusart1RxLastError& (0+255),b	;volatile
  5449                           
  5450                           ;mcc_generated_files/eusart1.c: 113:     eusart1RxHead = 0;
  5451  0029D0  0E00               	movlw	0
  5452  0029D2  6FEA               	movwf	_eusart1RxHead& (0+255),b	;volatile
  5453                           
  5454                           ;mcc_generated_files/eusart1.c: 114:     eusart1RxTail = 0;
  5455  0029D4  0E00               	movlw	0
  5456  0029D6  6FE9               	movwf	_eusart1RxTail& (0+255),b	;volatile
  5457                           
  5458                           ;mcc_generated_files/eusart1.c: 115:     eusart1RxCount = 0;
  5459  0029D8  0E00               	movlw	0
  5460  0029DA  6FE8               	movwf	_eusart1RxCount& (0+255),b	;volatile
  5461  0029DC                     
  5462                           ; BSR set to: 0
  5463                           ;mcc_generated_files/eusart1.c: 118:     PIE1bits.RC1IE = 1;
  5464  0029DC  8A9D               	bsf	157,5,c	;volatile
  5465  0029DE                     
  5466                           ; BSR set to: 0
  5467  0029DE  0012               	return		;funcret
  5468  0029E0                     __end_of_EUSART1_Initialize:
  5469                           	opt callstack 0
  5470                           
  5471 ;; *************** function _EUSART1_SetRxInterruptHandler *****************
  5472 ;; Defined at:
  5473 ;;		line 243 in file "mcc_generated_files/eusart1.c"
  5474 ;; Parameters:    Size  Location     Type
  5475 ;;  interruptHan    2    6[BANK0 ] PTR FTN()void 
  5476 ;;		 -> EUSART1_Receive_ISR(1), 
  5477 ;; Auto vars:     Size  Location     Type
  5478 ;;		None
  5479 ;; Return value:  Size  Location     Type
  5480 ;;                  1    wreg      void 
  5481 ;; Registers used:
  5482 ;;		wreg, status,2, status,0
  5483 ;; Tracked objects:
  5484 ;;		On entry : 0/0
  5485 ;;		On exit  : 0/0
  5486 ;;		Unchanged: 0/0
  5487 ;; Data sizes:     COMRAM   BANK0   BANK1   BANK2   BANK3   BANK4   BANK5
  5488 ;;      Params:         0       2       0       0       0       0       0
  5489 ;;      Locals:         0       0       0       0       0       0       0
  5490 ;;      Temps:          0       0       0       0       0       0       0
  5491 ;;      Totals:         0       2       0       0       0       0       0
  5492 ;;Total ram usage:        2 bytes
  5493 ;; Hardware stack levels used:    1
  5494 ;; Hardware stack levels required when called:    4
  5495 ;; This function calls:
  5496 ;;		Nothing
  5497 ;; This function is called by:
  5498 ;;		_EUSART1_Initialize
  5499 ;; This function uses a non-reentrant model
  5500 ;;
  5501                           
  5502                           	psect	text34
  5503  00310C                     __ptext34:
  5504                           	opt callstack 0
  5505  00310C                     _EUSART1_SetRxInterruptHandler:
  5506                           	opt callstack 24
  5507  00310C                     
  5508                           ;mcc_generated_files/eusart1.c: 244:     EUSART1_RxDefaultInterruptHandler = interruptHa
      +                          ndler;
  5509  00310C  C066  F154         	movff	EUSART1_SetRxInterruptHandler@interruptHandler,_EUSART1_RxDefaultInterruptHandler
  5510  003110  C067  F155         	movff	EUSART1_SetRxInterruptHandler@interruptHandler+1,_EUSART1_RxDefaultInterruptHandl
      +                          er+1
  5511  003114  0012               	return		;funcret
  5512  003116                     __end_of_EUSART1_SetRxInterruptHandler:
  5513                           	opt callstack 0
  5514                           
  5515 ;; *************** function _EUSART1_SetOverrunErrorHandler *****************
  5516 ;; Defined at:
  5517 ;;		line 234 in file "mcc_generated_files/eusart1.c"
  5518 ;; Parameters:    Size  Location     Type
  5519 ;;  interruptHan    2    6[BANK0 ] PTR FTN()void 
  5520 ;;		 -> EUSART1_DefaultOverrunErrorHandler(1), 
  5521 ;; Auto vars:     Size  Location     Type
  5522 ;;		None
  5523 ;; Return value:  Size  Location     Type
  5524 ;;                  1    wreg      void 
  5525 ;; Registers used:
  5526 ;;		wreg, status,2, status,0
  5527 ;; Tracked objects:
  5528 ;;		On entry : 0/0
  5529 ;;		On exit  : 0/0
  5530 ;;		Unchanged: 0/0
  5531 ;; Data sizes:     COMRAM   BANK0   BANK1   BANK2   BANK3   BANK4   BANK5
  5532 ;;      Params:         0       2       0       0       0       0       0
  5533 ;;      Locals:         0       0       0       0       0       0       0
  5534 ;;      Temps:          0       0       0       0       0       0       0
  5535 ;;      Totals:         0       2       0       0       0       0       0
  5536 ;;Total ram usage:        2 bytes
  5537 ;; Hardware stack levels used:    1
  5538 ;; Hardware stack levels required when called:    4
  5539 ;; This function calls:
  5540 ;;		Nothing
  5541 ;; This function is called by:
  5542 ;;		_EUSART1_Initialize
  5543 ;; This function uses a non-reentrant model
  5544 ;;
  5545                           
  5546                           	psect	text35
  5547  003116                     __ptext35:
  5548                           	opt callstack 0
  5549  003116                     _EUSART1_SetOverrunErrorHandler:
  5550                           	opt callstack 24
  5551  003116                     
  5552                           ;mcc_generated_files/eusart1.c: 235:     EUSART1_OverrunErrorHandler = interruptHandler;
  5553  003116  C066  F14E         	movff	EUSART1_SetOverrunErrorHandler@interruptHandler,_EUSART1_OverrunErrorHandler
  5554  00311A  C067  F14F         	movff	EUSART1_SetOverrunErrorHandler@interruptHandler+1,_EUSART1_OverrunErrorHandler+1
  5555  00311E  0012               	return		;funcret
  5556  003120                     __end_of_EUSART1_SetOverrunErrorHandler:
  5557                           	opt callstack 0
  5558                           
  5559 ;; *************** function _EUSART1_SetFramingErrorHandler *****************
  5560 ;; Defined at:
  5561 ;;		line 230 in file "mcc_generated_files/eusart1.c"
  5562 ;; Parameters:    Size  Location     Type
  5563 ;;  interruptHan    2    6[BANK0 ] PTR FTN()void 
  5564 ;;		 -> EUSART1_DefaultFramingErrorHandler(1), 
  5565 ;; Auto vars:     Size  Location     Type
  5566 ;;		None
  5567 ;; Return value:  Size  Location     Type
  5568 ;;                  1    wreg      void 
  5569 ;; Registers used:
  5570 ;;		wreg, status,2, status,0
  5571 ;; Tracked objects:
  5572 ;;		On entry : 0/0
  5573 ;;		On exit  : 0/0
  5574 ;;		Unchanged: 0/0
  5575 ;; Data sizes:     COMRAM   BANK0   BANK1   BANK2   BANK3   BANK4   BANK5
  5576 ;;      Params:         0       2       0       0       0       0       0
  5577 ;;      Locals:         0       0       0       0       0       0       0
  5578 ;;      Temps:          0       0       0       0       0       0       0
  5579 ;;      Totals:         0       2       0       0       0       0       0
  5580 ;;Total ram usage:        2 bytes
  5581 ;; Hardware stack levels used:    1
  5582 ;; Hardware stack levels required when called:    4
  5583 ;; This function calls:
  5584 ;;		Nothing
  5585 ;; This function is called by:
  5586 ;;		_EUSART1_Initialize
  5587 ;; This function uses a non-reentrant model
  5588 ;;
  5589                           
  5590                           	psect	text36
  5591  003120                     __ptext36:
  5592                           	opt callstack 0
  5593  003120                     _EUSART1_SetFramingErrorHandler:
  5594                           	opt callstack 24
  5595  003120                     
  5596                           ;mcc_generated_files/eusart1.c: 231:     EUSART1_FramingErrorHandler = interruptHandler;
  5597  003120  C066  F150         	movff	EUSART1_SetFramingErrorHandler@interruptHandler,_EUSART1_FramingErrorHandler
  5598  003124  C067  F151         	movff	EUSART1_SetFramingErrorHandler@interruptHandler+1,_EUSART1_FramingErrorHandler+1
  5599  003128  0012               	return		;funcret
  5600  00312A                     __end_of_EUSART1_SetFramingErrorHandler:
  5601                           	opt callstack 0
  5602                           
  5603 ;; *************** function _EUSART1_SetErrorHandler *****************
  5604 ;; Defined at:
  5605 ;;		line 238 in file "mcc_generated_files/eusart1.c"
  5606 ;; Parameters:    Size  Location     Type
  5607 ;;  interruptHan    2    6[BANK0 ] PTR FTN()void 
  5608 ;;		 -> EUSART1_DefaultErrorHandler(1), 
  5609 ;; Auto vars:     Size  Location     Type
  5610 ;;		None
  5611 ;; Return value:  Size  Location     Type
  5612 ;;                  1    wreg      void 
  5613 ;; Registers used:
  5614 ;;		wreg, status,2, status,0
  5615 ;; Tracked objects:
  5616 ;;		On entry : 0/0
  5617 ;;		On exit  : 0/0
  5618 ;;		Unchanged: 0/0
  5619 ;; Data sizes:     COMRAM   BANK0   BANK1   BANK2   BANK3   BANK4   BANK5
  5620 ;;      Params:         0       2       0       0       0       0       0
  5621 ;;      Locals:         0       0       0       0       0       0       0
  5622 ;;      Temps:          0       0       0       0       0       0       0
  5623 ;;      Totals:         0       2       0       0       0       0       0
  5624 ;;Total ram usage:        2 bytes
  5625 ;; Hardware stack levels used:    1
  5626 ;; Hardware stack levels required when called:    4
  5627 ;; This function calls:
  5628 ;;		Nothing
  5629 ;; This function is called by:
  5630 ;;		_EUSART1_Initialize
  5631 ;; This function uses a non-reentrant model
  5632 ;;
  5633                           
  5634                           	psect	text37
  5635  00312A                     __ptext37:
  5636                           	opt callstack 0
  5637  00312A                     _EUSART1_SetErrorHandler:
  5638                           	opt callstack 24
  5639  00312A                     
  5640                           ;mcc_generated_files/eusart1.c: 239:     EUSART1_ErrorHandler = interruptHandler;
  5641  00312A  C066  F14C         	movff	EUSART1_SetErrorHandler@interruptHandler,_EUSART1_ErrorHandler
  5642  00312E  C067  F14D         	movff	EUSART1_SetErrorHandler@interruptHandler+1,_EUSART1_ErrorHandler+1
  5643  003132  0012               	return		;funcret
  5644  003134                     __end_of_EUSART1_SetErrorHandler:
  5645                           	opt callstack 0
  5646                           
  5647 ;; *************** function _EPWM1_Initialize *****************
  5648 ;; Defined at:
  5649 ;;		line 64 in file "mcc_generated_files/epwm1.c"
  5650 ;; Parameters:    Size  Location     Type
  5651 ;;		None
  5652 ;; Auto vars:     Size  Location     Type
  5653 ;;		None
  5654 ;; Return value:  Size  Location     Type
  5655 ;;                  1    wreg      void 
  5656 ;; Registers used:
  5657 ;;		wreg, status,2
  5658 ;; Tracked objects:
  5659 ;;		On entry : 0/0
  5660 ;;		On exit  : 0/0
  5661 ;;		Unchanged: 0/0
  5662 ;; Data sizes:     COMRAM   BANK0   BANK1   BANK2   BANK3   BANK4   BANK5
  5663 ;;      Params:         0       0       0       0       0       0       0
  5664 ;;      Locals:         0       0       0       0       0       0       0
  5665 ;;      Temps:          0       0       0       0       0       0       0
  5666 ;;      Totals:         0       0       0       0       0       0       0
  5667 ;;Total ram usage:        0 bytes
  5668 ;; Hardware stack levels used:    1
  5669 ;; Hardware stack levels required when called:    4
  5670 ;; This function calls:
  5671 ;;		Nothing
  5672 ;; This function is called by:
  5673 ;;		_SYSTEM_Initialize
  5674 ;; This function uses a non-reentrant model
  5675 ;;
  5676                           
  5677                           	psect	text38
  5678  003022                     __ptext38:
  5679                           	opt callstack 0
  5680  003022                     _EPWM1_Initialize:
  5681                           	opt callstack 25
  5682  003022                     
  5683                           ;mcc_generated_files/epwm1.c: 69:  CCP1CON = 0x1C;
  5684  003022  0E1C               	movlw	28
  5685  003024  6EBD               	movwf	189,c	;volatile
  5686                           
  5687                           ;mcc_generated_files/epwm1.c: 72:  ECCP1AS = 0x00;
  5688  003026  0E00               	movlw	0
  5689  003028  6EB6               	movwf	182,c	;volatile
  5690                           
  5691                           ;mcc_generated_files/epwm1.c: 75:  PWM1CON = 0x80;
  5692  00302A  0E80               	movlw	128
  5693  00302C  6EB7               	movwf	183,c	;volatile
  5694                           
  5695                           ;mcc_generated_files/epwm1.c: 78:  PSTR1CON = 0x01;
  5696  00302E  0E01               	movlw	1
  5697  003030  6EB9               	movwf	185,c	;volatile
  5698                           
  5699                           ;mcc_generated_files/epwm1.c: 81:  CCPR1H = 0x00;
  5700  003032  0E00               	movlw	0
  5701  003034  6EBF               	movwf	191,c	;volatile
  5702                           
  5703                           ;mcc_generated_files/epwm1.c: 84:  CCPR1L = 0x00;
  5704  003036  0E00               	movlw	0
  5705  003038  6EBE               	movwf	190,c	;volatile
  5706                           
  5707                           ;mcc_generated_files/epwm1.c: 87:  CCPTMRS0bits.C1TSEL = 0x0;
  5708  00303A  0EFC               	movlw	-4
  5709  00303C  010F               	movlb	15	; () banked
  5710  00303E  1749               	andwf	73,f,b	;volatile
  5711  003040                     
  5712                           ; BSR set to: 15
  5713  003040  0012               	return		;funcret
  5714  003042                     __end_of_EPWM1_Initialize:
  5715                           	opt callstack 0
  5716                           
  5717 ;; *************** function _ADC_Initialize *****************
  5718 ;; Defined at:
  5719 ;;		line 66 in file "mcc_generated_files/adc.c"
  5720 ;; Parameters:    Size  Location     Type
  5721 ;;		None
  5722 ;; Auto vars:     Size  Location     Type
  5723 ;;		None
  5724 ;; Return value:  Size  Location     Type
  5725 ;;                  1    wreg      void 
  5726 ;; Registers used:
  5727 ;;		wreg, status,2, status,0, cstack
  5728 ;; Tracked objects:
  5729 ;;		On entry : 0/0
  5730 ;;		On exit  : 0/0
  5731 ;;		Unchanged: 0/0
  5732 ;; Data sizes:     COMRAM   BANK0   BANK1   BANK2   BANK3   BANK4   BANK5
  5733 ;;      Params:         0       0       0       0       0       0       0
  5734 ;;      Locals:         0       0       0       0       0       0       0
  5735 ;;      Temps:          0       0       0       0       0       0       0
  5736 ;;      Totals:         0       0       0       0       0       0       0
  5737 ;;Total ram usage:        0 bytes
  5738 ;; Hardware stack levels used:    1
  5739 ;; Hardware stack levels required when called:    5
  5740 ;; This function calls:
  5741 ;;		_ADC_SetInterruptHandler
  5742 ;; This function is called by:
  5743 ;;		_SYSTEM_Initialize
  5744 ;; This function uses a non-reentrant model
  5745 ;;
  5746                           
  5747                           	psect	text39
  5748  002FD6                     __ptext39:
  5749                           	opt callstack 0
  5750  002FD6                     _ADC_Initialize:
  5751                           	opt callstack 24
  5752  002FD6                     
  5753                           ;mcc_generated_files/adc.c: 71:     ADCON0 = 0x03;
  5754  002FD6  0E03               	movlw	3
  5755  002FD8  6EC2               	movwf	194,c	;volatile
  5756                           
  5757                           ;mcc_generated_files/adc.c: 74:     ADCON1 = 0x05;
  5758  002FDA  0E05               	movlw	5
  5759  002FDC  6EC1               	movwf	193,c	;volatile
  5760                           
  5761                           ;mcc_generated_files/adc.c: 77:     ADCON2 = 0x89;
  5762  002FDE  0E89               	movlw	137
  5763  002FE0  6EC0               	movwf	192,c	;volatile
  5764                           
  5765                           ;mcc_generated_files/adc.c: 80:     ADRESL = 0x00;
  5766  002FE2  0E00               	movlw	0
  5767  002FE4  6EC3               	movwf	195,c	;volatile
  5768                           
  5769                           ;mcc_generated_files/adc.c: 83:     ADRESH = 0x00;
  5770  002FE6  0E00               	movlw	0
  5771  002FE8  6EC4               	movwf	196,c	;volatile
  5772  002FEA                     
  5773                           ;mcc_generated_files/adc.c: 86:     PIE1bits.ADIE = 1;
  5774  002FEA  8C9D               	bsf	157,6,c	;volatile
  5775  002FEC                     
  5776                           ;mcc_generated_files/adc.c: 89:     ADC_SetInterruptHandler(ADC_DefaultInterruptHandler)
      +                          ;
  5777  002FEC  0E76               	movlw	low _ADC_DefaultInterruptHandler
  5778  002FEE  0100               	movlb	0	; () banked
  5779  002FF0  6F66               	movwf	ADC_SetInterruptHandler@InterruptHandler& (0+255),b
  5780  002FF2  0E31               	movlw	high _ADC_DefaultInterruptHandler
  5781  002FF4  6F67               	movwf	(ADC_SetInterruptHandler@InterruptHandler+1)& (0+255),b
  5782  002FF6  EC9A  F018         	call	_ADC_SetInterruptHandler	;wreg free
  5783  002FFA  0012               	return		;funcret
  5784  002FFC                     __end_of_ADC_Initialize:
  5785                           	opt callstack 0
  5786                           
  5787 ;; *************** function _ADC_SetInterruptHandler *****************
  5788 ;; Defined at:
  5789 ;;		line 153 in file "mcc_generated_files/adc.c"
  5790 ;; Parameters:    Size  Location     Type
  5791 ;;  InterruptHan    2    6[BANK0 ] PTR FTN()void 
  5792 ;;		 -> ADC_temperatura(1), ADC_DefaultInterruptHandler(1), 
  5793 ;; Auto vars:     Size  Location     Type
  5794 ;;		None
  5795 ;; Return value:  Size  Location     Type
  5796 ;;                  1    wreg      void 
  5797 ;; Registers used:
  5798 ;;		wreg, status,2, status,0
  5799 ;; Tracked objects:
  5800 ;;		On entry : 0/0
  5801 ;;		On exit  : 0/0
  5802 ;;		Unchanged: 0/0
  5803 ;; Data sizes:     COMRAM   BANK0   BANK1   BANK2   BANK3   BANK4   BANK5
  5804 ;;      Params:         0       2       0       0       0       0       0
  5805 ;;      Locals:         0       0       0       0       0       0       0
  5806 ;;      Temps:          0       0       0       0       0       0       0
  5807 ;;      Totals:         0       2       0       0       0       0       0
  5808 ;;Total ram usage:        2 bytes
  5809 ;; Hardware stack levels used:    1
  5810 ;; Hardware stack levels required when called:    4
  5811 ;; This function calls:
  5812 ;;		Nothing
  5813 ;; This function is called by:
  5814 ;;		_ADC_Initialize
  5815 ;;		_main
  5816 ;; This function uses a non-reentrant model
  5817 ;;
  5818                           
  5819                           	psect	text40
  5820  003134                     __ptext40:
  5821                           	opt callstack 0
  5822  003134                     _ADC_SetInterruptHandler:
  5823                           	opt callstack 24
  5824  003134                     
  5825                           ;mcc_generated_files/adc.c: 154:     ADC_InterruptHandler = InterruptHandler;
  5826  003134  C066  F152         	movff	ADC_SetInterruptHandler@InterruptHandler,_ADC_InterruptHandler
  5827  003138  C067  F153         	movff	ADC_SetInterruptHandler@InterruptHandler+1,_ADC_InterruptHandler+1
  5828  00313C  0012               	return		;funcret
  5829  00313E                     __end_of_ADC_SetInterruptHandler:
  5830                           	opt callstack 0
  5831                           
  5832 ;; *************** function _LCD_inicio_teste *****************
  5833 ;; Defined at:
  5834 ;;		line 23 in file "LCD.c"
  5835 ;; Parameters:    Size  Location     Type
  5836 ;;		None
  5837 ;; Auto vars:     Size  Location     Type
  5838 ;;		None
  5839 ;; Return value:  Size  Location     Type
  5840 ;;                  1    wreg      void 
  5841 ;; Registers used:
  5842 ;;		wreg, status,2, status,0, cstack
  5843 ;; Tracked objects:
  5844 ;;		On entry : 0/0
  5845 ;;		On exit  : 0/0
  5846 ;;		Unchanged: 0/0
  5847 ;; Data sizes:     COMRAM   BANK0   BANK1   BANK2   BANK3   BANK4   BANK5
  5848 ;;      Params:         0       0       0       0       0       0       0
  5849 ;;      Locals:         0       0       0       0       0       0       0
  5850 ;;      Temps:          0       0       0       0       0       0       0
  5851 ;;      Totals:         0       0       0       0       0       0       0
  5852 ;;Total ram usage:        0 bytes
  5853 ;; Hardware stack levels used:    1
  5854 ;; Hardware stack levels required when called:    7
  5855 ;; This function calls:
  5856 ;;		_BusyXLCD
  5857 ;;		_OpenXLCD
  5858 ;;		_WriteCmdXLCD
  5859 ;; This function is called by:
  5860 ;;		_main
  5861 ;; This function uses a non-reentrant model
  5862 ;;
  5863                           
  5864                           	psect	text41
  5865  002842                     __ptext41:
  5866                           	opt callstack 0
  5867  002842                     _LCD_inicio_teste:
  5868                           	opt callstack 23
  5869  002842                     
  5870                           ;LCD.c: 36:  OpenXLCD(0b00101011);
  5871  002842  0E2B               	movlw	43
  5872  002844  EC38  F011         	call	_OpenXLCD
  5873  002848                     l4616:
  5874  002848  EC0B  F016         	call	_BusyXLCD	;wreg free
  5875  00284C  0900               	iorlw	0
  5876  00284E  A4D8               	btfss	status,2,c
  5877  002850  EF2C  F014         	goto	u4301
  5878  002854  EF2E  F014         	goto	u4300
  5879  002858                     u4301:
  5880  002858  EF24  F014         	goto	l4616
  5881  00285C                     u4300:
  5882  00285C                     
  5883                           ;LCD.c: 46:  WriteCmdXLCD(0b00001100);
  5884  00285C  0E0C               	movlw	12
  5885  00285E  EC50  F016         	call	_WriteCmdXLCD
  5886  002862                     l4620:
  5887  002862  EC0B  F016         	call	_BusyXLCD	;wreg free
  5888  002866  0900               	iorlw	0
  5889  002868  A4D8               	btfss	status,2,c
  5890  00286A  EF39  F014         	goto	u4311
  5891  00286E  EF3B  F014         	goto	u4310
  5892  002872                     u4311:
  5893  002872  EF31  F014         	goto	l4620
  5894  002876                     u4310:
  5895  002876                     
  5896                           ;LCD.c: 54:  WriteCmdXLCD(0b00010111);
  5897  002876  0E17               	movlw	23
  5898  002878  EC50  F016         	call	_WriteCmdXLCD
  5899  00287C                     l4624:
  5900  00287C  EC0B  F016         	call	_BusyXLCD	;wreg free
  5901  002880  0900               	iorlw	0
  5902  002882  A4D8               	btfss	status,2,c
  5903  002884  EF46  F014         	goto	u4321
  5904  002888  EF48  F014         	goto	u4320
  5905  00288C                     u4321:
  5906  00288C  EF3E  F014         	goto	l4624
  5907  002890                     u4320:
  5908  002890                     
  5909                           ;LCD.c: 60:  WriteCmdXLCD(0b00000001);
  5910  002890  0E01               	movlw	1
  5911  002892  EC50  F016         	call	_WriteCmdXLCD
  5912  002896                     l4628:
  5913  002896  EC0B  F016         	call	_BusyXLCD	;wreg free
  5914  00289A  0900               	iorlw	0
  5915  00289C  A4D8               	btfss	status,2,c
  5916  00289E  EF53  F014         	goto	u4331
  5917  0028A2  EF55  F014         	goto	u4330
  5918  0028A6                     u4331:
  5919  0028A6  EF4B  F014         	goto	l4628
  5920  0028AA                     u4330:
  5921  0028AA  0012               	return		;funcret
  5922  0028AC                     __end_of_LCD_inicio_teste:
  5923                           	opt callstack 0
  5924                           
  5925 ;; *************** function _OpenXLCD *****************
  5926 ;; Defined at:
  5927 ;;		line 56 in file "xlcd.c"
  5928 ;; Parameters:    Size  Location     Type
  5929 ;;  lcdtype         1    wreg     unsigned char 
  5930 ;; Auto vars:     Size  Location     Type
  5931 ;;  lcdtype         1    0[COMRAM] unsigned char 
  5932 ;; Return value:  Size  Location     Type
  5933 ;;                  1    wreg      void 
  5934 ;; Registers used:
  5935 ;;		wreg, status,2, status,0, cstack
  5936 ;; Tracked objects:
  5937 ;;		On entry : 0/0
  5938 ;;		On exit  : 0/0
  5939 ;;		Unchanged: 0/0
  5940 ;; Data sizes:     COMRAM   BANK0   BANK1   BANK2   BANK3   BANK4   BANK5
  5941 ;;      Params:         0       0       0       0       0       0       0
  5942 ;;      Locals:         0       0       0       0       0       0       0
  5943 ;;      Temps:          0       0       0       0       0       0       0
  5944 ;;      Totals:         0       0       0       0       0       0       0
  5945 ;;Total ram usage:        0 bytes
  5946 ;; Hardware stack levels used:    1
  5947 ;; Hardware stack levels required when called:    6
  5948 ;; This function calls:
  5949 ;;		_BusyXLCD
  5950 ;;		_DelayFor18TCY
  5951 ;;		_DelayPORXLCD
  5952 ;;		_DelayXLCD
  5953 ;;		_WriteCmdXLCD
  5954 ;; This function is called by:
  5955 ;;		_LCD_inicio_teste
  5956 ;; This function uses a non-reentrant model
  5957 ;;
  5958                           
  5959                           	psect	text42
  5960  002270                     __ptext42:
  5961                           	opt callstack 0
  5962  002270                     _OpenXLCD:
  5963                           	opt callstack 23
  5964  002270                     
  5965                           ;xlcd.c: 60:     DelayPORXLCD();
  5966  002270  ECFE  F017         	call	_DelayPORXLCD	;wreg free
  5967  002274                     
  5968                           ;xlcd.c: 72:     PORTD &= 0xf0;
  5969  002274  0EF0               	movlw	240
  5970  002276  1683               	andwf	131,f,c	;volatile
  5971  002278                     
  5972                           ;xlcd.c: 73:     TRISD |= 0x0f;
  5973  002278  0E0F               	movlw	15
  5974  00227A  1295               	iorwf	149,f,c	;volatile
  5975  00227C                     
  5976                           ;xlcd.c: 76:     TRISDbits.TRISD5 = 0;
  5977  00227C  9A95               	bcf	149,5,c	;volatile
  5978  00227E                     
  5979                           ;xlcd.c: 77:     TRISDbits.TRISD4 = 0;
  5980  00227E  9895               	bcf	149,4,c	;volatile
  5981  002280                     
  5982                           ;xlcd.c: 78:     TRISDbits.TRISD6 = 0;
  5983  002280  9C95               	bcf	149,6,c	;volatile
  5984  002282                     
  5985                           ;xlcd.c: 79:     LATDbits.LATD5 = 0;
  5986  002282  9A8C               	bcf	140,5,c	;volatile
  5987  002284                     
  5988                           ;xlcd.c: 80:     LATDbits.LATD4 = 0;
  5989  002284  988C               	bcf	140,4,c	;volatile
  5990  002286                     
  5991                           ;xlcd.c: 81:     LATDbits.LATD6 = 0;
  5992  002286  9C8C               	bcf	140,6,c	;volatile
  5993                           
  5994                           ;xlcd.c: 84:     DelayPORXLCD();
  5995  002288  ECFE  F017         	call	_DelayPORXLCD	;wreg free
  5996  00228C                     
  5997                           ;xlcd.c: 97:     TRISD &= 0xf0;
  5998  00228C  0EF0               	movlw	240
  5999  00228E  1695               	andwf	149,f,c	;volatile
  6000  002290                     
  6001                           ;xlcd.c: 98:     PORTD &= 0xf0;
  6002  002290  0EF0               	movlw	240
  6003  002292  1683               	andwf	131,f,c	;volatile
  6004  002294                     
  6005                           ;xlcd.c: 99:     PORTD |= 0b00000011;
  6006  002294  0E03               	movlw	3
  6007  002296  1283               	iorwf	131,f,c	;volatile
  6008  002298                     
  6009                           ;xlcd.c: 102:     LATDbits.LATD6 = 1;
  6010  002298  8C8C               	bsf	140,6,c	;volatile
  6011  00229A                     
  6012                           ;xlcd.c: 103:     DelayFor18TCY();
  6013  00229A  EC55  F018         	call	_DelayFor18TCY	;wreg free
  6014  00229E                     
  6015                           ;xlcd.c: 104:     LATDbits.LATD6 = 0;
  6016  00229E  9C8C               	bcf	140,6,c	;volatile
  6017  0022A0                     
  6018                           ;xlcd.c: 107:     DelayXLCD();
  6019  0022A0  EC39  F018         	call	_DelayXLCD	;wreg free
  6020  0022A4                     
  6021                           ;xlcd.c: 118:     TRISD &= 0xf0;
  6022  0022A4  0EF0               	movlw	240
  6023  0022A6  1695               	andwf	149,f,c	;volatile
  6024  0022A8                     
  6025                           ;xlcd.c: 119:     PORTD &= 0xf0;
  6026  0022A8  0EF0               	movlw	240
  6027  0022AA  1683               	andwf	131,f,c	;volatile
  6028  0022AC                     
  6029                           ;xlcd.c: 120:     PORTD |= 0b00000011;
  6030  0022AC  0E03               	movlw	3
  6031  0022AE  1283               	iorwf	131,f,c	;volatile
  6032  0022B0                     
  6033                           ;xlcd.c: 123:     LATDbits.LATD6 = 1;
  6034  0022B0  8C8C               	bsf	140,6,c	;volatile
  6035                           
  6036                           ;xlcd.c: 124:     DelayFor18TCY();
  6037  0022B2  EC55  F018         	call	_DelayFor18TCY	;wreg free
  6038  0022B6                     
  6039                           ;xlcd.c: 125:     LATDbits.LATD6 = 0;
  6040  0022B6  9C8C               	bcf	140,6,c	;volatile
  6041                           
  6042                           ;xlcd.c: 128:     DelayXLCD();
  6043  0022B8  EC39  F018         	call	_DelayXLCD	;wreg free
  6044  0022BC                     
  6045                           ;xlcd.c: 138:     PORTD &= 0xf0;
  6046  0022BC  0EF0               	movlw	240
  6047  0022BE  1683               	andwf	131,f,c	;volatile
  6048  0022C0                     
  6049                           ;xlcd.c: 139:     PORTD |= 0b00000011;
  6050  0022C0  0E03               	movlw	3
  6051  0022C2  1283               	iorwf	131,f,c	;volatile
  6052  0022C4                     
  6053                           ;xlcd.c: 142:     LATDbits.LATD6 = 1;
  6054  0022C4  8C8C               	bsf	140,6,c	;volatile
  6055                           
  6056                           ;xlcd.c: 143:     DelayFor18TCY();
  6057  0022C6  EC55  F018         	call	_DelayFor18TCY	;wreg free
  6058  0022CA                     
  6059                           ;xlcd.c: 144:     LATDbits.LATD6 = 0;
  6060  0022CA  9C8C               	bcf	140,6,c	;volatile
  6061                           
  6062                           ;xlcd.c: 147:     DelayXLCD();
  6063  0022CC  EC39  F018         	call	_DelayXLCD	;wreg free
  6064  0022D0                     
  6065                           ;xlcd.c: 159:     PORTD &= 0xf0;
  6066  0022D0  0EF0               	movlw	240
  6067  0022D2  1683               	andwf	131,f,c	;volatile
  6068  0022D4                     
  6069                           ;xlcd.c: 160:     PORTD |= 0b00000010;
  6070  0022D4  8283               	bsf	131,1,c	;volatile
  6071  0022D6                     
  6072                           ;xlcd.c: 163:     LATDbits.LATD6 = 1;
  6073  0022D6  8C8C               	bsf	140,6,c	;volatile
  6074  0022D8                     
  6075                           ;xlcd.c: 164:     DelayFor18TCY();
  6076  0022D8  EC55  F018         	call	_DelayFor18TCY	;wreg free
  6077  0022DC                     
  6078                           ;xlcd.c: 165:     LATDbits.LATD6 = 0;
  6079  0022DC  9C8C               	bcf	140,6,c	;volatile
  6080  0022DE                     
  6081                           ;xlcd.c: 174:     TRISD |= 0x0f;
  6082  0022DE  0E0F               	movlw	15
  6083  0022E0  1295               	iorwf	149,f,c	;volatile
  6084  0022E2                     l4444:
  6085  0022E2  EC0B  F016         	call	_BusyXLCD	;wreg free
  6086  0022E6  0900               	iorlw	0
  6087  0022E8  A4D8               	btfss	status,2,c
  6088  0022EA  EF79  F011         	goto	u4051
  6089  0022EE  EF7B  F011         	goto	u4050
  6090  0022F2                     u4051:
  6091  0022F2  EF71  F011         	goto	l4444
  6092  0022F6                     u4050:
  6093  0022F6                     
  6094                           ;xlcd.c: 182:     WriteCmdXLCD(0x28);
  6095  0022F6  0E28               	movlw	40
  6096  0022F8  EC50  F016         	call	_WriteCmdXLCD
  6097  0022FC                     l4448:
  6098  0022FC  EC0B  F016         	call	_BusyXLCD	;wreg free
  6099  002300  0900               	iorlw	0
  6100  002302  A4D8               	btfss	status,2,c
  6101  002304  EF86  F011         	goto	u4061
  6102  002308  EF88  F011         	goto	u4060
  6103  00230C                     u4061:
  6104  00230C  EF7E  F011         	goto	l4448
  6105  002310                     u4060:
  6106  002310                     
  6107                           ;xlcd.c: 188:     WriteCmdXLCD(0x0D);
  6108  002310  0E0D               	movlw	13
  6109  002312  EC50  F016         	call	_WriteCmdXLCD
  6110  002316                     l4452:
  6111  002316  EC0B  F016         	call	_BusyXLCD	;wreg free
  6112  00231A  0900               	iorlw	0
  6113  00231C  A4D8               	btfss	status,2,c
  6114  00231E  EF93  F011         	goto	u4071
  6115  002322  EF95  F011         	goto	u4070
  6116  002326                     u4071:
  6117  002326  EF8B  F011         	goto	l4452
  6118  00232A                     u4070:
  6119  00232A                     l4454:
  6120  00232A  EC0B  F016         	call	_BusyXLCD	;wreg free
  6121  00232E  0900               	iorlw	0
  6122  002330  A4D8               	btfss	status,2,c
  6123  002332  EF9D  F011         	goto	u4081
  6124  002336  EF9F  F011         	goto	u4080
  6125  00233A                     u4081:
  6126  00233A  EF95  F011         	goto	l4454
  6127  00233E                     u4080:
  6128  00233E                     
  6129                           ;xlcd.c: 196:     WriteCmdXLCD(0x01);
  6130  00233E  0E01               	movlw	1
  6131  002340  EC50  F016         	call	_WriteCmdXLCD
  6132  002344                     l4458:
  6133  002344  EC0B  F016         	call	_BusyXLCD	;wreg free
  6134  002348  0900               	iorlw	0
  6135  00234A  A4D8               	btfss	status,2,c
  6136  00234C  EFAA  F011         	goto	u4091
  6137  002350  EFAC  F011         	goto	u4090
  6138  002354                     u4091:
  6139  002354  EFA2  F011         	goto	l4458
  6140  002358                     u4090:
  6141  002358                     
  6142                           ;xlcd.c: 201:     WriteCmdXLCD(0x06);
  6143  002358  0E06               	movlw	6
  6144  00235A  EC50  F016         	call	_WriteCmdXLCD
  6145  00235E                     l4462:
  6146  00235E  EC0B  F016         	call	_BusyXLCD	;wreg free
  6147  002362  0900               	iorlw	0
  6148  002364  A4D8               	btfss	status,2,c
  6149  002366  EFB7  F011         	goto	u4101
  6150  00236A  EFB9  F011         	goto	u4100
  6151  00236E                     u4101:
  6152  00236E  EFAF  F011         	goto	l4462
  6153  002372                     u4100:
  6154  002372                     
  6155                           ;xlcd.c: 207:     WriteCmdXLCD(0x80);
  6156  002372  0E80               	movlw	128
  6157  002374  EC50  F016         	call	_WriteCmdXLCD
  6158  002378  0012               	return		;funcret
  6159  00237A                     __end_of_OpenXLCD:
  6160                           	opt callstack 0
  6161                           
  6162 ;; *************** function _WriteCmdXLCD *****************
  6163 ;; Defined at:
  6164 ;;		line 538 in file "xlcd.c"
  6165 ;; Parameters:    Size  Location     Type
  6166 ;;  cmd             1    wreg     unsigned char 
  6167 ;; Auto vars:     Size  Location     Type
  6168 ;;  cmd             1    6[BANK0 ] unsigned char 
  6169 ;; Return value:  Size  Location     Type
  6170 ;;                  1    wreg      void 
  6171 ;; Registers used:
  6172 ;;		wreg, status,2, status,0, cstack
  6173 ;; Tracked objects:
  6174 ;;		On entry : 0/0
  6175 ;;		On exit  : 0/0
  6176 ;;		Unchanged: 0/0
  6177 ;; Data sizes:     COMRAM   BANK0   BANK1   BANK2   BANK3   BANK4   BANK5
  6178 ;;      Params:         0       0       0       0       0       0       0
  6179 ;;      Locals:         0       1       0       0       0       0       0
  6180 ;;      Temps:          0       0       0       0       0       0       0
  6181 ;;      Totals:         0       1       0       0       0       0       0
  6182 ;;Total ram usage:        1 bytes
  6183 ;; Hardware stack levels used:    1
  6184 ;; Hardware stack levels required when called:    5
  6185 ;; This function calls:
  6186 ;;		_DelayFor18TCY
  6187 ;; This function is called by:
  6188 ;;		_main
  6189 ;;		_OpenXLCD
  6190 ;;		_LCD_inicio_teste
  6191 ;; This function uses a non-reentrant model
  6192 ;;
  6193                           
  6194                           	psect	text43
  6195  002CA0                     __ptext43:
  6196                           	opt callstack 0
  6197  002CA0                     _WriteCmdXLCD:
  6198                           	opt callstack 25
  6199                           
  6200                           ;incstack = 0
  6201                           ;WriteCmdXLCD@cmd stored from wreg
  6202  002CA0  0100               	movlb	0	; () banked
  6203  002CA2  6F66               	movwf	WriteCmdXLCD@cmd& (0+255),b
  6204  002CA4                     
  6205                           ;xlcd.c: 556:     TRISD &= 0xf0;
  6206  002CA4  0EF0               	movlw	240
  6207  002CA6  1695               	andwf	149,f,c	;volatile
  6208                           
  6209                           ;xlcd.c: 557:     PORTD &= 0xf0;
  6210  002CA8  0EF0               	movlw	240
  6211  002CAA  1683               	andwf	131,f,c	;volatile
  6212                           
  6213                           ;xlcd.c: 558:     PORTD |= (cmd >> 4)&0x0f;
  6214  002CAC  0100               	movlb	0	; () banked
  6215  002CAE  3966               	swapf	WriteCmdXLCD@cmd& (0+255),w,b
  6216  002CB0  0B0F               	andlw	15
  6217  002CB2  0B0F               	andlw	15
  6218  002CB4  1283               	iorwf	131,f,c	;volatile
  6219  002CB6                     
  6220                           ; BSR set to: 0
  6221                           ;xlcd.c: 560:     LATDbits.LATD5 = 0;
  6222  002CB6  9A8C               	bcf	140,5,c	;volatile
  6223  002CB8                     
  6224                           ; BSR set to: 0
  6225                           ;xlcd.c: 561:     LATDbits.LATD4 = 0;
  6226  002CB8  988C               	bcf	140,4,c	;volatile
  6227  002CBA                     
  6228                           ; BSR set to: 0
  6229                           ;xlcd.c: 562:     DelayFor18TCY();
  6230  002CBA  EC55  F018         	call	_DelayFor18TCY	;wreg free
  6231  002CBE                     
  6232                           ;xlcd.c: 563:     LATDbits.LATD6 = 1;
  6233  002CBE  8C8C               	bsf	140,6,c	;volatile
  6234  002CC0                     
  6235                           ;xlcd.c: 564:     DelayFor18TCY();
  6236  002CC0  EC55  F018         	call	_DelayFor18TCY	;wreg free
  6237  002CC4                     
  6238                           ;xlcd.c: 565:     LATDbits.LATD6 = 0;
  6239  002CC4  9C8C               	bcf	140,6,c	;volatile
  6240                           
  6241                           ;xlcd.c: 570:     PORTD &= 0xf0;
  6242  002CC6  0EF0               	movlw	240
  6243  002CC8  1683               	andwf	131,f,c	;volatile
  6244                           
  6245                           ;xlcd.c: 571:     PORTD |= cmd & 0x0f;
  6246  002CCA  0100               	movlb	0	; () banked
  6247  002CCC  5166               	movf	WriteCmdXLCD@cmd& (0+255),w,b
  6248  002CCE  0B0F               	andlw	15
  6249  002CD0  1283               	iorwf	131,f,c	;volatile
  6250  002CD2                     
  6251                           ; BSR set to: 0
  6252                           ;xlcd.c: 573:     DelayFor18TCY();
  6253  002CD2  EC55  F018         	call	_DelayFor18TCY	;wreg free
  6254  002CD6                     
  6255                           ;xlcd.c: 574:     LATDbits.LATD6 = 1;
  6256  002CD6  8C8C               	bsf	140,6,c	;volatile
  6257  002CD8                     
  6258                           ;xlcd.c: 575:     DelayFor18TCY();
  6259  002CD8  EC55  F018         	call	_DelayFor18TCY	;wreg free
  6260  002CDC                     
  6261                           ;xlcd.c: 576:     LATDbits.LATD6 = 0;
  6262  002CDC  9C8C               	bcf	140,6,c	;volatile
  6263                           
  6264                           ;xlcd.c: 580:     TRISD |= 0x0f;
  6265  002CDE  0E0F               	movlw	15
  6266  002CE0  1295               	iorwf	149,f,c	;volatile
  6267  002CE2  0012               	return		;funcret
  6268  002CE4                     __end_of_WriteCmdXLCD:
  6269                           	opt callstack 0
  6270                           
  6271 ;; *************** function _DelayXLCD *****************
  6272 ;; Defined at:
  6273 ;;		line 33 in file "xlcd.c"
  6274 ;; Parameters:    Size  Location     Type
  6275 ;;		None
  6276 ;; Auto vars:     Size  Location     Type
  6277 ;;		None
  6278 ;; Return value:  Size  Location     Type
  6279 ;;                  1    wreg      void 
  6280 ;; Registers used:
  6281 ;;		wreg
  6282 ;; Tracked objects:
  6283 ;;		On entry : 0/0
  6284 ;;		On exit  : 0/0
  6285 ;;		Unchanged: 0/0
  6286 ;; Data sizes:     COMRAM   BANK0   BANK1   BANK2   BANK3   BANK4   BANK5
  6287 ;;      Params:         0       0       0       0       0       0       0
  6288 ;;      Locals:         0       0       0       0       0       0       0
  6289 ;;      Temps:          0       1       0       0       0       0       0
  6290 ;;      Totals:         0       1       0       0       0       0       0
  6291 ;;Total ram usage:        1 bytes
  6292 ;; Hardware stack levels used:    1
  6293 ;; Hardware stack levels required when called:    4
  6294 ;; This function calls:
  6295 ;;		Nothing
  6296 ;; This function is called by:
  6297 ;;		_OpenXLCD
  6298 ;; This function uses a non-reentrant model
  6299 ;;
  6300                           
  6301                           	psect	text44
  6302  003072                     __ptext44:
  6303                           	opt callstack 0
  6304  003072                     _DelayXLCD:
  6305                           	opt callstack 24
  6306  003072                     
  6307                           ;xlcd.c: 36:     _delay((unsigned long)((15)*(4000000/4000.0)));
  6308  003072  0E14               	movlw	20
  6309  003074  0100               	movlb	0	; () banked
  6310  003076  6F66               	movwf	??_DelayXLCD& (0+255),b
  6311  003078  0E79               	movlw	121
  6312  00307A                     u5417:
  6313  00307A  2EE8               	decfsz	wreg,f,c
  6314  00307C  D7FE               	bra	u5417
  6315  00307E  2F66               	decfsz	??_DelayXLCD& (0+255),f,b
  6316  003080  D7FC               	bra	u5417
  6317  003082  D000               	nop2	
  6318  003084  0012               	return		;funcret
  6319  003086                     __end_of_DelayXLCD:
  6320                           	opt callstack 0
  6321                           
  6322 ;; *************** function _DelayPORXLCD *****************
  6323 ;; Defined at:
  6324 ;;		line 25 in file "xlcd.c"
  6325 ;; Parameters:    Size  Location     Type
  6326 ;;		None
  6327 ;; Auto vars:     Size  Location     Type
  6328 ;;		None
  6329 ;; Return value:  Size  Location     Type
  6330 ;;                  1    wreg      void 
  6331 ;; Registers used:
  6332 ;;		wreg
  6333 ;; Tracked objects:
  6334 ;;		On entry : 0/0
  6335 ;;		On exit  : 0/0
  6336 ;;		Unchanged: 0/0
  6337 ;; Data sizes:     COMRAM   BANK0   BANK1   BANK2   BANK3   BANK4   BANK5
  6338 ;;      Params:         0       0       0       0       0       0       0
  6339 ;;      Locals:         0       0       0       0       0       0       0
  6340 ;;      Temps:          0       1       0       0       0       0       0
  6341 ;;      Totals:         0       1       0       0       0       0       0
  6342 ;;Total ram usage:        1 bytes
  6343 ;; Hardware stack levels used:    1
  6344 ;; Hardware stack levels required when called:    4
  6345 ;; This function calls:
  6346 ;;		Nothing
  6347 ;; This function is called by:
  6348 ;;		_OpenXLCD
  6349 ;; This function uses a non-reentrant model
  6350 ;;
  6351                           
  6352                           	psect	text45
  6353  002FFC                     __ptext45:
  6354                           	opt callstack 0
  6355  002FFC                     _DelayPORXLCD:
  6356                           	opt callstack 24
  6357  002FFC                     
  6358                           ;xlcd.c: 28:     _delay((unsigned long)((15)*(4000000/4000.0)));
  6359  002FFC  0E14               	movlw	20
  6360  002FFE  0100               	movlb	0	; () banked
  6361  003000  6F66               	movwf	??_DelayPORXLCD& (0+255),b
  6362  003002  0E79               	movlw	121
  6363  003004                     u5427:
  6364  003004  2EE8               	decfsz	wreg,f,c
  6365  003006  D7FE               	bra	u5427
  6366  003008  2F66               	decfsz	??_DelayPORXLCD& (0+255),f,b
  6367  00300A  D7FC               	bra	u5427
  6368  00300C  D000               	nop2	
  6369                           
  6370                           ;xlcd.c: 29:     _delay((unsigned long)((15)*(4000000/4000.0)));
  6371  00300E  0E14               	movlw	20
  6372  003010  0100               	movlb	0	; () banked
  6373  003012  6F66               	movwf	??_DelayPORXLCD& (0+255),b
  6374  003014  0E79               	movlw	121
  6375  003016                     u5437:
  6376  003016  2EE8               	decfsz	wreg,f,c
  6377  003018  D7FE               	bra	u5437
  6378  00301A  2F66               	decfsz	??_DelayPORXLCD& (0+255),f,b
  6379  00301C  D7FC               	bra	u5437
  6380  00301E  D000               	nop2	
  6381  003020  0012               	return		;funcret
  6382  003022                     __end_of_DelayPORXLCD:
  6383                           	opt callstack 0
  6384                           
  6385 ;; *************** function _BusyXLCD *****************
  6386 ;; Defined at:
  6387 ;;		line 218 in file "xlcd.c"
  6388 ;; Parameters:    Size  Location     Type
  6389 ;;		None
  6390 ;; Auto vars:     Size  Location     Type
  6391 ;;		None
  6392 ;; Return value:  Size  Location     Type
  6393 ;;                  1    wreg      unsigned char 
  6394 ;; Registers used:
  6395 ;;		wreg, cstack
  6396 ;; Tracked objects:
  6397 ;;		On entry : 0/0
  6398 ;;		On exit  : 0/0
  6399 ;;		Unchanged: 0/0
  6400 ;; Data sizes:     COMRAM   BANK0   BANK1   BANK2   BANK3   BANK4   BANK5
  6401 ;;      Params:         0       0       0       0       0       0       0
  6402 ;;      Locals:         0       0       0       0       0       0       0
  6403 ;;      Temps:          0       0       0       0       0       0       0
  6404 ;;      Totals:         0       0       0       0       0       0       0
  6405 ;;Total ram usage:        0 bytes
  6406 ;; Hardware stack levels used:    1
  6407 ;; Hardware stack levels required when called:    5
  6408 ;; This function calls:
  6409 ;;		_DelayFor18TCY
  6410 ;; This function is called by:
  6411 ;;		_main
  6412 ;;		_OpenXLCD
  6413 ;;		_putsXLCD
  6414 ;;		_LCD_inicio_teste
  6415 ;; This function uses a non-reentrant model
  6416 ;;
  6417                           
  6418                           	psect	text46
  6419  002C16                     __ptext46:
  6420                           	opt callstack 0
  6421  002C16                     _BusyXLCD:
  6422                           	opt callstack 24
  6423  002C16                     
  6424                           ;xlcd.c: 219:     LATDbits.LATD5 = 1;
  6425  002C16  8A8C               	bsf	140,5,c	;volatile
  6426                           
  6427                           ;xlcd.c: 220:     LATDbits.LATD4 = 0;
  6428  002C18  988C               	bcf	140,4,c	;volatile
  6429  002C1A                     
  6430                           ;xlcd.c: 221:     DelayFor18TCY();
  6431  002C1A  EC55  F018         	call	_DelayFor18TCY	;wreg free
  6432  002C1E                     
  6433                           ;xlcd.c: 222:     LATDbits.LATD6 = 1;
  6434  002C1E  8C8C               	bsf	140,6,c	;volatile
  6435                           
  6436                           ;xlcd.c: 223:     DelayFor18TCY();
  6437  002C20  EC55  F018         	call	_DelayFor18TCY	;wreg free
  6438  002C24                     
  6439                           ;xlcd.c: 240:     if (PORTD & 0x08)
  6440  002C24  A683               	btfss	131,3,c	;volatile
  6441  002C26  EF17  F016         	goto	u2821
  6442  002C2A  EF19  F016         	goto	u2820
  6443  002C2E                     u2821:
  6444  002C2E  EF24  F016         	goto	l646
  6445  002C32                     u2820:
  6446  002C32                     
  6447                           ;xlcd.c: 242:     {;xlcd.c: 243:         LATDbits.LATD6 = 0;
  6448  002C32  9C8C               	bcf	140,6,c	;volatile
  6449  002C34                     
  6450                           ;xlcd.c: 244:         DelayFor18TCY();
  6451  002C34  EC55  F018         	call	_DelayFor18TCY	;wreg free
  6452  002C38                     
  6453                           ;xlcd.c: 245:         LATDbits.LATD6 = 1;
  6454  002C38  8C8C               	bsf	140,6,c	;volatile
  6455                           
  6456                           ;xlcd.c: 246:         DelayFor18TCY();
  6457  002C3A  EC55  F018         	call	_DelayFor18TCY	;wreg free
  6458  002C3E                     
  6459                           ;xlcd.c: 247:         LATDbits.LATD6 = 0;
  6460  002C3E  9C8C               	bcf	140,6,c	;volatile
  6461  002C40                     
  6462                           ;xlcd.c: 248:         LATDbits.LATD5 = 0;
  6463  002C40  9A8C               	bcf	140,5,c	;volatile
  6464  002C42                     
  6465                           ;xlcd.c: 249:         return 1;
  6466  002C42  0E01               	movlw	1
  6467  002C44  EF2D  F016         	goto	l647
  6468  002C48                     l646:
  6469                           
  6470                           ;xlcd.c: 251:     {;xlcd.c: 252:         LATDbits.LATD6 = 0;
  6471  002C48  9C8C               	bcf	140,6,c	;volatile
  6472  002C4A                     
  6473                           ;xlcd.c: 253:         DelayFor18TCY();
  6474  002C4A  EC55  F018         	call	_DelayFor18TCY	;wreg free
  6475  002C4E                     
  6476                           ;xlcd.c: 254:         LATDbits.LATD6 = 1;
  6477  002C4E  8C8C               	bsf	140,6,c	;volatile
  6478                           
  6479                           ;xlcd.c: 255:         DelayFor18TCY();
  6480  002C50  EC55  F018         	call	_DelayFor18TCY	;wreg free
  6481  002C54                     
  6482                           ;xlcd.c: 256:         LATDbits.LATD6 = 0;
  6483  002C54  9C8C               	bcf	140,6,c	;volatile
  6484  002C56                     
  6485                           ;xlcd.c: 257:         LATDbits.LATD5 = 0;
  6486  002C56  9A8C               	bcf	140,5,c	;volatile
  6487  002C58                     
  6488                           ;xlcd.c: 258:         return 0;
  6489  002C58  0E00               	movlw	0
  6490  002C5A                     l647:
  6491  002C5A  0012               	return		;funcret
  6492  002C5C                     __end_of_BusyXLCD:
  6493                           	opt callstack 0
  6494                           
  6495 ;; *************** function _DelayFor18TCY *****************
  6496 ;; Defined at:
  6497 ;;		line 18 in file "xlcd.c"
  6498 ;; Parameters:    Size  Location     Type
  6499 ;;		None
  6500 ;; Auto vars:     Size  Location     Type
  6501 ;;		None
  6502 ;; Return value:  Size  Location     Type
  6503 ;;                  1    wreg      void 
  6504 ;; Registers used:
  6505 ;;		wreg
  6506 ;; Tracked objects:
  6507 ;;		On entry : 0/0
  6508 ;;		On exit  : 0/0
  6509 ;;		Unchanged: 0/0
  6510 ;; Data sizes:     COMRAM   BANK0   BANK1   BANK2   BANK3   BANK4   BANK5
  6511 ;;      Params:         0       0       0       0       0       0       0
  6512 ;;      Locals:         0       0       0       0       0       0       0
  6513 ;;      Temps:          0       0       0       0       0       0       0
  6514 ;;      Totals:         0       0       0       0       0       0       0
  6515 ;;Total ram usage:        0 bytes
  6516 ;; Hardware stack levels used:    1
  6517 ;; Hardware stack levels required when called:    4
  6518 ;; This function calls:
  6519 ;;		Nothing
  6520 ;; This function is called by:
  6521 ;;		_OpenXLCD
  6522 ;;		_BusyXLCD
  6523 ;;		_WriteCmdXLCD
  6524 ;;		_WriteDataXLCD
  6525 ;;		_ReadAddrXLCD
  6526 ;;		_ReadDataXLCD
  6527 ;;		_SetCGRamAddr
  6528 ;;		_SetDDRamAddr
  6529 ;; This function uses a non-reentrant model
  6530 ;;
  6531                           
  6532                           	psect	text47
  6533  0030AA                     __ptext47:
  6534                           	opt callstack 0
  6535  0030AA                     _DelayFor18TCY:
  6536                           	opt callstack 24
  6537  0030AA                     
  6538                           ;xlcd.c: 20:     _delay((unsigned long)((18)*(4000000/4000000.0)));
  6539  0030AA  0E06               	movlw	6
  6540  0030AC                     u5447:
  6541  0030AC  2EE8               	decfsz	wreg,f,c
  6542  0030AE  D7FE               	bra	u5447
  6543                           
  6544                           ;xlcd.c: 21:     _delay((unsigned long)((1)*(4000000/4000.0)));
  6545  0030B0  0EC8               	movlw	200
  6546  0030B2                     u5457:
  6547  0030B2  D000               	nop2	
  6548  0030B4  2EE8               	decfsz	wreg,f,c
  6549  0030B6  D7FD               	bra	u5457
  6550  0030B8  0012               	return		;funcret
  6551  0030BA                     __end_of_DelayFor18TCY:
  6552                           	opt callstack 0
  6553                           
  6554 ;; *************** function _EUSART1_is_rx_ready *****************
  6555 ;; Defined at:
  6556 ;;		line 126 in file "mcc_generated_files/eusart1.c"
  6557 ;; Parameters:    Size  Location     Type
  6558 ;;		None
  6559 ;; Auto vars:     Size  Location     Type
  6560 ;;		None
  6561 ;; Return value:  Size  Location     Type
  6562 ;;                  1    wreg      _Bool 
  6563 ;; Registers used:
  6564 ;;		wreg, status,2
  6565 ;; Tracked objects:
  6566 ;;		On entry : 0/0
  6567 ;;		On exit  : 0/0
  6568 ;;		Unchanged: 0/0
  6569 ;; Data sizes:     COMRAM   BANK0   BANK1   BANK2   BANK3   BANK4   BANK5
  6570 ;;      Params:         0       0       0       0       0       0       0
  6571 ;;      Locals:         0       0       0       0       0       0       0
  6572 ;;      Temps:          0       0       0       0       0       0       0
  6573 ;;      Totals:         0       0       0       0       0       0       0
  6574 ;;Total ram usage:        0 bytes
  6575 ;; Hardware stack levels used:    1
  6576 ;; Hardware stack levels required when called:    4
  6577 ;; This function calls:
  6578 ;;		Nothing
  6579 ;; This function is called by:
  6580 ;;		_main
  6581 ;; This function uses a non-reentrant model
  6582 ;;
  6583                           
  6584                           	psect	text48
  6585  00305A                     __ptext48:
  6586                           	opt callstack 0
  6587  00305A                     _EUSART1_is_rx_ready:
  6588                           	opt callstack 26
  6589  00305A                     
  6590                           ;mcc_generated_files/eusart1.c: 128:     return (eusart1RxCount ? 1 : 0);
  6591  00305A  0100               	movlb	0	; () banked
  6592  00305C  51E8               	movf	_eusart1RxCount& (0+255),w,b	;volatile
  6593  00305E  A4D8               	btfss	status,2,c
  6594  003060  EF34  F018         	goto	u4201
  6595  003064  EF37  F018         	goto	u4200
  6596  003068                     u4201:
  6597  003068  0E01               	movlw	1
  6598  00306A  EF38  F018         	goto	u4210
  6599  00306E                     u4200:
  6600  00306E  0E00               	movlw	0
  6601  003070                     u4210:
  6602  003070                     
  6603                           ; BSR set to: 0
  6604  003070  0012               	return		;funcret
  6605  003072                     __end_of_EUSART1_is_rx_ready:
  6606                           	opt callstack 0
  6607                           
  6608 ;; *************** function _EUSART1_Read *****************
  6609 ;; Defined at:
  6610 ;;		line 140 in file "mcc_generated_files/eusart1.c"
  6611 ;; Parameters:    Size  Location     Type
  6612 ;;		None
  6613 ;; Auto vars:     Size  Location     Type
  6614 ;;  readValue       1    6[BANK0 ] unsigned char 
  6615 ;; Return value:  Size  Location     Type
  6616 ;;                  1    wreg      unsigned char 
  6617 ;; Registers used:
  6618 ;;		wreg, fsr2l, fsr2h, status,2, status,0
  6619 ;; Tracked objects:
  6620 ;;		On entry : 0/0
  6621 ;;		On exit  : 0/0
  6622 ;;		Unchanged: 0/0
  6623 ;; Data sizes:     COMRAM   BANK0   BANK1   BANK2   BANK3   BANK4   BANK5
  6624 ;;      Params:         0       0       0       0       0       0       0
  6625 ;;      Locals:         0       1       0       0       0       0       0
  6626 ;;      Temps:          0       0       0       0       0       0       0
  6627 ;;      Totals:         0       1       0       0       0       0       0
  6628 ;;Total ram usage:        1 bytes
  6629 ;; Hardware stack levels used:    1
  6630 ;; Hardware stack levels required when called:    4
  6631 ;; This function calls:
  6632 ;;		Nothing
  6633 ;; This function is called by:
  6634 ;;		_main
  6635 ;;		_getch
  6636 ;; This function uses a non-reentrant model
  6637 ;;
  6638                           
  6639                           	psect	text49
  6640  002AF0                     __ptext49:
  6641                           	opt callstack 0
  6642  002AF0                     _EUSART1_Read:
  6643                           	opt callstack 26
  6644  002AF0                     l4574:
  6645                           
  6646                           ;mcc_generated_files/eusart1.c: 144:     while(0 == eusart1RxCount)
  6647  002AF0  0100               	movlb	0	; () banked
  6648  002AF2  51E8               	movf	_eusart1RxCount& (0+255),w,b	;volatile
  6649  002AF4  B4D8               	btfsc	status,2,c
  6650  002AF6  EF7F  F015         	goto	u4221
  6651  002AFA  EF81  F015         	goto	u4220
  6652  002AFE                     u4221:
  6653  002AFE  EF78  F015         	goto	l4574
  6654  002B02                     u4220:
  6655  002B02                     
  6656                           ; BSR set to: 0
  6657                           ;mcc_generated_files/eusart1.c: 148:     eusart1RxLastError = eusart1RxStatusBuffer[eusa
      +                          rt1RxTail];
  6658  002B02  0E00               	movlw	low _eusart1RxStatusBuffer
  6659  002B04  25E9               	addwf	_eusart1RxTail& (0+255),w,b	;volatile
  6660  002B06  6ED9               	movwf	fsr2l,c
  6661  002B08  6ADA               	clrf	fsr2h,c
  6662  002B0A  0E01               	movlw	high _eusart1RxStatusBuffer
  6663  002B0C  22DA               	addwfc	fsr2h,f,c
  6664  002B0E  50DF               	movf	indf2,w,c
  6665  002B10  6FE7               	movwf	_eusart1RxLastError& (0+255),b	;volatile
  6666                           
  6667                           ;mcc_generated_files/eusart1.c: 150:     readValue = eusart1RxBuffer[eusart1RxTail++];
  6668  002B12  0E08               	movlw	low _eusart1RxBuffer
  6669  002B14  25E9               	addwf	_eusart1RxTail& (0+255),w,b	;volatile
  6670  002B16  6ED9               	movwf	fsr2l,c
  6671  002B18  6ADA               	clrf	fsr2h,c
  6672  002B1A  0E01               	movlw	high _eusart1RxBuffer
  6673  002B1C  22DA               	addwfc	fsr2h,f,c
  6674  002B1E  50DF               	movf	indf2,w,c
  6675  002B20  6F66               	movwf	EUSART1_Read@readValue& (0+255),b
  6676  002B22                     
  6677                           ; BSR set to: 0
  6678  002B22  2BE9               	incf	_eusart1RxTail& (0+255),f,b	;volatile
  6679  002B24                     
  6680                           ; BSR set to: 0
  6681                           ;mcc_generated_files/eusart1.c: 151:     if(sizeof(eusart1RxBuffer) <= eusart1RxTail)
  6682  002B24  0E07               	movlw	7
  6683  002B26  65E9               	cpfsgt	_eusart1RxTail& (0+255),b	;volatile
  6684  002B28  EF98  F015         	goto	u4231
  6685  002B2C  EF9A  F015         	goto	u4230
  6686  002B30                     u4231:
  6687  002B30  EF9C  F015         	goto	l4584
  6688  002B34                     u4230:
  6689  002B34                     
  6690                           ; BSR set to: 0
  6691                           ;mcc_generated_files/eusart1.c: 152:     {;mcc_generated_files/eusart1.c: 153:         e
      +                          usart1RxTail = 0;
  6692  002B34  0E00               	movlw	0
  6693  002B36  6FE9               	movwf	_eusart1RxTail& (0+255),b	;volatile
  6694  002B38                     l4584:
  6695                           
  6696                           ; BSR set to: 0
  6697                           ;mcc_generated_files/eusart1.c: 155:     PIE1bits.RC1IE = 0;
  6698  002B38  9A9D               	bcf	157,5,c	;volatile
  6699  002B3A                     
  6700                           ; BSR set to: 0
  6701                           ;mcc_generated_files/eusart1.c: 156:     eusart1RxCount--;
  6702  002B3A  07E8               	decf	_eusart1RxCount& (0+255),f,b	;volatile
  6703  002B3C                     
  6704                           ; BSR set to: 0
  6705                           ;mcc_generated_files/eusart1.c: 157:     PIE1bits.RC1IE = 1;
  6706  002B3C  8A9D               	bsf	157,5,c	;volatile
  6707  002B3E                     
  6708                           ; BSR set to: 0
  6709                           ;mcc_generated_files/eusart1.c: 159:     return readValue;
  6710  002B3E  5166               	movf	EUSART1_Read@readValue& (0+255),w,b
  6711  002B40                     
  6712                           ; BSR set to: 0
  6713  002B40  0012               	return		;funcret
  6714  002B42                     __end_of_EUSART1_Read:
  6715                           	opt callstack 0
  6716                           
  6717 ;; *************** function _INTERRUPT_InterruptManagerHigh *****************
  6718 ;; Defined at:
  6719 ;;		line 79 in file "mcc_generated_files/interrupt_manager.c"
  6720 ;; Parameters:    Size  Location     Type
  6721 ;;		None
  6722 ;; Auto vars:     Size  Location     Type
  6723 ;;		None
  6724 ;; Return value:  Size  Location     Type
  6725 ;;                  1    wreg      void 
  6726 ;; Registers used:
  6727 ;;		wreg, fsr2l, fsr2h, status,2, status,0, pclath, tosl, prodl, prodh, cstack
  6728 ;; Tracked objects:
  6729 ;;		On entry : 0/0
  6730 ;;		On exit  : 0/0
  6731 ;;		Unchanged: 0/0
  6732 ;; Data sizes:     COMRAM   BANK0   BANK1   BANK2   BANK3   BANK4   BANK5
  6733 ;;      Params:         0       0       0       0       0       0       0
  6734 ;;      Locals:         0       0       0       0       0       0       0
  6735 ;;      Temps:          0       6       0       0       0       0       0
  6736 ;;      Totals:         0       6       0       0       0       0       0
  6737 ;;Total ram usage:        6 bytes
  6738 ;; Hardware stack levels used:    1
  6739 ;; Hardware stack levels required when called:    3
  6740 ;; This function calls:
  6741 ;;		Absolute function
  6742 ;;		_ADC_ISR
  6743 ;;		_EUSART1_Receive_ISR
  6744 ;;		_INT0_ISR
  6745 ;;		_INT1_ISR
  6746 ;;		_INT2_ISR
  6747 ;;		_TMR0_ISR
  6748 ;; This function is called by:
  6749 ;;		Interrupt level 2
  6750 ;; This function uses a non-reentrant model
  6751 ;;
  6752                           
  6753                           	psect	intcode
  6754  000008                     __pintcode:
  6755                           	opt callstack 0
  6756  000008                     _INTERRUPT_InterruptManagerHigh:
  6757                           	opt callstack 18
  6758                           
  6759                           ; BSR set to: 0
  6760                           ;incstack = 0
  6761  000008  825F               	bsf	int$flags,1,c	;set compiler interrupt flag (level 2)
  6762  00000A  CFFA F060          	movff	pclath,??_INTERRUPT_InterruptManagerHigh
  6763  00000E  CFFB F061          	movff	pclatu,??_INTERRUPT_InterruptManagerHigh+1
  6764  000012  CFD9 F062          	movff	fsr2l,??_INTERRUPT_InterruptManagerHigh+2
  6765  000016  CFDA F063          	movff	fsr2h,??_INTERRUPT_InterruptManagerHigh+3
  6766  00001A  CFF3 F064          	movff	prodl,??_INTERRUPT_InterruptManagerHigh+4
  6767  00001E  CFF4 F065          	movff	prodh,??_INTERRUPT_InterruptManagerHigh+5
  6768  000022                     
  6769                           ;mcc_generated_files/interrupt_manager.c: 82:     if(PIE1bits.ADIE == 1 && PIR1bits.ADIF
      +                           == 1)
  6770  000022  AC9D               	btfss	157,6,c	;volatile
  6771  000024  EF16  F000         	goto	i2u447_41
  6772  000028  EF18  F000         	goto	i2u447_40
  6773  00002C                     i2u447_41:
  6774  00002C  EF23  F000         	goto	i2l140
  6775  000030                     i2u447_40:
  6776  000030  AC9E               	btfss	158,6,c	;volatile
  6777  000032  EF1D  F000         	goto	i2u448_41
  6778  000036  EF1F  F000         	goto	i2u448_40
  6779  00003A                     i2u448_41:
  6780  00003A  EF23  F000         	goto	i2l140
  6781  00003E                     i2u448_40:
  6782  00003E                     
  6783                           ;mcc_generated_files/interrupt_manager.c: 83:     {;mcc_generated_files/interrupt_manage
      +                          r.c: 84:         ADC_ISR();
  6784  00003E  EC25  F017         	call	_ADC_ISR	;wreg free
  6785                           
  6786                           ;mcc_generated_files/interrupt_manager.c: 85:     }
  6787  000042  EF89  F000         	goto	i2l152
  6788  000046                     i2l140:
  6789  000046  AA9D               	btfss	157,5,c	;volatile
  6790  000048  EF28  F000         	goto	i2u449_41
  6791  00004C  EF2A  F000         	goto	i2u449_40
  6792  000050                     i2u449_41:
  6793  000050  EF41  F000         	goto	i2l142
  6794  000054                     i2u449_40:
  6795  000054  AA9E               	btfss	158,5,c	;volatile
  6796  000056  EF2F  F000         	goto	i2u450_41
  6797  00005A  EF31  F000         	goto	i2u450_40
  6798  00005E                     i2u450_41:
  6799  00005E  EF41  F000         	goto	i2l142
  6800  000062                     i2u450_40:
  6801  000062                     
  6802                           ;mcc_generated_files/interrupt_manager.c: 87:     {;mcc_generated_files/interrupt_manage
      +                          r.c: 88:         EUSART1_RxDefaultInterruptHandler();
  6803  000062  D802               	call	i2u451_48
  6804  000064  EF3F  F000         	goto	i2u451_49
  6805  000068                     i2u451_48:
  6806  000068  0005               	push	
  6807  00006A  0101               	movlb	1	; () banked
  6808  00006C  6EFA               	movwf	pclath,c
  6809  00006E  5154               	movf	_EUSART1_RxDefaultInterruptHandler& (0+255),w,b
  6810  000070  6EFD               	movwf	tosl,c
  6811  000072  5155               	movf	(_EUSART1_RxDefaultInterruptHandler+1)& (0+255),w,b
  6812  000074  6EFE               	movwf	tosh,c
  6813  000076  50F8               	movf	tblptru,w,c
  6814  000078  6EFF               	movwf	tosu,c
  6815  00007A  50FA               	movf	pclath,w,c
  6816  00007C  0012               	return		;indir
  6817  00007E                     i2u451_49:
  6818                           
  6819                           ;mcc_generated_files/interrupt_manager.c: 89:     }
  6820  00007E  EF89  F000         	goto	i2l152
  6821  000082                     i2l142:
  6822  000082  A8F2               	btfss	242,4,c	;volatile
  6823  000084  EF46  F000         	goto	i2u452_41
  6824  000088  EF48  F000         	goto	i2u452_40
  6825  00008C                     i2u452_41:
  6826  00008C  EF53  F000         	goto	i2l144
  6827  000090                     i2u452_40:
  6828  000090  A2F2               	btfss	242,1,c	;volatile
  6829  000092  EF4D  F000         	goto	i2u453_41
  6830  000096  EF4F  F000         	goto	i2u453_40
  6831  00009A                     i2u453_41:
  6832  00009A  EF53  F000         	goto	i2l144
  6833  00009E                     i2u453_40:
  6834  00009E                     
  6835                           ;mcc_generated_files/interrupt_manager.c: 91:     {;mcc_generated_files/interrupt_manage
      +                          r.c: 92:         INT0_ISR();
  6836  00009E  ECA7  F018         	call	_INT0_ISR	;wreg free
  6837                           
  6838                           ;mcc_generated_files/interrupt_manager.c: 93:     }
  6839  0000A2  EF89  F000         	goto	i2l152
  6840  0000A6                     i2l144:
  6841  0000A6  AAF2               	btfss	242,5,c	;volatile
  6842  0000A8  EF58  F000         	goto	i2u454_41
  6843  0000AC  EF5A  F000         	goto	i2u454_40
  6844  0000B0                     i2u454_41:
  6845  0000B0  EF65  F000         	goto	i2l146
  6846  0000B4                     i2u454_40:
  6847  0000B4  A4F2               	btfss	242,2,c	;volatile
  6848  0000B6  EF5F  F000         	goto	i2u455_41
  6849  0000BA  EF61  F000         	goto	i2u455_40
  6850  0000BE                     i2u455_41:
  6851  0000BE  EF65  F000         	goto	i2l146
  6852  0000C2                     i2u455_40:
  6853  0000C2                     
  6854                           ;mcc_generated_files/interrupt_manager.c: 95:     {;mcc_generated_files/interrupt_manage
      +                          r.c: 96:         TMR0_ISR();
  6855  0000C2  ECEC  F016         	call	_TMR0_ISR	;wreg free
  6856                           
  6857                           ;mcc_generated_files/interrupt_manager.c: 97:     }
  6858  0000C6  EF89  F000         	goto	i2l152
  6859  0000CA                     i2l146:
  6860  0000CA  A6F0               	btfss	240,3,c	;volatile
  6861  0000CC  EF6A  F000         	goto	i2u456_41
  6862  0000D0  EF6C  F000         	goto	i2u456_40
  6863  0000D4                     i2u456_41:
  6864  0000D4  EF77  F000         	goto	i2l148
  6865  0000D8                     i2u456_40:
  6866  0000D8  A0F0               	btfss	240,0,c	;volatile
  6867  0000DA  EF71  F000         	goto	i2u457_41
  6868  0000DE  EF73  F000         	goto	i2u457_40
  6869  0000E2                     i2u457_41:
  6870  0000E2  EF77  F000         	goto	i2l148
  6871  0000E6                     i2u457_40:
  6872  0000E6                     
  6873                           ;mcc_generated_files/interrupt_manager.c: 99:     {;mcc_generated_files/interrupt_manage
      +                          r.c: 100:         INT1_ISR();
  6874  0000E6  ECA3  F018         	call	_INT1_ISR	;wreg free
  6875                           
  6876                           ;mcc_generated_files/interrupt_manager.c: 101:     }
  6877  0000EA  EF89  F000         	goto	i2l152
  6878  0000EE                     i2l148:
  6879  0000EE  A8F0               	btfss	240,4,c	;volatile
  6880  0000F0  EF7C  F000         	goto	i2u458_41
  6881  0000F4  EF7E  F000         	goto	i2u458_40
  6882  0000F8                     i2u458_41:
  6883  0000F8  EF89  F000         	goto	i2l147
  6884  0000FC                     i2u458_40:
  6885  0000FC  A2F0               	btfss	240,1,c	;volatile
  6886  0000FE  EF83  F000         	goto	i2u459_41
  6887  000102  EF85  F000         	goto	i2u459_40
  6888  000106                     i2u459_41:
  6889  000106  EF89  F000         	goto	i2l147
  6890  00010A                     i2u459_40:
  6891  00010A                     
  6892                           ;mcc_generated_files/interrupt_manager.c: 103:     {;mcc_generated_files/interrupt_manag
      +                          er.c: 104:         INT2_ISR();
  6893  00010A  EC9F  F018         	call	_INT2_ISR	;wreg free
  6894                           
  6895                           ;mcc_generated_files/interrupt_manager.c: 105:     }
  6896  00010E  EF89  F000         	goto	i2l152
  6897  000112                     i2l147:
  6898  000112                     i2l152:
  6899  000112  C065  FFF4         	movff	??_INTERRUPT_InterruptManagerHigh+5,prodh
  6900  000116  C064  FFF3         	movff	??_INTERRUPT_InterruptManagerHigh+4,prodl
  6901  00011A  C063  FFDA         	movff	??_INTERRUPT_InterruptManagerHigh+3,fsr2h
  6902  00011E  C062  FFD9         	movff	??_INTERRUPT_InterruptManagerHigh+2,fsr2l
  6903  000122  C061  FFFB         	movff	??_INTERRUPT_InterruptManagerHigh+1,pclatu
  6904  000126  C060  FFFA         	movff	??_INTERRUPT_InterruptManagerHigh,pclath
  6905  00012A  925F               	bcf	int$flags,1,c	;clear compiler interrupt flag (level 2)
  6906  00012C  0011               	retfie		f
  6907  00012E                     __end_of_INTERRUPT_InterruptManagerHigh:
  6908                           	opt callstack 0
  6909                           
  6910 ;; *************** function _TMR0_ISR *****************
  6911 ;; Defined at:
  6912 ;;		line 136 in file "mcc_generated_files/tmr0.c"
  6913 ;; Parameters:    Size  Location     Type
  6914 ;;		None
  6915 ;; Auto vars:     Size  Location     Type
  6916 ;;		None
  6917 ;; Return value:  Size  Location     Type
  6918 ;;                  1    wreg      void 
  6919 ;; Registers used:
  6920 ;;		wreg, status,2, status,0, pclath, tosl, cstack
  6921 ;; Tracked objects:
  6922 ;;		On entry : 0/0
  6923 ;;		On exit  : 0/0
  6924 ;;		Unchanged: 0/0
  6925 ;; Data sizes:     COMRAM   BANK0   BANK1   BANK2   BANK3   BANK4   BANK5
  6926 ;;      Params:         0       0       0       0       0       0       0
  6927 ;;      Locals:         0       0       0       0       0       0       0
  6928 ;;      Temps:          0       0       0       0       0       0       0
  6929 ;;      Totals:         0       0       0       0       0       0       0
  6930 ;;Total ram usage:        0 bytes
  6931 ;; Hardware stack levels used:    1
  6932 ;; Hardware stack levels required when called:    2
  6933 ;; This function calls:
  6934 ;;		Absolute function
  6935 ;;		_TMR0_DefaultInterruptHandler
  6936 ;;		_Timer_0
  6937 ;; This function is called by:
  6938 ;;		_INTERRUPT_InterruptManagerHigh
  6939 ;; This function uses a non-reentrant model
  6940 ;;
  6941                           
  6942                           	psect	text51
  6943  002DD8                     __ptext51:
  6944                           	opt callstack 0
  6945  002DD8                     _TMR0_ISR:
  6946                           	opt callstack 18
  6947  002DD8                     
  6948                           ;mcc_generated_files/tmr0.c: 140:     INTCONbits.TMR0IF = 0;
  6949  002DD8  94F2               	bcf	242,2,c	;volatile
  6950  002DDA                     
  6951                           ;mcc_generated_files/tmr0.c: 144:     TMR0H = timer0ReloadVal >> 8;
  6952  002DDA  0100               	movlb	0	; () banked
  6953  002DDC  51F4               	movf	(_timer0ReloadVal+1)& (0+255),w,b	;volatile
  6954  002DDE  6ED7               	movwf	215,c	;volatile
  6955  002DE0                     
  6956                           ; BSR set to: 0
  6957                           ;mcc_generated_files/tmr0.c: 145:     TMR0L = (uint8_t) timer0ReloadVal;
  6958  002DE0  C0F3  FFD6         	movff	_timer0ReloadVal,4054	;volatile
  6959  002DE4                     
  6960                           ; BSR set to: 0
  6961                           ;mcc_generated_files/tmr0.c: 147:     if(TMR0_InterruptHandler)
  6962  002DE4  51F5               	movf	_TMR0_InterruptHandler& (0+255),w,b
  6963  002DE6  11F6               	iorwf	(_TMR0_InterruptHandler+1)& (0+255),w,b
  6964  002DE8  B4D8               	btfsc	status,2,c
  6965  002DEA  EFF9  F016         	goto	i2u416_41
  6966  002DEE  EFFB  F016         	goto	i2u416_40
  6967  002DF2                     i2u416_41:
  6968  002DF2  EF08  F017         	goto	i2l40
  6969  002DF6                     i2u416_40:
  6970  002DF6                     
  6971                           ; BSR set to: 0
  6972                           ;mcc_generated_files/tmr0.c: 148:     {;mcc_generated_files/tmr0.c: 149:         TMR0_In
      +                          terruptHandler();
  6973  002DF6  D802               	call	i2u417_48
  6974  002DF8  EF08  F017         	goto	i2u417_49
  6975  002DFC                     i2u417_48:
  6976  002DFC  0005               	push	
  6977  002DFE  6EFA               	movwf	pclath,c
  6978  002E00  51F5               	movf	_TMR0_InterruptHandler& (0+255),w,b
  6979  002E02  6EFD               	movwf	tosl,c
  6980  002E04  51F6               	movf	(_TMR0_InterruptHandler+1)& (0+255),w,b
  6981  002E06  6EFE               	movwf	tosh,c
  6982  002E08  50F8               	movf	tblptru,w,c
  6983  002E0A  6EFF               	movwf	tosu,c
  6984  002E0C  50FA               	movf	pclath,w,c
  6985  002E0E  0012               	return		;indir
  6986  002E10                     i2u417_49:
  6987  002E10                     i2l40:
  6988  002E10  0012               	return		;funcret
  6989  002E12                     __end_of_TMR0_ISR:
  6990                           	opt callstack 0
  6991                           
  6992 ;; *************** function _TMR0_DefaultInterruptHandler *****************
  6993 ;; Defined at:
  6994 ;;		line 160 in file "mcc_generated_files/tmr0.c"
  6995 ;; Parameters:    Size  Location     Type
  6996 ;;		None
  6997 ;; Auto vars:     Size  Location     Type
  6998 ;;		None
  6999 ;; Return value:  Size  Location     Type
  7000 ;;                  1    wreg      void 
  7001 ;; Registers used:
  7002 ;;		None
  7003 ;; Tracked objects:
  7004 ;;		On entry : 0/0
  7005 ;;		On exit  : 0/0
  7006 ;;		Unchanged: 0/0
  7007 ;; Data sizes:     COMRAM   BANK0   BANK1   BANK2   BANK3   BANK4   BANK5
  7008 ;;      Params:         0       0       0       0       0       0       0
  7009 ;;      Locals:         0       0       0       0       0       0       0
  7010 ;;      Temps:          0       0       0       0       0       0       0
  7011 ;;      Totals:         0       0       0       0       0       0       0
  7012 ;;Total ram usage:        0 bytes
  7013 ;; Hardware stack levels used:    1
  7014 ;; This function calls:
  7015 ;;		Nothing
  7016 ;; This function is called by:
  7017 ;;		_TMR0_Initialize
  7018 ;;		_TMR0_ISR
  7019 ;; This function uses a non-reentrant model
  7020 ;;
  7021                           
  7022                           	psect	text52
  7023  00316C                     __ptext52:
  7024                           	opt callstack 0
  7025  00316C                     _TMR0_DefaultInterruptHandler:
  7026                           	opt callstack 19
  7027  00316C  0012               	return		;funcret
  7028  00316E                     __end_of_TMR0_DefaultInterruptHandler:
  7029                           	opt callstack 0
  7030                           
  7031 ;; *************** function _Timer_0 *****************
  7032 ;; Defined at:
  7033 ;;		line 76 in file "main.c"
  7034 ;; Parameters:    Size  Location     Type
  7035 ;;		None
  7036 ;; Auto vars:     Size  Location     Type
  7037 ;;		None
  7038 ;; Return value:  Size  Location     Type
  7039 ;;                  1    wreg      void 
  7040 ;; Registers used:
  7041 ;;		wreg, status,2, status,0, cstack
  7042 ;; Tracked objects:
  7043 ;;		On entry : 0/0
  7044 ;;		On exit  : 0/0
  7045 ;;		Unchanged: 0/0
  7046 ;; Data sizes:     COMRAM   BANK0   BANK1   BANK2   BANK3   BANK4   BANK5
  7047 ;;      Params:         0       0       0       0       0       0       0
  7048 ;;      Locals:         0       0       0       0       0       0       0
  7049 ;;      Temps:          1       0       0       0       0       0       0
  7050 ;;      Totals:         1       0       0       0       0       0       0
  7051 ;;Total ram usage:        1 bytes
  7052 ;; Hardware stack levels used:    1
  7053 ;; Hardware stack levels required when called:    1
  7054 ;; This function calls:
  7055 ;;		_ADC_StartConversion
  7056 ;; This function is called by:
  7057 ;;		_main
  7058 ;;		_TMR0_ISR
  7059 ;; This function uses a non-reentrant model
  7060 ;;
  7061                           
  7062                           	psect	text53
  7063  002F88                     __ptext53:
  7064                           	opt callstack 0
  7065  002F88                     _Timer_0:
  7066                           	opt callstack 18
  7067  002F88  B289               	btfsc	137,1,c	;volatile
  7068  002F8A  EFC9  F017         	goto	i2u403_41
  7069  002F8E  EFCC  F017         	goto	i2u403_40
  7070  002F92                     i2u403_41:
  7071  002F92  0E01               	movlw	1
  7072  002F94  EFCD  F017         	goto	i2u403_46
  7073  002F98                     i2u403_40:
  7074  002F98  0E00               	movlw	0
  7075  002F9A                     i2u403_46:
  7076  002F9A  0AFF               	xorlw	255
  7077  002F9C  6E01               	movwf	??_Timer_0^0,c
  7078  002F9E  4601               	rlncf	??_Timer_0^0,f,c
  7079  002FA0  5089               	movf	137,w,c	;volatile
  7080  002FA2  1801               	xorwf	??_Timer_0^0,w,c
  7081  002FA4  0BFD               	andlw	-3
  7082  002FA6  1801               	xorwf	??_Timer_0^0,w,c
  7083  002FA8  6E89               	movwf	137,c	;volatile
  7084  002FAA                     
  7085                           ;main.c: 78:     ADC_StartConversion();
  7086  002FAA  ECB4  F018         	call	_ADC_StartConversion	;wreg free
  7087  002FAE  0012               	return		;funcret
  7088  002FB0                     __end_of_Timer_0:
  7089                           	opt callstack 0
  7090                           
  7091 ;; *************** function _ADC_StartConversion *****************
  7092 ;; Defined at:
  7093 ;;		line 100 in file "mcc_generated_files/adc.c"
  7094 ;; Parameters:    Size  Location     Type
  7095 ;;		None
  7096 ;; Auto vars:     Size  Location     Type
  7097 ;;		None
  7098 ;; Return value:  Size  Location     Type
  7099 ;;                  1    wreg      void 
  7100 ;; Registers used:
  7101 ;;		None
  7102 ;; Tracked objects:
  7103 ;;		On entry : 0/0
  7104 ;;		On exit  : 0/0
  7105 ;;		Unchanged: 0/0
  7106 ;; Data sizes:     COMRAM   BANK0   BANK1   BANK2   BANK3   BANK4   BANK5
  7107 ;;      Params:         0       0       0       0       0       0       0
  7108 ;;      Locals:         0       0       0       0       0       0       0
  7109 ;;      Temps:          0       0       0       0       0       0       0
  7110 ;;      Totals:         0       0       0       0       0       0       0
  7111 ;;Total ram usage:        0 bytes
  7112 ;; Hardware stack levels used:    1
  7113 ;; This function calls:
  7114 ;;		Nothing
  7115 ;; This function is called by:
  7116 ;;		_Timer_0
  7117 ;; This function uses a non-reentrant model
  7118 ;;
  7119                           
  7120                           	psect	text54
  7121  003168                     __ptext54:
  7122                           	opt callstack 0
  7123  003168                     _ADC_StartConversion:
  7124                           	opt callstack 18
  7125  003168                     
  7126                           ;mcc_generated_files/adc.c: 103:     ADCON0bits.GO_nDONE = 1;
  7127  003168  82C2               	bsf	194,1,c	;volatile
  7128  00316A  0012               	return		;funcret
  7129  00316C                     __end_of_ADC_StartConversion:
  7130                           	opt callstack 0
  7131                           
  7132 ;; *************** function _INT2_ISR *****************
  7133 ;; Defined at:
  7134 ;;		line 86 in file "mcc_generated_files/ext_int.c"
  7135 ;; Parameters:    Size  Location     Type
  7136 ;;		None
  7137 ;; Auto vars:     Size  Location     Type
  7138 ;;		None
  7139 ;; Return value:  Size  Location     Type
  7140 ;;                  1    wreg      void 
  7141 ;; Registers used:
  7142 ;;		wreg, status,2, status,0, pclath, tosl, cstack
  7143 ;; Tracked objects:
  7144 ;;		On entry : 0/0
  7145 ;;		On exit  : 0/0
  7146 ;;		Unchanged: 0/0
  7147 ;; Data sizes:     COMRAM   BANK0   BANK1   BANK2   BANK3   BANK4   BANK5
  7148 ;;      Params:         0       0       0       0       0       0       0
  7149 ;;      Locals:         0       0       0       0       0       0       0
  7150 ;;      Temps:          0       0       0       0       0       0       0
  7151 ;;      Totals:         0       0       0       0       0       0       0
  7152 ;;Total ram usage:        0 bytes
  7153 ;; Hardware stack levels used:    1
  7154 ;; Hardware stack levels required when called:    2
  7155 ;; This function calls:
  7156 ;;		_INT2_CallBack
  7157 ;; This function is called by:
  7158 ;;		_INTERRUPT_InterruptManagerHigh
  7159 ;; This function uses a non-reentrant model
  7160 ;;
  7161                           
  7162                           	psect	text55
  7163  00313E                     __ptext55:
  7164                           	opt callstack 0
  7165  00313E                     _INT2_ISR:
  7166                           	opt callstack 18
  7167  00313E                     
  7168                           ;mcc_generated_files/ext_int.c: 88:     (INTCON3bits.INT2IF = 0);
  7169  00313E  92F0               	bcf	240,1,c	;volatile
  7170  003140                     
  7171                           ;mcc_generated_files/ext_int.c: 91:     INT2_CallBack();
  7172  003140  EC3E  F017         	call	_INT2_CallBack	;wreg free
  7173  003144  0012               	return		;funcret
  7174  003146                     __end_of_INT2_ISR:
  7175                           	opt callstack 0
  7176                           
  7177 ;; *************** function _INT2_CallBack *****************
  7178 ;; Defined at:
  7179 ;;		line 95 in file "mcc_generated_files/ext_int.c"
  7180 ;; Parameters:    Size  Location     Type
  7181 ;;		None
  7182 ;; Auto vars:     Size  Location     Type
  7183 ;;		None
  7184 ;; Return value:  Size  Location     Type
  7185 ;;                  1    wreg      void 
  7186 ;; Registers used:
  7187 ;;		wreg, status,2, status,0, pclath, tosl, cstack
  7188 ;; Tracked objects:
  7189 ;;		On entry : 0/0
  7190 ;;		On exit  : 0/0
  7191 ;;		Unchanged: 0/0
  7192 ;; Data sizes:     COMRAM   BANK0   BANK1   BANK2   BANK3   BANK4   BANK5
  7193 ;;      Params:         0       0       0       0       0       0       0
  7194 ;;      Locals:         0       0       0       0       0       0       0
  7195 ;;      Temps:          0       0       0       0       0       0       0
  7196 ;;      Totals:         0       0       0       0       0       0       0
  7197 ;;Total ram usage:        0 bytes
  7198 ;; Hardware stack levels used:    1
  7199 ;; Hardware stack levels required when called:    1
  7200 ;; This function calls:
  7201 ;;		Absolute function
  7202 ;;		_INT2_DefaultInterruptHandler
  7203 ;;		_teclado_coluna_3
  7204 ;; This function is called by:
  7205 ;;		_INT2_ISR
  7206 ;; This function uses a non-reentrant model
  7207 ;;
  7208                           
  7209                           	psect	text56
  7210  002E7C                     __ptext56:
  7211                           	opt callstack 0
  7212  002E7C                     _INT2_CallBack:
  7213                           	opt callstack 18
  7214  002E7C                     
  7215                           ;mcc_generated_files/ext_int.c: 98:     if(INT2_InterruptHandler)
  7216  002E7C  0101               	movlb	1	; () banked
  7217  002E7E  5156               	movf	_INT2_InterruptHandler& (0+255),w,b
  7218  002E80  1157               	iorwf	(_INT2_InterruptHandler+1)& (0+255),w,b
  7219  002E82  B4D8               	btfsc	status,2,c
  7220  002E84  EF46  F017         	goto	i2u401_41
  7221  002E88  EF48  F017         	goto	i2u401_40
  7222  002E8C                     i2u401_41:
  7223  002E8C  EF55  F017         	goto	i2l97
  7224  002E90                     i2u401_40:
  7225  002E90                     
  7226                           ; BSR set to: 1
  7227                           ;mcc_generated_files/ext_int.c: 99:     {;mcc_generated_files/ext_int.c: 100:         IN
      +                          T2_InterruptHandler();
  7228  002E90  D802               	call	i2u402_48
  7229  002E92  EF55  F017         	goto	i2u402_49
  7230  002E96                     i2u402_48:
  7231  002E96  0005               	push	
  7232  002E98  6EFA               	movwf	pclath,c
  7233  002E9A  5156               	movf	_INT2_InterruptHandler& (0+255),w,b
  7234  002E9C  6EFD               	movwf	tosl,c
  7235  002E9E  5157               	movf	(_INT2_InterruptHandler+1)& (0+255),w,b
  7236  002EA0  6EFE               	movwf	tosh,c
  7237  002EA2  50F8               	movf	tblptru,w,c
  7238  002EA4  6EFF               	movwf	tosu,c
  7239  002EA6  50FA               	movf	pclath,w,c
  7240  002EA8  0012               	return		;indir
  7241  002EAA                     i2u402_49:
  7242  002EAA                     i2l97:
  7243  002EAA  0012               	return		;funcret
  7244  002EAC                     __end_of_INT2_CallBack:
  7245                           	opt callstack 0
  7246                           
  7247 ;; *************** function _INT2_DefaultInterruptHandler *****************
  7248 ;; Defined at:
  7249 ;;		line 108 in file "mcc_generated_files/ext_int.c"
  7250 ;; Parameters:    Size  Location     Type
  7251 ;;		None
  7252 ;; Auto vars:     Size  Location     Type
  7253 ;;		None
  7254 ;; Return value:  Size  Location     Type
  7255 ;;                  1    wreg      void 
  7256 ;; Registers used:
  7257 ;;		None
  7258 ;; Tracked objects:
  7259 ;;		On entry : 0/0
  7260 ;;		On exit  : 0/0
  7261 ;;		Unchanged: 0/0
  7262 ;; Data sizes:     COMRAM   BANK0   BANK1   BANK2   BANK3   BANK4   BANK5
  7263 ;;      Params:         0       0       0       0       0       0       0
  7264 ;;      Locals:         0       0       0       0       0       0       0
  7265 ;;      Temps:          0       0       0       0       0       0       0
  7266 ;;      Totals:         0       0       0       0       0       0       0
  7267 ;;Total ram usage:        0 bytes
  7268 ;; Hardware stack levels used:    1
  7269 ;; This function calls:
  7270 ;;		Nothing
  7271 ;; This function is called by:
  7272 ;;		_EXT_INT_Initialize
  7273 ;;		_INT2_CallBack
  7274 ;; This function uses a non-reentrant model
  7275 ;;
  7276                           
  7277                           	psect	text57
  7278  00316E                     __ptext57:
  7279                           	opt callstack 0
  7280  00316E                     _INT2_DefaultInterruptHandler:
  7281                           	opt callstack 18
  7282  00316E  0012               	return		;funcret
  7283  003170                     __end_of_INT2_DefaultInterruptHandler:
  7284                           	opt callstack 0
  7285                           
  7286 ;; *************** function _teclado_coluna_3 *****************
  7287 ;; Defined at:
  7288 ;;		line 54 in file "Teclado.c"
  7289 ;; Parameters:    Size  Location     Type
  7290 ;;		None
  7291 ;; Auto vars:     Size  Location     Type
  7292 ;;		None
  7293 ;; Return value:  Size  Location     Type
  7294 ;;                  1    wreg      void 
  7295 ;; Registers used:
  7296 ;;		wreg, status,2
  7297 ;; Tracked objects:
  7298 ;;		On entry : 0/0
  7299 ;;		On exit  : 0/0
  7300 ;;		Unchanged: 0/0
  7301 ;; Data sizes:     COMRAM   BANK0   BANK1   BANK2   BANK3   BANK4   BANK5
  7302 ;;      Params:         0       0       0       0       0       0       0
  7303 ;;      Locals:         0       0       0       0       0       0       0
  7304 ;;      Temps:          0       0       0       0       0       0       0
  7305 ;;      Totals:         0       0       0       0       0       0       0
  7306 ;;Total ram usage:        0 bytes
  7307 ;; Hardware stack levels used:    1
  7308 ;; This function calls:
  7309 ;;		Nothing
  7310 ;; This function is called by:
  7311 ;;		_main
  7312 ;;		_INT2_CallBack
  7313 ;; This function uses a non-reentrant model
  7314 ;;
  7315                           
  7316                           	psect	text58
  7317  002756                     __ptext58:
  7318                           	opt callstack 0
  7319  002756                     _teclado_coluna_3:
  7320                           	opt callstack 18
  7321  002756                     
  7322                           ;Teclado.c: 55:     tecla_n = 1;
  7323  002756  0E00               	movlw	0
  7324  002758  0100               	movlb	0	; () banked
  7325  00275A  6FE6               	movwf	(_tecla_n+1)& (0+255),b
  7326  00275C  0E01               	movlw	1
  7327  00275E  6FE5               	movwf	_tecla_n& (0+255),b
  7328  002760                     
  7329                           ; BSR set to: 0
  7330                           ;Teclado.c: 56:     if (PORTBbits.RB3 == 0){
  7331  002760  B681               	btfsc	129,3,c	;volatile
  7332  002762  EFB5  F013         	goto	i2u291_41
  7333  002766  EFB7  F013         	goto	i2u291_40
  7334  00276A                     i2u291_41:
  7335  00276A  EFBB  F013         	goto	i2l708
  7336  00276E                     i2u291_40:
  7337  00276E                     
  7338                           ; BSR set to: 0
  7339                           ;Teclado.c: 57:             tecla_premida = '3';
  7340  00276E  0E33               	movlw	51
  7341  002770  6FEC               	movwf	_tecla_premida& (0+255),b
  7342                           
  7343                           ;Teclado.c: 58:         }
  7344  002772  EFE6  F013         	goto	i2l715
  7345  002776                     i2l708:
  7346                           
  7347                           ; BSR set to: 0
  7348  002776  B881               	btfsc	129,4,c	;volatile
  7349  002778  EFC0  F013         	goto	i2u292_41
  7350  00277C  EFC2  F013         	goto	i2u292_40
  7351  002780                     i2u292_41:
  7352  002780  EFC6  F013         	goto	i2l710
  7353  002784                     i2u292_40:
  7354  002784                     
  7355                           ; BSR set to: 0
  7356                           ;Teclado.c: 60:             tecla_premida = '6';
  7357  002784  0E36               	movlw	54
  7358  002786  6FEC               	movwf	_tecla_premida& (0+255),b
  7359                           
  7360                           ;Teclado.c: 61:         }
  7361  002788  EFE6  F013         	goto	i2l715
  7362  00278C                     i2l710:
  7363                           
  7364                           ; BSR set to: 0
  7365  00278C  BA81               	btfsc	129,5,c	;volatile
  7366  00278E  EFCB  F013         	goto	i2u293_41
  7367  002792  EFCD  F013         	goto	i2u293_40
  7368  002796                     i2u293_41:
  7369  002796  EFD1  F013         	goto	i2l712
  7370  00279A                     i2u293_40:
  7371  00279A                     
  7372                           ; BSR set to: 0
  7373                           ;Teclado.c: 63:             tecla_premida = '9';
  7374  00279A  0E39               	movlw	57
  7375  00279C  6FEC               	movwf	_tecla_premida& (0+255),b
  7376                           
  7377                           ;Teclado.c: 64:         }
  7378  00279E  EFE6  F013         	goto	i2l715
  7379  0027A2                     i2l712:
  7380                           
  7381                           ; BSR set to: 0
  7382  0027A2  BC81               	btfsc	129,6,c	;volatile
  7383  0027A4  EFD6  F013         	goto	i2u294_41
  7384  0027A8  EFD8  F013         	goto	i2u294_40
  7385  0027AC                     i2u294_41:
  7386  0027AC  EFE6  F013         	goto	i2l711
  7387  0027B0                     i2u294_40:
  7388  0027B0                     
  7389                           ; BSR set to: 0
  7390                           ;Teclado.c: 66:             contador_colunas_LCD = 192;
  7391  0027B0  0E00               	movlw	0
  7392  0027B2  6FF2               	movwf	(_contador_colunas_LCD+1)& (0+255),b
  7393  0027B4  0EC0               	movlw	192
  7394  0027B6  6FF1               	movwf	_contador_colunas_LCD& (0+255),b
  7395                           
  7396                           ;Teclado.c: 67:             tecla_n = 0;
  7397  0027B8  0E00               	movlw	0
  7398  0027BA  6FE6               	movwf	(_tecla_n+1)& (0+255),b
  7399  0027BC  0E00               	movlw	0
  7400  0027BE  6FE5               	movwf	_tecla_n& (0+255),b
  7401                           
  7402                           ;Teclado.c: 68:             tecla_limpar = 1;
  7403  0027C0  0E00               	movlw	0
  7404  0027C2  6FE4               	movwf	(_tecla_limpar+1)& (0+255),b
  7405  0027C4  0E01               	movlw	1
  7406  0027C6  6FE3               	movwf	_tecla_limpar& (0+255),b
  7407  0027C8  EFE6  F013         	goto	i2l715
  7408  0027CC                     i2l711:
  7409  0027CC                     i2l715:
  7410                           
  7411                           ; BSR set to: 0
  7412  0027CC  0012               	return		;funcret
  7413  0027CE                     __end_of_teclado_coluna_3:
  7414                           	opt callstack 0
  7415                           
  7416 ;; *************** function _INT1_ISR *****************
  7417 ;; Defined at:
  7418 ;;		line 60 in file "mcc_generated_files/ext_int.c"
  7419 ;; Parameters:    Size  Location     Type
  7420 ;;		None
  7421 ;; Auto vars:     Size  Location     Type
  7422 ;;		None
  7423 ;; Return value:  Size  Location     Type
  7424 ;;                  1    wreg      void 
  7425 ;; Registers used:
  7426 ;;		wreg, status,2, status,0, pclath, tosl, cstack
  7427 ;; Tracked objects:
  7428 ;;		On entry : 0/0
  7429 ;;		On exit  : 0/0
  7430 ;;		Unchanged: 0/0
  7431 ;; Data sizes:     COMRAM   BANK0   BANK1   BANK2   BANK3   BANK4   BANK5
  7432 ;;      Params:         0       0       0       0       0       0       0
  7433 ;;      Locals:         0       0       0       0       0       0       0
  7434 ;;      Temps:          0       0       0       0       0       0       0
  7435 ;;      Totals:         0       0       0       0       0       0       0
  7436 ;;Total ram usage:        0 bytes
  7437 ;; Hardware stack levels used:    1
  7438 ;; Hardware stack levels required when called:    2
  7439 ;; This function calls:
  7440 ;;		_INT1_CallBack
  7441 ;; This function is called by:
  7442 ;;		_INTERRUPT_InterruptManagerHigh
  7443 ;; This function uses a non-reentrant model
  7444 ;;
  7445                           
  7446                           	psect	text59
  7447  003146                     __ptext59:
  7448                           	opt callstack 0
  7449  003146                     _INT1_ISR:
  7450                           	opt callstack 18
  7451  003146                     
  7452                           ;mcc_generated_files/ext_int.c: 62:     (INTCON3bits.INT1IF = 0);
  7453  003146  90F0               	bcf	240,0,c	;volatile
  7454  003148                     
  7455                           ;mcc_generated_files/ext_int.c: 65:     INT1_CallBack();
  7456  003148  EC56  F017         	call	_INT1_CallBack	;wreg free
  7457  00314C  0012               	return		;funcret
  7458  00314E                     __end_of_INT1_ISR:
  7459                           	opt callstack 0
  7460                           
  7461 ;; *************** function _INT1_CallBack *****************
  7462 ;; Defined at:
  7463 ;;		line 69 in file "mcc_generated_files/ext_int.c"
  7464 ;; Parameters:    Size  Location     Type
  7465 ;;		None
  7466 ;; Auto vars:     Size  Location     Type
  7467 ;;		None
  7468 ;; Return value:  Size  Location     Type
  7469 ;;                  1    wreg      void 
  7470 ;; Registers used:
  7471 ;;		wreg, status,2, status,0, pclath, tosl, cstack
  7472 ;; Tracked objects:
  7473 ;;		On entry : 0/0
  7474 ;;		On exit  : 0/0
  7475 ;;		Unchanged: 0/0
  7476 ;; Data sizes:     COMRAM   BANK0   BANK1   BANK2   BANK3   BANK4   BANK5
  7477 ;;      Params:         0       0       0       0       0       0       0
  7478 ;;      Locals:         0       0       0       0       0       0       0
  7479 ;;      Temps:          0       0       0       0       0       0       0
  7480 ;;      Totals:         0       0       0       0       0       0       0
  7481 ;;Total ram usage:        0 bytes
  7482 ;; Hardware stack levels used:    1
  7483 ;; Hardware stack levels required when called:    1
  7484 ;; This function calls:
  7485 ;;		Absolute function
  7486 ;;		_INT1_DefaultInterruptHandler
  7487 ;;		_teclado_coluna_2
  7488 ;; This function is called by:
  7489 ;;		_INT1_ISR
  7490 ;; This function uses a non-reentrant model
  7491 ;;
  7492                           
  7493                           	psect	text60
  7494  002EAC                     __ptext60:
  7495                           	opt callstack 0
  7496  002EAC                     _INT1_CallBack:
  7497                           	opt callstack 18
  7498  002EAC                     
  7499                           ;mcc_generated_files/ext_int.c: 72:     if(INT1_InterruptHandler)
  7500  002EAC  0101               	movlb	1	; () banked
  7501  002EAE  5158               	movf	_INT1_InterruptHandler& (0+255),w,b
  7502  002EB0  1159               	iorwf	(_INT1_InterruptHandler+1)& (0+255),w,b
  7503  002EB2  B4D8               	btfsc	status,2,c
  7504  002EB4  EF5E  F017         	goto	i2u399_41
  7505  002EB8  EF60  F017         	goto	i2u399_40
  7506  002EBC                     i2u399_41:
  7507  002EBC  EF6D  F017         	goto	i2l84
  7508  002EC0                     i2u399_40:
  7509  002EC0                     
  7510                           ; BSR set to: 1
  7511                           ;mcc_generated_files/ext_int.c: 73:     {;mcc_generated_files/ext_int.c: 74:         INT
      +                          1_InterruptHandler();
  7512  002EC0  D802               	call	i2u400_48
  7513  002EC2  EF6D  F017         	goto	i2u400_49
  7514  002EC6                     i2u400_48:
  7515  002EC6  0005               	push	
  7516  002EC8  6EFA               	movwf	pclath,c
  7517  002ECA  5158               	movf	_INT1_InterruptHandler& (0+255),w,b
  7518  002ECC  6EFD               	movwf	tosl,c
  7519  002ECE  5159               	movf	(_INT1_InterruptHandler+1)& (0+255),w,b
  7520  002ED0  6EFE               	movwf	tosh,c
  7521  002ED2  50F8               	movf	tblptru,w,c
  7522  002ED4  6EFF               	movwf	tosu,c
  7523  002ED6  50FA               	movf	pclath,w,c
  7524  002ED8  0012               	return		;indir
  7525  002EDA                     i2u400_49:
  7526  002EDA                     i2l84:
  7527  002EDA  0012               	return		;funcret
  7528  002EDC                     __end_of_INT1_CallBack:
  7529                           	opt callstack 0
  7530                           
  7531 ;; *************** function _INT1_DefaultInterruptHandler *****************
  7532 ;; Defined at:
  7533 ;;		line 82 in file "mcc_generated_files/ext_int.c"
  7534 ;; Parameters:    Size  Location     Type
  7535 ;;		None
  7536 ;; Auto vars:     Size  Location     Type
  7537 ;;		None
  7538 ;; Return value:  Size  Location     Type
  7539 ;;                  1    wreg      void 
  7540 ;; Registers used:
  7541 ;;		None
  7542 ;; Tracked objects:
  7543 ;;		On entry : 0/0
  7544 ;;		On exit  : 0/0
  7545 ;;		Unchanged: 0/0
  7546 ;; Data sizes:     COMRAM   BANK0   BANK1   BANK2   BANK3   BANK4   BANK5
  7547 ;;      Params:         0       0       0       0       0       0       0
  7548 ;;      Locals:         0       0       0       0       0       0       0
  7549 ;;      Temps:          0       0       0       0       0       0       0
  7550 ;;      Totals:         0       0       0       0       0       0       0
  7551 ;;Total ram usage:        0 bytes
  7552 ;; Hardware stack levels used:    1
  7553 ;; This function calls:
  7554 ;;		Nothing
  7555 ;; This function is called by:
  7556 ;;		_EXT_INT_Initialize
  7557 ;;		_INT1_CallBack
  7558 ;; This function uses a non-reentrant model
  7559 ;;
  7560                           
  7561                           	psect	text61
  7562  003170                     __ptext61:
  7563                           	opt callstack 0
  7564  003170                     _INT1_DefaultInterruptHandler:
  7565                           	opt callstack 18
  7566  003170  0012               	return		;funcret
  7567  003172                     __end_of_INT1_DefaultInterruptHandler:
  7568                           	opt callstack 0
  7569                           
  7570 ;; *************** function _teclado_coluna_2 *****************
  7571 ;; Defined at:
  7572 ;;		line 37 in file "Teclado.c"
  7573 ;; Parameters:    Size  Location     Type
  7574 ;;		None
  7575 ;; Auto vars:     Size  Location     Type
  7576 ;;		None
  7577 ;; Return value:  Size  Location     Type
  7578 ;;                  1    wreg      void 
  7579 ;; Registers used:
  7580 ;;		wreg, status,2
  7581 ;; Tracked objects:
  7582 ;;		On entry : 0/0
  7583 ;;		On exit  : 0/0
  7584 ;;		Unchanged: 0/0
  7585 ;; Data sizes:     COMRAM   BANK0   BANK1   BANK2   BANK3   BANK4   BANK5
  7586 ;;      Params:         0       0       0       0       0       0       0
  7587 ;;      Locals:         0       0       0       0       0       0       0
  7588 ;;      Temps:          0       0       0       0       0       0       0
  7589 ;;      Totals:         0       0       0       0       0       0       0
  7590 ;;Total ram usage:        0 bytes
  7591 ;; Hardware stack levels used:    1
  7592 ;; This function calls:
  7593 ;;		Nothing
  7594 ;; This function is called by:
  7595 ;;		_main
  7596 ;;		_INT1_CallBack
  7597 ;; This function uses a non-reentrant model
  7598 ;;
  7599                           
  7600                           	psect	text62
  7601  0028AC                     __ptext62:
  7602                           	opt callstack 0
  7603  0028AC                     _teclado_coluna_2:
  7604                           	opt callstack 18
  7605  0028AC                     
  7606                           ;Teclado.c: 39:     if (PORTBbits.RB3 == 0){
  7607  0028AC  B681               	btfsc	129,3,c	;volatile
  7608  0028AE  EF5B  F014         	goto	i2u287_41
  7609  0028B2  EF5D  F014         	goto	i2u287_40
  7610  0028B6                     i2u287_41:
  7611  0028B6  EF62  F014         	goto	i2l698
  7612  0028BA                     i2u287_40:
  7613  0028BA                     
  7614                           ;Teclado.c: 40:             tecla_premida = '2';
  7615  0028BA  0E32               	movlw	50
  7616  0028BC  0100               	movlb	0	; () banked
  7617  0028BE  6FEC               	movwf	_tecla_premida& (0+255),b
  7618                           
  7619                           ;Teclado.c: 41:         }
  7620  0028C0  EF84  F014         	goto	i2l699
  7621  0028C4                     i2l698:
  7622  0028C4  B881               	btfsc	129,4,c	;volatile
  7623  0028C6  EF67  F014         	goto	i2u288_41
  7624  0028CA  EF69  F014         	goto	i2u288_40
  7625  0028CE                     i2u288_41:
  7626  0028CE  EF6E  F014         	goto	i2l700
  7627  0028D2                     i2u288_40:
  7628  0028D2                     
  7629                           ;Teclado.c: 43:             tecla_premida = '5';
  7630  0028D2  0E35               	movlw	53
  7631  0028D4  0100               	movlb	0	; () banked
  7632  0028D6  6FEC               	movwf	_tecla_premida& (0+255),b
  7633                           
  7634                           ;Teclado.c: 44:         }
  7635  0028D8  EF84  F014         	goto	i2l699
  7636  0028DC                     i2l700:
  7637  0028DC  BA81               	btfsc	129,5,c	;volatile
  7638  0028DE  EF73  F014         	goto	i2u289_41
  7639  0028E2  EF75  F014         	goto	i2u289_40
  7640  0028E6                     i2u289_41:
  7641  0028E6  EF7A  F014         	goto	i2l702
  7642  0028EA                     i2u289_40:
  7643  0028EA                     
  7644                           ;Teclado.c: 46:             tecla_premida = '8';
  7645  0028EA  0E38               	movlw	56
  7646  0028EC  0100               	movlb	0	; () banked
  7647  0028EE  6FEC               	movwf	_tecla_premida& (0+255),b
  7648                           
  7649                           ;Teclado.c: 47:         }
  7650  0028F0  EF84  F014         	goto	i2l699
  7651  0028F4                     i2l702:
  7652  0028F4  BC81               	btfsc	129,6,c	;volatile
  7653  0028F6  EF7F  F014         	goto	i2u290_41
  7654  0028FA  EF81  F014         	goto	i2u290_40
  7655  0028FE                     i2u290_41:
  7656  0028FE  EF84  F014         	goto	i2l699
  7657  002902                     i2u290_40:
  7658  002902                     
  7659                           ;Teclado.c: 49:             tecla_premida = '0';
  7660  002902  0E30               	movlw	48
  7661  002904  0100               	movlb	0	; () banked
  7662  002906  6FEC               	movwf	_tecla_premida& (0+255),b
  7663  002908                     i2l699:
  7664                           
  7665                           ;Teclado.c: 51:         tecla_n = 1;
  7666  002908  0E00               	movlw	0
  7667  00290A  0100               	movlb	0	; () banked
  7668  00290C  6FE6               	movwf	(_tecla_n+1)& (0+255),b
  7669  00290E  0E01               	movlw	1
  7670  002910  6FE5               	movwf	_tecla_n& (0+255),b
  7671  002912                     
  7672                           ; BSR set to: 0
  7673  002912  0012               	return		;funcret
  7674  002914                     __end_of_teclado_coluna_2:
  7675                           	opt callstack 0
  7676                           
  7677 ;; *************** function _INT0_ISR *****************
  7678 ;; Defined at:
  7679 ;;		line 34 in file "mcc_generated_files/ext_int.c"
  7680 ;; Parameters:    Size  Location     Type
  7681 ;;		None
  7682 ;; Auto vars:     Size  Location     Type
  7683 ;;		None
  7684 ;; Return value:  Size  Location     Type
  7685 ;;                  1    wreg      void 
  7686 ;; Registers used:
  7687 ;;		wreg, status,2, status,0, pclath, tosl, cstack
  7688 ;; Tracked objects:
  7689 ;;		On entry : 0/0
  7690 ;;		On exit  : 0/0
  7691 ;;		Unchanged: 0/0
  7692 ;; Data sizes:     COMRAM   BANK0   BANK1   BANK2   BANK3   BANK4   BANK5
  7693 ;;      Params:         0       0       0       0       0       0       0
  7694 ;;      Locals:         0       0       0       0       0       0       0
  7695 ;;      Temps:          0       0       0       0       0       0       0
  7696 ;;      Totals:         0       0       0       0       0       0       0
  7697 ;;Total ram usage:        0 bytes
  7698 ;; Hardware stack levels used:    1
  7699 ;; Hardware stack levels required when called:    2
  7700 ;; This function calls:
  7701 ;;		_INT0_CallBack
  7702 ;; This function is called by:
  7703 ;;		_INTERRUPT_InterruptManagerHigh
  7704 ;; This function uses a non-reentrant model
  7705 ;;
  7706                           
  7707                           	psect	text63
  7708  00314E                     __ptext63:
  7709                           	opt callstack 0
  7710  00314E                     _INT0_ISR:
  7711                           	opt callstack 18
  7712  00314E                     
  7713                           ;mcc_generated_files/ext_int.c: 36:     (INTCONbits.INT0IF = 0);
  7714  00314E  92F2               	bcf	242,1,c	;volatile
  7715  003150                     
  7716                           ;mcc_generated_files/ext_int.c: 39:     INT0_CallBack();
  7717  003150  EC6E  F017         	call	_INT0_CallBack	;wreg free
  7718  003154  0012               	return		;funcret
  7719  003156                     __end_of_INT0_ISR:
  7720                           	opt callstack 0
  7721                           
  7722 ;; *************** function _INT0_CallBack *****************
  7723 ;; Defined at:
  7724 ;;		line 43 in file "mcc_generated_files/ext_int.c"
  7725 ;; Parameters:    Size  Location     Type
  7726 ;;		None
  7727 ;; Auto vars:     Size  Location     Type
  7728 ;;		None
  7729 ;; Return value:  Size  Location     Type
  7730 ;;                  1    wreg      void 
  7731 ;; Registers used:
  7732 ;;		wreg, status,2, status,0, pclath, tosl, cstack
  7733 ;; Tracked objects:
  7734 ;;		On entry : 0/0
  7735 ;;		On exit  : 0/0
  7736 ;;		Unchanged: 0/0
  7737 ;; Data sizes:     COMRAM   BANK0   BANK1   BANK2   BANK3   BANK4   BANK5
  7738 ;;      Params:         0       0       0       0       0       0       0
  7739 ;;      Locals:         0       0       0       0       0       0       0
  7740 ;;      Temps:          0       0       0       0       0       0       0
  7741 ;;      Totals:         0       0       0       0       0       0       0
  7742 ;;Total ram usage:        0 bytes
  7743 ;; Hardware stack levels used:    1
  7744 ;; Hardware stack levels required when called:    1
  7745 ;; This function calls:
  7746 ;;		Absolute function
  7747 ;;		_INT0_DefaultInterruptHandler
  7748 ;;		_teclado_coluna_1
  7749 ;; This function is called by:
  7750 ;;		_INT0_ISR
  7751 ;; This function uses a non-reentrant model
  7752 ;;
  7753                           
  7754                           	psect	text64
  7755  002EDC                     __ptext64:
  7756                           	opt callstack 0
  7757  002EDC                     _INT0_CallBack:
  7758                           	opt callstack 18
  7759  002EDC                     
  7760                           ;mcc_generated_files/ext_int.c: 46:     if(INT0_InterruptHandler)
  7761  002EDC  0101               	movlb	1	; () banked
  7762  002EDE  515A               	movf	_INT0_InterruptHandler& (0+255),w,b
  7763  002EE0  115B               	iorwf	(_INT0_InterruptHandler+1)& (0+255),w,b
  7764  002EE2  B4D8               	btfsc	status,2,c
  7765  002EE4  EF76  F017         	goto	i2u397_41
  7766  002EE8  EF78  F017         	goto	i2u397_40
  7767  002EEC                     i2u397_41:
  7768  002EEC  EF85  F017         	goto	i2l71
  7769  002EF0                     i2u397_40:
  7770  002EF0                     
  7771                           ; BSR set to: 1
  7772                           ;mcc_generated_files/ext_int.c: 47:     {;mcc_generated_files/ext_int.c: 48:         INT
      +                          0_InterruptHandler();
  7773  002EF0  D802               	call	i2u398_48
  7774  002EF2  EF85  F017         	goto	i2u398_49
  7775  002EF6                     i2u398_48:
  7776  002EF6  0005               	push	
  7777  002EF8  6EFA               	movwf	pclath,c
  7778  002EFA  515A               	movf	_INT0_InterruptHandler& (0+255),w,b
  7779  002EFC  6EFD               	movwf	tosl,c
  7780  002EFE  515B               	movf	(_INT0_InterruptHandler+1)& (0+255),w,b
  7781  002F00  6EFE               	movwf	tosh,c
  7782  002F02  50F8               	movf	tblptru,w,c
  7783  002F04  6EFF               	movwf	tosu,c
  7784  002F06  50FA               	movf	pclath,w,c
  7785  002F08  0012               	return		;indir
  7786  002F0A                     i2u398_49:
  7787  002F0A                     i2l71:
  7788  002F0A  0012               	return		;funcret
  7789  002F0C                     __end_of_INT0_CallBack:
  7790                           	opt callstack 0
  7791                           
  7792 ;; *************** function _INT0_DefaultInterruptHandler *****************
  7793 ;; Defined at:
  7794 ;;		line 56 in file "mcc_generated_files/ext_int.c"
  7795 ;; Parameters:    Size  Location     Type
  7796 ;;		None
  7797 ;; Auto vars:     Size  Location     Type
  7798 ;;		None
  7799 ;; Return value:  Size  Location     Type
  7800 ;;                  1    wreg      void 
  7801 ;; Registers used:
  7802 ;;		None
  7803 ;; Tracked objects:
  7804 ;;		On entry : 0/0
  7805 ;;		On exit  : 0/0
  7806 ;;		Unchanged: 0/0
  7807 ;; Data sizes:     COMRAM   BANK0   BANK1   BANK2   BANK3   BANK4   BANK5
  7808 ;;      Params:         0       0       0       0       0       0       0
  7809 ;;      Locals:         0       0       0       0       0       0       0
  7810 ;;      Temps:          0       0       0       0       0       0       0
  7811 ;;      Totals:         0       0       0       0       0       0       0
  7812 ;;Total ram usage:        0 bytes
  7813 ;; Hardware stack levels used:    1
  7814 ;; This function calls:
  7815 ;;		Nothing
  7816 ;; This function is called by:
  7817 ;;		_EXT_INT_Initialize
  7818 ;;		_INT0_CallBack
  7819 ;; This function uses a non-reentrant model
  7820 ;;
  7821                           
  7822                           	psect	text65
  7823  003172                     __ptext65:
  7824                           	opt callstack 0
  7825  003172                     _INT0_DefaultInterruptHandler:
  7826                           	opt callstack 18
  7827  003172  0012               	return		;funcret
  7828  003174                     __end_of_INT0_DefaultInterruptHandler:
  7829                           	opt callstack 0
  7830                           
  7831 ;; *************** function _teclado_coluna_1 *****************
  7832 ;; Defined at:
  7833 ;;		line 20 in file "Teclado.c"
  7834 ;; Parameters:    Size  Location     Type
  7835 ;;		None
  7836 ;; Auto vars:     Size  Location     Type
  7837 ;;		None
  7838 ;; Return value:  Size  Location     Type
  7839 ;;                  1    wreg      void 
  7840 ;; Registers used:
  7841 ;;		wreg, status,2
  7842 ;; Tracked objects:
  7843 ;;		On entry : 0/0
  7844 ;;		On exit  : 0/0
  7845 ;;		Unchanged: 0/0
  7846 ;; Data sizes:     COMRAM   BANK0   BANK1   BANK2   BANK3   BANK4   BANK5
  7847 ;;      Params:         0       0       0       0       0       0       0
  7848 ;;      Locals:         0       0       0       0       0       0       0
  7849 ;;      Temps:          0       0       0       0       0       0       0
  7850 ;;      Totals:         0       0       0       0       0       0       0
  7851 ;;Total ram usage:        0 bytes
  7852 ;; Hardware stack levels used:    1
  7853 ;; This function calls:
  7854 ;;		Nothing
  7855 ;; This function is called by:
  7856 ;;		_main
  7857 ;;		_INT0_CallBack
  7858 ;; This function uses a non-reentrant model
  7859 ;;
  7860                           
  7861                           	psect	text66
  7862  002914                     __ptext66:
  7863                           	opt callstack 0
  7864  002914                     _teclado_coluna_1:
  7865                           	opt callstack 18
  7866  002914                     
  7867                           ;Teclado.c: 22:     if (PORTBbits.RB3 == 0){
  7868  002914  B681               	btfsc	129,3,c	;volatile
  7869  002916  EF8F  F014         	goto	i2u283_41
  7870  00291A  EF91  F014         	goto	i2u283_40
  7871  00291E                     i2u283_41:
  7872  00291E  EF96  F014         	goto	i2l688
  7873  002922                     i2u283_40:
  7874  002922                     
  7875                           ;Teclado.c: 23:             tecla_premida = '1';
  7876  002922  0E31               	movlw	49
  7877  002924  0100               	movlb	0	; () banked
  7878  002926  6FEC               	movwf	_tecla_premida& (0+255),b
  7879                           
  7880                           ;Teclado.c: 24:         }
  7881  002928  EFB8  F014         	goto	i2l689
  7882  00292C                     i2l688:
  7883  00292C  B881               	btfsc	129,4,c	;volatile
  7884  00292E  EF9B  F014         	goto	i2u284_41
  7885  002932  EF9D  F014         	goto	i2u284_40
  7886  002936                     i2u284_41:
  7887  002936  EFA2  F014         	goto	i2l690
  7888  00293A                     i2u284_40:
  7889  00293A                     
  7890                           ;Teclado.c: 26:             tecla_premida = '4';
  7891  00293A  0E34               	movlw	52
  7892  00293C  0100               	movlb	0	; () banked
  7893  00293E  6FEC               	movwf	_tecla_premida& (0+255),b
  7894                           
  7895                           ;Teclado.c: 27:         }
  7896  002940  EFB8  F014         	goto	i2l689
  7897  002944                     i2l690:
  7898  002944  BA81               	btfsc	129,5,c	;volatile
  7899  002946  EFA7  F014         	goto	i2u285_41
  7900  00294A  EFA9  F014         	goto	i2u285_40
  7901  00294E                     i2u285_41:
  7902  00294E  EFAE  F014         	goto	i2l692
  7903  002952                     i2u285_40:
  7904  002952                     
  7905                           ;Teclado.c: 29:             tecla_premida = '7';
  7906  002952  0E37               	movlw	55
  7907  002954  0100               	movlb	0	; () banked
  7908  002956  6FEC               	movwf	_tecla_premida& (0+255),b
  7909                           
  7910                           ;Teclado.c: 30:         }
  7911  002958  EFB8  F014         	goto	i2l689
  7912  00295C                     i2l692:
  7913  00295C  BC81               	btfsc	129,6,c	;volatile
  7914  00295E  EFB3  F014         	goto	i2u286_41
  7915  002962  EFB5  F014         	goto	i2u286_40
  7916  002966                     i2u286_41:
  7917  002966  EFB8  F014         	goto	i2l689
  7918  00296A                     i2u286_40:
  7919  00296A                     
  7920                           ;Teclado.c: 32:             tecla_premida = '*';
  7921  00296A  0E2A               	movlw	42
  7922  00296C  0100               	movlb	0	; () banked
  7923  00296E  6FEC               	movwf	_tecla_premida& (0+255),b
  7924  002970                     i2l689:
  7925                           
  7926                           ;Teclado.c: 34:         tecla_n = 1;
  7927  002970  0E00               	movlw	0
  7928  002972  0100               	movlb	0	; () banked
  7929  002974  6FE6               	movwf	(_tecla_n+1)& (0+255),b
  7930  002976  0E01               	movlw	1
  7931  002978  6FE5               	movwf	_tecla_n& (0+255),b
  7932  00297A                     
  7933                           ; BSR set to: 0
  7934  00297A  0012               	return		;funcret
  7935  00297C                     __end_of_teclado_coluna_1:
  7936                           	opt callstack 0
  7937                           
  7938 ;; *************** function _EUSART1_Receive_ISR *****************
  7939 ;; Defined at:
  7940 ;;		line 182 in file "mcc_generated_files/eusart1.c"
  7941 ;; Parameters:    Size  Location     Type
  7942 ;;		None
  7943 ;; Auto vars:     Size  Location     Type
  7944 ;;		None
  7945 ;; Return value:  Size  Location     Type
  7946 ;;                  1    wreg      void 
  7947 ;; Registers used:
  7948 ;;		wreg, fsr2l, fsr2h, status,2, status,0, pclath, tosl, cstack
  7949 ;; Tracked objects:
  7950 ;;		On entry : 0/0
  7951 ;;		On exit  : 0/0
  7952 ;;		Unchanged: 0/0
  7953 ;; Data sizes:     COMRAM   BANK0   BANK1   BANK2   BANK3   BANK4   BANK5
  7954 ;;      Params:         0       0       0       0       0       0       0
  7955 ;;      Locals:         0       0       0       0       0       0       0
  7956 ;;      Temps:          0       0       0       0       0       0       0
  7957 ;;      Totals:         0       0       0       0       0       0       0
  7958 ;;Total ram usage:        0 bytes
  7959 ;; Hardware stack levels used:    1
  7960 ;; Hardware stack levels required when called:    2
  7961 ;; This function calls:
  7962 ;;		Absolute function
  7963 ;;		_EUSART1_DefaultErrorHandler
  7964 ;;		_EUSART1_DefaultFramingErrorHandler
  7965 ;;		_EUSART1_DefaultOverrunErrorHandler
  7966 ;;		_EUSART1_RxDataHandler
  7967 ;; This function is called by:
  7968 ;;		_EUSART1_Initialize
  7969 ;;		_INTERRUPT_InterruptManagerHigh
  7970 ;; This function uses a non-reentrant model
  7971 ;;
  7972                           
  7973                           	psect	text67
  7974  002616                     __ptext67:
  7975                           	opt callstack 0
  7976  002616                     _EUSART1_Receive_ISR:
  7977                           	opt callstack 18
  7978  002616                     
  7979                           ;mcc_generated_files/eusart1.c: 185:     eusart1RxStatusBuffer[eusart1RxHead].status = 0
      +                          ;
  7980  002616  0E00               	movlw	low _eusart1RxStatusBuffer
  7981  002618  0100               	movlb	0	; () banked
  7982  00261A  25EA               	addwf	_eusart1RxHead& (0+255),w,b	;volatile
  7983  00261C  6ED9               	movwf	fsr2l,c
  7984  00261E  6ADA               	clrf	fsr2h,c
  7985  002620  0E01               	movlw	high _eusart1RxStatusBuffer
  7986  002622  22DA               	addwfc	fsr2h,f,c
  7987  002624  0E00               	movlw	0
  7988  002626  6EDF               	movwf	indf2,c
  7989  002628                     
  7990                           ; BSR set to: 0
  7991                           ;mcc_generated_files/eusart1.c: 187:     if(RCSTA1bits.FERR){
  7992  002628  A4AB               	btfss	171,2,c	;volatile
  7993  00262A  EF19  F013         	goto	i2u424_41
  7994  00262E  EF1B  F013         	goto	i2u424_40
  7995  002632                     i2u424_41:
  7996  002632  EF30  F013         	goto	i2l4602
  7997  002636                     i2u424_40:
  7998  002636                     
  7999                           ; BSR set to: 0
  8000                           ;mcc_generated_files/eusart1.c: 188:         eusart1RxStatusBuffer[eusart1RxHead].ferr =
      +                           1;
  8001  002636  0E00               	movlw	low _eusart1RxStatusBuffer
  8002  002638  25EA               	addwf	_eusart1RxHead& (0+255),w,b	;volatile
  8003  00263A  6ED9               	movwf	fsr2l,c
  8004  00263C  6ADA               	clrf	fsr2h,c
  8005  00263E  0E01               	movlw	high _eusart1RxStatusBuffer
  8006  002640  22DA               	addwfc	fsr2h,f,c
  8007  002642  0101               	movlb	1	; () banked
  8008  002644  82DF               	bsf	indf2,1,c
  8009  002646                     
  8010                           ; BSR set to: 1
  8011                           ;mcc_generated_files/eusart1.c: 189:         EUSART1_FramingErrorHandler();
  8012  002646  D802               	call	i2u425_48
  8013  002648  EF30  F013         	goto	i2u425_49
  8014  00264C                     i2u425_48:
  8015  00264C  0005               	push	
  8016  00264E  6EFA               	movwf	pclath,c
  8017  002650  5150               	movf	_EUSART1_FramingErrorHandler& (0+255),w,b
  8018  002652  6EFD               	movwf	tosl,c
  8019  002654  5151               	movf	(_EUSART1_FramingErrorHandler+1)& (0+255),w,b
  8020  002656  6EFE               	movwf	tosh,c
  8021  002658  50F8               	movf	tblptru,w,c
  8022  00265A  6EFF               	movwf	tosu,c
  8023  00265C  50FA               	movf	pclath,w,c
  8024  00265E  0012               	return		;indir
  8025  002660                     i2u425_49:
  8026  002660                     i2l4602:
  8027                           
  8028                           ;mcc_generated_files/eusart1.c: 192:     if(RCSTA1bits.OERR){
  8029  002660  A2AB               	btfss	171,1,c	;volatile
  8030  002662  EF35  F013         	goto	i2u426_41
  8031  002666  EF37  F013         	goto	i2u426_40
  8032  00266A                     i2u426_41:
  8033  00266A  EF4D  F013         	goto	i2l4608
  8034  00266E                     i2u426_40:
  8035  00266E                     
  8036                           ;mcc_generated_files/eusart1.c: 193:         eusart1RxStatusBuffer[eusart1RxHead].oerr =
      +                           1;
  8037  00266E  0E00               	movlw	low _eusart1RxStatusBuffer
  8038  002670  0100               	movlb	0	; () banked
  8039  002672  25EA               	addwf	_eusart1RxHead& (0+255),w,b	;volatile
  8040  002674  6ED9               	movwf	fsr2l,c
  8041  002676  6ADA               	clrf	fsr2h,c
  8042  002678  0E01               	movlw	high _eusart1RxStatusBuffer
  8043  00267A  22DA               	addwfc	fsr2h,f,c
  8044  00267C  0101               	movlb	1	; () banked
  8045  00267E  84DF               	bsf	indf2,2,c
  8046  002680                     
  8047                           ; BSR set to: 1
  8048                           ;mcc_generated_files/eusart1.c: 194:         EUSART1_OverrunErrorHandler();
  8049  002680  D802               	call	i2u427_48
  8050  002682  EF4D  F013         	goto	i2u427_49
  8051  002686                     i2u427_48:
  8052  002686  0005               	push	
  8053  002688  6EFA               	movwf	pclath,c
  8054  00268A  514E               	movf	_EUSART1_OverrunErrorHandler& (0+255),w,b
  8055  00268C  6EFD               	movwf	tosl,c
  8056  00268E  514F               	movf	(_EUSART1_OverrunErrorHandler+1)& (0+255),w,b
  8057  002690  6EFE               	movwf	tosh,c
  8058  002692  50F8               	movf	tblptru,w,c
  8059  002694  6EFF               	movwf	tosu,c
  8060  002696  50FA               	movf	pclath,w,c
  8061  002698  0012               	return		;indir
  8062  00269A                     i2u427_49:
  8063  00269A                     i2l4608:
  8064                           
  8065                           ;mcc_generated_files/eusart1.c: 197:     if(eusart1RxStatusBuffer[eusart1RxHead].status)
      +                          {
  8066  00269A  0E00               	movlw	low _eusart1RxStatusBuffer
  8067  00269C  0100               	movlb	0	; () banked
  8068  00269E  25EA               	addwf	_eusart1RxHead& (0+255),w,b	;volatile
  8069  0026A0  6ED9               	movwf	fsr2l,c
  8070  0026A2  6ADA               	clrf	fsr2h,c
  8071  0026A4  0E01               	movlw	high _eusart1RxStatusBuffer
  8072  0026A6  22DA               	addwfc	fsr2h,f,c
  8073  0026A8  50DF               	movf	indf2,w,c
  8074  0026AA  B4D8               	btfsc	status,2,c
  8075  0026AC  EF5A  F013         	goto	i2u428_41
  8076  0026B0  EF5C  F013         	goto	i2u428_40
  8077  0026B4                     i2u428_41:
  8078  0026B4  EF6C  F013         	goto	i2l4612
  8079  0026B8                     i2u428_40:
  8080  0026B8                     
  8081                           ; BSR set to: 0
  8082                           ;mcc_generated_files/eusart1.c: 198:         EUSART1_ErrorHandler();
  8083  0026B8  D802               	call	i2u429_48
  8084  0026BA  EF6A  F013         	goto	i2u429_49
  8085  0026BE                     i2u429_48:
  8086  0026BE  0005               	push	
  8087  0026C0  0101               	movlb	1	; () banked
  8088  0026C2  6EFA               	movwf	pclath,c
  8089  0026C4  514C               	movf	_EUSART1_ErrorHandler& (0+255),w,b
  8090  0026C6  6EFD               	movwf	tosl,c
  8091  0026C8  514D               	movf	(_EUSART1_ErrorHandler+1)& (0+255),w,b
  8092  0026CA  6EFE               	movwf	tosh,c
  8093  0026CC  50F8               	movf	tblptru,w,c
  8094  0026CE  6EFF               	movwf	tosu,c
  8095  0026D0  50FA               	movf	pclath,w,c
  8096  0026D2  0012               	return		;indir
  8097  0026D4                     i2u429_49:
  8098                           
  8099                           ;mcc_generated_files/eusart1.c: 199:     } else {
  8100  0026D4  EF6E  F013         	goto	i2l437
  8101  0026D8                     i2l4612:
  8102                           
  8103                           ; BSR set to: 0
  8104                           ;mcc_generated_files/eusart1.c: 200:         EUSART1_RxDataHandler();
  8105  0026D8  EC86  F017         	call	_EUSART1_RxDataHandler	;wreg free
  8106  0026DC                     i2l437:
  8107  0026DC  0012               	return		;funcret
  8108  0026DE                     __end_of_EUSART1_Receive_ISR:
  8109                           	opt callstack 0
  8110                           
  8111 ;; *************** function _EUSART1_DefaultOverrunErrorHandler *****************
  8112 ;; Defined at:
  8113 ;;		line 218 in file "mcc_generated_files/eusart1.c"
  8114 ;; Parameters:    Size  Location     Type
  8115 ;;		None
  8116 ;; Auto vars:     Size  Location     Type
  8117 ;;		None
  8118 ;; Return value:  Size  Location     Type
  8119 ;;                  1    wreg      void 
  8120 ;; Registers used:
  8121 ;;		None
  8122 ;; Tracked objects:
  8123 ;;		On entry : 0/0
  8124 ;;		On exit  : 0/0
  8125 ;;		Unchanged: 0/0
  8126 ;; Data sizes:     COMRAM   BANK0   BANK1   BANK2   BANK3   BANK4   BANK5
  8127 ;;      Params:         0       0       0       0       0       0       0
  8128 ;;      Locals:         0       0       0       0       0       0       0
  8129 ;;      Temps:          0       0       0       0       0       0       0
  8130 ;;      Totals:         0       0       0       0       0       0       0
  8131 ;;Total ram usage:        0 bytes
  8132 ;; Hardware stack levels used:    1
  8133 ;; This function calls:
  8134 ;;		Nothing
  8135 ;; This function is called by:
  8136 ;;		_EUSART1_Initialize
  8137 ;;		_EUSART1_Receive_ISR
  8138 ;; This function uses a non-reentrant model
  8139 ;;
  8140                           
  8141                           	psect	text68
  8142  00315C                     __ptext68:
  8143                           	opt callstack 0
  8144  00315C                     _EUSART1_DefaultOverrunErrorHandler:
  8145                           	opt callstack 19
  8146  00315C                     
  8147                           ;mcc_generated_files/eusart1.c: 221:     RCSTA1bits.CREN = 0;
  8148  00315C  98AB               	bcf	171,4,c	;volatile
  8149                           
  8150                           ;mcc_generated_files/eusart1.c: 222:     RCSTA1bits.CREN = 1;
  8151  00315E  88AB               	bsf	171,4,c	;volatile
  8152  003160  0012               	return		;funcret
  8153  003162                     __end_of_EUSART1_DefaultOverrunErrorHandler:
  8154                           	opt callstack 0
  8155                           
  8156 ;; *************** function _EUSART1_DefaultFramingErrorHandler *****************
  8157 ;; Defined at:
  8158 ;;		line 216 in file "mcc_generated_files/eusart1.c"
  8159 ;; Parameters:    Size  Location     Type
  8160 ;;		None
  8161 ;; Auto vars:     Size  Location     Type
  8162 ;;		None
  8163 ;; Return value:  Size  Location     Type
  8164 ;;                  1    wreg      void 
  8165 ;; Registers used:
  8166 ;;		None
  8167 ;; Tracked objects:
  8168 ;;		On entry : 0/0
  8169 ;;		On exit  : 0/0
  8170 ;;		Unchanged: 0/0
  8171 ;; Data sizes:     COMRAM   BANK0   BANK1   BANK2   BANK3   BANK4   BANK5
  8172 ;;      Params:         0       0       0       0       0       0       0
  8173 ;;      Locals:         0       0       0       0       0       0       0
  8174 ;;      Temps:          0       0       0       0       0       0       0
  8175 ;;      Totals:         0       0       0       0       0       0       0
  8176 ;;Total ram usage:        0 bytes
  8177 ;; Hardware stack levels used:    1
  8178 ;; This function calls:
  8179 ;;		Nothing
  8180 ;; This function is called by:
  8181 ;;		_EUSART1_Initialize
  8182 ;;		_EUSART1_Receive_ISR
  8183 ;; This function uses a non-reentrant model
  8184 ;;
  8185                           
  8186                           	psect	text69
  8187  003174                     __ptext69:
  8188                           	opt callstack 0
  8189  003174                     _EUSART1_DefaultFramingErrorHandler:
  8190                           	opt callstack 19
  8191  003174  0012               	return		;funcret
  8192  003176                     __end_of_EUSART1_DefaultFramingErrorHandler:
  8193                           	opt callstack 0
  8194                           
  8195 ;; *************** function _EUSART1_DefaultErrorHandler *****************
  8196 ;; Defined at:
  8197 ;;		line 226 in file "mcc_generated_files/eusart1.c"
  8198 ;; Parameters:    Size  Location     Type
  8199 ;;		None
  8200 ;; Auto vars:     Size  Location     Type
  8201 ;;		None
  8202 ;; Return value:  Size  Location     Type
  8203 ;;                  1    wreg      void 
  8204 ;; Registers used:
  8205 ;;		wreg, fsr2l, fsr2h, status,2, status,0, cstack
  8206 ;; Tracked objects:
  8207 ;;		On entry : 0/0
  8208 ;;		On exit  : 0/0
  8209 ;;		Unchanged: 0/0
  8210 ;; Data sizes:     COMRAM   BANK0   BANK1   BANK2   BANK3   BANK4   BANK5
  8211 ;;      Params:         0       0       0       0       0       0       0
  8212 ;;      Locals:         0       0       0       0       0       0       0
  8213 ;;      Temps:          0       0       0       0       0       0       0
  8214 ;;      Totals:         0       0       0       0       0       0       0
  8215 ;;Total ram usage:        0 bytes
  8216 ;; Hardware stack levels used:    1
  8217 ;; Hardware stack levels required when called:    1
  8218 ;; This function calls:
  8219 ;;		_EUSART1_RxDataHandler
  8220 ;; This function is called by:
  8221 ;;		_EUSART1_Initialize
  8222 ;;		_EUSART1_Receive_ISR
  8223 ;; This function uses a non-reentrant model
  8224 ;;
  8225                           
  8226                           	psect	text70
  8227  003162                     __ptext70:
  8228                           	opt callstack 0
  8229  003162                     _EUSART1_DefaultErrorHandler:
  8230                           	opt callstack 18
  8231  003162                     
  8232                           ;mcc_generated_files/eusart1.c: 227:     EUSART1_RxDataHandler();
  8233  003162  EC86  F017         	call	_EUSART1_RxDataHandler	;wreg free
  8234  003166  0012               	return		;funcret
  8235  003168                     __end_of_EUSART1_DefaultErrorHandler:
  8236                           	opt callstack 0
  8237                           
  8238 ;; *************** function _EUSART1_RxDataHandler *****************
  8239 ;; Defined at:
  8240 ;;		line 206 in file "mcc_generated_files/eusart1.c"
  8241 ;; Parameters:    Size  Location     Type
  8242 ;;		None
  8243 ;; Auto vars:     Size  Location     Type
  8244 ;;		None
  8245 ;; Return value:  Size  Location     Type
  8246 ;;                  1    wreg      void 
  8247 ;; Registers used:
  8248 ;;		wreg, fsr2l, fsr2h, status,2, status,0
  8249 ;; Tracked objects:
  8250 ;;		On entry : 0/0
  8251 ;;		On exit  : 0/0
  8252 ;;		Unchanged: 0/0
  8253 ;; Data sizes:     COMRAM   BANK0   BANK1   BANK2   BANK3   BANK4   BANK5
  8254 ;;      Params:         0       0       0       0       0       0       0
  8255 ;;      Locals:         0       0       0       0       0       0       0
  8256 ;;      Temps:          0       0       0       0       0       0       0
  8257 ;;      Totals:         0       0       0       0       0       0       0
  8258 ;;Total ram usage:        0 bytes
  8259 ;; Hardware stack levels used:    1
  8260 ;; This function calls:
  8261 ;;		Nothing
  8262 ;; This function is called by:
  8263 ;;		_EUSART1_Receive_ISR
  8264 ;;		_EUSART1_DefaultErrorHandler
  8265 ;; This function uses a non-reentrant model
  8266 ;;
  8267                           
  8268                           	psect	text71
  8269  002F0C                     __ptext71:
  8270                           	opt callstack 0
  8271  002F0C                     _EUSART1_RxDataHandler:
  8272                           	opt callstack 19
  8273  002F0C                     
  8274                           ;mcc_generated_files/eusart1.c: 208:     eusart1RxBuffer[eusart1RxHead++] = RCREG1;
  8275  002F0C  0E08               	movlw	low _eusart1RxBuffer
  8276  002F0E  0100               	movlb	0	; () banked
  8277  002F10  25EA               	addwf	_eusart1RxHead& (0+255),w,b	;volatile
  8278  002F12  6ED9               	movwf	fsr2l,c
  8279  002F14  6ADA               	clrf	fsr2h,c
  8280  002F16  0E01               	movlw	high _eusart1RxBuffer
  8281  002F18  22DA               	addwfc	fsr2h,f,c
  8282  002F1A  CFAE FFDF          	movff	4014,indf2	;volatile
  8283  002F1E                     
  8284                           ; BSR set to: 0
  8285  002F1E  2BEA               	incf	_eusart1RxHead& (0+255),f,b	;volatile
  8286  002F20                     
  8287                           ; BSR set to: 0
  8288                           ;mcc_generated_files/eusart1.c: 209:     if(sizeof(eusart1RxBuffer) <= eusart1RxHead)
  8289  002F20  0E07               	movlw	7
  8290  002F22  65EA               	cpfsgt	_eusart1RxHead& (0+255),b	;volatile
  8291  002F24  EF96  F017         	goto	i2u281_41
  8292  002F28  EF98  F017         	goto	i2u281_40
  8293  002F2C                     i2u281_41:
  8294  002F2C  EF9A  F017         	goto	i2l3572
  8295  002F30                     i2u281_40:
  8296  002F30                     
  8297                           ; BSR set to: 0
  8298                           ;mcc_generated_files/eusart1.c: 210:     {;mcc_generated_files/eusart1.c: 211:         e
      +                          usart1RxHead = 0;
  8299  002F30  0E00               	movlw	0
  8300  002F32  6FEA               	movwf	_eusart1RxHead& (0+255),b	;volatile
  8301  002F34                     i2l3572:
  8302                           
  8303                           ; BSR set to: 0
  8304                           ;mcc_generated_files/eusart1.c: 213:     eusart1RxCount++;
  8305  002F34  2BE8               	incf	_eusart1RxCount& (0+255),f,b	;volatile
  8306  002F36                     
  8307                           ; BSR set to: 0
  8308  002F36  0012               	return		;funcret
  8309  002F38                     __end_of_EUSART1_RxDataHandler:
  8310                           	opt callstack 0
  8311                           
  8312 ;; *************** function _ADC_ISR *****************
  8313 ;; Defined at:
  8314 ;;		line 144 in file "mcc_generated_files/adc.c"
  8315 ;; Parameters:    Size  Location     Type
  8316 ;;		None
  8317 ;; Auto vars:     Size  Location     Type
  8318 ;;		None
  8319 ;; Return value:  Size  Location     Type
  8320 ;;                  1    wreg      void 
  8321 ;; Registers used:
  8322 ;;		wreg, status,2, status,0, pclath, tosl, prodl, prodh, cstack
  8323 ;; Tracked objects:
  8324 ;;		On entry : 0/0
  8325 ;;		On exit  : 0/0
  8326 ;;		Unchanged: 0/0
  8327 ;; Data sizes:     COMRAM   BANK0   BANK1   BANK2   BANK3   BANK4   BANK5
  8328 ;;      Params:         0       0       0       0       0       0       0
  8329 ;;      Locals:         0       0       0       0       0       0       0
  8330 ;;      Temps:          0       0       0       0       0       0       0
  8331 ;;      Totals:         0       0       0       0       0       0       0
  8332 ;;Total ram usage:        0 bytes
  8333 ;; Hardware stack levels used:    1
  8334 ;; Hardware stack levels required when called:    2
  8335 ;; This function calls:
  8336 ;;		Absolute function
  8337 ;;		_ADC_DefaultInterruptHandler
  8338 ;;		_ADC_temperatura
  8339 ;; This function is called by:
  8340 ;;		_INTERRUPT_InterruptManagerHigh
  8341 ;; This function uses a non-reentrant model
  8342 ;;
  8343                           
  8344                           	psect	text72
  8345  002E4A                     __ptext72:
  8346                           	opt callstack 0
  8347  002E4A                     _ADC_ISR:
  8348                           	opt callstack 18
  8349  002E4A                     
  8350                           ;mcc_generated_files/adc.c: 145:     if(ADC_InterruptHandler)
  8351  002E4A  0101               	movlb	1	; () banked
  8352  002E4C  5152               	movf	_ADC_InterruptHandler& (0+255),w,b
  8353  002E4E  1153               	iorwf	(_ADC_InterruptHandler+1)& (0+255),w,b
  8354  002E50  B4D8               	btfsc	status,2,c
  8355  002E52  EF2D  F017         	goto	i2u418_41
  8356  002E56  EF2F  F017         	goto	i2u418_40
  8357  002E5A                     i2u418_41:
  8358  002E5A  EF3C  F017         	goto	i2l4548
  8359  002E5E                     i2u418_40:
  8360  002E5E                     
  8361                           ; BSR set to: 1
  8362                           ;mcc_generated_files/adc.c: 146:     {;mcc_generated_files/adc.c: 147:         ADC_Inter
      +                          ruptHandler();
  8363  002E5E  D802               	call	i2u419_48
  8364  002E60  EF3C  F017         	goto	i2u419_49
  8365  002E64                     i2u419_48:
  8366  002E64  0005               	push	
  8367  002E66  6EFA               	movwf	pclath,c
  8368  002E68  5152               	movf	_ADC_InterruptHandler& (0+255),w,b
  8369  002E6A  6EFD               	movwf	tosl,c
  8370  002E6C  5153               	movf	(_ADC_InterruptHandler+1)& (0+255),w,b
  8371  002E6E  6EFE               	movwf	tosh,c
  8372  002E70  50F8               	movf	tblptru,w,c
  8373  002E72  6EFF               	movwf	tosu,c
  8374  002E74  50FA               	movf	pclath,w,c
  8375  002E76  0012               	return		;indir
  8376  002E78                     i2u419_49:
  8377  002E78                     i2l4548:
  8378                           
  8379                           ;mcc_generated_files/adc.c: 149:     PIR1bits.ADIF=0;
  8380  002E78  9C9E               	bcf	158,6,c	;volatile
  8381  002E7A  0012               	return		;funcret
  8382  002E7C                     __end_of_ADC_ISR:
  8383                           	opt callstack 0
  8384                           
  8385 ;; *************** function _ADC_DefaultInterruptHandler *****************
  8386 ;; Defined at:
  8387 ;;		line 157 in file "mcc_generated_files/adc.c"
  8388 ;; Parameters:    Size  Location     Type
  8389 ;;		None
  8390 ;; Auto vars:     Size  Location     Type
  8391 ;;		None
  8392 ;; Return value:  Size  Location     Type
  8393 ;;                  1    wreg      void 
  8394 ;; Registers used:
  8395 ;;		None
  8396 ;; Tracked objects:
  8397 ;;		On entry : 0/0
  8398 ;;		On exit  : 0/0
  8399 ;;		Unchanged: 0/0
  8400 ;; Data sizes:     COMRAM   BANK0   BANK1   BANK2   BANK3   BANK4   BANK5
  8401 ;;      Params:         0       0       0       0       0       0       0
  8402 ;;      Locals:         0       0       0       0       0       0       0
  8403 ;;      Temps:          0       0       0       0       0       0       0
  8404 ;;      Totals:         0       0       0       0       0       0       0
  8405 ;;Total ram usage:        0 bytes
  8406 ;; Hardware stack levels used:    1
  8407 ;; This function calls:
  8408 ;;		Nothing
  8409 ;; This function is called by:
  8410 ;;		_ADC_Initialize
  8411 ;;		_ADC_ISR
  8412 ;; This function uses a non-reentrant model
  8413 ;;
  8414                           
  8415                           	psect	text73
  8416  003176                     __ptext73:
  8417                           	opt callstack 0
  8418  003176                     _ADC_DefaultInterruptHandler:
  8419                           	opt callstack 19
  8420  003176  0012               	return		;funcret
  8421  003178                     __end_of_ADC_DefaultInterruptHandler:
  8422                           	opt callstack 0
  8423                           
  8424 ;; *************** function _ADC_temperatura *****************
  8425 ;; Defined at:
  8426 ;;		line 81 in file "main.c"
  8427 ;; Parameters:    Size  Location     Type
  8428 ;;		None
  8429 ;; Auto vars:     Size  Location     Type
  8430 ;;		None
  8431 ;; Return value:  Size  Location     Type
  8432 ;;                  1    wreg      void 
  8433 ;; Registers used:
  8434 ;;		wreg, status,2, status,0, prodl, prodh, cstack
  8435 ;; Tracked objects:
  8436 ;;		On entry : 0/0
  8437 ;;		On exit  : 0/0
  8438 ;;		Unchanged: 0/0
  8439 ;; Data sizes:     COMRAM   BANK0   BANK1   BANK2   BANK3   BANK4   BANK5
  8440 ;;      Params:         0       0       0       0       0       0       0
  8441 ;;      Locals:         4       0       0       0       0       0       0
  8442 ;;      Temps:          0       0       0       0       0       0       0
  8443 ;;      Totals:         4       0       0       0       0       0       0
  8444 ;;Total ram usage:        4 bytes
  8445 ;; Hardware stack levels used:    1
  8446 ;; Hardware stack levels required when called:    1
  8447 ;; This function calls:
  8448 ;;		_ADC_GetConversionResult
  8449 ;;		___fladd
  8450 ;;		___fldiv
  8451 ;;		___flmul
  8452 ;;		___fltol
  8453 ;;		___xxtofl
  8454 ;; This function is called by:
  8455 ;;		_main
  8456 ;;		_ADC_ISR
  8457 ;; This function uses a non-reentrant model
  8458 ;;
  8459                           
  8460                           	psect	text74
  8461  002164                     __ptext74:
  8462                           	opt callstack 0
  8463  002164                     _ADC_temperatura:
  8464                           	opt callstack 18
  8465  002164                     
  8466                           ;main.c: 83:     codigo_digital = ADC_GetConversionResult();
  8467  002164  EC43  F018         	call	_ADC_GetConversionResult	;wreg free
  8468  002168  C001  F0D9         	movff	?_ADC_GetConversionResult,_codigo_digital
  8469  00216C  C002  F0DA         	movff	?_ADC_GetConversionResult+1,_codigo_digital+1
  8470  002170                     
  8471                           ;main.c: 86:     temp_ambiente = (int)(((((float) codigo_digital * (3.4/1024.0))-0.3)-0.
      +                          400) / (0.0195));
  8472  002170  0E9A               	movlw	154
  8473  002172  6E2C               	movwf	___fladd@a^0,c
  8474  002174  0E99               	movlw	153
  8475  002176  6E2D               	movwf	(___fladd@a+1)^0,c
  8476  002178  0E99               	movlw	153
  8477  00217A  6E2E               	movwf	(___fladd@a+2)^0,c
  8478  00217C  0EBE               	movlw	190
  8479  00217E  6E2F               	movwf	(___fladd@a+3)^0,c
  8480  002180  0E9A               	movlw	154
  8481  002182  6E13               	movwf	___flmul@a^0,c
  8482  002184  0E99               	movlw	153
  8483  002186  6E14               	movwf	(___flmul@a+1)^0,c
  8484  002188  0E59               	movlw	89
  8485  00218A  6E15               	movwf	(___flmul@a+2)^0,c
  8486  00218C  0E3B               	movlw	59
  8487  00218E  6E16               	movwf	(___flmul@a+3)^0,c
  8488  002190  C0D9  F001         	movff	_codigo_digital,___xxtofl@val
  8489  002194  C0DA  F002         	movff	_codigo_digital+1,___xxtofl@val+1
  8490  002198  0E00               	movlw	0
  8491  00219A  BE02               	btfsc	(___xxtofl@val+1)^0,7,c
  8492  00219C  0EFF               	movlw	-1
  8493  00219E  6E03               	movwf	(___xxtofl@val+2)^0,c
  8494  0021A0  6E04               	movwf	(___xxtofl@val+3)^0,c
  8495  0021A2  0E01               	movlw	1
  8496  0021A4  EC99  F00D         	call	___xxtofl
  8497  0021A8  C001  F00F         	movff	?___xxtofl,___flmul@b
  8498  0021AC  C002  F010         	movff	?___xxtofl+1,___flmul@b+1
  8499  0021B0  C003  F011         	movff	?___xxtofl+2,___flmul@b+2
  8500  0021B4  C004  F012         	movff	?___xxtofl+3,___flmul@b+3
  8501  0021B8  ECBD  F005         	call	___flmul	;wreg free
  8502  0021BC  C00F  F028         	movff	?___flmul,___fladd@b
  8503  0021C0  C010  F029         	movff	?___flmul+1,___fladd@b+1
  8504  0021C4  C011  F02A         	movff	?___flmul+2,___fladd@b+2
  8505  0021C8  C012  F02B         	movff	?___flmul+3,___fladd@b+3
  8506  0021CC  EC5D  F003         	call	___fladd	;wreg free
  8507  0021D0  C028  F05B         	movff	?___fladd,_ADC_temperatura$2715
  8508  0021D4  C029  F05C         	movff	?___fladd+1,_ADC_temperatura$2715+1
  8509  0021D8  C02A  F05D         	movff	?___fladd+2,_ADC_temperatura$2715+2
  8510  0021DC  C02B  F05E         	movff	?___fladd+3,_ADC_temperatura$2715+3
  8511  0021E0                     
  8512                           ;main.c: 86:     temp_ambiente = (int)(((((float) codigo_digital * (3.4/1024.0))-0.3)-0.
      +                          400) / (0.0195));
  8513  0021E0  0E77               	movlw	119
  8514  0021E2  6E3C               	movwf	___fldiv@a^0,c
  8515  0021E4  0EBE               	movlw	190
  8516  0021E6  6E3D               	movwf	(___fldiv@a+1)^0,c
  8517  0021E8  0E9F               	movlw	159
  8518  0021EA  6E3E               	movwf	(___fldiv@a+2)^0,c
  8519  0021EC  0E3C               	movlw	60
  8520  0021EE  6E3F               	movwf	(___fldiv@a+3)^0,c
  8521  0021F0  0ECD               	movlw	205
  8522  0021F2  6E2C               	movwf	___fladd@a^0,c
  8523  0021F4  0ECC               	movlw	204
  8524  0021F6  6E2D               	movwf	(___fladd@a+1)^0,c
  8525  0021F8  0ECC               	movlw	204
  8526  0021FA  6E2E               	movwf	(___fladd@a+2)^0,c
  8527  0021FC  0EBE               	movlw	190
  8528  0021FE  6E2F               	movwf	(___fladd@a+3)^0,c
  8529  002200  C05B  F028         	movff	_ADC_temperatura$2715,___fladd@b
  8530  002204  C05C  F029         	movff	_ADC_temperatura$2715+1,___fladd@b+1
  8531  002208  C05D  F02A         	movff	_ADC_temperatura$2715+2,___fladd@b+2
  8532  00220C  C05E  F02B         	movff	_ADC_temperatura$2715+3,___fladd@b+3
  8533  002210  EC5D  F003         	call	___fladd	;wreg free
  8534  002214  C028  F038         	movff	?___fladd,___fldiv@b
  8535  002218  C029  F039         	movff	?___fladd+1,___fldiv@b+1
  8536  00221C  C02A  F03A         	movff	?___fladd+2,___fldiv@b+2
  8537  002220  C02B  F03B         	movff	?___fladd+3,___fldiv@b+3
  8538  002224  ECD2  F007         	call	___fldiv	;wreg free
  8539  002228  C038  F051         	movff	?___fldiv,___fltol@f1
  8540  00222C  C039  F052         	movff	?___fldiv+1,___fltol@f1+1
  8541  002230  C03A  F053         	movff	?___fldiv+2,___fltol@f1+2
  8542  002234  C03B  F054         	movff	?___fldiv+3,___fltol@f1+3
  8543  002238  ECBD  F011         	call	___fltol	;wreg free
  8544  00223C  C051  F0D7         	movff	?___fltol,_temp_ambiente
  8545  002240  C052  F0D8         	movff	?___fltol+1,_temp_ambiente+1
  8546  002244                     
  8547                           ;main.c: 88:     if (temp_ambiente != temp_ambiente_anterior){
  8548  002244  0100               	movlb	0	; () banked
  8549  002246  51D5               	movf	_temp_ambiente_anterior& (0+255),w,b
  8550  002248  19D7               	xorwf	_temp_ambiente& (0+255),w,b
  8551  00224A  E109               	bnz	i2u404_40
  8552  00224C  51D6               	movf	(_temp_ambiente_anterior+1)& (0+255),w,b
  8553  00224E  19D8               	xorwf	(_temp_ambiente+1)& (0+255),w,b
  8554  002250  B4D8               	btfsc	status,2,c
  8555  002252  EF2D  F011         	goto	i2u404_41
  8556  002256  EF2F  F011         	goto	i2u404_40
  8557  00225A                     i2u404_41:
  8558  00225A  EF37  F011         	goto	i2l561
  8559  00225E                     i2u404_40:
  8560  00225E                     
  8561                           ; BSR set to: 0
  8562                           ;main.c: 90:         temp_mudou = 1;
  8563  00225E  0E00               	movlw	0
  8564  002260  6FDC               	movwf	(_temp_mudou+1)& (0+255),b
  8565  002262  0E01               	movlw	1
  8566  002264  6FDB               	movwf	_temp_mudou& (0+255),b
  8567  002266                     
  8568                           ; BSR set to: 0
  8569                           ;main.c: 91:         temp_ambiente_anterior = temp_ambiente;
  8570  002266  C0D7  F0D5         	movff	_temp_ambiente,_temp_ambiente_anterior
  8571  00226A  C0D8  F0D6         	movff	_temp_ambiente+1,_temp_ambiente_anterior+1
  8572  00226E                     i2l561:
  8573                           
  8574                           ; BSR set to: 0
  8575  00226E  0012               	return		;funcret
  8576  002270                     __end_of_ADC_temperatura:
  8577                           	opt callstack 0
  8578                           
  8579 ;; *************** function ___xxtofl *****************
  8580 ;; Defined at:
  8581 ;;		line 10 in file "C:\Program Files (x86)\Microchip\xc8\v2.10\pic\sources\c99\common\xxtofl.c"
  8582 ;; Parameters:    Size  Location     Type
  8583 ;;  sign            1    wreg     unsigned char 
  8584 ;;  val             4    0[COMRAM] long 
  8585 ;; Auto vars:     Size  Location     Type
  8586 ;;  sign            1    8[COMRAM] unsigned char 
  8587 ;;  arg             4   10[COMRAM] unsigned long 
  8588 ;;  exp             1    9[COMRAM] unsigned char 
  8589 ;; Return value:  Size  Location     Type
  8590 ;;                  4    0[COMRAM] unsigned char 
  8591 ;; Registers used:
  8592 ;;		wreg, status,2, status,0
  8593 ;; Tracked objects:
  8594 ;;		On entry : 0/0
  8595 ;;		On exit  : 0/0
  8596 ;;		Unchanged: 0/0
  8597 ;; Data sizes:     COMRAM   BANK0   BANK1   BANK2   BANK3   BANK4   BANK5
  8598 ;;      Params:         4       0       0       0       0       0       0
  8599 ;;      Locals:         6       0       0       0       0       0       0
  8600 ;;      Temps:          4       0       0       0       0       0       0
  8601 ;;      Totals:        14       0       0       0       0       0       0
  8602 ;;Total ram usage:       14 bytes
  8603 ;; Hardware stack levels used:    1
  8604 ;; This function calls:
  8605 ;;		Nothing
  8606 ;; This function is called by:
  8607 ;;		_ADC_temperatura
  8608 ;; This function uses a non-reentrant model
  8609 ;;
  8610                           
  8611                           	psect	text75
  8612  001B32                     __ptext75:
  8613                           	opt callstack 0
  8614  001B32                     ___xxtofl:
  8615                           	opt callstack 18
  8616                           
  8617                           ; BSR set to: 0
  8618                           ;incstack = 0
  8619                           ;___xxtofl@sign stored from wreg
  8620  001B32  6E09               	movwf	___xxtofl@sign^0,c
  8621  001B34  5009               	movf	___xxtofl@sign^0,w,c
  8622  001B36  B4D8               	btfsc	status,2,c
  8623  001B38  EFA0  F00D         	goto	i2u387_41
  8624  001B3C  EFA2  F00D         	goto	i2u387_40
  8625  001B40                     i2u387_41:
  8626  001B40  EFC4  F00D         	goto	i2l1470
  8627  001B44                     i2u387_40:
  8628  001B44  BE04               	btfsc	(___xxtofl@val+3)^0,7,c
  8629  001B46  EFA9  F00D         	goto	i2u388_40
  8630  001B4A  EFA7  F00D         	goto	i2u388_41
  8631  001B4E                     i2u388_41:
  8632  001B4E  EFC4  F00D         	goto	i2l1470
  8633  001B52                     i2u388_40:
  8634  001B52  C001  F005         	movff	___xxtofl@val,??___xxtofl
  8635  001B56  C002  F006         	movff	___xxtofl@val+1,??___xxtofl+1
  8636  001B5A  C003  F007         	movff	___xxtofl@val+2,??___xxtofl+2
  8637  001B5E  C004  F008         	movff	___xxtofl@val+3,??___xxtofl+3
  8638  001B62  1E05               	comf	??___xxtofl^0,f,c
  8639  001B64  1E06               	comf	(??___xxtofl+1)^0,f,c
  8640  001B66  1E07               	comf	(??___xxtofl+2)^0,f,c
  8641  001B68  1E08               	comf	(??___xxtofl+3)^0,f,c
  8642  001B6A  2A05               	incf	??___xxtofl^0,f,c
  8643  001B6C  0E00               	movlw	0
  8644  001B6E  2206               	addwfc	(??___xxtofl+1)^0,f,c
  8645  001B70  2207               	addwfc	(??___xxtofl+2)^0,f,c
  8646  001B72  2208               	addwfc	(??___xxtofl+3)^0,f,c
  8647  001B74  C005  F00B         	movff	??___xxtofl,___xxtofl@arg
  8648  001B78  C006  F00C         	movff	??___xxtofl+1,___xxtofl@arg+1
  8649  001B7C  C007  F00D         	movff	??___xxtofl+2,___xxtofl@arg+2
  8650  001B80  C008  F00E         	movff	??___xxtofl+3,___xxtofl@arg+3
  8651  001B84  EFCC  F00D         	goto	i2l4236
  8652  001B88                     i2l1470:
  8653  001B88  C001  F00B         	movff	___xxtofl@val,___xxtofl@arg
  8654  001B8C  C002  F00C         	movff	___xxtofl@val+1,___xxtofl@arg+1
  8655  001B90  C003  F00D         	movff	___xxtofl@val+2,___xxtofl@arg+2
  8656  001B94  C004  F00E         	movff	___xxtofl@val+3,___xxtofl@arg+3
  8657  001B98                     i2l4236:
  8658  001B98  5001               	movf	___xxtofl@val^0,w,c
  8659  001B9A  1002               	iorwf	(___xxtofl@val+1)^0,w,c
  8660  001B9C  1003               	iorwf	(___xxtofl@val+2)^0,w,c
  8661  001B9E  1004               	iorwf	(___xxtofl@val+3)^0,w,c
  8662  001BA0  A4D8               	btfss	status,2,c
  8663  001BA2  EFD5  F00D         	goto	i2u389_41
  8664  001BA6  EFD7  F00D         	goto	i2u389_40
  8665  001BAA                     i2u389_41:
  8666  001BAA  EFE1  F00D         	goto	i2l4242
  8667  001BAE                     i2u389_40:
  8668  001BAE  0E00               	movlw	0
  8669  001BB0  6E01               	movwf	?___xxtofl^0,c
  8670  001BB2  0E00               	movlw	0
  8671  001BB4  6E02               	movwf	(?___xxtofl+1)^0,c
  8672  001BB6  0E00               	movlw	0
  8673  001BB8  6E03               	movwf	(?___xxtofl+2)^0,c
  8674  001BBA  0E00               	movlw	0
  8675  001BBC  6E04               	movwf	(?___xxtofl+3)^0,c
  8676  001BBE  EF72  F00E         	goto	i2l1473
  8677  001BC2                     i2l4242:
  8678  001BC2  0E96               	movlw	150
  8679  001BC4  6E0A               	movwf	___xxtofl@exp^0,c
  8680  001BC6  EFEB  F00D         	goto	i2l4246
  8681  001BCA                     i2l4244:
  8682  001BCA  2A0A               	incf	___xxtofl@exp^0,f,c
  8683  001BCC  90D8               	bcf	status,0,c
  8684  001BCE  320E               	rrcf	(___xxtofl@arg+3)^0,f,c
  8685  001BD0  320D               	rrcf	(___xxtofl@arg+2)^0,f,c
  8686  001BD2  320C               	rrcf	(___xxtofl@arg+1)^0,f,c
  8687  001BD4  320B               	rrcf	___xxtofl@arg^0,f,c
  8688  001BD6                     i2l4246:
  8689  001BD6  0E00               	movlw	0
  8690  001BD8  140B               	andwf	___xxtofl@arg^0,w,c
  8691  001BDA  6E05               	movwf	??___xxtofl^0,c
  8692  001BDC  0E00               	movlw	0
  8693  001BDE  140C               	andwf	(___xxtofl@arg+1)^0,w,c
  8694  001BE0  6E06               	movwf	(??___xxtofl+1)^0,c
  8695  001BE2  0E00               	movlw	0
  8696  001BE4  140D               	andwf	(___xxtofl@arg+2)^0,w,c
  8697  001BE6  6E07               	movwf	(??___xxtofl+2)^0,c
  8698  001BE8  0EFE               	movlw	254
  8699  001BEA  140E               	andwf	(___xxtofl@arg+3)^0,w,c
  8700  001BEC  6E08               	movwf	(??___xxtofl+3)^0,c
  8701  001BEE  5005               	movf	??___xxtofl^0,w,c
  8702  001BF0  1006               	iorwf	(??___xxtofl+1)^0,w,c
  8703  001BF2  1007               	iorwf	(??___xxtofl+2)^0,w,c
  8704  001BF4  1008               	iorwf	(??___xxtofl+3)^0,w,c
  8705  001BF6  A4D8               	btfss	status,2,c
  8706  001BF8  EF00  F00E         	goto	i2u390_41
  8707  001BFC  EF02  F00E         	goto	i2u390_40
  8708  001C00                     i2u390_41:
  8709  001C00  EFE5  F00D         	goto	i2l4244
  8710  001C04                     i2u390_40:
  8711  001C04  EF10  F00E         	goto	i2l1477
  8712  001C08                     i2l4248:
  8713  001C08  2A0A               	incf	___xxtofl@exp^0,f,c
  8714  001C0A  0E01               	movlw	1
  8715  001C0C  260B               	addwf	___xxtofl@arg^0,f,c
  8716  001C0E  0E00               	movlw	0
  8717  001C10  220C               	addwfc	(___xxtofl@arg+1)^0,f,c
  8718  001C12  220D               	addwfc	(___xxtofl@arg+2)^0,f,c
  8719  001C14  220E               	addwfc	(___xxtofl@arg+3)^0,f,c
  8720  001C16  90D8               	bcf	status,0,c
  8721  001C18  320E               	rrcf	(___xxtofl@arg+3)^0,f,c
  8722  001C1A  320D               	rrcf	(___xxtofl@arg+2)^0,f,c
  8723  001C1C  320C               	rrcf	(___xxtofl@arg+1)^0,f,c
  8724  001C1E  320B               	rrcf	___xxtofl@arg^0,f,c
  8725  001C20                     i2l1477:
  8726  001C20  0E00               	movlw	0
  8727  001C22  140B               	andwf	___xxtofl@arg^0,w,c
  8728  001C24  6E05               	movwf	??___xxtofl^0,c
  8729  001C26  0E00               	movlw	0
  8730  001C28  140C               	andwf	(___xxtofl@arg+1)^0,w,c
  8731  001C2A  6E06               	movwf	(??___xxtofl+1)^0,c
  8732  001C2C  0E00               	movlw	0
  8733  001C2E  140D               	andwf	(___xxtofl@arg+2)^0,w,c
  8734  001C30  6E07               	movwf	(??___xxtofl+2)^0,c
  8735  001C32  0EFF               	movlw	255
  8736  001C34  140E               	andwf	(___xxtofl@arg+3)^0,w,c
  8737  001C36  6E08               	movwf	(??___xxtofl+3)^0,c
  8738  001C38  5005               	movf	??___xxtofl^0,w,c
  8739  001C3A  1006               	iorwf	(??___xxtofl+1)^0,w,c
  8740  001C3C  1007               	iorwf	(??___xxtofl+2)^0,w,c
  8741  001C3E  1008               	iorwf	(??___xxtofl+3)^0,w,c
  8742  001C40  A4D8               	btfss	status,2,c
  8743  001C42  EF25  F00E         	goto	i2u391_41
  8744  001C46  EF27  F00E         	goto	i2u391_40
  8745  001C4A                     i2u391_41:
  8746  001C4A  EF04  F00E         	goto	i2l4248
  8747  001C4E                     i2u391_40:
  8748  001C4E  EF2F  F00E         	goto	i2l4256
  8749  001C52                     i2l4254:
  8750  001C52  060A               	decf	___xxtofl@exp^0,f,c
  8751  001C54  90D8               	bcf	status,0,c
  8752  001C56  360B               	rlcf	___xxtofl@arg^0,f,c
  8753  001C58  360C               	rlcf	(___xxtofl@arg+1)^0,f,c
  8754  001C5A  360D               	rlcf	(___xxtofl@arg+2)^0,f,c
  8755  001C5C  360E               	rlcf	(___xxtofl@arg+3)^0,f,c
  8756  001C5E                     i2l4256:
  8757  001C5E  BE0D               	btfsc	(___xxtofl@arg+2)^0,7,c
  8758  001C60  EF34  F00E         	goto	i2u392_41
  8759  001C64  EF36  F00E         	goto	i2u392_40
  8760  001C68                     i2u392_41:
  8761  001C68  EF3E  F00E         	goto	i2l1484
  8762  001C6C                     i2u392_40:
  8763  001C6C  0E02               	movlw	2
  8764  001C6E  600A               	cpfslt	___xxtofl@exp^0,c
  8765  001C70  EF3C  F00E         	goto	i2u393_41
  8766  001C74  EF3E  F00E         	goto	i2u393_40
  8767  001C78                     i2u393_41:
  8768  001C78  EF29  F00E         	goto	i2l4254
  8769  001C7C                     i2u393_40:
  8770  001C7C                     i2l1484:
  8771  001C7C  B00A               	btfsc	___xxtofl@exp^0,0,c
  8772  001C7E  EF43  F00E         	goto	i2u394_41
  8773  001C82  EF45  F00E         	goto	i2u394_40
  8774  001C86                     i2u394_41:
  8775  001C86  EF46  F00E         	goto	i2l4262
  8776  001C8A                     i2u394_40:
  8777  001C8A  9E0D               	bcf	(___xxtofl@arg+2)^0,7,c
  8778  001C8C                     i2l4262:
  8779  001C8C  90D8               	bcf	status,0,c
  8780  001C8E  320A               	rrcf	___xxtofl@exp^0,f,c
  8781  001C90  C00A  F005         	movff	___xxtofl@exp,??___xxtofl
  8782  001C94  6A06               	clrf	(??___xxtofl+1)^0,c
  8783  001C96  6A07               	clrf	(??___xxtofl+2)^0,c
  8784  001C98  6A08               	clrf	(??___xxtofl+3)^0,c
  8785  001C9A  C005  F008         	movff	??___xxtofl,??___xxtofl+3
  8786  001C9E  6A07               	clrf	(??___xxtofl+2)^0,c
  8787  001CA0  6A06               	clrf	(??___xxtofl+1)^0,c
  8788  001CA2  6A05               	clrf	??___xxtofl^0,c
  8789  001CA4  5005               	movf	??___xxtofl^0,w,c
  8790  001CA6  120B               	iorwf	___xxtofl@arg^0,f,c
  8791  001CA8  5006               	movf	(??___xxtofl+1)^0,w,c
  8792  001CAA  120C               	iorwf	(___xxtofl@arg+1)^0,f,c
  8793  001CAC  5007               	movf	(??___xxtofl+2)^0,w,c
  8794  001CAE  120D               	iorwf	(___xxtofl@arg+2)^0,f,c
  8795  001CB0  5008               	movf	(??___xxtofl+3)^0,w,c
  8796  001CB2  120E               	iorwf	(___xxtofl@arg+3)^0,f,c
  8797  001CB4  5009               	movf	___xxtofl@sign^0,w,c
  8798  001CB6  B4D8               	btfsc	status,2,c
  8799  001CB8  EF60  F00E         	goto	i2u395_41
  8800  001CBC  EF62  F00E         	goto	i2u395_40
  8801  001CC0                     i2u395_41:
  8802  001CC0  EF6A  F00E         	goto	i2l4272
  8803  001CC4                     i2u395_40:
  8804  001CC4  BE04               	btfsc	(___xxtofl@val+3)^0,7,c
  8805  001CC6  EF69  F00E         	goto	i2u396_40
  8806  001CCA  EF67  F00E         	goto	i2u396_41
  8807  001CCE                     i2u396_41:
  8808  001CCE  EF6A  F00E         	goto	i2l4272
  8809  001CD2                     i2u396_40:
  8810  001CD2  8E0E               	bsf	(___xxtofl@arg+3)^0,7,c
  8811  001CD4                     i2l4272:
  8812  001CD4  C00B  F001         	movff	___xxtofl@arg,?___xxtofl
  8813  001CD8  C00C  F002         	movff	___xxtofl@arg+1,?___xxtofl+1
  8814  001CDC  C00D  F003         	movff	___xxtofl@arg+2,?___xxtofl+2
  8815  001CE0  C00E  F004         	movff	___xxtofl@arg+3,?___xxtofl+3
  8816  001CE4                     i2l1473:
  8817  001CE4  0012               	return		;funcret
  8818  001CE6                     __end_of___xxtofl:
  8819                           	opt callstack 0
  8820                           
  8821 ;; *************** function ___fltol *****************
  8822 ;; Defined at:
  8823 ;;		line 43 in file "C:\Program Files (x86)\Microchip\xc8\v2.10\pic\sources\c99\common\fltol.c"
  8824 ;; Parameters:    Size  Location     Type
  8825 ;;  f1              4   80[COMRAM] unsigned char 
  8826 ;; Auto vars:     Size  Location     Type
  8827 ;;  exp1            1   89[COMRAM] unsigned char 
  8828 ;;  sign1           1   88[COMRAM] unsigned char 
  8829 ;; Return value:  Size  Location     Type
  8830 ;;                  4   80[COMRAM] long 
  8831 ;; Registers used:
  8832 ;;		wreg, status,2, status,0
  8833 ;; Tracked objects:
  8834 ;;		On entry : 0/0
  8835 ;;		On exit  : 0/0
  8836 ;;		Unchanged: 0/0
  8837 ;; Data sizes:     COMRAM   BANK0   BANK1   BANK2   BANK3   BANK4   BANK5
  8838 ;;      Params:         4       0       0       0       0       0       0
  8839 ;;      Locals:         2       0       0       0       0       0       0
  8840 ;;      Temps:          4       0       0       0       0       0       0
  8841 ;;      Totals:        10       0       0       0       0       0       0
  8842 ;;Total ram usage:       10 bytes
  8843 ;; Hardware stack levels used:    1
  8844 ;; This function calls:
  8845 ;;		Nothing
  8846 ;; This function is called by:
  8847 ;;		_ADC_temperatura
  8848 ;; This function uses a non-reentrant model
  8849 ;;
  8850                           
  8851                           	psect	text76
  8852  00237A                     __ptext76:
  8853                           	opt callstack 0
  8854  00237A                     ___fltol:
  8855                           	opt callstack 18
  8856  00237A  3453               	rlcf	(___fltol@f1+2)^0,w,c
  8857  00237C  3454               	rlcf	(___fltol@f1+3)^0,w,c
  8858  00237E  6E5A               	movwf	___fltol@exp1^0,c
  8859  002380  505A               	movf	___fltol@exp1^0,w,c
  8860  002382  A4D8               	btfss	status,2,c
  8861  002384  EFC6  F011         	goto	i2u380_41
  8862  002388  EFC8  F011         	goto	i2u380_40
  8863  00238C                     i2u380_41:
  8864  00238C  EFD2  F011         	goto	i2l4192
  8865  002390                     i2u380_40:
  8866  002390                     i2l4188:
  8867  002390  0E00               	movlw	0
  8868  002392  6E51               	movwf	?___fltol^0,c
  8869  002394  0E00               	movlw	0
  8870  002396  6E52               	movwf	(?___fltol+1)^0,c
  8871  002398  0E00               	movlw	0
  8872  00239A  6E53               	movwf	(?___fltol+2)^0,c
  8873  00239C  0E00               	movlw	0
  8874  00239E  6E54               	movwf	(?___fltol+3)^0,c
  8875  0023A0  EF3F  F012         	goto	i2l1112
  8876  0023A4                     i2l4192:
  8877  0023A4  C051  F055         	movff	___fltol@f1,??___fltol
  8878  0023A8  C052  F056         	movff	___fltol@f1+1,??___fltol+1
  8879  0023AC  C053  F057         	movff	___fltol@f1+2,??___fltol+2
  8880  0023B0  C054  F058         	movff	___fltol@f1+3,??___fltol+3
  8881  0023B4  0E20               	movlw	32
  8882  0023B6  EFE2  F011         	goto	i2u381_40
  8883  0023BA                     i2u381_45:
  8884  0023BA  90D8               	bcf	status,0,c
  8885  0023BC  3258               	rrcf	(??___fltol+3)^0,f,c
  8886  0023BE  3257               	rrcf	(??___fltol+2)^0,f,c
  8887  0023C0  3256               	rrcf	(??___fltol+1)^0,f,c
  8888  0023C2  3255               	rrcf	??___fltol^0,f,c
  8889  0023C4                     i2u381_40:
  8890  0023C4  2EE8               	decfsz	wreg,f,c
  8891  0023C6  EFDD  F011         	goto	i2u381_45
  8892  0023CA  5055               	movf	??___fltol^0,w,c
  8893  0023CC  6E59               	movwf	___fltol@sign1^0,c
  8894  0023CE  8E53               	bsf	(___fltol@f1+2)^0,7,c
  8895  0023D0  0EFF               	movlw	255
  8896  0023D2  1651               	andwf	___fltol@f1^0,f,c
  8897  0023D4  0EFF               	movlw	255
  8898  0023D6  1652               	andwf	(___fltol@f1+1)^0,f,c
  8899  0023D8  0EFF               	movlw	255
  8900  0023DA  1653               	andwf	(___fltol@f1+2)^0,f,c
  8901  0023DC  0E00               	movlw	0
  8902  0023DE  1654               	andwf	(___fltol@f1+3)^0,f,c
  8903  0023E0  0E96               	movlw	150
  8904  0023E2  5E5A               	subwf	___fltol@exp1^0,f,c
  8905  0023E4  BE5A               	btfsc	___fltol@exp1^0,7,c
  8906  0023E6  EFF9  F011         	goto	i2u382_40
  8907  0023EA  EFF7  F011         	goto	i2u382_41
  8908  0023EE                     i2u382_41:
  8909  0023EE  EF0F  F012         	goto	i2l4212
  8910  0023F2                     i2u382_40:
  8911  0023F2  505A               	movf	___fltol@exp1^0,w,c
  8912  0023F4  0A80               	xorlw	128
  8913  0023F6  0F97               	addlw	151
  8914  0023F8  B0D8               	btfsc	status,0,c
  8915  0023FA  EF01  F012         	goto	i2u383_41
  8916  0023FE  EF03  F012         	goto	i2u383_40
  8917  002402                     i2u383_41:
  8918  002402  EF05  F012         	goto	i2l4208
  8919  002406                     i2u383_40:
  8920  002406  EFC8  F011         	goto	i2l4188
  8921  00240A                     i2l4208:
  8922  00240A  90D8               	bcf	status,0,c
  8923  00240C  3254               	rrcf	(___fltol@f1+3)^0,f,c
  8924  00240E  3253               	rrcf	(___fltol@f1+2)^0,f,c
  8925  002410  3252               	rrcf	(___fltol@f1+1)^0,f,c
  8926  002412  3251               	rrcf	___fltol@f1^0,f,c
  8927  002414  3E5A               	incfsz	___fltol@exp1^0,f,c
  8928  002416  EF05  F012         	goto	i2l4208
  8929  00241A  EF27  F012         	goto	i2l4222
  8930  00241E                     i2l4212:
  8931  00241E  0E1F               	movlw	31
  8932  002420  645A               	cpfsgt	___fltol@exp1^0,c
  8933  002422  EF15  F012         	goto	i2u384_41
  8934  002426  EF17  F012         	goto	i2u384_40
  8935  00242A                     i2u384_41:
  8936  00242A  EF1F  F012         	goto	i2l4220
  8937  00242E                     i2u384_40:
  8938  00242E  EFC8  F011         	goto	i2l4188
  8939  002432                     i2l4218:
  8940  002432  90D8               	bcf	status,0,c
  8941  002434  3651               	rlcf	___fltol@f1^0,f,c
  8942  002436  3652               	rlcf	(___fltol@f1+1)^0,f,c
  8943  002438  3653               	rlcf	(___fltol@f1+2)^0,f,c
  8944  00243A  3654               	rlcf	(___fltol@f1+3)^0,f,c
  8945  00243C  065A               	decf	___fltol@exp1^0,f,c
  8946  00243E                     i2l4220:
  8947  00243E  505A               	movf	___fltol@exp1^0,w,c
  8948  002440  A4D8               	btfss	status,2,c
  8949  002442  EF25  F012         	goto	i2u385_41
  8950  002446  EF27  F012         	goto	i2u385_40
  8951  00244A                     i2u385_41:
  8952  00244A  EF19  F012         	goto	i2l4218
  8953  00244E                     i2u385_40:
  8954  00244E                     i2l4222:
  8955  00244E  5059               	movf	___fltol@sign1^0,w,c
  8956  002450  B4D8               	btfsc	status,2,c
  8957  002452  EF2D  F012         	goto	i2u386_41
  8958  002456  EF2F  F012         	goto	i2u386_40
  8959  00245A                     i2u386_41:
  8960  00245A  EF37  F012         	goto	i2l4226
  8961  00245E                     i2u386_40:
  8962  00245E  1E54               	comf	(___fltol@f1+3)^0,f,c
  8963  002460  1E53               	comf	(___fltol@f1+2)^0,f,c
  8964  002462  1E52               	comf	(___fltol@f1+1)^0,f,c
  8965  002464  6C51               	negf	___fltol@f1^0,c
  8966  002466  0E00               	movlw	0
  8967  002468  2252               	addwfc	(___fltol@f1+1)^0,f,c
  8968  00246A  2253               	addwfc	(___fltol@f1+2)^0,f,c
  8969  00246C  2254               	addwfc	(___fltol@f1+3)^0,f,c
  8970  00246E                     i2l4226:
  8971  00246E  C051  F051         	movff	___fltol@f1,?___fltol
  8972  002472  C052  F052         	movff	___fltol@f1+1,?___fltol+1
  8973  002476  C053  F053         	movff	___fltol@f1+2,?___fltol+2
  8974  00247A  C054  F054         	movff	___fltol@f1+3,?___fltol+3
  8975  00247E                     i2l1112:
  8976  00247E  0012               	return		;funcret
  8977  002480                     __end_of___fltol:
  8978                           	opt callstack 0
  8979                           
  8980 ;; *************** function ___flmul *****************
  8981 ;; Defined at:
  8982 ;;		line 8 in file "C:\Program Files (x86)\Microchip\xc8\v2.10\pic\sources\c99\common\sprcmul.c"
  8983 ;; Parameters:    Size  Location     Type
  8984 ;;  b               4   14[COMRAM] long 
  8985 ;;  a               4   18[COMRAM] long 
  8986 ;; Auto vars:     Size  Location     Type
  8987 ;;  prod            4   33[COMRAM] struct .
  8988 ;;  grs             4   27[COMRAM] unsigned long 
  8989 ;;  temp            2   37[COMRAM] struct .
  8990 ;;  bexp            1   32[COMRAM] unsigned char 
  8991 ;;  aexp            1   31[COMRAM] unsigned char 
  8992 ;;  sign            1   26[COMRAM] unsigned char 
  8993 ;; Return value:  Size  Location     Type
  8994 ;;                  4   14[COMRAM] unsigned char 
  8995 ;; Registers used:
  8996 ;;		wreg, status,2, status,0, prodl, prodh
  8997 ;; Tracked objects:
  8998 ;;		On entry : 0/0
  8999 ;;		On exit  : 0/0
  9000 ;;		Unchanged: 0/0
  9001 ;; Data sizes:     COMRAM   BANK0   BANK1   BANK2   BANK3   BANK4   BANK5
  9002 ;;      Params:         8       0       0       0       0       0       0
  9003 ;;      Locals:        13       0       0       0       0       0       0
  9004 ;;      Temps:          4       0       0       0       0       0       0
  9005 ;;      Totals:        25       0       0       0       0       0       0
  9006 ;;Total ram usage:       25 bytes
  9007 ;; Hardware stack levels used:    1
  9008 ;; This function calls:
  9009 ;;		Nothing
  9010 ;; This function is called by:
  9011 ;;		_ADC_temperatura
  9012 ;; This function uses a non-reentrant model
  9013 ;;
  9014                           
  9015                           	psect	text77
  9016  000B7A                     __ptext77:
  9017                           	opt callstack 0
  9018  000B7A                     ___flmul:
  9019                           	opt callstack 18
  9020  000B7A  5012               	movf	(___flmul@b+3)^0,w,c
  9021  000B7C  0B80               	andlw	128
  9022  000B7E  6E1B               	movwf	___flmul@sign^0,c
  9023  000B80  5012               	movf	(___flmul@b+3)^0,w,c
  9024  000B82  2412               	addwf	(___flmul@b+3)^0,w,c
  9025  000B84  6E21               	movwf	___flmul@bexp^0,c
  9026  000B86  AE11               	btfss	(___flmul@b+2)^0,7,c
  9027  000B88  EFC8  F005         	goto	i2u361_41
  9028  000B8C  EFCA  F005         	goto	i2u361_40
  9029  000B90                     i2u361_41:
  9030  000B90  EFCB  F005         	goto	i2l4062
  9031  000B94                     i2u361_40:
  9032  000B94  8021               	bsf	___flmul@bexp^0,0,c
  9033  000B96                     i2l4062:
  9034  000B96  5021               	movf	___flmul@bexp^0,w,c
  9035  000B98  B4D8               	btfsc	status,2,c
  9036  000B9A  EFD1  F005         	goto	i2u362_41
  9037  000B9E  EFD3  F005         	goto	i2u362_40
  9038  000BA2                     i2u362_41:
  9039  000BA2  EFE6  F005         	goto	i2l4070
  9040  000BA6                     i2u362_40:
  9041  000BA6  2821               	incf	___flmul@bexp^0,w,c
  9042  000BA8  A4D8               	btfss	status,2,c
  9043  000BAA  EFD9  F005         	goto	i2u363_41
  9044  000BAE  EFDB  F005         	goto	i2u363_40
  9045  000BB2                     i2u363_41:
  9046  000BB2  EFE3  F005         	goto	i2l4068
  9047  000BB6                     i2u363_40:
  9048  000BB6  0E00               	movlw	0
  9049  000BB8  6E0F               	movwf	___flmul@b^0,c
  9050  000BBA  0E00               	movlw	0
  9051  000BBC  6E10               	movwf	(___flmul@b+1)^0,c
  9052  000BBE  0E00               	movlw	0
  9053  000BC0  6E11               	movwf	(___flmul@b+2)^0,c
  9054  000BC2  0E00               	movlw	0
  9055  000BC4  6E12               	movwf	(___flmul@b+3)^0,c
  9056  000BC6                     i2l4068:
  9057  000BC6  8E11               	bsf	(___flmul@b+2)^0,7,c
  9058  000BC8  EFEE  F005         	goto	i2l4072
  9059  000BCC                     i2l4070:
  9060  000BCC  0E00               	movlw	0
  9061  000BCE  6E0F               	movwf	___flmul@b^0,c
  9062  000BD0  0E00               	movlw	0
  9063  000BD2  6E10               	movwf	(___flmul@b+1)^0,c
  9064  000BD4  0E00               	movlw	0
  9065  000BD6  6E11               	movwf	(___flmul@b+2)^0,c
  9066  000BD8  0E00               	movlw	0
  9067  000BDA  6E12               	movwf	(___flmul@b+3)^0,c
  9068  000BDC                     i2l4072:
  9069  000BDC  5016               	movf	(___flmul@a+3)^0,w,c
  9070  000BDE  0B80               	andlw	128
  9071  000BE0  1A1B               	xorwf	___flmul@sign^0,f,c
  9072  000BE2  5016               	movf	(___flmul@a+3)^0,w,c
  9073  000BE4  2416               	addwf	(___flmul@a+3)^0,w,c
  9074  000BE6  6E20               	movwf	___flmul@aexp^0,c
  9075  000BE8  AE15               	btfss	(___flmul@a+2)^0,7,c
  9076  000BEA  EFF9  F005         	goto	i2u364_41
  9077  000BEE  EFFB  F005         	goto	i2u364_40
  9078  000BF2                     i2u364_41:
  9079  000BF2  EFFC  F005         	goto	i2l4080
  9080  000BF6                     i2u364_40:
  9081  000BF6  8020               	bsf	___flmul@aexp^0,0,c
  9082  000BF8                     i2l4080:
  9083  000BF8  5020               	movf	___flmul@aexp^0,w,c
  9084  000BFA  B4D8               	btfsc	status,2,c
  9085  000BFC  EF02  F006         	goto	i2u365_41
  9086  000C00  EF04  F006         	goto	i2u365_40
  9087  000C04                     i2u365_41:
  9088  000C04  EF17  F006         	goto	i2l4088
  9089  000C08                     i2u365_40:
  9090  000C08  2820               	incf	___flmul@aexp^0,w,c
  9091  000C0A  A4D8               	btfss	status,2,c
  9092  000C0C  EF0A  F006         	goto	i2u366_41
  9093  000C10  EF0C  F006         	goto	i2u366_40
  9094  000C14                     i2u366_41:
  9095  000C14  EF14  F006         	goto	i2l4086
  9096  000C18                     i2u366_40:
  9097  000C18  0E00               	movlw	0
  9098  000C1A  6E13               	movwf	___flmul@a^0,c
  9099  000C1C  0E00               	movlw	0
  9100  000C1E  6E14               	movwf	(___flmul@a+1)^0,c
  9101  000C20  0E00               	movlw	0
  9102  000C22  6E15               	movwf	(___flmul@a+2)^0,c
  9103  000C24  0E00               	movlw	0
  9104  000C26  6E16               	movwf	(___flmul@a+3)^0,c
  9105  000C28                     i2l4086:
  9106  000C28  8E15               	bsf	(___flmul@a+2)^0,7,c
  9107  000C2A  EF1F  F006         	goto	i2l1429
  9108  000C2E                     i2l4088:
  9109  000C2E  0E00               	movlw	0
  9110  000C30  6E13               	movwf	___flmul@a^0,c
  9111  000C32  0E00               	movlw	0
  9112  000C34  6E14               	movwf	(___flmul@a+1)^0,c
  9113  000C36  0E00               	movlw	0
  9114  000C38  6E15               	movwf	(___flmul@a+2)^0,c
  9115  000C3A  0E00               	movlw	0
  9116  000C3C  6E16               	movwf	(___flmul@a+3)^0,c
  9117  000C3E                     i2l1429:
  9118  000C3E  5020               	movf	___flmul@aexp^0,w,c
  9119  000C40  B4D8               	btfsc	status,2,c
  9120  000C42  EF25  F006         	goto	i2u367_41
  9121  000C46  EF27  F006         	goto	i2u367_40
  9122  000C4A                     i2u367_41:
  9123  000C4A  EF2F  F006         	goto	i2l4092
  9124  000C4E                     i2u367_40:
  9125  000C4E  5021               	movf	___flmul@bexp^0,w,c
  9126  000C50  A4D8               	btfss	status,2,c
  9127  000C52  EF2D  F006         	goto	i2u368_41
  9128  000C56  EF2F  F006         	goto	i2u368_40
  9129  000C5A                     i2u368_41:
  9130  000C5A  EF39  F006         	goto	i2l4096
  9131  000C5E                     i2u368_40:
  9132  000C5E                     i2l4092:
  9133  000C5E  0E00               	movlw	0
  9134  000C60  6E0F               	movwf	?___flmul^0,c
  9135  000C62  0E00               	movlw	0
  9136  000C64  6E10               	movwf	(?___flmul+1)^0,c
  9137  000C66  0E00               	movlw	0
  9138  000C68  6E11               	movwf	(?___flmul+2)^0,c
  9139  000C6A  0E00               	movlw	0
  9140  000C6C  6E12               	movwf	(?___flmul+3)^0,c
  9141  000C6E  EFD1  F007         	goto	i2l1433
  9142  000C72                     i2l4096:
  9143  000C72  5015               	movf	(___flmul@a+2)^0,w,c
  9144  000C74  020F               	mulwf	___flmul@b^0,c
  9145  000C76  CFF3 F026          	movff	prodl,___flmul@temp
  9146  000C7A  CFF4 F027          	movff	prodh,___flmul@temp+1
  9147  000C7E  5026               	movf	___flmul@temp^0,w,c
  9148  000C80  6E1C               	movwf	___flmul@grs^0,c
  9149  000C82  6A1D               	clrf	(___flmul@grs+1)^0,c
  9150  000C84  6A1E               	clrf	(___flmul@grs+2)^0,c
  9151  000C86  6A1F               	clrf	(___flmul@grs+3)^0,c
  9152  000C88  5027               	movf	(___flmul@temp+1)^0,w,c
  9153  000C8A  6E22               	movwf	___flmul@prod^0,c
  9154  000C8C  6A23               	clrf	(___flmul@prod+1)^0,c
  9155  000C8E  6A24               	clrf	(___flmul@prod+2)^0,c
  9156  000C90  6A25               	clrf	(___flmul@prod+3)^0,c
  9157  000C92  5014               	movf	(___flmul@a+1)^0,w,c
  9158  000C94  0210               	mulwf	(___flmul@b+1)^0,c
  9159  000C96  CFF3 F026          	movff	prodl,___flmul@temp
  9160  000C9A  CFF4 F027          	movff	prodh,___flmul@temp+1
  9161  000C9E  5026               	movf	___flmul@temp^0,w,c
  9162  000CA0  261C               	addwf	___flmul@grs^0,f,c
  9163  000CA2  0E00               	movlw	0
  9164  000CA4  221D               	addwfc	(___flmul@grs+1)^0,f,c
  9165  000CA6  221E               	addwfc	(___flmul@grs+2)^0,f,c
  9166  000CA8  221F               	addwfc	(___flmul@grs+3)^0,f,c
  9167  000CAA  5027               	movf	(___flmul@temp+1)^0,w,c
  9168  000CAC  2622               	addwf	___flmul@prod^0,f,c
  9169  000CAE  0E00               	movlw	0
  9170  000CB0  2223               	addwfc	(___flmul@prod+1)^0,f,c
  9171  000CB2  2224               	addwfc	(___flmul@prod+2)^0,f,c
  9172  000CB4  2225               	addwfc	(___flmul@prod+3)^0,f,c
  9173  000CB6  5013               	movf	___flmul@a^0,w,c
  9174  000CB8  0211               	mulwf	(___flmul@b+2)^0,c
  9175  000CBA  CFF3 F026          	movff	prodl,___flmul@temp
  9176  000CBE  CFF4 F027          	movff	prodh,___flmul@temp+1
  9177  000CC2  5026               	movf	___flmul@temp^0,w,c
  9178  000CC4  261C               	addwf	___flmul@grs^0,f,c
  9179  000CC6  0E00               	movlw	0
  9180  000CC8  221D               	addwfc	(___flmul@grs+1)^0,f,c
  9181  000CCA  221E               	addwfc	(___flmul@grs+2)^0,f,c
  9182  000CCC  221F               	addwfc	(___flmul@grs+3)^0,f,c
  9183  000CCE  5027               	movf	(___flmul@temp+1)^0,w,c
  9184  000CD0  2622               	addwf	___flmul@prod^0,f,c
  9185  000CD2  0E00               	movlw	0
  9186  000CD4  2223               	addwfc	(___flmul@prod+1)^0,f,c
  9187  000CD6  2224               	addwfc	(___flmul@prod+2)^0,f,c
  9188  000CD8  2225               	addwfc	(___flmul@prod+3)^0,f,c
  9189  000CDA  C01E  F01F         	movff	___flmul@grs+2,___flmul@grs+3
  9190  000CDE  C01D  F01E         	movff	___flmul@grs+1,___flmul@grs+2
  9191  000CE2  C01C  F01D         	movff	___flmul@grs,___flmul@grs+1
  9192  000CE6  6A1C               	clrf	___flmul@grs^0,c
  9193  000CE8  5013               	movf	___flmul@a^0,w,c
  9194  000CEA  0210               	mulwf	(___flmul@b+1)^0,c
  9195  000CEC  CFF3 F026          	movff	prodl,___flmul@temp
  9196  000CF0  CFF4 F027          	movff	prodh,___flmul@temp+1
  9197  000CF4  5026               	movf	___flmul@temp^0,w,c
  9198  000CF6  261C               	addwf	___flmul@grs^0,f,c
  9199  000CF8  5027               	movf	(___flmul@temp+1)^0,w,c
  9200  000CFA  221D               	addwfc	(___flmul@grs+1)^0,f,c
  9201  000CFC  0E00               	movlw	0
  9202  000CFE  221E               	addwfc	(___flmul@grs+2)^0,f,c
  9203  000D00  0E00               	movlw	0
  9204  000D02  221F               	addwfc	(___flmul@grs+3)^0,f,c
  9205  000D04  5014               	movf	(___flmul@a+1)^0,w,c
  9206  000D06  020F               	mulwf	___flmul@b^0,c
  9207  000D08  CFF3 F026          	movff	prodl,___flmul@temp
  9208  000D0C  CFF4 F027          	movff	prodh,___flmul@temp+1
  9209  000D10  5026               	movf	___flmul@temp^0,w,c
  9210  000D12  261C               	addwf	___flmul@grs^0,f,c
  9211  000D14  5027               	movf	(___flmul@temp+1)^0,w,c
  9212  000D16  221D               	addwfc	(___flmul@grs+1)^0,f,c
  9213  000D18  0E00               	movlw	0
  9214  000D1A  221E               	addwfc	(___flmul@grs+2)^0,f,c
  9215  000D1C  0E00               	movlw	0
  9216  000D1E  221F               	addwfc	(___flmul@grs+3)^0,f,c
  9217  000D20  C01E  F01F         	movff	___flmul@grs+2,___flmul@grs+3
  9218  000D24  C01D  F01E         	movff	___flmul@grs+1,___flmul@grs+2
  9219  000D28  C01C  F01D         	movff	___flmul@grs,___flmul@grs+1
  9220  000D2C  6A1C               	clrf	___flmul@grs^0,c
  9221  000D2E  5013               	movf	___flmul@a^0,w,c
  9222  000D30  020F               	mulwf	___flmul@b^0,c
  9223  000D32  CFF3 F026          	movff	prodl,___flmul@temp
  9224  000D36  CFF4 F027          	movff	prodh,___flmul@temp+1
  9225  000D3A  5026               	movf	___flmul@temp^0,w,c
  9226  000D3C  261C               	addwf	___flmul@grs^0,f,c
  9227  000D3E  5027               	movf	(___flmul@temp+1)^0,w,c
  9228  000D40  221D               	addwfc	(___flmul@grs+1)^0,f,c
  9229  000D42  0E00               	movlw	0
  9230  000D44  221E               	addwfc	(___flmul@grs+2)^0,f,c
  9231  000D46  0E00               	movlw	0
  9232  000D48  221F               	addwfc	(___flmul@grs+3)^0,f,c
  9233  000D4A  5015               	movf	(___flmul@a+2)^0,w,c
  9234  000D4C  0210               	mulwf	(___flmul@b+1)^0,c
  9235  000D4E  CFF3 F026          	movff	prodl,___flmul@temp
  9236  000D52  CFF4 F027          	movff	prodh,___flmul@temp+1
  9237  000D56  5026               	movf	___flmul@temp^0,w,c
  9238  000D58  2622               	addwf	___flmul@prod^0,f,c
  9239  000D5A  5027               	movf	(___flmul@temp+1)^0,w,c
  9240  000D5C  2223               	addwfc	(___flmul@prod+1)^0,f,c
  9241  000D5E  0E00               	movlw	0
  9242  000D60  2224               	addwfc	(___flmul@prod+2)^0,f,c
  9243  000D62  0E00               	movlw	0
  9244  000D64  2225               	addwfc	(___flmul@prod+3)^0,f,c
  9245  000D66  5014               	movf	(___flmul@a+1)^0,w,c
  9246  000D68  0211               	mulwf	(___flmul@b+2)^0,c
  9247  000D6A  CFF3 F026          	movff	prodl,___flmul@temp
  9248  000D6E  CFF4 F027          	movff	prodh,___flmul@temp+1
  9249  000D72  5026               	movf	___flmul@temp^0,w,c
  9250  000D74  2622               	addwf	___flmul@prod^0,f,c
  9251  000D76  5027               	movf	(___flmul@temp+1)^0,w,c
  9252  000D78  2223               	addwfc	(___flmul@prod+1)^0,f,c
  9253  000D7A  0E00               	movlw	0
  9254  000D7C  2224               	addwfc	(___flmul@prod+2)^0,f,c
  9255  000D7E  0E00               	movlw	0
  9256  000D80  2225               	addwfc	(___flmul@prod+3)^0,f,c
  9257  000D82  5015               	movf	(___flmul@a+2)^0,w,c
  9258  000D84  0211               	mulwf	(___flmul@b+2)^0,c
  9259  000D86  CFF3 F026          	movff	prodl,___flmul@temp
  9260  000D8A  CFF4 F027          	movff	prodh,___flmul@temp+1
  9261  000D8E  5026               	movf	___flmul@temp^0,w,c
  9262  000D90  6E17               	movwf	??___flmul^0,c
  9263  000D92  5027               	movf	(___flmul@temp+1)^0,w,c
  9264  000D94  6E18               	movwf	(??___flmul+1)^0,c
  9265  000D96  6A19               	clrf	(??___flmul+2)^0,c
  9266  000D98  6A1A               	clrf	(??___flmul+3)^0,c
  9267  000D9A  C019  F01A         	movff	??___flmul+2,??___flmul+3
  9268  000D9E  C018  F019         	movff	??___flmul+1,??___flmul+2
  9269  000DA2  C017  F018         	movff	??___flmul,??___flmul+1
  9270  000DA6  6A17               	clrf	??___flmul^0,c
  9271  000DA8  5017               	movf	??___flmul^0,w,c
  9272  000DAA  2622               	addwf	___flmul@prod^0,f,c
  9273  000DAC  5018               	movf	(??___flmul+1)^0,w,c
  9274  000DAE  2223               	addwfc	(___flmul@prod+1)^0,f,c
  9275  000DB0  5019               	movf	(??___flmul+2)^0,w,c
  9276  000DB2  2224               	addwfc	(___flmul@prod+2)^0,f,c
  9277  000DB4  501A               	movf	(??___flmul+3)^0,w,c
  9278  000DB6  2225               	addwfc	(___flmul@prod+3)^0,f,c
  9279  000DB8  C01C  F017         	movff	___flmul@grs,??___flmul
  9280  000DBC  C01D  F018         	movff	___flmul@grs+1,??___flmul+1
  9281  000DC0  C01E  F019         	movff	___flmul@grs+2,??___flmul+2
  9282  000DC4  C01F  F01A         	movff	___flmul@grs+3,??___flmul+3
  9283  000DC8  0E19               	movlw	25
  9284  000DCA  EFEC  F006         	goto	i2u369_40
  9285  000DCE                     i2u369_45:
  9286  000DCE  90D8               	bcf	status,0,c
  9287  000DD0  321A               	rrcf	(??___flmul+3)^0,f,c
  9288  000DD2  3219               	rrcf	(??___flmul+2)^0,f,c
  9289  000DD4  3218               	rrcf	(??___flmul+1)^0,f,c
  9290  000DD6  3217               	rrcf	??___flmul^0,f,c
  9291  000DD8                     i2u369_40:
  9292  000DD8  2EE8               	decfsz	wreg,f,c
  9293  000DDA  EFE7  F006         	goto	i2u369_45
  9294  000DDE  5017               	movf	??___flmul^0,w,c
  9295  000DE0  2622               	addwf	___flmul@prod^0,f,c
  9296  000DE2  5018               	movf	(??___flmul+1)^0,w,c
  9297  000DE4  2223               	addwfc	(___flmul@prod+1)^0,f,c
  9298  000DE6  5019               	movf	(??___flmul+2)^0,w,c
  9299  000DE8  2224               	addwfc	(___flmul@prod+2)^0,f,c
  9300  000DEA  501A               	movf	(??___flmul+3)^0,w,c
  9301  000DEC  2225               	addwfc	(___flmul@prod+3)^0,f,c
  9302  000DEE  C01E  F01F         	movff	___flmul@grs+2,___flmul@grs+3
  9303  000DF2  C01D  F01E         	movff	___flmul@grs+1,___flmul@grs+2
  9304  000DF6  C01C  F01D         	movff	___flmul@grs,___flmul@grs+1
  9305  000DFA  6A1C               	clrf	___flmul@grs^0,c
  9306  000DFC  5020               	movf	___flmul@aexp^0,w,c
  9307  000DFE  C021  F017         	movff	___flmul@bexp,??___flmul
  9308  000E02  6A18               	clrf	(??___flmul+1)^0,c
  9309  000E04  2617               	addwf	??___flmul^0,f,c
  9310  000E06  0E00               	movlw	0
  9311  000E08  2218               	addwfc	(??___flmul+1)^0,f,c
  9312  000E0A  0E82               	movlw	130
  9313  000E0C  2417               	addwf	??___flmul^0,w,c
  9314  000E0E  6E26               	movwf	___flmul@temp^0,c
  9315  000E10  0EFF               	movlw	255
  9316  000E12  2018               	addwfc	(??___flmul+1)^0,w,c
  9317  000E14  6E27               	movwf	(___flmul@temp+1)^0,c
  9318  000E16  EF22  F007         	goto	i2l4144
  9319  000E1A                     i2l4138:
  9320  000E1A  90D8               	bcf	status,0,c
  9321  000E1C  3622               	rlcf	___flmul@prod^0,f,c
  9322  000E1E  3623               	rlcf	(___flmul@prod+1)^0,f,c
  9323  000E20  3624               	rlcf	(___flmul@prod+2)^0,f,c
  9324  000E22  3625               	rlcf	(___flmul@prod+3)^0,f,c
  9325  000E24  AE1F               	btfss	(___flmul@grs+3)^0,7,c
  9326  000E26  EF17  F007         	goto	i2u370_41
  9327  000E2A  EF19  F007         	goto	i2u370_40
  9328  000E2E                     i2u370_41:
  9329  000E2E  EF1A  F007         	goto	i2l1436
  9330  000E32                     i2u370_40:
  9331  000E32  8022               	bsf	___flmul@prod^0,0,c
  9332  000E34                     i2l1436:
  9333  000E34  90D8               	bcf	status,0,c
  9334  000E36  361C               	rlcf	___flmul@grs^0,f,c
  9335  000E38  361D               	rlcf	(___flmul@grs+1)^0,f,c
  9336  000E3A  361E               	rlcf	(___flmul@grs+2)^0,f,c
  9337  000E3C  361F               	rlcf	(___flmul@grs+3)^0,f,c
  9338  000E3E  0626               	decf	___flmul@temp^0,f,c
  9339  000E40  A0D8               	btfss	status,0,c
  9340  000E42  0627               	decf	(___flmul@temp+1)^0,f,c
  9341  000E44                     i2l4144:
  9342  000E44  AE24               	btfss	(___flmul@prod+2)^0,7,c
  9343  000E46  EF27  F007         	goto	i2u371_41
  9344  000E4A  EF29  F007         	goto	i2u371_40
  9345  000E4E                     i2u371_41:
  9346  000E4E  EF0D  F007         	goto	i2l4138
  9347  000E52                     i2u371_40:
  9348  000E52  0E00               	movlw	0
  9349  000E54  6E20               	movwf	___flmul@aexp^0,c
  9350  000E56  AE1F               	btfss	(___flmul@grs+3)^0,7,c
  9351  000E58  EF30  F007         	goto	i2u372_41
  9352  000E5C  EF32  F007         	goto	i2u372_40
  9353  000E60                     i2u372_41:
  9354  000E60  EF56  F007         	goto	i2l1438
  9355  000E64                     i2u372_40:
  9356  000E64  0EFF               	movlw	255
  9357  000E66  141C               	andwf	___flmul@grs^0,w,c
  9358  000E68  6E17               	movwf	??___flmul^0,c
  9359  000E6A  0EFF               	movlw	255
  9360  000E6C  141D               	andwf	(___flmul@grs+1)^0,w,c
  9361  000E6E  6E18               	movwf	(??___flmul+1)^0,c
  9362  000E70  0EFF               	movlw	255
  9363  000E72  141E               	andwf	(___flmul@grs+2)^0,w,c
  9364  000E74  6E19               	movwf	(??___flmul+2)^0,c
  9365  000E76  0E7F               	movlw	127
  9366  000E78  141F               	andwf	(___flmul@grs+3)^0,w,c
  9367  000E7A  6E1A               	movwf	(??___flmul+3)^0,c
  9368  000E7C  5017               	movf	??___flmul^0,w,c
  9369  000E7E  1018               	iorwf	(??___flmul+1)^0,w,c
  9370  000E80  1019               	iorwf	(??___flmul+2)^0,w,c
  9371  000E82  101A               	iorwf	(??___flmul+3)^0,w,c
  9372  000E84  B4D8               	btfsc	status,2,c
  9373  000E86  EF47  F007         	goto	i2u373_41
  9374  000E8A  EF49  F007         	goto	i2u373_40
  9375  000E8E                     i2u373_41:
  9376  000E8E  EF4D  F007         	goto	i2l1439
  9377  000E92                     i2u373_40:
  9378  000E92                     i2l4152:
  9379  000E92  0E01               	movlw	1
  9380  000E94  6E20               	movwf	___flmul@aexp^0,c
  9381  000E96  EF56  F007         	goto	i2l1438
  9382  000E9A                     i2l1439:
  9383  000E9A  A022               	btfss	___flmul@prod^0,0,c
  9384  000E9C  EF52  F007         	goto	i2u374_41
  9385  000EA0  EF54  F007         	goto	i2u374_40
  9386  000EA4                     i2u374_41:
  9387  000EA4  EF56  F007         	goto	i2l1438
  9388  000EA8                     i2u374_40:
  9389  000EA8  EF49  F007         	goto	i2l4152
  9390  000EAC                     i2l1438:
  9391  000EAC  5020               	movf	___flmul@aexp^0,w,c
  9392  000EAE  B4D8               	btfsc	status,2,c
  9393  000EB0  EF5C  F007         	goto	i2u375_41
  9394  000EB4  EF5E  F007         	goto	i2u375_40
  9395  000EB8                     i2u375_41:
  9396  000EB8  EF82  F007         	goto	i2l4164
  9397  000EBC                     i2u375_40:
  9398  000EBC  0E01               	movlw	1
  9399  000EBE  2622               	addwf	___flmul@prod^0,f,c
  9400  000EC0  0E00               	movlw	0
  9401  000EC2  2223               	addwfc	(___flmul@prod+1)^0,f,c
  9402  000EC4  2224               	addwfc	(___flmul@prod+2)^0,f,c
  9403  000EC6  2225               	addwfc	(___flmul@prod+3)^0,f,c
  9404  000EC8  A025               	btfss	(___flmul@prod+3)^0,0,c
  9405  000ECA  EF69  F007         	goto	i2u376_41
  9406  000ECE  EF6B  F007         	goto	i2u376_40
  9407  000ED2                     i2u376_41:
  9408  000ED2  EF82  F007         	goto	i2l4164
  9409  000ED6                     i2u376_40:
  9410  000ED6  C022  F017         	movff	___flmul@prod,??___flmul
  9411  000EDA  C023  F018         	movff	___flmul@prod+1,??___flmul+1
  9412  000EDE  C024  F019         	movff	___flmul@prod+2,??___flmul+2
  9413  000EE2  C025  F01A         	movff	___flmul@prod+3,??___flmul+3
  9414  000EE6  341A               	rlcf	(??___flmul+3)^0,w,c
  9415  000EE8  321A               	rrcf	(??___flmul+3)^0,f,c
  9416  000EEA  3219               	rrcf	(??___flmul+2)^0,f,c
  9417  000EEC  3218               	rrcf	(??___flmul+1)^0,f,c
  9418  000EEE  3217               	rrcf	??___flmul^0,f,c
  9419  000EF0  C017  F022         	movff	??___flmul,___flmul@prod
  9420  000EF4  C018  F023         	movff	??___flmul+1,___flmul@prod+1
  9421  000EF8  C019  F024         	movff	??___flmul+2,___flmul@prod+2
  9422  000EFC  C01A  F025         	movff	??___flmul+3,___flmul@prod+3
  9423  000F00  4A26               	infsnz	___flmul@temp^0,f,c
  9424  000F02  2A27               	incf	(___flmul@temp+1)^0,f,c
  9425  000F04                     i2l4164:
  9426  000F04  BE27               	btfsc	(___flmul@temp+1)^0,7,c
  9427  000F06  EF8D  F007         	goto	i2u377_41
  9428  000F0A  5027               	movf	(___flmul@temp+1)^0,w,c
  9429  000F0C  E108               	bnz	i2u377_40
  9430  000F0E  2826               	incf	___flmul@temp^0,w,c
  9431  000F10  A0D8               	btfss	status,0,c
  9432  000F12  EF8D  F007         	goto	i2u377_41
  9433  000F16  EF8F  F007         	goto	i2u377_40
  9434  000F1A                     i2u377_41:
  9435  000F1A  EF99  F007         	goto	i2l4168
  9436  000F1E                     i2u377_40:
  9437  000F1E  0E00               	movlw	0
  9438  000F20  6E22               	movwf	___flmul@prod^0,c
  9439  000F22  0E00               	movlw	0
  9440  000F24  6E23               	movwf	(___flmul@prod+1)^0,c
  9441  000F26  0E80               	movlw	128
  9442  000F28  6E24               	movwf	(___flmul@prod+2)^0,c
  9443  000F2A  0E7F               	movlw	127
  9444  000F2C  6E25               	movwf	(___flmul@prod+3)^0,c
  9445  000F2E  EFC7  F007         	goto	i2l4180
  9446  000F32                     i2l4168:
  9447  000F32  BE27               	btfsc	(___flmul@temp+1)^0,7,c
  9448  000F34  EFA6  F007         	goto	i2u378_40
  9449  000F38  5027               	movf	(___flmul@temp+1)^0,w,c
  9450  000F3A  E106               	bnz	i2u378_41
  9451  000F3C  0426               	decf	___flmul@temp^0,w,c
  9452  000F3E  B0D8               	btfsc	status,0,c
  9453  000F40  EFA4  F007         	goto	i2u378_41
  9454  000F44  EFA6  F007         	goto	i2u378_40
  9455  000F48                     i2u378_41:
  9456  000F48  EFB2  F007         	goto	i2l1446
  9457  000F4C                     i2u378_40:
  9458  000F4C  0E00               	movlw	0
  9459  000F4E  6E22               	movwf	___flmul@prod^0,c
  9460  000F50  0E00               	movlw	0
  9461  000F52  6E23               	movwf	(___flmul@prod+1)^0,c
  9462  000F54  0E00               	movlw	0
  9463  000F56  6E24               	movwf	(___flmul@prod+2)^0,c
  9464  000F58  0E00               	movlw	0
  9465  000F5A  6E25               	movwf	(___flmul@prod+3)^0,c
  9466  000F5C  0E00               	movlw	0
  9467  000F5E  6E1B               	movwf	___flmul@sign^0,c
  9468  000F60  EFC7  F007         	goto	i2l4180
  9469  000F64                     i2l1446:
  9470  000F64  C026  F021         	movff	___flmul@temp,___flmul@bexp
  9471  000F68  0EFF               	movlw	255
  9472  000F6A  1622               	andwf	___flmul@prod^0,f,c
  9473  000F6C  0EFF               	movlw	255
  9474  000F6E  1623               	andwf	(___flmul@prod+1)^0,f,c
  9475  000F70  0E7F               	movlw	127
  9476  000F72  1624               	andwf	(___flmul@prod+2)^0,f,c
  9477  000F74  0E00               	movlw	0
  9478  000F76  1625               	andwf	(___flmul@prod+3)^0,f,c
  9479  000F78  A021               	btfss	___flmul@bexp^0,0,c
  9480  000F7A  EFC1  F007         	goto	i2u379_41
  9481  000F7E  EFC3  F007         	goto	i2u379_40
  9482  000F82                     i2u379_41:
  9483  000F82  EFC4  F007         	goto	i2l4178
  9484  000F86                     i2u379_40:
  9485  000F86  8E24               	bsf	(___flmul@prod+2)^0,7,c
  9486  000F88                     i2l4178:
  9487  000F88  90D8               	bcf	status,0,c
  9488  000F8A  3021               	rrcf	___flmul@bexp^0,w,c
  9489  000F8C  6E25               	movwf	(___flmul@prod+3)^0,c
  9490  000F8E                     i2l4180:
  9491  000F8E  501B               	movf	___flmul@sign^0,w,c
  9492  000F90  1225               	iorwf	(___flmul@prod+3)^0,f,c
  9493  000F92  C022  F00F         	movff	___flmul@prod,?___flmul
  9494  000F96  C023  F010         	movff	___flmul@prod+1,?___flmul+1
  9495  000F9A  C024  F011         	movff	___flmul@prod+2,?___flmul+2
  9496  000F9E  C025  F012         	movff	___flmul@prod+3,?___flmul+3
  9497  000FA2                     i2l1433:
  9498  000FA2  0012               	return		;funcret
  9499  000FA4                     __end_of___flmul:
  9500                           	opt callstack 0
  9501                           
  9502 ;; *************** function ___fldiv *****************
  9503 ;; Defined at:
  9504 ;;		line 11 in file "C:\Program Files (x86)\Microchip\xc8\v2.10\pic\sources\c99\common\sprcdiv.c"
  9505 ;; Parameters:    Size  Location     Type
  9506 ;;  b               4   55[COMRAM] unsigned char 
  9507 ;;  a               4   59[COMRAM] unsigned char 
  9508 ;; Auto vars:     Size  Location     Type
  9509 ;;  grs             4   74[COMRAM] unsigned long 
  9510 ;;  rem             4   67[COMRAM] unsigned long 
  9511 ;;  new_exp         2   72[COMRAM] short 
  9512 ;;  aexp            1   79[COMRAM] unsigned char 
  9513 ;;  bexp            1   78[COMRAM] unsigned char 
  9514 ;;  sign            1   71[COMRAM] unsigned char 
  9515 ;; Return value:  Size  Location     Type
  9516 ;;                  4   55[COMRAM] unsigned char 
  9517 ;; Registers used:
  9518 ;;		wreg, status,2, status,0
  9519 ;; Tracked objects:
  9520 ;;		On entry : 0/0
  9521 ;;		On exit  : 0/0
  9522 ;;		Unchanged: 0/0
  9523 ;; Data sizes:     COMRAM   BANK0   BANK1   BANK2   BANK3   BANK4   BANK5
  9524 ;;      Params:         8       0       0       0       0       0       0
  9525 ;;      Locals:        13       0       0       0       0       0       0
  9526 ;;      Temps:          4       0       0       0       0       0       0
  9527 ;;      Totals:        25       0       0       0       0       0       0
  9528 ;;Total ram usage:       25 bytes
  9529 ;; Hardware stack levels used:    1
  9530 ;; This function calls:
  9531 ;;		Nothing
  9532 ;; This function is called by:
  9533 ;;		_ADC_temperatura
  9534 ;; This function uses a non-reentrant model
  9535 ;;
  9536                           
  9537                           	psect	text78
  9538  000FA4                     __ptext78:
  9539                           	opt callstack 0
  9540  000FA4                     ___fldiv:
  9541                           	opt callstack 18
  9542  000FA4  503B               	movf	(___fldiv@b+3)^0,w,c
  9543  000FA6  0B80               	andlw	128
  9544  000FA8  6E48               	movwf	___fldiv@sign^0,c
  9545  000FAA  503B               	movf	(___fldiv@b+3)^0,w,c
  9546  000FAC  243B               	addwf	(___fldiv@b+3)^0,w,c
  9547  000FAE  6E4F               	movwf	___fldiv@bexp^0,c
  9548  000FB0  AE3A               	btfss	(___fldiv@b+2)^0,7,c
  9549  000FB2  EFDD  F007         	goto	i2u338_41
  9550  000FB6  EFDF  F007         	goto	i2u338_40
  9551  000FBA                     i2u338_41:
  9552  000FBA  EFE0  F007         	goto	i2l3924
  9553  000FBE                     i2u338_40:
  9554  000FBE  804F               	bsf	___fldiv@bexp^0,0,c
  9555  000FC0                     i2l3924:
  9556  000FC0  504F               	movf	___fldiv@bexp^0,w,c
  9557  000FC2  B4D8               	btfsc	status,2,c
  9558  000FC4  EFE6  F007         	goto	i2u339_41
  9559  000FC8  EFE8  F007         	goto	i2u339_40
  9560  000FCC                     i2u339_41:
  9561  000FCC  EFFD  F007         	goto	i2l3934
  9562  000FD0                     i2u339_40:
  9563  000FD0  284F               	incf	___fldiv@bexp^0,w,c
  9564  000FD2  A4D8               	btfss	status,2,c
  9565  000FD4  EFEE  F007         	goto	i2u340_41
  9566  000FD8  EFF0  F007         	goto	i2u340_40
  9567  000FDC                     i2u340_41:
  9568  000FDC  EFF8  F007         	goto	i2l3930
  9569  000FE0                     i2u340_40:
  9570  000FE0  0E00               	movlw	0
  9571  000FE2  6E38               	movwf	___fldiv@b^0,c
  9572  000FE4  0E00               	movlw	0
  9573  000FE6  6E39               	movwf	(___fldiv@b+1)^0,c
  9574  000FE8  0E00               	movlw	0
  9575  000FEA  6E3A               	movwf	(___fldiv@b+2)^0,c
  9576  000FEC  0E00               	movlw	0
  9577  000FEE  6E3B               	movwf	(___fldiv@b+3)^0,c
  9578  000FF0                     i2l3930:
  9579  000FF0  8E3A               	bsf	(___fldiv@b+2)^0,7,c
  9580  000FF2  0E00               	movlw	0
  9581  000FF4  6E3B               	movwf	(___fldiv@b+3)^0,c
  9582  000FF6  EF05  F008         	goto	i2l3936
  9583  000FFA                     i2l3934:
  9584  000FFA  0E00               	movlw	0
  9585  000FFC  6E38               	movwf	___fldiv@b^0,c
  9586  000FFE  0E00               	movlw	0
  9587  001000  6E39               	movwf	(___fldiv@b+1)^0,c
  9588  001002  0E00               	movlw	0
  9589  001004  6E3A               	movwf	(___fldiv@b+2)^0,c
  9590  001006  0E00               	movlw	0
  9591  001008  6E3B               	movwf	(___fldiv@b+3)^0,c
  9592  00100A                     i2l3936:
  9593  00100A  503F               	movf	(___fldiv@a+3)^0,w,c
  9594  00100C  0B80               	andlw	128
  9595  00100E  1A48               	xorwf	___fldiv@sign^0,f,c
  9596  001010  503F               	movf	(___fldiv@a+3)^0,w,c
  9597  001012  243F               	addwf	(___fldiv@a+3)^0,w,c
  9598  001014  6E50               	movwf	___fldiv@aexp^0,c
  9599  001016  AE3E               	btfss	(___fldiv@a+2)^0,7,c
  9600  001018  EF10  F008         	goto	i2u341_41
  9601  00101C  EF12  F008         	goto	i2u341_40
  9602  001020                     i2u341_41:
  9603  001020  EF13  F008         	goto	i2l3944
  9604  001024                     i2u341_40:
  9605  001024  8050               	bsf	___fldiv@aexp^0,0,c
  9606  001026                     i2l3944:
  9607  001026  5050               	movf	___fldiv@aexp^0,w,c
  9608  001028  B4D8               	btfsc	status,2,c
  9609  00102A  EF19  F008         	goto	i2u342_41
  9610  00102E  EF1B  F008         	goto	i2u342_40
  9611  001032                     i2u342_41:
  9612  001032  EF30  F008         	goto	i2l3954
  9613  001036                     i2u342_40:
  9614  001036  2850               	incf	___fldiv@aexp^0,w,c
  9615  001038  A4D8               	btfss	status,2,c
  9616  00103A  EF21  F008         	goto	i2u343_41
  9617  00103E  EF23  F008         	goto	i2u343_40
  9618  001042                     i2u343_41:
  9619  001042  EF2B  F008         	goto	i2l3950
  9620  001046                     i2u343_40:
  9621  001046  0E00               	movlw	0
  9622  001048  6E3C               	movwf	___fldiv@a^0,c
  9623  00104A  0E00               	movlw	0
  9624  00104C  6E3D               	movwf	(___fldiv@a+1)^0,c
  9625  00104E  0E00               	movlw	0
  9626  001050  6E3E               	movwf	(___fldiv@a+2)^0,c
  9627  001052  0E00               	movlw	0
  9628  001054  6E3F               	movwf	(___fldiv@a+3)^0,c
  9629  001056                     i2l3950:
  9630  001056  8E3E               	bsf	(___fldiv@a+2)^0,7,c
  9631  001058  0E00               	movlw	0
  9632  00105A  6E3F               	movwf	(___fldiv@a+3)^0,c
  9633  00105C  EF38  F008         	goto	i2l3956
  9634  001060                     i2l3954:
  9635  001060  0E00               	movlw	0
  9636  001062  6E3C               	movwf	___fldiv@a^0,c
  9637  001064  0E00               	movlw	0
  9638  001066  6E3D               	movwf	(___fldiv@a+1)^0,c
  9639  001068  0E00               	movlw	0
  9640  00106A  6E3E               	movwf	(___fldiv@a+2)^0,c
  9641  00106C  0E00               	movlw	0
  9642  00106E  6E3F               	movwf	(___fldiv@a+3)^0,c
  9643  001070                     i2l3956:
  9644  001070  503C               	movf	___fldiv@a^0,w,c
  9645  001072  103D               	iorwf	(___fldiv@a+1)^0,w,c
  9646  001074  103E               	iorwf	(___fldiv@a+2)^0,w,c
  9647  001076  103F               	iorwf	(___fldiv@a+3)^0,w,c
  9648  001078  A4D8               	btfss	status,2,c
  9649  00107A  EF41  F008         	goto	i2u344_41
  9650  00107E  EF43  F008         	goto	i2u344_40
  9651  001082                     i2u344_41:
  9652  001082  EF5B  F008         	goto	i2l3968
  9653  001086                     i2u344_40:
  9654  001086  0E00               	movlw	0
  9655  001088  6E38               	movwf	___fldiv@b^0,c
  9656  00108A  0E00               	movlw	0
  9657  00108C  6E39               	movwf	(___fldiv@b+1)^0,c
  9658  00108E  0E00               	movlw	0
  9659  001090  6E3A               	movwf	(___fldiv@b+2)^0,c
  9660  001092  0E00               	movlw	0
  9661  001094  6E3B               	movwf	(___fldiv@b+3)^0,c
  9662  001096  0E80               	movlw	128
  9663  001098  123A               	iorwf	(___fldiv@b+2)^0,f,c
  9664  00109A  0E7F               	movlw	127
  9665  00109C  123B               	iorwf	(___fldiv@b+3)^0,f,c
  9666  00109E                     i2l3962:
  9667  00109E  5048               	movf	___fldiv@sign^0,w,c
  9668  0010A0  123B               	iorwf	(___fldiv@b+3)^0,f,c
  9669  0010A2  C038  F038         	movff	___fldiv@b,?___fldiv
  9670  0010A6  C039  F039         	movff	___fldiv@b+1,?___fldiv+1
  9671  0010AA  C03A  F03A         	movff	___fldiv@b+2,?___fldiv+2
  9672  0010AE  C03B  F03B         	movff	___fldiv@b+3,?___fldiv+3
  9673  0010B2  EF9E  F009         	goto	i2l1397
  9674  0010B6                     i2l3968:
  9675  0010B6  504F               	movf	___fldiv@bexp^0,w,c
  9676  0010B8  A4D8               	btfss	status,2,c
  9677  0010BA  EF61  F008         	goto	i2u345_41
  9678  0010BE  EF63  F008         	goto	i2u345_40
  9679  0010C2                     i2u345_41:
  9680  0010C2  EF6D  F008         	goto	i2l3976
  9681  0010C6                     i2u345_40:
  9682  0010C6  0E00               	movlw	0
  9683  0010C8  6E38               	movwf	?___fldiv^0,c
  9684  0010CA  0E00               	movlw	0
  9685  0010CC  6E39               	movwf	(?___fldiv+1)^0,c
  9686  0010CE  0E00               	movlw	0
  9687  0010D0  6E3A               	movwf	(?___fldiv+2)^0,c
  9688  0010D2  0E00               	movlw	0
  9689  0010D4  6E3B               	movwf	(?___fldiv+3)^0,c
  9690  0010D6  EF9E  F009         	goto	i2l1397
  9691  0010DA                     i2l3976:
  9692  0010DA  5050               	movf	___fldiv@aexp^0,w,c
  9693  0010DC  C04F  F040         	movff	___fldiv@bexp,??___fldiv
  9694  0010E0  6A41               	clrf	(??___fldiv+1)^0,c
  9695  0010E2  5E40               	subwf	??___fldiv^0,f,c
  9696  0010E4  0E00               	movlw	0
  9697  0010E6  5A41               	subwfb	(??___fldiv+1)^0,f,c
  9698  0010E8  0E7F               	movlw	127
  9699  0010EA  2440               	addwf	??___fldiv^0,w,c
  9700  0010EC  6E49               	movwf	___fldiv@new_exp^0,c
  9701  0010EE  0E00               	movlw	0
  9702  0010F0  2041               	addwfc	(??___fldiv+1)^0,w,c
  9703  0010F2  6E4A               	movwf	(___fldiv@new_exp+1)^0,c
  9704  0010F4  C038  F044         	movff	___fldiv@b,___fldiv@rem
  9705  0010F8  C039  F045         	movff	___fldiv@b+1,___fldiv@rem+1
  9706  0010FC  C03A  F046         	movff	___fldiv@b+2,___fldiv@rem+2
  9707  001100  C03B  F047         	movff	___fldiv@b+3,___fldiv@rem+3
  9708  001104  0E00               	movlw	0
  9709  001106  6E38               	movwf	___fldiv@b^0,c
  9710  001108  0E00               	movlw	0
  9711  00110A  6E39               	movwf	(___fldiv@b+1)^0,c
  9712  00110C  0E00               	movlw	0
  9713  00110E  6E3A               	movwf	(___fldiv@b+2)^0,c
  9714  001110  0E00               	movlw	0
  9715  001112  6E3B               	movwf	(___fldiv@b+3)^0,c
  9716  001114  0E00               	movlw	0
  9717  001116  6E4B               	movwf	___fldiv@grs^0,c
  9718  001118  0E00               	movlw	0
  9719  00111A  6E4C               	movwf	(___fldiv@grs+1)^0,c
  9720  00111C  0E00               	movlw	0
  9721  00111E  6E4D               	movwf	(___fldiv@grs+2)^0,c
  9722  001120  0E00               	movlw	0
  9723  001122  6E4E               	movwf	(___fldiv@grs+3)^0,c
  9724  001124  0E00               	movlw	0
  9725  001126  6E50               	movwf	___fldiv@aexp^0,c
  9726  001128  EFCE  F008         	goto	i2l1399
  9727  00112C                     i2l3986:
  9728  00112C  5050               	movf	___fldiv@aexp^0,w,c
  9729  00112E  B4D8               	btfsc	status,2,c
  9730  001130  EF9C  F008         	goto	i2u346_41
  9731  001134  EF9E  F008         	goto	i2u346_40
  9732  001138                     i2u346_41:
  9733  001138  EFB5  F008         	goto	i2l3994
  9734  00113C                     i2u346_40:
  9735  00113C  90D8               	bcf	status,0,c
  9736  00113E  3644               	rlcf	___fldiv@rem^0,f,c
  9737  001140  3645               	rlcf	(___fldiv@rem+1)^0,f,c
  9738  001142  3646               	rlcf	(___fldiv@rem+2)^0,f,c
  9739  001144  3647               	rlcf	(___fldiv@rem+3)^0,f,c
  9740  001146  90D8               	bcf	status,0,c
  9741  001148  3638               	rlcf	___fldiv@b^0,f,c
  9742  00114A  3639               	rlcf	(___fldiv@b+1)^0,f,c
  9743  00114C  363A               	rlcf	(___fldiv@b+2)^0,f,c
  9744  00114E  363B               	rlcf	(___fldiv@b+3)^0,f,c
  9745  001150  AE4E               	btfss	(___fldiv@grs+3)^0,7,c
  9746  001152  EFAD  F008         	goto	i2u347_41
  9747  001156  EFAF  F008         	goto	i2u347_40
  9748  00115A                     i2u347_41:
  9749  00115A  EFB0  F008         	goto	i2l1402
  9750  00115E                     i2u347_40:
  9751  00115E  8038               	bsf	___fldiv@b^0,0,c
  9752  001160                     i2l1402:
  9753  001160  90D8               	bcf	status,0,c
  9754  001162  364B               	rlcf	___fldiv@grs^0,f,c
  9755  001164  364C               	rlcf	(___fldiv@grs+1)^0,f,c
  9756  001166  364D               	rlcf	(___fldiv@grs+2)^0,f,c
  9757  001168  364E               	rlcf	(___fldiv@grs+3)^0,f,c
  9758  00116A                     i2l3994:
  9759  00116A  503C               	movf	___fldiv@a^0,w,c
  9760  00116C  5C44               	subwf	___fldiv@rem^0,w,c
  9761  00116E  503D               	movf	(___fldiv@a+1)^0,w,c
  9762  001170  5845               	subwfb	(___fldiv@rem+1)^0,w,c
  9763  001172  503E               	movf	(___fldiv@a+2)^0,w,c
  9764  001174  5846               	subwfb	(___fldiv@rem+2)^0,w,c
  9765  001176  503F               	movf	(___fldiv@a+3)^0,w,c
  9766  001178  5847               	subwfb	(___fldiv@rem+3)^0,w,c
  9767  00117A  A0D8               	btfss	status,0,c
  9768  00117C  EFC2  F008         	goto	i2u348_41
  9769  001180  EFC4  F008         	goto	i2u348_40
  9770  001184                     i2u348_41:
  9771  001184  EFCD  F008         	goto	i2l4000
  9772  001188                     i2u348_40:
  9773  001188  8C4E               	bsf	(___fldiv@grs+3)^0,6,c
  9774  00118A  503C               	movf	___fldiv@a^0,w,c
  9775  00118C  5E44               	subwf	___fldiv@rem^0,f,c
  9776  00118E  503D               	movf	(___fldiv@a+1)^0,w,c
  9777  001190  5A45               	subwfb	(___fldiv@rem+1)^0,f,c
  9778  001192  503E               	movf	(___fldiv@a+2)^0,w,c
  9779  001194  5A46               	subwfb	(___fldiv@rem+2)^0,f,c
  9780  001196  503F               	movf	(___fldiv@a+3)^0,w,c
  9781  001198  5A47               	subwfb	(___fldiv@rem+3)^0,f,c
  9782  00119A                     i2l4000:
  9783  00119A  2A50               	incf	___fldiv@aexp^0,f,c
  9784  00119C                     i2l1399:
  9785  00119C  0E19               	movlw	25
  9786  00119E  6450               	cpfsgt	___fldiv@aexp^0,c
  9787  0011A0  EFD4  F008         	goto	i2u349_41
  9788  0011A4  EFD6  F008         	goto	i2u349_40
  9789  0011A8                     i2u349_41:
  9790  0011A8  EF96  F008         	goto	i2l3986
  9791  0011AC                     i2u349_40:
  9792  0011AC  5044               	movf	___fldiv@rem^0,w,c
  9793  0011AE  1045               	iorwf	(___fldiv@rem+1)^0,w,c
  9794  0011B0  1046               	iorwf	(___fldiv@rem+2)^0,w,c
  9795  0011B2  1047               	iorwf	(___fldiv@rem+3)^0,w,c
  9796  0011B4  B4D8               	btfsc	status,2,c
  9797  0011B6  EFDF  F008         	goto	i2u350_41
  9798  0011BA  EFE1  F008         	goto	i2u350_40
  9799  0011BE                     i2u350_41:
  9800  0011BE  EFF9  F008         	goto	i2l4012
  9801  0011C2                     i2u350_40:
  9802  0011C2  804B               	bsf	___fldiv@grs^0,0,c
  9803  0011C4  EFF9  F008         	goto	i2l4012
  9804  0011C8                     i2l4006:
  9805  0011C8  90D8               	bcf	status,0,c
  9806  0011CA  3638               	rlcf	___fldiv@b^0,f,c
  9807  0011CC  3639               	rlcf	(___fldiv@b+1)^0,f,c
  9808  0011CE  363A               	rlcf	(___fldiv@b+2)^0,f,c
  9809  0011D0  363B               	rlcf	(___fldiv@b+3)^0,f,c
  9810  0011D2  AE4E               	btfss	(___fldiv@grs+3)^0,7,c
  9811  0011D4  EFEE  F008         	goto	i2u351_41
  9812  0011D8  EFF0  F008         	goto	i2u351_40
  9813  0011DC                     i2u351_41:
  9814  0011DC  EFF1  F008         	goto	i2l1408
  9815  0011E0                     i2u351_40:
  9816  0011E0  8038               	bsf	___fldiv@b^0,0,c
  9817  0011E2                     i2l1408:
  9818  0011E2  90D8               	bcf	status,0,c
  9819  0011E4  364B               	rlcf	___fldiv@grs^0,f,c
  9820  0011E6  364C               	rlcf	(___fldiv@grs+1)^0,f,c
  9821  0011E8  364D               	rlcf	(___fldiv@grs+2)^0,f,c
  9822  0011EA  364E               	rlcf	(___fldiv@grs+3)^0,f,c
  9823  0011EC  0649               	decf	___fldiv@new_exp^0,f,c
  9824  0011EE  A0D8               	btfss	status,0,c
  9825  0011F0  064A               	decf	(___fldiv@new_exp+1)^0,f,c
  9826  0011F2                     i2l4012:
  9827  0011F2  AE3A               	btfss	(___fldiv@b+2)^0,7,c
  9828  0011F4  EFFE  F008         	goto	i2u352_41
  9829  0011F8  EF00  F009         	goto	i2u352_40
  9830  0011FC                     i2u352_41:
  9831  0011FC  EFE4  F008         	goto	i2l4006
  9832  001200                     i2u352_40:
  9833  001200  0E00               	movlw	0
  9834  001202  6E50               	movwf	___fldiv@aexp^0,c
  9835  001204  AE4E               	btfss	(___fldiv@grs+3)^0,7,c
  9836  001206  EF07  F009         	goto	i2u353_41
  9837  00120A  EF09  F009         	goto	i2u353_40
  9838  00120E                     i2u353_41:
  9839  00120E  EF2D  F009         	goto	i2l1410
  9840  001212                     i2u353_40:
  9841  001212  0EFF               	movlw	255
  9842  001214  144B               	andwf	___fldiv@grs^0,w,c
  9843  001216  6E40               	movwf	??___fldiv^0,c
  9844  001218  0EFF               	movlw	255
  9845  00121A  144C               	andwf	(___fldiv@grs+1)^0,w,c
  9846  00121C  6E41               	movwf	(??___fldiv+1)^0,c
  9847  00121E  0EFF               	movlw	255
  9848  001220  144D               	andwf	(___fldiv@grs+2)^0,w,c
  9849  001222  6E42               	movwf	(??___fldiv+2)^0,c
  9850  001224  0E7F               	movlw	127
  9851  001226  144E               	andwf	(___fldiv@grs+3)^0,w,c
  9852  001228  6E43               	movwf	(??___fldiv+3)^0,c
  9853  00122A  5040               	movf	??___fldiv^0,w,c
  9854  00122C  1041               	iorwf	(??___fldiv+1)^0,w,c
  9855  00122E  1042               	iorwf	(??___fldiv+2)^0,w,c
  9856  001230  1043               	iorwf	(??___fldiv+3)^0,w,c
  9857  001232  B4D8               	btfsc	status,2,c
  9858  001234  EF1E  F009         	goto	i2u354_41
  9859  001238  EF20  F009         	goto	i2u354_40
  9860  00123C                     i2u354_41:
  9861  00123C  EF24  F009         	goto	i2l1411
  9862  001240                     i2u354_40:
  9863  001240                     i2l4020:
  9864  001240  0E01               	movlw	1
  9865  001242  6E50               	movwf	___fldiv@aexp^0,c
  9866  001244  EF2D  F009         	goto	i2l1410
  9867  001248                     i2l1411:
  9868  001248  A038               	btfss	___fldiv@b^0,0,c
  9869  00124A  EF29  F009         	goto	i2u355_41
  9870  00124E  EF2B  F009         	goto	i2u355_40
  9871  001252                     i2u355_41:
  9872  001252  EF2D  F009         	goto	i2l1410
  9873  001256                     i2u355_40:
  9874  001256  EF20  F009         	goto	i2l4020
  9875  00125A                     i2l1410:
  9876  00125A  5050               	movf	___fldiv@aexp^0,w,c
  9877  00125C  B4D8               	btfsc	status,2,c
  9878  00125E  EF33  F009         	goto	i2u356_41
  9879  001262  EF35  F009         	goto	i2u356_40
  9880  001266                     i2u356_41:
  9881  001266  EF59  F009         	goto	i2l4032
  9882  00126A                     i2u356_40:
  9883  00126A  0E01               	movlw	1
  9884  00126C  2638               	addwf	___fldiv@b^0,f,c
  9885  00126E  0E00               	movlw	0
  9886  001270  2239               	addwfc	(___fldiv@b+1)^0,f,c
  9887  001272  223A               	addwfc	(___fldiv@b+2)^0,f,c
  9888  001274  223B               	addwfc	(___fldiv@b+3)^0,f,c
  9889  001276  A03B               	btfss	(___fldiv@b+3)^0,0,c
  9890  001278  EF40  F009         	goto	i2u357_41
  9891  00127C  EF42  F009         	goto	i2u357_40
  9892  001280                     i2u357_41:
  9893  001280  EF59  F009         	goto	i2l4032
  9894  001284                     i2u357_40:
  9895  001284  C038  F040         	movff	___fldiv@b,??___fldiv
  9896  001288  C039  F041         	movff	___fldiv@b+1,??___fldiv+1
  9897  00128C  C03A  F042         	movff	___fldiv@b+2,??___fldiv+2
  9898  001290  C03B  F043         	movff	___fldiv@b+3,??___fldiv+3
  9899  001294  3443               	rlcf	(??___fldiv+3)^0,w,c
  9900  001296  3243               	rrcf	(??___fldiv+3)^0,f,c
  9901  001298  3242               	rrcf	(??___fldiv+2)^0,f,c
  9902  00129A  3241               	rrcf	(??___fldiv+1)^0,f,c
  9903  00129C  3240               	rrcf	??___fldiv^0,f,c
  9904  00129E  C040  F038         	movff	??___fldiv,___fldiv@b
  9905  0012A2  C041  F039         	movff	??___fldiv+1,___fldiv@b+1
  9906  0012A6  C042  F03A         	movff	??___fldiv+2,___fldiv@b+2
  9907  0012AA  C043  F03B         	movff	??___fldiv+3,___fldiv@b+3
  9908  0012AE  4A49               	infsnz	___fldiv@new_exp^0,f,c
  9909  0012B0  2A4A               	incf	(___fldiv@new_exp+1)^0,f,c
  9910  0012B2                     i2l4032:
  9911  0012B2  BE4A               	btfsc	(___fldiv@new_exp+1)^0,7,c
  9912  0012B4  EF64  F009         	goto	i2u358_41
  9913  0012B8  504A               	movf	(___fldiv@new_exp+1)^0,w,c
  9914  0012BA  E108               	bnz	i2u358_40
  9915  0012BC  2849               	incf	___fldiv@new_exp^0,w,c
  9916  0012BE  A0D8               	btfss	status,0,c
  9917  0012C0  EF64  F009         	goto	i2u358_41
  9918  0012C4  EF66  F009         	goto	i2u358_40
  9919  0012C8                     i2u358_41:
  9920  0012C8  EF71  F009         	goto	i2l4036
  9921  0012CC                     i2u358_40:
  9922  0012CC  0E00               	movlw	0
  9923  0012CE  6E4A               	movwf	(___fldiv@new_exp+1)^0,c
  9924  0012D0  6849               	setf	___fldiv@new_exp^0,c
  9925  0012D2  0E00               	movlw	0
  9926  0012D4  6E38               	movwf	___fldiv@b^0,c
  9927  0012D6  0E00               	movlw	0
  9928  0012D8  6E39               	movwf	(___fldiv@b+1)^0,c
  9929  0012DA  0E00               	movlw	0
  9930  0012DC  6E3A               	movwf	(___fldiv@b+2)^0,c
  9931  0012DE  0E00               	movlw	0
  9932  0012E0  6E3B               	movwf	(___fldiv@b+3)^0,c
  9933  0012E2                     i2l4036:
  9934  0012E2  BE4A               	btfsc	(___fldiv@new_exp+1)^0,7,c
  9935  0012E4  EF7E  F009         	goto	i2u359_40
  9936  0012E8  504A               	movf	(___fldiv@new_exp+1)^0,w,c
  9937  0012EA  E106               	bnz	i2u359_41
  9938  0012EC  0449               	decf	___fldiv@new_exp^0,w,c
  9939  0012EE  B0D8               	btfsc	status,0,c
  9940  0012F0  EF7C  F009         	goto	i2u359_41
  9941  0012F4  EF7E  F009         	goto	i2u359_40
  9942  0012F8                     i2u359_41:
  9943  0012F8  EF8C  F009         	goto	i2l4040
  9944  0012FC                     i2u359_40:
  9945  0012FC  0E00               	movlw	0
  9946  0012FE  6E4A               	movwf	(___fldiv@new_exp+1)^0,c
  9947  001300  0E00               	movlw	0
  9948  001302  6E49               	movwf	___fldiv@new_exp^0,c
  9949  001304  0E00               	movlw	0
  9950  001306  6E38               	movwf	___fldiv@b^0,c
  9951  001308  0E00               	movlw	0
  9952  00130A  6E39               	movwf	(___fldiv@b+1)^0,c
  9953  00130C  0E00               	movlw	0
  9954  00130E  6E3A               	movwf	(___fldiv@b+2)^0,c
  9955  001310  0E00               	movlw	0
  9956  001312  6E3B               	movwf	(___fldiv@b+3)^0,c
  9957  001314  0E00               	movlw	0
  9958  001316  6E48               	movwf	___fldiv@sign^0,c
  9959  001318                     i2l4040:
  9960  001318  C049  F04F         	movff	___fldiv@new_exp,___fldiv@bexp
  9961  00131C  A04F               	btfss	___fldiv@bexp^0,0,c
  9962  00131E  EF93  F009         	goto	i2u360_41
  9963  001322  EF95  F009         	goto	i2u360_40
  9964  001326                     i2u360_41:
  9965  001326  EF98  F009         	goto	i2l4046
  9966  00132A                     i2u360_40:
  9967  00132A  8E3A               	bsf	(___fldiv@b+2)^0,7,c
  9968  00132C  EF99  F009         	goto	i2l4048
  9969  001330                     i2l4046:
  9970  001330  9E3A               	bcf	(___fldiv@b+2)^0,7,c
  9971  001332                     i2l4048:
  9972  001332  90D8               	bcf	status,0,c
  9973  001334  304F               	rrcf	___fldiv@bexp^0,w,c
  9974  001336  6E3B               	movwf	(___fldiv@b+3)^0,c
  9975  001338  EF4F  F008         	goto	i2l3962
  9976  00133C                     i2l1397:
  9977  00133C  0012               	return		;funcret
  9978  00133E                     __end_of___fldiv:
  9979                           	opt callstack 0
  9980                           
  9981 ;; *************** function ___fladd *****************
  9982 ;; Defined at:
  9983 ;;		line 10 in file "C:\Program Files (x86)\Microchip\xc8\v2.10\pic\sources\c99\common\sprcadd.c"
  9984 ;; Parameters:    Size  Location     Type
  9985 ;;  b               4   39[COMRAM] unsigned char 
  9986 ;;  a               4   43[COMRAM] unsigned char 
  9987 ;; Auto vars:     Size  Location     Type
  9988 ;;  grs             1   54[COMRAM] unsigned char 
  9989 ;;  bexp            1   53[COMRAM] unsigned char 
  9990 ;;  aexp            1   52[COMRAM] unsigned char 
  9991 ;;  signs           1   51[COMRAM] unsigned char 
  9992 ;; Return value:  Size  Location     Type
  9993 ;;                  4   39[COMRAM] unsigned char 
  9994 ;; Registers used:
  9995 ;;		wreg, status,2, status,0
  9996 ;; Tracked objects:
  9997 ;;		On entry : 0/0
  9998 ;;		On exit  : 0/0
  9999 ;;		Unchanged: 0/0
 10000 ;; Data sizes:     COMRAM   BANK0   BANK1   BANK2   BANK3   BANK4   BANK5
 10001 ;;      Params:         8       0       0       0       0       0       0
 10002 ;;      Locals:         4       0       0       0       0       0       0
 10003 ;;      Temps:          4       0       0       0       0       0       0
 10004 ;;      Totals:        16       0       0       0       0       0       0
 10005 ;;Total ram usage:       16 bytes
 10006 ;; Hardware stack levels used:    1
 10007 ;; This function calls:
 10008 ;;		Nothing
 10009 ;; This function is called by:
 10010 ;;		_ADC_temperatura
 10011 ;; This function uses a non-reentrant model
 10012 ;;
 10013                           
 10014                           	psect	text79
 10015  0006BA                     __ptext79:
 10016                           	opt callstack 0
 10017  0006BA                     ___fladd:
 10018                           	opt callstack 18
 10019  0006BA  502B               	movf	(___fladd@b+3)^0,w,c
 10020  0006BC  0B80               	andlw	128
 10021  0006BE  6E34               	movwf	___fladd@signs^0,c
 10022  0006C0  502B               	movf	(___fladd@b+3)^0,w,c
 10023  0006C2  242B               	addwf	(___fladd@b+3)^0,w,c
 10024  0006C4  6E36               	movwf	___fladd@bexp^0,c
 10025  0006C6  AE2A               	btfss	(___fladd@b+2)^0,7,c
 10026  0006C8  EF68  F003         	goto	i2u299_41
 10027  0006CC  EF6A  F003         	goto	i2u299_40
 10028  0006D0                     i2u299_41:
 10029  0006D0  EF6B  F003         	goto	i2l3722
 10030  0006D4                     i2u299_40:
 10031  0006D4  8036               	bsf	___fladd@bexp^0,0,c
 10032  0006D6                     i2l3722:
 10033  0006D6  5036               	movf	___fladd@bexp^0,w,c
 10034  0006D8  B4D8               	btfsc	status,2,c
 10035  0006DA  EF71  F003         	goto	i2u300_41
 10036  0006DE  EF73  F003         	goto	i2u300_40
 10037  0006E2                     i2u300_41:
 10038  0006E2  EF88  F003         	goto	i2l3732
 10039  0006E6                     i2u300_40:
 10040  0006E6  2836               	incf	___fladd@bexp^0,w,c
 10041  0006E8  A4D8               	btfss	status,2,c
 10042  0006EA  EF79  F003         	goto	i2u301_41
 10043  0006EE  EF7B  F003         	goto	i2u301_40
 10044  0006F2                     i2u301_41:
 10045  0006F2  EF83  F003         	goto	i2l3728
 10046  0006F6                     i2u301_40:
 10047  0006F6  0E00               	movlw	0
 10048  0006F8  6E28               	movwf	___fladd@b^0,c
 10049  0006FA  0E00               	movlw	0
 10050  0006FC  6E29               	movwf	(___fladd@b+1)^0,c
 10051  0006FE  0E00               	movlw	0
 10052  000700  6E2A               	movwf	(___fladd@b+2)^0,c
 10053  000702  0E00               	movlw	0
 10054  000704  6E2B               	movwf	(___fladd@b+3)^0,c
 10055  000706                     i2l3728:
 10056  000706  8E2A               	bsf	(___fladd@b+2)^0,7,c
 10057  000708  0E00               	movlw	0
 10058  00070A  6E2B               	movwf	(___fladd@b+3)^0,c
 10059  00070C  EF90  F003         	goto	i2l3734
 10060  000710                     i2l3732:
 10061  000710  0E00               	movlw	0
 10062  000712  6E28               	movwf	___fladd@b^0,c
 10063  000714  0E00               	movlw	0
 10064  000716  6E29               	movwf	(___fladd@b+1)^0,c
 10065  000718  0E00               	movlw	0
 10066  00071A  6E2A               	movwf	(___fladd@b+2)^0,c
 10067  00071C  0E00               	movlw	0
 10068  00071E  6E2B               	movwf	(___fladd@b+3)^0,c
 10069  000720                     i2l3734:
 10070  000720  502F               	movf	(___fladd@a+3)^0,w,c
 10071  000722  0B80               	andlw	128
 10072  000724  6E35               	movwf	___fladd@aexp^0,c
 10073  000726  5034               	movf	___fladd@signs^0,w,c
 10074  000728  1835               	xorwf	___fladd@aexp^0,w,c
 10075  00072A  B4D8               	btfsc	status,2,c
 10076  00072C  EF9A  F003         	goto	i2u302_41
 10077  000730  EF9C  F003         	goto	i2u302_40
 10078  000734                     i2u302_41:
 10079  000734  EF9D  F003         	goto	i2l3740
 10080  000738                     i2u302_40:
 10081  000738  8C34               	bsf	___fladd@signs^0,6,c
 10082  00073A                     i2l3740:
 10083  00073A  502F               	movf	(___fladd@a+3)^0,w,c
 10084  00073C  242F               	addwf	(___fladd@a+3)^0,w,c
 10085  00073E  6E35               	movwf	___fladd@aexp^0,c
 10086  000740  AE2E               	btfss	(___fladd@a+2)^0,7,c
 10087  000742  EFA5  F003         	goto	i2u303_41
 10088  000746  EFA7  F003         	goto	i2u303_40
 10089  00074A                     i2u303_41:
 10090  00074A  EFA8  F003         	goto	i2l3746
 10091  00074E                     i2u303_40:
 10092  00074E  8035               	bsf	___fladd@aexp^0,0,c
 10093  000750                     i2l3746:
 10094  000750  5035               	movf	___fladd@aexp^0,w,c
 10095  000752  B4D8               	btfsc	status,2,c
 10096  000754  EFAE  F003         	goto	i2u304_41
 10097  000758  EFB0  F003         	goto	i2u304_40
 10098  00075C                     i2u304_41:
 10099  00075C  EFC5  F003         	goto	i2l3756
 10100  000760                     i2u304_40:
 10101  000760  2835               	incf	___fladd@aexp^0,w,c
 10102  000762  A4D8               	btfss	status,2,c
 10103  000764  EFB6  F003         	goto	i2u305_41
 10104  000768  EFB8  F003         	goto	i2u305_40
 10105  00076C                     i2u305_41:
 10106  00076C  EFC0  F003         	goto	i2l3752
 10107  000770                     i2u305_40:
 10108  000770  0E00               	movlw	0
 10109  000772  6E2C               	movwf	___fladd@a^0,c
 10110  000774  0E00               	movlw	0
 10111  000776  6E2D               	movwf	(___fladd@a+1)^0,c
 10112  000778  0E00               	movlw	0
 10113  00077A  6E2E               	movwf	(___fladd@a+2)^0,c
 10114  00077C  0E00               	movlw	0
 10115  00077E  6E2F               	movwf	(___fladd@a+3)^0,c
 10116  000780                     i2l3752:
 10117  000780  8E2E               	bsf	(___fladd@a+2)^0,7,c
 10118  000782  0E00               	movlw	0
 10119  000784  6E2F               	movwf	(___fladd@a+3)^0,c
 10120  000786  EFCD  F003         	goto	i2l3758
 10121  00078A                     i2l3756:
 10122  00078A  0E00               	movlw	0
 10123  00078C  6E2C               	movwf	___fladd@a^0,c
 10124  00078E  0E00               	movlw	0
 10125  000790  6E2D               	movwf	(___fladd@a+1)^0,c
 10126  000792  0E00               	movlw	0
 10127  000794  6E2E               	movwf	(___fladd@a+2)^0,c
 10128  000796  0E00               	movlw	0
 10129  000798  6E2F               	movwf	(___fladd@a+3)^0,c
 10130  00079A                     i2l3758:
 10131  00079A  5036               	movf	___fladd@bexp^0,w,c
 10132  00079C  5C35               	subwf	___fladd@aexp^0,w,c
 10133  00079E  B0D8               	btfsc	status,0,c
 10134  0007A0  EFD4  F003         	goto	i2u306_41
 10135  0007A4  EFD6  F003         	goto	i2u306_40
 10136  0007A8                     i2u306_41:
 10137  0007A8  EFFD  F003         	goto	i2l3794
 10138  0007AC                     i2u306_40:
 10139  0007AC  AC34               	btfss	___fladd@signs^0,6,c
 10140  0007AE  EFDB  F003         	goto	i2u307_41
 10141  0007B2  EFDD  F003         	goto	i2u307_40
 10142  0007B6                     i2u307_41:
 10143  0007B6  EFDF  F003         	goto	i2l3764
 10144  0007BA                     i2u307_40:
 10145  0007BA  0E80               	movlw	128
 10146  0007BC  1A34               	xorwf	___fladd@signs^0,f,c
 10147  0007BE                     i2l3764:
 10148  0007BE  C036  F037         	movff	___fladd@bexp,___fladd@grs
 10149  0007C2  C035  F036         	movff	___fladd@aexp,___fladd@bexp
 10150  0007C6  C037  F035         	movff	___fladd@grs,___fladd@aexp
 10151  0007CA  C028  F037         	movff	___fladd@b,___fladd@grs
 10152  0007CE  C02C  F028         	movff	___fladd@a,___fladd@b
 10153  0007D2  C037  F02C         	movff	___fladd@grs,___fladd@a
 10154  0007D6  C029  F037         	movff	___fladd@b+1,___fladd@grs
 10155  0007DA  C02D  F029         	movff	___fladd@a+1,___fladd@b+1
 10156  0007DE  C037  F02D         	movff	___fladd@grs,___fladd@a+1
 10157  0007E2  C02A  F037         	movff	___fladd@b+2,___fladd@grs
 10158  0007E6  C02E  F02A         	movff	___fladd@a+2,___fladd@b+2
 10159  0007EA  C037  F02E         	movff	___fladd@grs,___fladd@a+2
 10160  0007EE  C02B  F037         	movff	___fladd@b+3,___fladd@grs
 10161  0007F2  C02F  F02B         	movff	___fladd@a+3,___fladd@b+3
 10162  0007F6  C037  F02F         	movff	___fladd@grs,___fladd@a+3
 10163  0007FA                     i2l3794:
 10164  0007FA  0E00               	movlw	0
 10165  0007FC  6E37               	movwf	___fladd@grs^0,c
 10166  0007FE  5036               	movf	___fladd@bexp^0,w,c
 10167  000800  C035  F030         	movff	___fladd@aexp,??___fladd
 10168  000804  6A31               	clrf	(??___fladd+1)^0,c
 10169  000806  5E30               	subwf	??___fladd^0,f,c
 10170  000808  0E00               	movlw	0
 10171  00080A  5A31               	subwfb	(??___fladd+1)^0,f,c
 10172  00080C  BE31               	btfsc	(??___fladd+1)^0,7,c
 10173  00080E  EF12  F004         	goto	i2u308_41
 10174  000812  5031               	movf	(??___fladd+1)^0,w,c
 10175  000814  E109               	bnz	i2u308_40
 10176  000816  0E1A               	movlw	26
 10177  000818  5C30               	subwf	??___fladd^0,w,c
 10178  00081A  A0D8               	btfss	status,0,c
 10179  00081C  EF12  F004         	goto	i2u308_41
 10180  000820  EF14  F004         	goto	i2u308_40
 10181  000824                     i2u308_41:
 10182  000824  EF4B  F004         	goto	i2l1344
 10183  000828                     i2u308_40:
 10184  000828  5028               	movf	___fladd@b^0,w,c
 10185  00082A  1029               	iorwf	(___fladd@b+1)^0,w,c
 10186  00082C  102A               	iorwf	(___fladd@b+2)^0,w,c
 10187  00082E  102B               	iorwf	(___fladd@b+3)^0,w,c
 10188  000830  A4D8               	btfss	status,2,c
 10189  000832  EF1D  F004         	goto	i2u309_41
 10190  000836  EF20  F004         	goto	i2u309_40
 10191  00083A                     i2u309_41:
 10192  00083A  0E01               	movlw	1
 10193  00083C  EF21  F004         	goto	i2u310_40
 10194  000840                     i2u309_40:
 10195  000840  0E00               	movlw	0
 10196  000842                     i2u310_40:
 10197  000842  6E37               	movwf	___fladd@grs^0,c
 10198  000844  0E00               	movlw	0
 10199  000846  6E28               	movwf	___fladd@b^0,c
 10200  000848  0E00               	movlw	0
 10201  00084A  6E29               	movwf	(___fladd@b+1)^0,c
 10202  00084C  0E00               	movlw	0
 10203  00084E  6E2A               	movwf	(___fladd@b+2)^0,c
 10204  000850  0E00               	movlw	0
 10205  000852  6E2B               	movwf	(___fladd@b+3)^0,c
 10206  000854  C035  F036         	movff	___fladd@aexp,___fladd@bexp
 10207  000858  EF54  F004         	goto	i2l1343
 10208  00085C                     i2l1345:
 10209  00085C  A037               	btfss	___fladd@grs^0,0,c
 10210  00085E  EF33  F004         	goto	i2u311_41
 10211  000862  EF35  F004         	goto	i2u311_40
 10212  000866                     i2u311_41:
 10213  000866  EF3B  F004         	goto	i2l3806
 10214  00086A                     i2u311_40:
 10215  00086A  90D8               	bcf	status,0,c
 10216  00086C  3037               	rrcf	___fladd@grs^0,w,c
 10217  00086E  0901               	iorlw	1
 10218  000870  6E37               	movwf	___fladd@grs^0,c
 10219  000872  EF3D  F004         	goto	i2l3808
 10220  000876                     i2l3806:
 10221  000876  90D8               	bcf	status,0,c
 10222  000878  3237               	rrcf	___fladd@grs^0,f,c
 10223  00087A                     i2l3808:
 10224  00087A  A028               	btfss	___fladd@b^0,0,c
 10225  00087C  EF42  F004         	goto	i2u312_41
 10226  000880  EF44  F004         	goto	i2u312_40
 10227  000884                     i2u312_41:
 10228  000884  EF45  F004         	goto	i2l3812
 10229  000888                     i2u312_40:
 10230  000888  8E37               	bsf	___fladd@grs^0,7,c
 10231  00088A                     i2l3812:
 10232  00088A  342B               	rlcf	(___fladd@b+3)^0,w,c
 10233  00088C  322B               	rrcf	(___fladd@b+3)^0,f,c
 10234  00088E  322A               	rrcf	(___fladd@b+2)^0,f,c
 10235  000890  3229               	rrcf	(___fladd@b+1)^0,f,c
 10236  000892  3228               	rrcf	___fladd@b^0,f,c
 10237  000894  2A36               	incf	___fladd@bexp^0,f,c
 10238  000896                     i2l1344:
 10239  000896  5035               	movf	___fladd@aexp^0,w,c
 10240  000898  5C36               	subwf	___fladd@bexp^0,w,c
 10241  00089A  A0D8               	btfss	status,0,c
 10242  00089C  EF52  F004         	goto	i2u313_41
 10243  0008A0  EF54  F004         	goto	i2u313_40
 10244  0008A4                     i2u313_41:
 10245  0008A4  EF2E  F004         	goto	i2l1345
 10246  0008A8                     i2u313_40:
 10247  0008A8                     i2l1343:
 10248  0008A8  BC34               	btfsc	___fladd@signs^0,6,c
 10249  0008AA  EF59  F004         	goto	i2u314_41
 10250  0008AE  EF5B  F004         	goto	i2u314_40
 10251  0008B2                     i2u314_41:
 10252  0008B2  EF9B  F004         	goto	i2l3840
 10253  0008B6                     i2u314_40:
 10254  0008B6  5036               	movf	___fladd@bexp^0,w,c
 10255  0008B8  A4D8               	btfss	status,2,c
 10256  0008BA  EF61  F004         	goto	i2u315_41
 10257  0008BE  EF63  F004         	goto	i2u315_40
 10258  0008C2                     i2u315_41:
 10259  0008C2  EF6D  F004         	goto	i2l3822
 10260  0008C6                     i2u315_40:
 10261  0008C6  0E00               	movlw	0
 10262  0008C8  6E28               	movwf	?___fladd^0,c
 10263  0008CA  0E00               	movlw	0
 10264  0008CC  6E29               	movwf	(?___fladd+1)^0,c
 10265  0008CE  0E00               	movlw	0
 10266  0008D0  6E2A               	movwf	(?___fladd+2)^0,c
 10267  0008D2  0E00               	movlw	0
 10268  0008D4  6E2B               	movwf	(?___fladd+3)^0,c
 10269  0008D6  EFBC  F005         	goto	i2l1352
 10270  0008DA                     i2l3822:
 10271  0008DA  502C               	movf	___fladd@a^0,w,c
 10272  0008DC  2628               	addwf	___fladd@b^0,f,c
 10273  0008DE  502D               	movf	(___fladd@a+1)^0,w,c
 10274  0008E0  2229               	addwfc	(___fladd@b+1)^0,f,c
 10275  0008E2  502E               	movf	(___fladd@a+2)^0,w,c
 10276  0008E4  222A               	addwfc	(___fladd@b+2)^0,f,c
 10277  0008E6  502F               	movf	(___fladd@a+3)^0,w,c
 10278  0008E8  222B               	addwfc	(___fladd@b+3)^0,f,c
 10279  0008EA  A02B               	btfss	(___fladd@b+3)^0,0,c
 10280  0008EC  EF7A  F004         	goto	i2u316_41
 10281  0008F0  EF7C  F004         	goto	i2u316_40
 10282  0008F4                     i2u316_41:
 10283  0008F4  EF28  F005         	goto	i2l3876
 10284  0008F8                     i2u316_40:
 10285  0008F8  A037               	btfss	___fladd@grs^0,0,c
 10286  0008FA  EF81  F004         	goto	i2u317_41
 10287  0008FE  EF83  F004         	goto	i2u317_40
 10288  000902                     i2u317_41:
 10289  000902  EF89  F004         	goto	i2l3830
 10290  000906                     i2u317_40:
 10291  000906  90D8               	bcf	status,0,c
 10292  000908  3037               	rrcf	___fladd@grs^0,w,c
 10293  00090A  0901               	iorlw	1
 10294  00090C  6E37               	movwf	___fladd@grs^0,c
 10295  00090E  EF8B  F004         	goto	i2l3832
 10296  000912                     i2l3830:
 10297  000912  90D8               	bcf	status,0,c
 10298  000914  3237               	rrcf	___fladd@grs^0,f,c
 10299  000916                     i2l3832:
 10300  000916  A028               	btfss	___fladd@b^0,0,c
 10301  000918  EF90  F004         	goto	i2u318_41
 10302  00091C  EF92  F004         	goto	i2u318_40
 10303  000920                     i2u318_41:
 10304  000920  EF93  F004         	goto	i2l3836
 10305  000924                     i2u318_40:
 10306  000924  8E37               	bsf	___fladd@grs^0,7,c
 10307  000926                     i2l3836:
 10308  000926  342B               	rlcf	(___fladd@b+3)^0,w,c
 10309  000928  322B               	rrcf	(___fladd@b+3)^0,f,c
 10310  00092A  322A               	rrcf	(___fladd@b+2)^0,f,c
 10311  00092C  3229               	rrcf	(___fladd@b+1)^0,f,c
 10312  00092E  3228               	rrcf	___fladd@b^0,f,c
 10313  000930  2A36               	incf	___fladd@bexp^0,f,c
 10314  000932  EF28  F005         	goto	i2l3876
 10315  000936                     i2l3840:
 10316  000936  502C               	movf	___fladd@a^0,w,c
 10317  000938  5C28               	subwf	___fladd@b^0,w,c
 10318  00093A  502D               	movf	(___fladd@a+1)^0,w,c
 10319  00093C  5829               	subwfb	(___fladd@b+1)^0,w,c
 10320  00093E  502E               	movf	(___fladd@a+2)^0,w,c
 10321  000940  582A               	subwfb	(___fladd@b+2)^0,w,c
 10322  000942  502B               	movf	(___fladd@b+3)^0,w,c
 10323  000944  0A80               	xorlw	128
 10324  000946  6E30               	movwf	??___fladd^0,c
 10325  000948  502F               	movf	(___fladd@a+3)^0,w,c
 10326  00094A  0A80               	xorlw	128
 10327  00094C  5830               	subwfb	??___fladd^0,w,c
 10328  00094E  B0D8               	btfsc	status,0,c
 10329  000950  EFAC  F004         	goto	i2u319_41
 10330  000954  EFAE  F004         	goto	i2u319_40
 10331  000958                     i2u319_41:
 10332  000958  EFD9  F004         	goto	i2l3850
 10333  00095C                     i2u319_40:
 10334  00095C  5028               	movf	___fladd@b^0,w,c
 10335  00095E  5C2C               	subwf	___fladd@a^0,w,c
 10336  000960  6E30               	movwf	??___fladd^0,c
 10337  000962  5029               	movf	(___fladd@b+1)^0,w,c
 10338  000964  582D               	subwfb	(___fladd@a+1)^0,w,c
 10339  000966  6E31               	movwf	(??___fladd+1)^0,c
 10340  000968  502A               	movf	(___fladd@b+2)^0,w,c
 10341  00096A  582E               	subwfb	(___fladd@a+2)^0,w,c
 10342  00096C  6E32               	movwf	(??___fladd+2)^0,c
 10343  00096E  502B               	movf	(___fladd@b+3)^0,w,c
 10344  000970  582F               	subwfb	(___fladd@a+3)^0,w,c
 10345  000972  6E33               	movwf	(??___fladd+3)^0,c
 10346  000974  0EFF               	movlw	255
 10347  000976  2430               	addwf	??___fladd^0,w,c
 10348  000978  6E28               	movwf	___fladd@b^0,c
 10349  00097A  0EFF               	movlw	255
 10350  00097C  2031               	addwfc	(??___fladd+1)^0,w,c
 10351  00097E  6E29               	movwf	(___fladd@b+1)^0,c
 10352  000980  0EFF               	movlw	255
 10353  000982  2032               	addwfc	(??___fladd+2)^0,w,c
 10354  000984  6E2A               	movwf	(___fladd@b+2)^0,c
 10355  000986  0EFF               	movlw	255
 10356  000988  2033               	addwfc	(??___fladd+3)^0,w,c
 10357  00098A  6E2B               	movwf	(___fladd@b+3)^0,c
 10358  00098C  0E80               	movlw	128
 10359  00098E  1A34               	xorwf	___fladd@signs^0,f,c
 10360  000990  6C37               	negf	___fladd@grs^0,c
 10361  000992  5037               	movf	___fladd@grs^0,w,c
 10362  000994  A4D8               	btfss	status,2,c
 10363  000996  EFCF  F004         	goto	i2u320_41
 10364  00099A  EFD1  F004         	goto	i2u320_40
 10365  00099E                     i2u320_41:
 10366  00099E  EFE1  F004         	goto	i2l1360
 10367  0009A2                     i2u320_40:
 10368  0009A2  0E01               	movlw	1
 10369  0009A4  2628               	addwf	___fladd@b^0,f,c
 10370  0009A6  0E00               	movlw	0
 10371  0009A8  2229               	addwfc	(___fladd@b+1)^0,f,c
 10372  0009AA  222A               	addwfc	(___fladd@b+2)^0,f,c
 10373  0009AC  222B               	addwfc	(___fladd@b+3)^0,f,c
 10374  0009AE  EFE1  F004         	goto	i2l1360
 10375  0009B2                     i2l3850:
 10376  0009B2  502C               	movf	___fladd@a^0,w,c
 10377  0009B4  5E28               	subwf	___fladd@b^0,f,c
 10378  0009B6  502D               	movf	(___fladd@a+1)^0,w,c
 10379  0009B8  5A29               	subwfb	(___fladd@b+1)^0,f,c
 10380  0009BA  502E               	movf	(___fladd@a+2)^0,w,c
 10381  0009BC  5A2A               	subwfb	(___fladd@b+2)^0,f,c
 10382  0009BE  502F               	movf	(___fladd@a+3)^0,w,c
 10383  0009C0  5A2B               	subwfb	(___fladd@b+3)^0,f,c
 10384  0009C2                     i2l1360:
 10385  0009C2  5028               	movf	___fladd@b^0,w,c
 10386  0009C4  1029               	iorwf	(___fladd@b+1)^0,w,c
 10387  0009C6  102A               	iorwf	(___fladd@b+2)^0,w,c
 10388  0009C8  102B               	iorwf	(___fladd@b+3)^0,w,c
 10389  0009CA  A4D8               	btfss	status,2,c
 10390  0009CC  EFEA  F004         	goto	i2u321_41
 10391  0009D0  EFEC  F004         	goto	i2u321_40
 10392  0009D4                     i2u321_41:
 10393  0009D4  EF21  F005         	goto	i2l3874
 10394  0009D8                     i2u321_40:
 10395  0009D8  5037               	movf	___fladd@grs^0,w,c
 10396  0009DA  A4D8               	btfss	status,2,c
 10397  0009DC  EFF2  F004         	goto	i2u322_41
 10398  0009E0  EFF4  F004         	goto	i2u322_40
 10399  0009E4                     i2u322_41:
 10400  0009E4  EF21  F005         	goto	i2l3874
 10401  0009E8                     i2u322_40:
 10402  0009E8  0E00               	movlw	0
 10403  0009EA  6E28               	movwf	?___fladd^0,c
 10404  0009EC  0E00               	movlw	0
 10405  0009EE  6E29               	movwf	(?___fladd+1)^0,c
 10406  0009F0  0E00               	movlw	0
 10407  0009F2  6E2A               	movwf	(?___fladd+2)^0,c
 10408  0009F4  0E00               	movlw	0
 10409  0009F6  6E2B               	movwf	(?___fladd+3)^0,c
 10410  0009F8  EFBC  F005         	goto	i2l1352
 10411  0009FC                     i2l3858:
 10412  0009FC  90D8               	bcf	status,0,c
 10413  0009FE  3628               	rlcf	___fladd@b^0,f,c
 10414  000A00  3629               	rlcf	(___fladd@b+1)^0,f,c
 10415  000A02  362A               	rlcf	(___fladd@b+2)^0,f,c
 10416  000A04  362B               	rlcf	(___fladd@b+3)^0,f,c
 10417  000A06  AE37               	btfss	___fladd@grs^0,7,c
 10418  000A08  EF08  F005         	goto	i2u323_41
 10419  000A0C  EF0A  F005         	goto	i2u323_40
 10420  000A10                     i2u323_41:
 10421  000A10  EF0B  F005         	goto	i2l3864
 10422  000A14                     i2u323_40:
 10423  000A14  8028               	bsf	___fladd@b^0,0,c
 10424  000A16                     i2l3864:
 10425  000A16  A037               	btfss	___fladd@grs^0,0,c
 10426  000A18  EF10  F005         	goto	i2u324_41
 10427  000A1C  EF12  F005         	goto	i2u324_40
 10428  000A20                     i2u324_41:
 10429  000A20  EF16  F005         	goto	i2l3868
 10430  000A24                     i2u324_40:
 10431  000A24  80D8               	bsf	status,0,c
 10432  000A26  3637               	rlcf	___fladd@grs^0,f,c
 10433  000A28  EF18  F005         	goto	i2l3870
 10434  000A2C                     i2l3868:
 10435  000A2C  90D8               	bcf	status,0,c
 10436  000A2E  3637               	rlcf	___fladd@grs^0,f,c
 10437  000A30                     i2l3870:
 10438  000A30  5036               	movf	___fladd@bexp^0,w,c
 10439  000A32  B4D8               	btfsc	status,2,c
 10440  000A34  EF1E  F005         	goto	i2u325_41
 10441  000A38  EF20  F005         	goto	i2u325_40
 10442  000A3C                     i2u325_41:
 10443  000A3C  EF21  F005         	goto	i2l3874
 10444  000A40                     i2u325_40:
 10445  000A40  0636               	decf	___fladd@bexp^0,f,c
 10446  000A42                     i2l3874:
 10447  000A42  AE2A               	btfss	(___fladd@b+2)^0,7,c
 10448  000A44  EF26  F005         	goto	i2u326_41
 10449  000A48  EF28  F005         	goto	i2u326_40
 10450  000A4C                     i2u326_41:
 10451  000A4C  EFFE  F004         	goto	i2l3858
 10452  000A50                     i2u326_40:
 10453  000A50                     i2l3876:
 10454  000A50  0E00               	movlw	0
 10455  000A52  6E35               	movwf	___fladd@aexp^0,c
 10456  000A54  AE37               	btfss	___fladd@grs^0,7,c
 10457  000A56  EF2F  F005         	goto	i2u327_41
 10458  000A5A  EF31  F005         	goto	i2u327_40
 10459  000A5E                     i2u327_41:
 10460  000A5E  EF49  F005         	goto	i2l1369
 10461  000A62                     i2u327_40:
 10462  000A62  C037  F030         	movff	___fladd@grs,??___fladd
 10463  000A66  0E7F               	movlw	127
 10464  000A68  1630               	andwf	??___fladd^0,f,c
 10465  000A6A  B4D8               	btfsc	status,2,c
 10466  000A6C  EF3A  F005         	goto	i2u328_41
 10467  000A70  EF3C  F005         	goto	i2u328_40
 10468  000A74                     i2u328_41:
 10469  000A74  EF40  F005         	goto	i2l1370
 10470  000A78                     i2u328_40:
 10471  000A78                     i2l3882:
 10472  000A78  0E01               	movlw	1
 10473  000A7A  6E35               	movwf	___fladd@aexp^0,c
 10474  000A7C  EF49  F005         	goto	i2l1369
 10475  000A80                     i2l1370:
 10476  000A80  A028               	btfss	___fladd@b^0,0,c
 10477  000A82  EF45  F005         	goto	i2u329_41
 10478  000A86  EF47  F005         	goto	i2u329_40
 10479  000A8A                     i2u329_41:
 10480  000A8A  EF49  F005         	goto	i2l1369
 10481  000A8E                     i2u329_40:
 10482  000A8E  EF3C  F005         	goto	i2l3882
 10483  000A92                     i2l1369:
 10484  000A92  5035               	movf	___fladd@aexp^0,w,c
 10485  000A94  B4D8               	btfsc	status,2,c
 10486  000A96  EF4F  F005         	goto	i2u330_41
 10487  000A9A  EF51  F005         	goto	i2u330_40
 10488  000A9E                     i2u330_41:
 10489  000A9E  EF7C  F005         	goto	i2l3894
 10490  000AA2                     i2u330_40:
 10491  000AA2  0E01               	movlw	1
 10492  000AA4  2628               	addwf	___fladd@b^0,f,c
 10493  000AA6  0E00               	movlw	0
 10494  000AA8  2229               	addwfc	(___fladd@b+1)^0,f,c
 10495  000AAA  222A               	addwfc	(___fladd@b+2)^0,f,c
 10496  000AAC  222B               	addwfc	(___fladd@b+3)^0,f,c
 10497  000AAE  A02B               	btfss	(___fladd@b+3)^0,0,c
 10498  000AB0  EF5C  F005         	goto	i2u331_41
 10499  000AB4  EF5E  F005         	goto	i2u331_40
 10500  000AB8                     i2u331_41:
 10501  000AB8  EF7C  F005         	goto	i2l3894
 10502  000ABC                     i2u331_40:
 10503  000ABC  C028  F030         	movff	___fladd@b,??___fladd
 10504  000AC0  C029  F031         	movff	___fladd@b+1,??___fladd+1
 10505  000AC4  C02A  F032         	movff	___fladd@b+2,??___fladd+2
 10506  000AC8  C02B  F033         	movff	___fladd@b+3,??___fladd+3
 10507  000ACC  3433               	rlcf	(??___fladd+3)^0,w,c
 10508  000ACE  3233               	rrcf	(??___fladd+3)^0,f,c
 10509  000AD0  3232               	rrcf	(??___fladd+2)^0,f,c
 10510  000AD2  3231               	rrcf	(??___fladd+1)^0,f,c
 10511  000AD4  3230               	rrcf	??___fladd^0,f,c
 10512  000AD6  C030  F028         	movff	??___fladd,___fladd@b
 10513  000ADA  C031  F029         	movff	??___fladd+1,___fladd@b+1
 10514  000ADE  C032  F02A         	movff	??___fladd+2,___fladd@b+2
 10515  000AE2  C033  F02B         	movff	??___fladd+3,___fladd@b+3
 10516  000AE6  2836               	incf	___fladd@bexp^0,w,c
 10517  000AE8  B4D8               	btfsc	status,2,c
 10518  000AEA  EF79  F005         	goto	i2u332_41
 10519  000AEE  EF7B  F005         	goto	i2u332_40
 10520  000AF2                     i2u332_41:
 10521  000AF2  EF7C  F005         	goto	i2l3894
 10522  000AF6                     i2u332_40:
 10523  000AF6  2A36               	incf	___fladd@bexp^0,f,c
 10524  000AF8                     i2l3894:
 10525  000AF8  2836               	incf	___fladd@bexp^0,w,c
 10526  000AFA  B4D8               	btfsc	status,2,c
 10527  000AFC  EF82  F005         	goto	i2u333_41
 10528  000B00  EF84  F005         	goto	i2u333_40
 10529  000B04                     i2u333_41:
 10530  000B04  EF8C  F005         	goto	i2l3898
 10531  000B08                     i2u333_40:
 10532  000B08  5036               	movf	___fladd@bexp^0,w,c
 10533  000B0A  A4D8               	btfss	status,2,c
 10534  000B0C  EF8A  F005         	goto	i2u334_41
 10535  000B10  EF8C  F005         	goto	i2u334_40
 10536  000B14                     i2u334_41:
 10537  000B14  EF9E  F005         	goto	i2l3902
 10538  000B18                     i2u334_40:
 10539  000B18                     i2l3898:
 10540  000B18  0E00               	movlw	0
 10541  000B1A  6E28               	movwf	___fladd@b^0,c
 10542  000B1C  0E00               	movlw	0
 10543  000B1E  6E29               	movwf	(___fladd@b+1)^0,c
 10544  000B20  0E00               	movlw	0
 10545  000B22  6E2A               	movwf	(___fladd@b+2)^0,c
 10546  000B24  0E00               	movlw	0
 10547  000B26  6E2B               	movwf	(___fladd@b+3)^0,c
 10548  000B28  5036               	movf	___fladd@bexp^0,w,c
 10549  000B2A  A4D8               	btfss	status,2,c
 10550  000B2C  EF9A  F005         	goto	i2u335_41
 10551  000B30  EF9C  F005         	goto	i2u335_40
 10552  000B34                     i2u335_41:
 10553  000B34  EF9E  F005         	goto	i2l3902
 10554  000B38                     i2u335_40:
 10555  000B38  0E00               	movlw	0
 10556  000B3A  6E34               	movwf	___fladd@signs^0,c
 10557  000B3C                     i2l3902:
 10558  000B3C  A036               	btfss	___fladd@bexp^0,0,c
 10559  000B3E  EFA3  F005         	goto	i2u336_41
 10560  000B42  EFA5  F005         	goto	i2u336_40
 10561  000B46                     i2u336_41:
 10562  000B46  EFA8  F005         	goto	i2l3906
 10563  000B4A                     i2u336_40:
 10564  000B4A  8E2A               	bsf	(___fladd@b+2)^0,7,c
 10565  000B4C  EFA9  F005         	goto	i2l3908
 10566  000B50                     i2l3906:
 10567  000B50  9E2A               	bcf	(___fladd@b+2)^0,7,c
 10568  000B52                     i2l3908:
 10569  000B52  90D8               	bcf	status,0,c
 10570  000B54  3036               	rrcf	___fladd@bexp^0,w,c
 10571  000B56  6E2B               	movwf	(___fladd@b+3)^0,c
 10572  000B58  AE34               	btfss	___fladd@signs^0,7,c
 10573  000B5A  EFB1  F005         	goto	i2u337_41
 10574  000B5E  EFB3  F005         	goto	i2u337_40
 10575  000B62                     i2u337_41:
 10576  000B62  EFB4  F005         	goto	i2l3914
 10577  000B66                     i2u337_40:
 10578  000B66  8E2B               	bsf	(___fladd@b+3)^0,7,c
 10579  000B68                     i2l3914:
 10580  000B68  C028  F028         	movff	___fladd@b,?___fladd
 10581  000B6C  C029  F029         	movff	___fladd@b+1,?___fladd+1
 10582  000B70  C02A  F02A         	movff	___fladd@b+2,?___fladd+2
 10583  000B74  C02B  F02B         	movff	___fladd@b+3,?___fladd+3
 10584  000B78                     i2l1352:
 10585  000B78  0012               	return		;funcret
 10586  000B7A                     __end_of___fladd:
 10587                           	opt callstack 0
 10588                           
 10589 ;; *************** function _ADC_GetConversionResult *****************
 10590 ;; Defined at:
 10591 ;;		line 113 in file "mcc_generated_files/adc.c"
 10592 ;; Parameters:    Size  Location     Type
 10593 ;;		None
 10594 ;; Auto vars:     Size  Location     Type
 10595 ;;		None
 10596 ;; Return value:  Size  Location     Type
 10597 ;;                  2    0[COMRAM] unsigned short 
 10598 ;; Registers used:
 10599 ;;		wreg, status,2, status,0
 10600 ;; Tracked objects:
 10601 ;;		On entry : 0/0
 10602 ;;		On exit  : 0/0
 10603 ;;		Unchanged: 0/0
 10604 ;; Data sizes:     COMRAM   BANK0   BANK1   BANK2   BANK3   BANK4   BANK5
 10605 ;;      Params:         2       0       0       0       0       0       0
 10606 ;;      Locals:         0       0       0       0       0       0       0
 10607 ;;      Temps:          2       0       0       0       0       0       0
 10608 ;;      Totals:         4       0       0       0       0       0       0
 10609 ;;Total ram usage:        4 bytes
 10610 ;; Hardware stack levels used:    1
 10611 ;; This function calls:
 10612 ;;		Nothing
 10613 ;; This function is called by:
 10614 ;;		_ADC_temperatura
 10615 ;; This function uses a non-reentrant model
 10616 ;;
 10617                           
 10618                           	psect	text80
 10619  003086                     __ptext80:
 10620                           	opt callstack 0
 10621  003086                     _ADC_GetConversionResult:
 10622                           	opt callstack 18
 10623  003086                     
 10624                           ;mcc_generated_files/adc.c: 116:      return ((adc_result_t)((ADRESH << 8) + ADRESL));
 10625  003086  50C4               	movf	196,w,c	;volatile
 10626  003088  6E04               	movwf	(??_ADC_GetConversionResult+1)^0,c
 10627  00308A  6A03               	clrf	??_ADC_GetConversionResult^0,c
 10628  00308C  50C3               	movf	195,w,c	;volatile
 10629  00308E  2403               	addwf	??_ADC_GetConversionResult^0,w,c
 10630  003090  6E01               	movwf	?_ADC_GetConversionResult^0,c
 10631  003092  0E00               	movlw	0
 10632  003094  2004               	addwfc	(??_ADC_GetConversionResult+1)^0,w,c
 10633  003096  6E02               	movwf	(?_ADC_GetConversionResult+1)^0,c
 10634  003098  0012               	return		;funcret
 10635  00309A                     __end_of_ADC_GetConversionResult:
 10636                           	opt callstack 0
 10637                           
 10638                           	psect	text81
 10639  000000                     __ptext81:
 10640                           	opt callstack 0
 10641  000000                     
 10642                           	psect	rparam
 10643  0000                     
 10644                           	psect	temp
 10645  00005F                     btemp:
 10646                           	opt callstack 0
 10647  00005F                     	ds	1
 10648  0000                     int$flags	set	btemp
 10649  0000                     wtemp8	set	btemp+1
 10650  0000                     ttemp5	set	btemp+1
 10651  0000                     ttemp6	set	btemp+4
 10652  0000                     ttemp7	set	btemp+8
 10653                           tosu	equ	0xFFF
 10654                           tosh	equ	0xFFE
 10655                           tosl	equ	0xFFD
 10656                           stkptr	equ	0xFFC
 10657                           pclatu	equ	0xFFB
 10658                           pclath	equ	0xFFA
 10659                           pcl	equ	0xFF9
 10660                           tblptru	equ	0xFF8
 10661                           tblptrh	equ	0xFF7
 10662                           tblptrl	equ	0xFF6
 10663                           tablat	equ	0xFF5
 10664                           prodh	equ	0xFF4
 10665                           prodl	equ	0xFF3
 10666                           indf0	equ	0xFEF
 10667                           postinc0	equ	0xFEE
 10668                           postdec0	equ	0xFED
 10669                           preinc0	equ	0xFEC
 10670                           plusw0	equ	0xFEB
 10671                           fsr0h	equ	0xFEA
 10672                           fsr0l	equ	0xFE9
 10673                           wreg	equ	0xFE8
 10674                           indf1	equ	0xFE7
 10675                           postinc1	equ	0xFE6
 10676                           postdec1	equ	0xFE5
 10677                           preinc1	equ	0xFE4
 10678                           plusw1	equ	0xFE3
 10679                           fsr1h	equ	0xFE2
 10680                           fsr1l	equ	0xFE1
 10681                           bsr	equ	0xFE0
 10682                           indf2	equ	0xFDF
 10683                           postinc2	equ	0xFDE
 10684                           postdec2	equ	0xFDD
 10685                           preinc2	equ	0xFDC
 10686                           plusw2	equ	0xFDB
 10687                           fsr2h	equ	0xFDA
 10688                           fsr2l	equ	0xFD9
 10689                           status	equ	0xFD8


Data Sizes:
    Strings     184
    Constant    0
    Data        6
    BSS         110
    Persistent  20
    Stack       0

Auto Spaces:
    Space          Size  Autos    Used
    COMRAM           94     94      94
    BANK0           160    107     151
    BANK1           256     10     102
    BANK2           256      0       0
    BANK3           256      0       0
    BANK4           256      0       0
    BANK5           256      0       0

Pointer List with Targets:

    strncat@s	PTR const unsigned char  size(2) Largest target is 1
		 -> tecla_premida(BANK0[1]), temp_alarme_intro(BANK0[1]), 

    strncat@d	PTR unsigned char  size(2) Largest target is 4
		 -> pin(BANK1[4]), temp_alarme_string(BANK1[4]), 

    strncat@a	PTR unsigned char  size(2) Largest target is 4
		 -> pin(BANK1[4]), temp_alarme_string(BANK1[4]), 

    strlen@s	PTR const unsigned char  size(2) Largest target is 32
		 -> dbuf(BANK1[32]), pin(BANK1[4]), temp_alarme_string(BANK1[4]), 

    strlen@a	PTR const unsigned char  size(2) Largest target is 32
		 -> dbuf(BANK1[32]), pin(BANK1[4]), temp_alarme_string(BANK1[4]), 

    printf@fmt	PTR const unsigned char  size(2) Largest target is 39
		 -> STR_5(CODE[39]), STR_4(CODE[29]), STR_3(CODE[30]), STR_2(CODE[27]), 
		 -> STR_1(CODE[27]), 

    printf@ap	PTR void [1] size(2) Largest target is 2
		 -> ?_printf(BANK0[2]), ?_sprintf(BANK0[2]), 

    sprintf@fmt	PTR const unsigned char  size(2) Largest target is 11
		 -> STR_6(CODE[11]), 

    sprintf@s	PTR unsigned char  size(2) Largest target is 20
		 -> temp_ambiente_LCD(BANK1[20]), 

    sprintf@ap	PTR void [1] size(2) Largest target is 2
		 -> ?_printf(BANK0[2]), ?_sprintf(BANK0[2]), 

    f.buffer	PTR unsigned char  size(2) Largest target is 20
		 -> temp_ambiente_LCD(BANK1[20]), 

    fputs@s	PTR const unsigned char  size(2) Largest target is 32
		 -> dbuf(BANK1[32]), 

    fputs@fp	PTR struct _IO_FILE size(2) Largest target is 7
		 -> sprintf@f(BANK1[6]), NULL(NULL[0]), 

    S2331_IO_FILE$buffer	PTR unsigned char  size(2) Largest target is 20
		 -> temp_ambiente_LCD(BANK1[20]), 

    fputc@fp.buffer	PTR unsigned char  size(2) Largest target is 20
		 -> temp_ambiente_LCD(BANK1[20]), 

    fputc@fp	PTR struct _IO_FILE size(2) Largest target is 7
		 -> sprintf@f(BANK1[6]), NULL(NULL[0]), 

    atoi@s	PTR const unsigned char  size(2) Largest target is 4
		 -> temp_alarme_string(BANK1[4]), 

    vfprintf@ap	PTR PTR void  size(2) Largest target is 2
		 -> printf@ap(BANK0[2]), sprintf@ap(BANK1[2]), 

    vfprintf@fp	PTR struct _IO_FILE size(2) Largest target is 7
		 -> sprintf@f(BANK1[6]), NULL(NULL[0]), 

    vfprintf@fmt	PTR const unsigned char  size(2) Largest target is 39
		 -> STR_6(CODE[11]), STR_5(CODE[39]), STR_4(CODE[29]), STR_3(CODE[30]), 
		 -> STR_2(CODE[27]), STR_1(CODE[27]), 

    vfprintf@cfmt	PTR unsigned char  size(2) Largest target is 39
		 -> STR_6(CODE[11]), STR_5(CODE[39]), STR_4(CODE[29]), STR_3(CODE[30]), 
		 -> STR_2(CODE[27]), STR_1(CODE[27]), 

    vfpfcnvrt@fp	PTR struct _IO_FILE size(2) Largest target is 7
		 -> sprintf@f(BANK1[6]), NULL(NULL[0]), 

    vfpfcnvrt@ap	PTR PTR void  size(2) Largest target is 2
		 -> printf@ap(BANK0[2]), sprintf@ap(BANK1[2]), 

    vfpfcnvrt@fmt	PTR PTR unsigned char  size(2) Largest target is 2
		 -> vfprintf@cfmt(BANK0[2]), 

    dtoa@fp	PTR struct _IO_FILE size(2) Largest target is 7
		 -> sprintf@f(BANK1[6]), NULL(NULL[0]), 

    pad@fp	PTR struct _IO_FILE size(2) Largest target is 7
		 -> sprintf@f(BANK1[6]), NULL(NULL[0]), 

    pad@buf	PTR unsigned char  size(2) Largest target is 32
		 -> dbuf(BANK1[32]), 

    putsXLCD@buffer	PTR unsigned char  size(2) Largest target is 21
		 -> STR_7(CODE[21]), pin(BANK1[4]), temp_ambiente_LCD(BANK1[20]), 

    sp__strncat	PTR unsigned char  size(2) Largest target is 4
		 -> pin(BANK1[4]), temp_alarme_string(BANK1[4]), 

    EUSART1_SetRxInterruptHandler@interruptHandler	PTR FTN()void  size(2) Largest target is 1
		 -> EUSART1_Receive_ISR(), 

    EUSART1_SetErrorHandler@interruptHandler	PTR FTN()void  size(2) Largest target is 1
		 -> EUSART1_DefaultErrorHandler(), 

    EUSART1_SetOverrunErrorHandler@interruptHandler	PTR FTN()void  size(2) Largest target is 1
		 -> EUSART1_DefaultOverrunErrorHandler(), 

    EUSART1_SetFramingErrorHandler@interruptHandler	PTR FTN()void  size(2) Largest target is 1
		 -> EUSART1_DefaultFramingErrorHandler(), 

    EUSART1_ErrorHandler	PTR FTN()void  size(2) Largest target is 1
		 -> EUSART1_DefaultErrorHandler(), Absolute function(), 

    EUSART1_OverrunErrorHandler	PTR FTN()void  size(2) Largest target is 1
		 -> EUSART1_DefaultOverrunErrorHandler(), Absolute function(), 

    EUSART1_FramingErrorHandler	PTR FTN()void  size(2) Largest target is 1
		 -> EUSART1_DefaultFramingErrorHandler(), Absolute function(), 

    ADC_SetInterruptHandler@InterruptHandler	PTR FTN()void  size(2) Largest target is 1
		 -> ADC_temperatura(), ADC_DefaultInterruptHandler(), 

    ADC_InterruptHandler	PTR FTN()void  size(2) Largest target is 1
		 -> ADC_temperatura(), ADC_DefaultInterruptHandler(), Absolute function(), 

    EUSART1_RxDefaultInterruptHandler	PTR FTN()void  size(2) Largest target is 1
		 -> EUSART1_Receive_ISR(), Absolute function(), 

    INT2_SetInterruptHandler@InterruptHandler	PTR FTN()void  size(2) Largest target is 1
		 -> teclado_coluna_3(), INT2_DefaultInterruptHandler(), 

    INT2_InterruptHandler	PTR FTN()void  size(2) Largest target is 1
		 -> teclado_coluna_3(), INT2_DefaultInterruptHandler(), Absolute function(), 

    INT1_SetInterruptHandler@InterruptHandler	PTR FTN()void  size(2) Largest target is 1
		 -> teclado_coluna_2(), INT1_DefaultInterruptHandler(), 

    INT1_InterruptHandler	PTR FTN()void  size(2) Largest target is 1
		 -> teclado_coluna_2(), INT1_DefaultInterruptHandler(), Absolute function(), 

    INT0_SetInterruptHandler@InterruptHandler	PTR FTN()void  size(2) Largest target is 1
		 -> teclado_coluna_1(), INT0_DefaultInterruptHandler(), 

    INT0_InterruptHandler	PTR FTN()void  size(2) Largest target is 1
		 -> teclado_coluna_1(), INT0_DefaultInterruptHandler(), Absolute function(), 

    TMR0_SetInterruptHandler@InterruptHandler	PTR FTN()void  size(2) Largest target is 1
		 -> Timer_0(), TMR0_DefaultInterruptHandler(), 

    TMR0_InterruptHandler	PTR FTN()void  size(2) Largest target is 1
		 -> Timer_0(), Absolute function(), TMR0_DefaultInterruptHandler(), 


Critical Paths under _main in COMRAM

    None.

Critical Paths under _INTERRUPT_InterruptManagerHigh in COMRAM

    _TMR0_ISR->_Timer_0
    _ADC_ISR->_ADC_temperatura
    _ADC_temperatura->___fltol
    ___fltol->___fldiv
    ___flmul->___xxtofl
    ___fldiv->___fladd
    ___fladd->___flmul

Critical Paths under _main in BANK0

    _main->_printf
    _strncat->_strlen
    _sprintf->_vfprintf
    _putsXLCD->_WriteDataXLCD
    _printf->_vfprintf
    _vfprintf->_vfpfcnvrt
    _vfpfcnvrt->_dtoa
    _dtoa->_pad
    _pad->_fputs
    _fputs->_fputc
    _fputc->_putch
    _putch->_EUSART1_Write
    _abs->___aomod
    _atoi->_isspace
    _SYSTEM_Initialize->_TMR0_Initialize
    _TMR0_Initialize->_TMR0_SetInterruptHandler
    _EXT_INT_Initialize->_INT0_SetInterruptHandler
    _EXT_INT_Initialize->_INT1_SetInterruptHandler
    _EXT_INT_Initialize->_INT2_SetInterruptHandler
    _EUSART1_Initialize->_EUSART1_SetErrorHandler
    _EUSART1_Initialize->_EUSART1_SetFramingErrorHandler
    _EUSART1_Initialize->_EUSART1_SetOverrunErrorHandler
    _EUSART1_Initialize->_EUSART1_SetRxInterruptHandler
    _ADC_Initialize->_ADC_SetInterruptHandler
    _LCD_inicio_teste->_WriteCmdXLCD
    _OpenXLCD->_DelayPORXLCD
    _OpenXLCD->_DelayXLCD
    _OpenXLCD->_WriteCmdXLCD

Critical Paths under _INTERRUPT_InterruptManagerHigh in BANK0

    None.

Critical Paths under _main in BANK1

    _main->_sprintf

Critical Paths under _INTERRUPT_InterruptManagerHigh in BANK1

    None.

Critical Paths under _main in BANK2

    None.

Critical Paths under _INTERRUPT_InterruptManagerHigh in BANK2

    None.

Critical Paths under _main in BANK3

    None.

Critical Paths under _INTERRUPT_InterruptManagerHigh in BANK3

    None.

Critical Paths under _main in BANK4

    None.

Critical Paths under _INTERRUPT_InterruptManagerHigh in BANK4

    None.

Critical Paths under _main in BANK5

    None.

Critical Paths under _INTERRUPT_InterruptManagerHigh in BANK5

    None.

Call Graph Tables:

 ---------------------------------------------------------------------------------
 (Depth) Function   	        Calls       Base Space   Used Autos Params    Refs
 ---------------------------------------------------------------------------------
 (0) _main                                                 4     4      0   22907
                                            103 BANK0      4     4      0
            _ADC_SetInterruptHandler
                           _BusyXLCD
                       _EUSART1_Read
                      _EUSART1_Write
                _EUSART1_is_rx_ready
           _INT0_SetInterruptHandler
           _INT1_SetInterruptHandler
           _INT2_SetInterruptHandler
                   _LCD_inicio_teste
                  _SYSTEM_Initialize
           _TMR0_SetInterruptHandler
                       _WriteCmdXLCD
                               _atoi
                             _printf
                           _putsXLCD
                            _sprintf
                            _strncat
 ---------------------------------------------------------------------------------
 (1) _strncat                                              8     2      6    1092
                                             10 BANK0      8     2      6
                             _strlen
 ---------------------------------------------------------------------------------
 (1) _sprintf                                             16    10      6    8963
                                             95 BANK0      6     0      6
                                              0 BANK1     10    10      0
                           _vfprintf
 ---------------------------------------------------------------------------------
 (1) _putsXLCD                                             2     0      2     317
                                              7 BANK0      2     0      2
                           _BusyXLCD
                      _WriteDataXLCD
 ---------------------------------------------------------------------------------
 (2) _WriteDataXLCD                                        1     1      0      44
                                              6 BANK0      1     1      0
                      _DelayFor18TCY
 ---------------------------------------------------------------------------------
 (1) _printf                                               8     4      4    9008
                                             95 BANK0      8     4      4
                           _vfprintf
 ---------------------------------------------------------------------------------
 (2) _vfprintf                                             8     2      6    8477
                                             87 BANK0      8     2      6
                          _vfpfcnvrt
 ---------------------------------------------------------------------------------
 (3) _vfpfcnvrt                                           42    36      6    7734
                                             71 BANK0     16    10      6
                               _dtoa
                              _fputc
 ---------------------------------------------------------------------------------
 (4) _dtoa                                                36    26     10    5897
                                             35 BANK0     36    26     10
                            ___aodiv
                            ___aomod
                                _abs
                                _pad
 ---------------------------------------------------------------------------------
 (5) _pad                                                 11     5      6    3631
                                             24 BANK0     11     5      6
                              _fputc
                              _fputs
                             _strlen
 ---------------------------------------------------------------------------------
 (2) _strlen                                               4     2      2     310
                                              6 BANK0      4     2      2
 ---------------------------------------------------------------------------------
 (6) _fputs                                                7     3      4    1599
                                             17 BANK0      7     3      4
                              _fputc
 ---------------------------------------------------------------------------------
 (4) _fputc                                                9     5      4    1099
                                              8 BANK0      9     5      4
                              _putch
 ---------------------------------------------------------------------------------
 (5) _putch                                                1     1      0      62
                                              7 BANK0      1     1      0
                      _EUSART1_Write
 ---------------------------------------------------------------------------------
 (6) _EUSART1_Write                                        1     1      0      31
                                              6 BANK0      1     1      0
 ---------------------------------------------------------------------------------
 (5) _abs                                                  4     2      2     183
                                             24 BANK0      4     2      2
                            ___aomod (ARG)
 ---------------------------------------------------------------------------------
 (5) ___aomod                                             18     2     16     613
                                              6 BANK0     18     2     16
 ---------------------------------------------------------------------------------
 (5) ___aodiv                                             26    10     16     625
                                              6 BANK0     26    10     16
 ---------------------------------------------------------------------------------
 (1) _atoi                                                15    13      2    1168
                                             13 BANK0     15    13      2
                             ___wmul
                            _isdigit
                            _isspace
 ---------------------------------------------------------------------------------
 (2) _isspace                                              7     5      2     207
                                              6 BANK0      7     5      2
 ---------------------------------------------------------------------------------
 (2) _isdigit                                              6     4      2     161
                                              6 BANK0      6     4      2
 ---------------------------------------------------------------------------------
 (2) ___wmul                                               6     2      4     403
                                              6 BANK0      6     2      4
 ---------------------------------------------------------------------------------
 (1) _SYSTEM_Initialize                                    0     0      0    1262
                     _ADC_Initialize
                   _EPWM1_Initialize
                 _EUSART1_Initialize
                 _EXT_INT_Initialize
               _INTERRUPT_Initialize
              _OSCILLATOR_Initialize
             _PIN_MANAGER_Initialize
                    _TMR0_Initialize
                    _TMR2_Initialize
 ---------------------------------------------------------------------------------
 (2) _TMR2_Initialize                                      0     0      0       0
 ---------------------------------------------------------------------------------
 (2) _TMR0_Initialize                                      2     2      0     174
                                              8 BANK0      2     2      0
           _TMR0_SetInterruptHandler
 ---------------------------------------------------------------------------------
 (1) _TMR0_SetInterruptHandler                             2     0      2     174
                                              6 BANK0      2     0      2
 ---------------------------------------------------------------------------------
 (2) _PIN_MANAGER_Initialize                               0     0      0       0
 ---------------------------------------------------------------------------------
 (2) _OSCILLATOR_Initialize                                0     0      0       0
 ---------------------------------------------------------------------------------
 (2) _INTERRUPT_Initialize                                 0     0      0       0
 ---------------------------------------------------------------------------------
 (2) _EXT_INT_Initialize                                   0     0      0     522
           _INT0_SetInterruptHandler
           _INT1_SetInterruptHandler
           _INT2_SetInterruptHandler
 ---------------------------------------------------------------------------------
 (3) _INT2_SetInterruptHandler                             2     0      2     174
                                              6 BANK0      2     0      2
 ---------------------------------------------------------------------------------
 (3) _INT1_SetInterruptHandler                             2     0      2     174
                                              6 BANK0      2     0      2
 ---------------------------------------------------------------------------------
 (3) _INT0_SetInterruptHandler                             2     0      2     174
                                              6 BANK0      2     0      2
 ---------------------------------------------------------------------------------
 (2) _EUSART1_Initialize                                   0     0      0     392
            _EUSART1_SetErrorHandler
     _EUSART1_SetFramingErrorHandler
     _EUSART1_SetOverrunErrorHandler
      _EUSART1_SetRxInterruptHandler
 ---------------------------------------------------------------------------------
 (3) _EUSART1_SetRxInterruptHandler                        2     0      2      98
                                              6 BANK0      2     0      2
 ---------------------------------------------------------------------------------
 (3) _EUSART1_SetOverrunErrorHandler                       2     0      2      98
                                              6 BANK0      2     0      2
 ---------------------------------------------------------------------------------
 (3) _EUSART1_SetFramingErrorHandler                       2     0      2      98
                                              6 BANK0      2     0      2
 ---------------------------------------------------------------------------------
 (3) _EUSART1_SetErrorHandler                              2     0      2      98
                                              6 BANK0      2     0      2
 ---------------------------------------------------------------------------------
 (2) _EPWM1_Initialize                                     0     0      0       0
 ---------------------------------------------------------------------------------
 (2) _ADC_Initialize                                       0     0      0     174
            _ADC_SetInterruptHandler
 ---------------------------------------------------------------------------------
 (3) _ADC_SetInterruptHandler                              2     0      2     174
                                              6 BANK0      2     0      2
 ---------------------------------------------------------------------------------
 (1) _LCD_inicio_teste                                     0     0      0      88
                           _BusyXLCD
                           _OpenXLCD
                       _WriteCmdXLCD
 ---------------------------------------------------------------------------------
 (2) _OpenXLCD                                             1     1      0      44
                           _BusyXLCD
                      _DelayFor18TCY
                       _DelayPORXLCD
                          _DelayXLCD
                       _WriteCmdXLCD
 ---------------------------------------------------------------------------------
 (1) _WriteCmdXLCD                                         1     1      0      44
                                              6 BANK0      1     1      0
                      _DelayFor18TCY
 ---------------------------------------------------------------------------------
 (3) _DelayXLCD                                            1     1      0       0
                                              6 BANK0      1     1      0
 ---------------------------------------------------------------------------------
 (3) _DelayPORXLCD                                         1     1      0       0
                                              6 BANK0      1     1      0
 ---------------------------------------------------------------------------------
 (2) _BusyXLCD                                             0     0      0       0
                      _DelayFor18TCY
 ---------------------------------------------------------------------------------
 (3) _DelayFor18TCY                                        0     0      0       0
 ---------------------------------------------------------------------------------
 (1) _EUSART1_is_rx_ready                                  0     0      0       0
 ---------------------------------------------------------------------------------
 (1) _EUSART1_Read                                         1     1      0      24
                                              6 BANK0      1     1      0
 ---------------------------------------------------------------------------------
 Estimated maximum stack depth 6
 ---------------------------------------------------------------------------------
 (Depth) Function   	        Calls       Base Space   Used Autos Params    Refs
 ---------------------------------------------------------------------------------
 (10) _INTERRUPT_InterruptManagerHigh                      6     6      0    6409
                                              0 BANK0      6     6      0
                   Absolute function *
                            _ADC_ISR
                _EUSART1_Receive_ISR *
                           _INT0_ISR
                           _INT1_ISR
                           _INT2_ISR
                           _TMR0_ISR
 ---------------------------------------------------------------------------------
 (11) _TMR0_ISR                                            0     0      0       0
                   Absolute function *
       _TMR0_DefaultInterruptHandler *
                            _Timer_0 *
 ---------------------------------------------------------------------------------
 (12) _Timer_0                                             1     1      0       0
                                              0 COMRAM     1     1      0
                _ADC_StartConversion
 ---------------------------------------------------------------------------------
 (13) _ADC_StartConversion                                 0     0      0       0
 ---------------------------------------------------------------------------------
 (12) _TMR0_DefaultInterruptHandler                        0     0      0       0
 ---------------------------------------------------------------------------------
 (11) _INT2_ISR                                            0     0      0       0
                      _INT2_CallBack
 ---------------------------------------------------------------------------------
 (12) _INT2_CallBack                                       0     0      0       0
                   Absolute function *
       _INT2_DefaultInterruptHandler *
                   _teclado_coluna_3 *
 ---------------------------------------------------------------------------------
 (13) _teclado_coluna_3                                    0     0      0       0
 ---------------------------------------------------------------------------------
 (13) _INT2_DefaultInterruptHandler                        0     0      0       0
 ---------------------------------------------------------------------------------
 (11) _INT1_ISR                                            0     0      0       0
                      _INT1_CallBack
 ---------------------------------------------------------------------------------
 (12) _INT1_CallBack                                       0     0      0       0
                   Absolute function *
       _INT1_DefaultInterruptHandler *
                   _teclado_coluna_2 *
 ---------------------------------------------------------------------------------
 (13) _teclado_coluna_2                                    0     0      0       0
 ---------------------------------------------------------------------------------
 (13) _INT1_DefaultInterruptHandler                        0     0      0       0
 ---------------------------------------------------------------------------------
 (11) _INT0_ISR                                            0     0      0       0
                      _INT0_CallBack
 ---------------------------------------------------------------------------------
 (12) _INT0_CallBack                                       0     0      0       0
                   Absolute function *
       _INT0_DefaultInterruptHandler *
                   _teclado_coluna_1 *
 ---------------------------------------------------------------------------------
 (13) _teclado_coluna_1                                    0     0      0       0
 ---------------------------------------------------------------------------------
 (13) _INT0_DefaultInterruptHandler                        0     0      0       0
 ---------------------------------------------------------------------------------
 (11) _EUSART1_Receive_ISR                                 0     0      0       0
                   Absolute function *
        _EUSART1_DefaultErrorHandler *
 _EUSART1_DefaultFramingErrorHandler *
 _EUSART1_DefaultOverrunErrorHandler *
              _EUSART1_RxDataHandler
 ---------------------------------------------------------------------------------
 (12) _EUSART1_DefaultOverrunErrorHandler                  0     0      0       0
 ---------------------------------------------------------------------------------
 (12) _EUSART1_DefaultFramingErrorHandler                  0     0      0       0
 ---------------------------------------------------------------------------------
 (12) _EUSART1_DefaultErrorHandler                         0     0      0       0
              _EUSART1_RxDataHandler
 ---------------------------------------------------------------------------------
 (12) _EUSART1_RxDataHandler                               0     0      0       0
 ---------------------------------------------------------------------------------
 (11) _ADC_ISR                                             0     0      0    6409
                   Absolute function *
        _ADC_DefaultInterruptHandler *
                    _ADC_temperatura *
 ---------------------------------------------------------------------------------
 (12) _ADC_temperatura                                     4     4      0    6409
                                             90 COMRAM     4     4      0
            _ADC_GetConversionResult
                            ___fladd
                            ___fldiv
                            ___flmul
                            ___fltol
                           ___xxtofl
 ---------------------------------------------------------------------------------
 (13) ___xxtofl                                           14    10      4     398
                                              0 COMRAM    14    10      4
 ---------------------------------------------------------------------------------
 (13) ___fltol                                            10     6      4     305
                                             80 COMRAM    10     6      4
                            ___fladd (ARG)
                            ___fldiv (ARG)
 ---------------------------------------------------------------------------------
 (13) ___flmul                                            25    17      8    1744
                                             14 COMRAM    25    17      8
                           ___xxtofl (ARG)
 ---------------------------------------------------------------------------------
 (13) ___fldiv                                            25    17      8    1399
                                             55 COMRAM    25    17      8
                            ___fladd (ARG)
 ---------------------------------------------------------------------------------
 (13) ___fladd                                            16     8      8    2540
                                             39 COMRAM    16     8      8
                            ___flmul (ARG)
                           ___xxtofl (ARG)
 ---------------------------------------------------------------------------------
 (13) _ADC_GetConversionResult                             4     2      2       0
                                              0 COMRAM     4     2      2
 ---------------------------------------------------------------------------------
 (12) _ADC_DefaultInterruptHandler                         0     0      0       0
 ---------------------------------------------------------------------------------
 (12) Absolute function(Fake)                              0     0      0       0
 ---------------------------------------------------------------------------------
 Estimated maximum stack depth 13
 ---------------------------------------------------------------------------------

 Call Graph Graphs:

 _main (ROOT)
   _ADC_SetInterruptHandler
   _BusyXLCD
     _DelayFor18TCY
   _EUSART1_Read
   _EUSART1_Write
   _EUSART1_is_rx_ready
   _INT0_SetInterruptHandler
   _INT1_SetInterruptHandler
   _INT2_SetInterruptHandler
   _LCD_inicio_teste
     _BusyXLCD
       _DelayFor18TCY
     _OpenXLCD
       _BusyXLCD
         _DelayFor18TCY
       _DelayFor18TCY
       _DelayPORXLCD
       _DelayXLCD
       _WriteCmdXLCD
         _DelayFor18TCY
     _WriteCmdXLCD
       _DelayFor18TCY
   _SYSTEM_Initialize
     _ADC_Initialize
       _ADC_SetInterruptHandler
     _EPWM1_Initialize
     _EUSART1_Initialize
       _EUSART1_SetErrorHandler
       _EUSART1_SetFramingErrorHandler
       _EUSART1_SetOverrunErrorHandler
       _EUSART1_SetRxInterruptHandler
     _EXT_INT_Initialize
       _INT0_SetInterruptHandler
       _INT1_SetInterruptHandler
       _INT2_SetInterruptHandler
     _INTERRUPT_Initialize
     _OSCILLATOR_Initialize
     _PIN_MANAGER_Initialize
     _TMR0_Initialize
       _TMR0_SetInterruptHandler
     _TMR2_Initialize
   _TMR0_SetInterruptHandler
   _WriteCmdXLCD
     _DelayFor18TCY
   _atoi
     ___wmul
     _isdigit
     _isspace
   _printf
     _vfprintf
       _vfpfcnvrt
         _dtoa
           ___aodiv
           ___aomod
           _abs
             ___aomod (ARG)
           _pad
             _fputc
               _putch
                 _EUSART1_Write
             _fputs
               _fputc
                 _putch
                   _EUSART1_Write
             _strlen
         _fputc
           _putch
             _EUSART1_Write
   _putsXLCD
     _BusyXLCD
       _DelayFor18TCY
     _WriteDataXLCD
       _DelayFor18TCY
   _sprintf
     _vfprintf
       _vfpfcnvrt
         _dtoa
           ___aodiv
           ___aomod
           _abs
             ___aomod (ARG)
           _pad
             _fputc
               _putch
                 _EUSART1_Write
             _fputs
               _fputc
                 _putch
                   _EUSART1_Write
             _strlen
         _fputc
           _putch
             _EUSART1_Write
   _strncat
     _strlen

 _INTERRUPT_InterruptManagerHigh (ROOT)
   Absolute function(Fake) *
   _ADC_ISR *
     Absolute function(Fake) *
     _ADC_DefaultInterruptHandler *
     _ADC_temperatura *
       _ADC_GetConversionResult
       ___fladd
         ___flmul (ARG)
           ___xxtofl (ARG)
         ___xxtofl (ARG)
       ___fldiv
         ___fladd (ARG)
           ___flmul (ARG)
             ___xxtofl (ARG)
           ___xxtofl (ARG)
       ___flmul
         ___xxtofl (ARG)
       ___fltol
         ___fladd (ARG)
           ___flmul (ARG)
             ___xxtofl (ARG)
           ___xxtofl (ARG)
         ___fldiv (ARG)
           ___fladd (ARG)
             ___flmul (ARG)
               ___xxtofl (ARG)
             ___xxtofl (ARG)
       ___xxtofl
   _EUSART1_Receive_ISR *
     Absolute function(Fake) *
     _EUSART1_DefaultErrorHandler *
       _EUSART1_RxDataHandler
     _EUSART1_DefaultFramingErrorHandler *
     _EUSART1_DefaultOverrunErrorHandler *
     _EUSART1_RxDataHandler *
   _INT0_ISR *
     _INT0_CallBack
       Absolute function(Fake) *
       _INT0_DefaultInterruptHandler *
       _teclado_coluna_1 *
   _INT1_ISR *
     _INT1_CallBack
       Absolute function(Fake) *
       _INT1_DefaultInterruptHandler *
       _teclado_coluna_2 *
   _INT2_ISR *
     _INT2_CallBack
       Absolute function(Fake) *
       _INT2_DefaultInterruptHandler *
       _teclado_coluna_3 *
   _TMR0_ISR *
     Absolute function(Fake) *
     _TMR0_DefaultInterruptHandler *
     _Timer_0 *
       _ADC_StartConversion

 Address spaces:
Name               Size   Autos  Total    Cost      Usage
BIGRAM             5FF      0       0      16        0.0%
EEDATA             100      0       0       0        0.0%
BITBANK5           100      0       0      14        0.0%
BANK5              100      0       0      15        0.0%
BITBANK4           100      0       0      12        0.0%
BANK4              100      0       0      13        0.0%
BITBANK3           100      0       0      10        0.0%
BANK3              100      0       0      11        0.0%
BITBANK2           100      0       0       7        0.0%
BANK2              100      0       0       8        0.0%
BITBANK1           100      0       0       5        0.0%
BANK1              100      A      66       6       39.8%
BITBANK0            A0      0       0       3        0.0%
BANK0               A0     6B      97       4       94.4%
BITCOMRAM           5E      0       0       0        0.0%
COMRAM              5E     5E      5E       1      100.0%
BITSFR_1             0      0       0     200        0.0%
SFR_1                0      0       0     200        0.0%
BITSFR               0      0       0     200        0.0%
SFR                  0      0       0     200        0.0%
STACK                0      0       0       2        0.0%
NULL                 0      0       0       0        0.0%
ABS                  0      0     15B       9        0.0%
DATA                 0      0     15B      17        0.0%
CODE                 0      0       0       0        0.0%


Microchip Technology PIC18 Macro Assembler V2.10 build 88905656 
Symbol Table                                                                                   Tue May 05 19:42:11 2020

                                  ___fldiv@aexp 0050                                    ___fldiv@bexp 004F  
                                  ___fldiv@sign 0048                                              l21 2E48  
                                            l43 30EC                                              l74 310A  
                                            l87 3100                             ___wmul@multiplicand 0068  
                               _timer0ReloadVal 00F3                                ?_ADC_temperatura 0001  
                                  __CFG_CP0$OFF 000000                                    __CFG_CP1$OFF 000000  
                                  __CFG_CP2$OFF 000000                                    __CFG_CP3$OFF 000000  
                                   __CFG_LVP$ON 000000                                             l100 30F6  
                                           l106 2D62                                             l221 2C14  
                                           l303 2FFA                                             l135 30E2  
                                           l331 313C                                             l405 3070  
                                           l237 30A8                                             l421 3046  
                                           l182 30D4                                             l430 30C6  
                                           l424 3058                                             l273 3040  
                                           l418 2B40                                             l179 2FD4  
                                           l453 3128                                             l622 3084  
                                           l462 3114                                             l616 30B8  
                                           l456 311E                                             l619 3020  
                                           l643 2378                                             l459 3132  
                                           l811 2A38                                             l740 28AA  
                                           l812 2A40                                             l397 29DE  
                                           l805 1B30                                             l646 2C48  
                                           l647 2C5A                                             l815 2F86  
                                           l672 2CE2                                             l657 2840  
                                           l569 140E                                             l770 25D8  
                                           l675 2C9E                                             l772 2614  
                                           l780 173E                                             l942 2162  
                                           l767 2594                                             l929 1FFC  
                                           l778 1736                                             l798 1978  
                                  __CFG_CPB$OFF 000000                          _temp_ambiente_anterior 00D5  
                                           _PR2 000FBB                                    __CFG_CPD$OFF 000000  
                    ??_INT0_SetInterruptHandler 0068                                             _abs 2CE4  
                                           _pad 254C                                 __end_of_ADC_ISR 2E7C  
                                           _pin 0148                 __end_of_ADC_SetInterruptHandler 313E  
                         __size_of_WriteCmdXLCD 0044                                 _TMR2_Initialize 309A  
                                           tosl 000FFD                                             wreg 000FE8  
                                    _TXSTA1bits 000FAC                                   _INT0_CallBack 2EDC  
                                  ___flmul@aexp 0020                                    ___flmul@bexp 0021  
                  ?_ADC_DefaultInterruptHandler 0001                                    ___flmul@sign 001B  
                                  ___flmul@temp 0026                                    ___flmul@prod 0022  
                                 _INT1_CallBack 2EAC                                    ___fltol@exp1 005A  
                                          ?_abs 0078                                            l1521 1E6A  
                                          l1524 1E72                                            l1550 254A  
                                          l1527 2DD6                                            l1535 2AEE  
                                          l1490 2D1C                                            l5010 30BE  
                                          l5100 1F92                                            l5020 24CE  
                                          l5012 2480                                            l1572 2F5E  
                                          l1493 2D24                                            l1565 2A9A  
                                          l4310 2D3C                                            l4302 2D26  
                                          l5110 1FDC                                            l5102 1F94  
                                          l5006 3046                                            l5022 2504  
                                          l5014 2494                                            l1558 2B88  
                                          l5030 2B62                                            l3600 2C1A  
                                          l4400 228C                                            l4312 2D4C  
                                          l4304 2D2A                                            l4320 30D6  
                                          l5104 1FA6                                            l5120 2032  
                                          l5008 3054                                            l5016 24A6  
                                          l5032 2B68                                            l5040 2D8E  
                                          l5200 191A                                            l3610 2C38  
                                          l3602 2C1E                                            l4410 229E  
                                          l4402 2290                                            l4330 2FEA  
                                          l4314 2D4E                                            l4306 2D38  
                                          l4322 2BD0                                            l5106 1FAC  
                                          l5130 208A                                            l5122 2036  
                                          l5114 1FFE                                            l5018 24B0  
                                          l5026 2B42                                            l1578 2D9C  
                                          l5034 2D64                                            l5050 2580  
                                          l5202 192C                                            l3612 2C3E  
                                          l3604 2C24                                            l4420 22B0  
                                          l4412 22A0                                            l4404 2294  
                                          l4332 2FEC                                            l4340 297C  
                                          l4316 2D50                                            l4308 2D3A  
                                          l4324 2C12                                            l3540 30E4  
                                          l4500 2F60                                            l5108 1FBC  
                                          l5140 210C                                            l5132 209E  
                                          l5124 2044                                            l5116 2004  
                                          l5028 2B50                                            l5036 2D70  
                                          l5060 25E6                                            l5052 258C  
                                          l5044 254C                                            l5204 1938  
                                          l5220 19C2                                            l5212 197A  
                                          l1588 2754                                            l3630 2C58  
                                          l3622 2C4A                                            l3614 2C40  
                                          l3606 2C32                                            l4430 22CA  
                                          l4422 22B6                                            l4414 22A4  
                                          l4406 2298                                            l4334 3022  
                                          l4350 2998                                            l4342 297E  
                                          l3542 3102                                            l4318 2D60  
                                          l4326 30C8                                            l4502 2F7E  
                                          l4510 2AB6                                            l5070 1E74  
                                          l5134 20AC                                            l5142 2112  
                                          l5126 2064                                            l5118 2012  
                                          l5038 2D76                                            l5062 25FA  
                                          l5054 25A0                                            l5046 255C  
                                          l5206 1940                                            l5150 1696  
                                          l5230 1A8A                                            l5222 19E6  
                                          l5214 199E                                            l5310 1352  
                                          l5302 133E                                            l3624 2C4E  
                                          l3616 2C42                                            l3608 2C34  
                                          l4440 22DC                                            l4432 22D0  
                                          l4424 22BC                                            l4416 22A8  
                                          l4408 229A                                            l4328 2FD6  
                                          l3560 3116                                            l4360 29DC  
                                          l4352 299C                                            l4344 298C  
                                          l3544 30F8                                            l4280 2E1C  
                                          l4336 309A                                            l4512 2AE4  
                                          l5080 1EBA                                            l5072 1E7A  
                                          l5144 2122                                            l5136 20DA  
                                          l5128 2082                                            l5056 25B4  
                                          l5048 2570                                            l5208 1950  
                                          l5160 1710                                            l5152 16B6  
                                          l5232 1AAE                                            l5240 1ADE  
                                          l5224 1A0A                                            l5216 19AC  
                                          l5400 162C                                            l5320 1398  
                                          l5312 1360                                            l5304 1342  
                                          l3474 30AA                                            l3626 2C54  
                                          l3634 2FFC                                            l4450 2310  
                                          l4442 22DE                                            l4434 22D4  
                                          l4426 22C0                                            l4418 22AC  
                                          l3562 312A                                            l4354 29A0  
                                          l4346 2990                                            l3546 30EE  
                                          l4282 2E34                                            l4338 30A2  
                                          l4514 2AE8                                            l4506 2A9C  
                                          l5090 1F10                                            l5082 1EDA  
                                          l5074 1E88                                            l5146 2142  
                                          l5138 20FA                                            l5066 2CE4  
                                          l5058 25BA                                            l5170 176C  
                                          l5162 172A                                            l5154 16E0  
                                          l5242 1AEC                                            l5234 1ABC  
                                          l5226 1A52                                            l5218 19BE  
                                          l5410 1646                                            l5402 162E  
                                          l5330 13E2                                            l5322 139C  
                                          l5314 136E                                            l5306 1344  
                                          l3628 2C56                                            l3580 2CBA  
                                          l4460 2358                                            l4452 2316  
                                          l4444 22E2                                            l4436 22D6  
                                          l4428 22C4                                            l4620 2862  
                                          l3548 3134                                            l3556 310C  
                                          l4356 29AE                                            l4348 2994  
                                          l4284 2E36                                            l4276 2E12  
                                          l4508 2AA2                                            l5092 1F24  
                                          l5084 1EDE                                            l5076 1EA8  
                                          l5068 2D00                                            l5180 180E  
                                          l5172 1774                                            l5164 1746  
                                          l5156 1700                                            l5236 1AD0  
                                          l5260 2A1C                                            l5420 1660  
                                          l5412 1648                                            l5404 1640  
                                          l5340 1450                                            l5332 13EE  
                                          l5324 13A6                                            l5316 137C  
                                          l5308 134E                                            l3638 3072  
                                          l3590 2CD6                                            l3582 2CBE  
                                          l3574 2CA4                                            l4462 235E  
                                          l4454 232A                                            l4446 22F6  
                                          l4438 22D8                                            l4390 227E  
                                          l4382 2270                                            l4622 2876  
                                          l4614 2842                                            l3558 3120  
                                          l4358 29BC                                            l4286 2E38  
                                          l4278 2E14                                            l4550 2FB0  
                                          l4518 2D9E                                            l5094 1F32  
                                          l5086 1EEA                                            l5078 1EAC  
                                          l5190 18CC                                            l5182 1814  
                                          l5174 177E                                            l5166 1758  
                                          l5158 170E                                            l5246 1AF8  
                                          l5254 29E0                                            l5262 2F38  
                                          l4470 2C72                                            l5270 26DE  
                                          l5430 167A                                            l5422 1662  
                                          l5414 165A                                            l5406 1642  
                                          l5350 14B4                                            l5342 145C  
                                          l5334 1402                                            l5326 13BA  
                                          l5318 138A                                            ?_pad 0078  
                                          l3592 2CD8                                            l3584 2CC0  
                                          l3576 2CB6                                            l4464 2372  
                                          l4456 233E                                            l4448 22FC  
                                          l4392 2280                                            l4384 2274  
                                          l4624 287C                                            l4616 2848  
                                          l4288 2E44                                            l4560 2FC4  
                                          l4552 2FB4                                            l5096 1F44  
                                          l5088 1F08                                            l5192 18E6  
                                          l5176 1784                                            l5184 1878  
                                          l5168 1766                                            l5248 1B1E  
                                          l5256 29E8                                            l5264 2F42  
                                          l4480 2C80                                            l4472 2C74  
                                          l4720 2810                                            l4712 27CE  
                                          l5272 26F8                                            l5280 271A  
                                          l5432 167C                                            l5424 1674  
                                          l5416 165C                                            l5408 1644  
                                          l5360 1510                                            l5352 14BA  
                                          l5344 1462                                            l5336 1432  
                                          l5328 13CE                                            l3594 2CDC  
                                          l3586 2CC4                                            l3578 2CB8  
                                          l4458 2344                                            l4394 2282  
                                          l4386 2278                                            l4626 2890  
                                          l4618 285C                                            l4562 2FC8  
                                          l4554 2FB8                                            l5098 1F72  
                                          l5186 1894                                            l5194 18F4  
                                          l5178 1808                                            l5258 29F6  
                                          l4482 2C8E                                            l4474 2C76  
                                          l4714 27D2                                            l5290 2A42  
                                          l5282 272C                                            l5274 26FE  
                                          l5426 1676                                            l5418 165E  
                                          l5370 157C                                            l5362 1524  
                                          l5354 14CE                                            l5346 1480  
                                          l5338 143C                                            l4580 2B24  
                                          l4572 2AF0                                            l3588 2CD2  
                                          l4396 2284                                            l4388 227C  
                                          l4628 2896                                            l4564 2FCC  
                                          l4556 2FBC                                            l4660 1CFC  
                                          l5196 1906                                            l5188 18B2  
                                          l4484 2C92                                            l4476 2C7A  
                                          l4468 2C60                                            l4716 27E6  
                                          l5292 2A54                                            l5284 2744  
                                          l5276 2712                                            l5268 26DE  
                                          l5428 1678                                            l5380 15C2  
                                          l5372 1582                                            l5364 1542  
                                          l5356 14DC                                            l5348 1496  
                                          l4590 2B3E                                            l4582 2B34  
                                          l4574 2AF0                                            l3598 2C16  
                                          l4398 2286                                            l4566 2FD0  
                                          l4558 2FC0                                            l5454 1D9E  
                                          l4670 1D56                                            l4662 1D00  
                                          l5198 1914                                            l4486 2C94  
                                          l4478 2C7C                                            l4718 280A  
                                          l5294 2A5C                                            l5286 2750  
                                          l5278 2716                                            l5390 1608  
                                          l5374 1596                                            l5382 15CE  
                                          l5366 154E                                            l5358 14F0  
                                          l4584 2B38                                            l4576 2B02  
                                          l4568 305A                                            l4680 1D82  
                                          l4664 1D04                                            l4488 2C98  
                                          l5296 2A64                                            l5392 161C  
                                          l5384 15E0                                            l5376 15A4  
                                          l5368 1560                                            l4586 2B3A  
                                          l4578 2B22                                            l4690 1E2A  
                                          l4682 1DB4                                            l4674 1D5C  
                                          l4666 1D1E                                            l4658 1CE6  
                                          l5298 2A82                                            l5386 15E6  
                                          l5394 1626                                            l5378 15B8  
                                          l4588 2B3C                                            l4692 1E3C  
                                          l4676 1D72                                            l4668 1D52  
                                          l5396 1628                                            l5388 15FA  
                                          l4694 1E4E                                            l4686 1DEE  
                                          l4678 1D7A                                            l5398 162A  
                                          STR_1 0663                                            STR_2 067E  
                                          STR_3 0628                                            STR_4 0646  
                                          STR_5 0601                                            STR_6 06AE  
                                          STR_7 0699                                            _LATA 000F89  
                                          _LATB 000F8A                                            _LATC 000F8B  
                                          _LATD 000F8C                                            _LATE 000F8D  
                                          u4100 2372                                            u4101 236E  
                                          u4200 306E                                            u4120 2AB6  
                                          u5000 2122                                            u4201 3068  
                                          u4121 2AB2                                            u5001 211E  
                                          u4210 3070                                            u4050 22F6  
                                          u4130 2AE4                                            u5010 16C8  
                                          u4051 22F2                                            u4131 2AE0  
                                          u5011 16C2                                            u4220 2B02  
                                          u4060 2310                                            u4300 285C  
                                          u4140 2DD0                                            u5100 18CC  
                                          u5020 16CA                                            u4221 2AFE  
                                          u4061 230C                                            u4301 2858  
                                          u4141 2DCA                                            u5101 18C8  
                                          u4230 2B34                                            u4070 232A  
                                          u4310 2876                                            u4150 2DD2  
                                          u5110 18E6                                            u5030 16E0  
                                          u4231 2B30                                            u4071 2326  
                                          u4311 2872                                            u5111 18E2  
                                          u5031 16DC                                            u4080 233E  
                                          u4320 2890                                            u4400 1E26  
                                          u5120 18F4                                            u5040 170E  
                                          u5200 2A38                                            u4081 233A  
                                          u4321 288C                                            u5121 18F0  
                                          u5041 170A                                            u5201 2A34  
                                          u4090 2358                                            u4330 28AA  
                                          u4410 1E3C                                            u5130 1906  
                                          u5050 172A                                            u5210 272C  
                                          u4091 2354                                            u4331 28A6  
                                          u4411 1E38                                            u5131 1902  
                                          u5051 1726                                            u5211 2728  
                                          u2820 2C32                                            u4420 1E4E  
                                          u5140 1914                                            u5060 1758  
                                          u5220 2744                                            u5300 1542  
                                          u2821 2C2E                                            u4421 1E4A  
                                          u5141 1910                                            u5061 1754  
                                          u5221 2740                                            u5301 153E  
                                          u5150 192C                                            u5070 1766  
                                          u4430 27E6                                            u5310 1560  
                                          u5230 13BA                                            u5151 1928  
                                          u5071 1762                                            u4431 27E2  
                                          u5311 155C                                            u5231 13B6  
                                          u4360 1D1E                                            u5080 1894  
                                          u5160 199E                                            u4440 2806  
                                          u5320 1596                                            u5240 13E2  
                                          u4361 1D1A                                            u5081 1890  
                                          u5161 199A                                            u5321 1592  
                                          u5241 13DE                                            u4370 1D52  
                                          u5090 18B2                                            u5170 19E6  
                                          u4450 2830                                            u5330 15B8  
                                          u5250 1402                                            u4371 1D4E  
                                          u5091 18AE                                            u5171 19E2  
                                          u5331 15B4                                            u5251 13FE  
                                          u4380 1D6E                                            u5180 1A0A  
                                          u4460 2840                                            u5340 15E0  
                                          u5260 1450                                            u4381 1D6A  
                                          u5181 1A06                                            u4461 283C  
                                          u5341 15DC                                            u5261 144C  
                                          u4390 1E24                                            u5190 1AAE  
                                          u5350 15FA                                            u5270 14CE  
                                          u4391 1E1E                                            u5191 1AAA  
                                          u4447 27FC                                            u5407 1684  
                                          u5351 15F6                                            u5271 14CA  
                                          u4800 2504                                            u5360 161C  
                                          u5280 14F0                                            u5417 307A  
                                          u4801 2500                                            u4457 2826  
                                          u5361 1618                                            u5281 14EC  
                                          u4810 2B88                                            u5290 1510  
                                          u5427 3004                                            u4811 2B84  
                                          u5291 150C                                            u4820 2D8E  
                                          u5437 3016                                            u4901 1EE4  
                                          u4821 2D8A                                            u4910 1F08  
                                          u4830 255C                                            u5447 30AC  
                                          u4911 1F04                                            u4831 2558  
                                          i2l40 2E10                                            u4920 1F32  
                                          u4760 3054                                            u4840 2580  
                                          u5457 30B2                                            u4921 1F2E  
                                          u4761 3050                                            u4841 257C  
                                          u5377 1636                                            u4930 1F72  
                                          u4770 2494                                            u4850 25D8  
                                          u4931 1F6E                                            u4771 2490  
                                          u4851 25D4                                            u5387 1650  
                                          u4940 1FBC                                            u4780 24A6  
                                          u4860 25E6                                            u4941 1FB8  
                                          u4781 24A2                                            u4861 25E2  
                                          u5397 166A                                            i2l46 316C  
                                          u4950 2012                                            u4870 2D00  
                                          u4790 24CE                                            i2l71 2F0A  
                                          u4951 200E                                            u4871 2CFC  
                                          u4791 24CA                                            i2l80 314C  
                                          u4880 1E88                                            u4960 2044  
                                          u4881 1E84                                            u4961 2040  
                                          i2l90 3170                                            u4890 1EBA  
                                          u4970 2082                                            i2l67 3154  
                                          u4891 1EB6                                            u4971 207E  
                                          i2l84 2EDA                                            u4980 20AC  
                                          i2l77 3172                                            i2l93 3144  
                                          u4981 20A8                                            u4990 20DA  
                                          u4991 20D6                                            i2l97 2EAA  
                                          _TMR2 000FBC                                            _WPUB 000F61  
                                 _INT2_CallBack 2E7C                                _LCD_inicio_teste 2842  
                                 _EUSART1_Write 3042                                            abs@a 0078  
                                          _dbuf 0110                                            _atoi 1CE6  
                                          _main 133E                                            _dtoa 1696  
                                 ?_EUSART1_Read 0001                                            _prec 00CF  
                                          _nout 00CB                                            pad@i 007F  
                                          pad@p 007C                                            fsr1h 000FE2  
                                          fsr2h 000FDA                                            indf1 000FE7  
                                          indf2 000FDF                                            fsr1l 000FE1  
                                          pad@w 0081                                            fsr2l 000FD9  
                                          btemp 005F                                   __CFG_BORV$190 000000  
             __size_of_INT2_SetInterruptHandler 000A                       ?_INT2_SetInterruptHandler 0066  
                        __size_of_WriteDataXLCD 0044                                            prodh 000FF4  
                                          prodl 000FF3                                            start 012E  
                                 __CFG_IESO$OFF 000000                                 ___fldiv@new_exp 0049  
                fp__EUSART1_DefaultErrorHandler 0000                                    ___param_bank 000000  
                                         ??_abs 007A                                           ??_pad 007E  
                                  _WriteCmdXLCD 2CA0                         __end_of_TMR0_Initialize 2E4A  
                              __end_of_INT0_ISR 3156                                __end_of_INT1_ISR 314E  
                              __end_of_INT2_ISR 3146                  ??_TMR0_DefaultInterruptHandler 0001  
                               __end_of_Timer_0 2FB0                  __size_of_OSCILLATOR_Initialize 000E  
                 __end_of_OSCILLATOR_Initialize 30D6                           _eusart1RxStatusBuffer 0100  
                                 ___fltol@sign1 0059                                 __end_of___aodiv 1FFE  
                                         ?_atoi 006D                                 __end_of___fladd 0B7A  
                                         ?_main 0001                                           ?_dtoa 0083  
                               __end_of___aomod 2164                                 __end_of___fldiv 133E  
                               __end_of___flmul 0FA4                                 __end_of___fltol 2480  
                                         _T0CON 000FD5                                           _T2CON 000FBA  
                                __CFG_DEBUG$OFF 000000                                           i2l103 316E  
                                         i2l140 0046                                           i2l142 0082  
                                         i2l144 00A6                                           i2l152 0112  
                                         i2l146 00CA                                           i2l315 3098  
                                         i2l147 0112                                           i2l148 00EE  
                                         i2l309 316A                                           i2l334 3176  
                                         i2l328 2E7A                                           i2l441 2F36  
                                         i2l450 3166                                           i2l444 3174  
                                         i2l700 28DC                                           i2l437 26DC  
                                         i2l702 28F4                                           i2l710 278C  
                                         i2l447 3160                                           i2l711 27CC  
                                         i2l712 27A2                                           i2l561 226E  
                                         i2l705 2912                                           i2l715 27CC  
                                         i2l555 2F88                                           i2l708 2776  
                                         i2l557 2FAE                                           i2l690 2944  
                                         i2l692 295C                                           i2l695 297A  
                                         i2l688 292C                                           i2l689 2970  
                                         i2l698 28C4                                           i2l699 2908  
                                  vfpfcnvrt@fmt 00A9                                           _TMR0H 000FD7  
                                         _TMR0L 000FD6                                           _PORTD 000F83  
                             ?_teclado_coluna_1 0001                               ?_teclado_coluna_2 0001  
                             ?_teclado_coluna_3 0001                                           _TRISA 000F92  
                                         _TRISB 000F93                                  ?_INT0_CallBack 0001  
                                         _TRISC 000F94                                           _TRISD 000F95  
                                         _TRISE 000F96                __size_of_ADC_GetConversionResult 0014  
             __size_of_TMR0_SetInterruptHandler 000A                                   __CFG_WRT0$OFF 000000  
                                 __CFG_WRT1$OFF 000000                                   __CFG_WRT2$OFF 000000  
                     ?_TMR0_SetInterruptHandler 0066                                   __CFG_WRT3$OFF 000000  
                                __CFG_EBTR0$OFF 000000                                  __CFG_FCMEN$OFF 000000  
                                __CFG_EBTR1$OFF 000000                                  __CFG_EBTR2$OFF 000000  
                                __CFG_EBTR3$OFF 000000                                __end_of_TMR0_ISR 2E12  
                            ??_teclado_coluna_1 0001                              ??_teclado_coluna_2 0001  
                            ??_teclado_coluna_3 0001                                   __CFG_WRTB$OFF 000000  
                                 __CFG_WRTC$OFF 000000                                   __CFG_WRTD$OFF 000000  
                                ?_INT1_CallBack 0001                                  __CFG_EBTRB$OFF 000000  
                                         _flags 00D1                  ??_INT1_DefaultInterruptHandler 0001  
                                         _fputc 2480                                           _fputs 2B42  
                               __end_of_isdigit 2DD8                              __CFG_MCLRE$EXTMCLR 000000  
                                         atoi@n 007A                                           pad@fp 0078  
                                         atoi@s 006D                                           _width 00CD  
                                         _putch 30BA                                           dtoa@d 0085  
                                         dtoa@i 00A5                                           dtoa@n 009D  
                                         dtoa@p 0097                                           dtoa@s 009B  
                                         dtoa@w 0099                                  ?_INT2_CallBack 0001  
                               __end_of_isspace 2AF0                        _INT1_SetInterruptHandler 30F8  
                                ?_EUSART1_Write 0001                                           pclath 000FFA  
                                         tablat 000FF5                                  ??_EUSART1_Read 0066  
                                         ttemp5 0060                                           ttemp6 0063  
                                         ttemp7 0067                                           status 000FD8  
                                         wtemp8 0060                                 __end_of_sprintf 2A9C  
                                __CFG_HFOFST$ON 000000                                 __end_of_strncat 2756  
         fp__EUSART1_DefaultFramingErrorHandler 0000      __end_of_EUSART1_DefaultFramingErrorHandler 3176  
   __size_of_EUSART1_DefaultFramingErrorHandler 0002            ??_EUSART1_DefaultFramingErrorHandler 0001  
           ?_EUSART1_DefaultFramingErrorHandler 0001              _EUSART1_DefaultFramingErrorHandler 3174  
                                __CFG_PBADEN$ON 000000                                 __initialization 2B8A  
                                  __end_of_atoi 1E74                      __end_of_EUSART1_Initialize 29E0  
                                  __end_of_main 1696                                    __end_of_dtoa 197A  
                              __end_of_BusyXLCD 2C5C                              __size_of_DelayXLCD 0014  
                         __size_of_DelayPORXLCD 0026                         __end_of_TMR2_Initialize 30AA  
                                     ??_ADC_ISR 005F                                __end_of_OpenXLCD 237A  
                                        ??_atoi 006F                                          ??_main 00C7  
                                        ??_dtoa 008D                                   __activetblptr 000002  
                                 _WriteDataXLCD 2C5C                                          _ADCON0 000FC2  
                                        _ADCON1 000FC1                                          _ADCON2 000FC0  
                                        ?_fputc 0068                                          ?_fputs 0071  
                                        _ADRESH 000FC4                                          _ADRESL 000FC3  
                                        _CCPR1H 000FBF                                          _CCPR1L 000FBE  
                       main@contador_caracteres 00C8                                          _ANSELA 000F38  
                                        ?_putch 0001                                          _ANSELB 000F39  
                                        _ANSELC 000F3A                                          _ANSELD 000F3B  
                                        _ANSELE 000F3C                    __size_of_EUSART1_is_rx_ready 0018  
                                        i2l1112 247E                                          i2l1410 125A  
                                        i2l1402 1160                                          i2l1411 1248  
                                        i2l1343 08A8                                          i2l1360 09C2  
                                        i2l1352 0B78                                          i2l1344 0896  
                                        i2l1408 11E2                                          i2l4000 119A  
                                        i2l1345 085C                                          i2l1433 0FA2  
                                        i2l1370 0A80                                          i2l4010 11E0  
                                        i2l4002 11AC                                          i2l4020 1240  
                                        i2l4004 11C2                                          i2l4012 11F2  
                                        i2l1436 0E34                                          i2l4100 0C88  
                                        i2l1429 0C3E                                          i2l4030 12AE  
                                        i2l4014 1200                                          i2l4006 11C8  
                                        i2l1446 0F64                                          i2l1438 0EAC  
                                        i2l4110 0CDA                                          i2l4102 0C9E  
                                        i2l1470 1B88                                          i2l1439 0E9A  
                                        i2l4040 1318                                          i2l4024 126A  
                                        i2l4032 12B2                                          i2l4016 1204  
                                        i2l4008 11D2                                          i2l4120 0D20  
                                        i2l4112 0CE8                                          i2l4104 0CAA  
                                        i2l4200 23E4                                          i2l1369 0A92  
                                        i2l1473 1CE4                                          i2l4042 131C  
                                        i2l4034 12CC                                          i2l4026 1276  
                                        i2l4018 1212                                          i2l4130 0D8E  
                                        i2l4122 0D3A                                          i2l4114 0CF4  
                                        i2l4106 0CC2                                          i2l4210 2414  
                                        i2l4202 23F2                                          i2l4044 132A  
                                        i2l4036 12E2                                          i2l4028 1284  
                                        i2l4140 0E24                                          i2l4132 0DB8  
                                        i2l4124 0D4A                                          i2l4116 0D04  
                                        i2l4108 0CCE                                          i2l4060 0B94  
                                        i2l4220 243E                                          i2l4212 241E  
                                        i2l1484 1C7C                                          i2l4300 2E90  
                                        i2l1397 133C                                          i2l1477 1C20  
                                        i2l4046 1330                                          i2l4038 12FC  
                                        i2l4150 0E64                                          i2l4142 0E32  
                                        i2l4134 0DEE                                          i2l4126 0D66  
                                        i2l4118 0D10                                          i2l4070 0BCC  
                                        i2l4062 0B96                                          i2l4222 244E  
                                        i2l4230 1B34                                  __CFG_WDTEN$OFF 000000  
                                        i2l1399 119C                                          i2l4048 1332  
                                        i2l4160 0ED6                                          i2l4152 0E92  
                                        i2l4144 0E44                                          i2l4136 0DFC  
                                        i2l4128 0D72                                          i2l4080 0BF8  
                                        i2l4072 0BDC                                          i2l4064 0BA6  
                                        i2l4056 0B7A                                          i2l4224 245E  
                                        i2l4208 240A                                          i2l4232 1B44  
                                        i2l4170 0F4C                                          i2l4162 0F00  
                                        i2l4146 0E52                                          i2l4138 0E1A  
                                        i2l4090 0C4E                                          i2l4082 0C08  
                                        i2l4074 0BE2                                          i2l4066 0BB6  
                                        i2l4058 0B86                                          i2l4226 246E  
                                        i2l4218 2432                                          i2l4250 1C0A  
                                        i2l4242 1BC2                                          i2l4234 1B52  
                                        i2l4172 0F68                                          i2l4180 0F8E  
                                        i2l4156 0EBC                                          i2l4164 0F04  
                                        i2l4148 0E56                                          i2l4092 0C5E  
                                        i2l4084 0C18                                          i2l4076 0BE8  
                                        i2l4068 0BC6                                          i2l4260 1C8A  
                                        i2l4252 1C16                                          i2l4244 1BCA  
                                        i2l4236 1B98                                          i2l4182 0F92  
                                        i2l4174 0F78                                          i2l4166 0F1E  
                                        i2l4158 0EC8                                          i2l4086 0C28  
                                        i2l4078 0BF6                                          i2l4270 1CD2  
                                        i2l4262 1C8C                                          i2l4254 1C52  
                                        i2l4246 1BD6                                          i2l4238 1BAE  
                                        i2l3550 3168                                          i2l3552 3086  
                                        i2l3800 0844                                          i2l3720 06D4  
                                        i2l4176 0F86                                          i2l4168 0F32  
                                        i2l4096 0C72                                          i2l4088 0C2E  
                                        i2l4192 23A4                                          i2l4272 1CD4  
                                        i2l4264 1C90                                          i2l4256 1C5E  
                                        i2l4248 1C08                                          i2l4600 2646  
                                        i2l3810 0888                                          i2l3802 0854  
                                        i2l3730 0708                                          i2l3722 06D6  
                                        i2l4178 0F88                                          i2l4098 0C7E  
                                        i2l4194 23CE                                          i2l4186 237A  
                                        i2l4266 1CB4                                          i2l4258 1C6C  
                                        i2l4370 2164                                          i2l3570 2F30  
                                        i2l4362 315C                                          i2l4610 26B8  
                                        i2l4602 2660                                          i2l3650 296A  
                                        i2l3642 2914                                          i2l4290 2EDC  
                                        i2l4530 2DF6                                          i2l4522 2DD8  
                                        i2l3900 0B38                                          i2l3812 088A  
                                        i2l3804 086A                                          i2l3740 073A  
                                        i2l3724 06E6                                          i2l3732 0710  
                                        i2l3716 06BA                                          i2l4196 23D0  
                                        i2l4188 2390                                          i2l4268 1CC4  
                                        i2l4380 2266                                          i2l4372 2170  
                                        i2l3572 2F34                                          i2l3564 2F0C  
                                        i2l4364 3162                                          i2l4612 26D8  
                                        i2l4604 266E                                          i2l3644 2922  
                                        i2l4292 2EF0                                          i2l4532 314E  
                                        i2l3660 2902                                          i2l3652 28AC  
                                        i2l4540 313E                                          i2l4524 2DDA  
                                        i2l3910 0B58                                          i2l3902 0B3C  
                                        i2l3830 0912                                          i2l3822 08DA  
                                        i2l3814 0894                                          i2l3806 0876  
                                        i2l3750 0770                                          i2l3742 0740  
                                        i2l3734 0720                                          i2l3726 06F6  
                                        i2l3718 06C6                                          i2l4198 23E0  
                                        i2l4374 21E0                                          i2l3566 2F1E  
                                        i2l4606 2680                                          i2l3646 293A  
                                        i2l4534 3150                                          i2l3654 28BA  
                                        i2l4294 2EAC                                          i2l3670 279A  
                                        i2l3662 2756                                          i2l4542 3140  
                                        i2l4366 2F88                                          i2l4526 2DE0  
                                        i2l3912 0B66                                          i2l3904 0B4A  
                                        i2l3832 0916                                          i2l3824 08EA  
                                        i2l3816 08B6                                          i2l3840 0936  
                                        i2l3808 087A                                          i2l3760 07AC  
                                        i2l3752 0780                                          i2l3744 074E  
                                        i2l3736 0726                                          i2l3728 0706  
                                        i2l3920 0FB0                                          i2l4376 2244  
                                        i2l4544 2E4A                                          i2l3568 2F20  
                                        i2l4608 269A                                          i2l3648 2952  
                                        i2l3656 28D2                                          i2l4296 2EC0  
                                        i2l4536 3146                                          i2l3672 27B0  
                                        i2l3664 2760                                          i2l4368 2FAA  
                                        i2l4528 2DE4                                          i2l3914 0B68  
                                        i2l3906 0B50                                          i2l3842 095C  
                                        i2l3850 09B2                                          i2l3834 0924  
                                        i2l3826 08F8                                          i2l3818 08C6  
                                        i2l3770 07CA                                          i2l3762 07BA  
                                        i2l3754 0782                                          i2l3746 0750  
                                        i2l3738 0738                                          i2l3930 0FF0  
                                        i2l3922 0FBE                                          i2l4378 225E  
                                        i2l4546 2E5E                                          i2l3658 28EA  
                                        i2l4538 3148                                          i2l3666 276E  
                                        i2l4298 2E7C                                          i2l4730 003E  
                                        i2l3908 0B52                                          i2l3860 0A06  
                                        i2l3852 09D8                                          i2l3844 0990  
                                        i2l3836 0926                                          i2l3828 0906  
                                        i2l3780 07DE                                          i2l3772 07CE  
                                        i2l3764 07BE                                          i2l3748 0760  
                                        i2l3756 078A                                          i2l3940 1016  
                                        i2l3932 0FF2                                          i2l3924 0FC0  
                                        i2l4548 2E78                                          i2l3668 2784  
                                        i2l4740 00B4                                          i2l4732 0054  
                                        i2l3870 0A30                                          i2l3862 0A14  
                                        i2l3854 09E8                                          i2l3846 0992  
                                        i2l3838 0930                                          i2l3790 07F2  
                                        i2l3782 07E2                                          i2l3774 07D2  
                                        i2l3766 07C2                                          i2l3758 079A  
                                        i2l3950 1056                                          i2l3942 1024  
                                        i2l3926 0FD0                                          i2l3934 0FFA  
                                        i2l3918 0FA4                                          i2l4750 010A  
                                        i2l4742 00C2                                          i2l4734 0062  
                                        i2l4726 0022                                          i2l3880 0A62  
                                        i2l3872 0A40                                          i2l3864 0A16  
                                        i2l3848 09A2                                          i2l3792 07F6  
                                        i2l3784 07E6                                          i2l3776 07D6  
                                        i2l3768 07C6                                          i2l3960 1096  
                                        i2l3952 1058                                          i2l3944 1026  
                                        i2l3936 100A                                          i2l3928 0FE0  
                                        i2l4744 00D8                                          i2l4736 0090  
                                        i2l4728 0030                                          i2l3890 0ABC  
                                        i2l3882 0A78                                          i2l3866 0A24  
                                        i2l3858 09FC                                          i2l3874 0A42  
                                        i2l3786 07EA                                          i2l3778 07DA  
                                        i2l3794 07FA                                          i2l3970 10C6  
                                        i2l3962 109E                                          i2l3946 1036  
                                        i2l3954 1060                                          i2l3938 1010  
                                        i2l4594 2616                                          i2l4746 00E6  
                                        i2l4738 009E                                          i2l3892 0AF6  
                                        i2l3868 0A2C                                          i2l3876 0A50  
                                        i2l3796 07FE                                          i2l3788 07EE  
                                        i2l3980 1104                                          i2l3972 10C6  
                                        i2l3964 10A2                                          i2l3956 1070  
                                        i2l3948 1046                                          i2l4596 2628  
                                        i2l4748 00FC                                          i2l3886 0AA2  
                                        i2l3894 0AF8                                          i2l3878 0A54  
                                        i2l3798 0828                                          i2l3990 1150  
                                        i2l3982 1114                                          i2l3958 1086  
                                        i2l4598 2636                                          i2l3896 0B08  
                                        i2l3888 0AAE                                          i2l3992 115E  
                                        i2l3984 1124                                          i2l3976 10DA  
                                        i2l3968 10B6                                          i2l3898 0B18  
                                        i2l3994 116A                                          i2l3986 112C  
                                        i2l3978 10F4                                          i2l3996 1188  
                                        i2l3988 113C                                          i2l3998 118A  
                                        _RCREG1 000FAE                                          _RCSTA1 000FAB  
                                        _OSCCON 000FD3                               _temp_ambiente_LCD 0130  
                                        _SPBRG1 000FAF                                          _TXREG1 000FAD  
                              __end_of___xxtofl 1CE6                                          _TXSTA1 000FAC  
                                  _DelayPORXLCD 2FFC                                  __CFG_XINST$OFF 000000  
                                     ??_Timer_0 0001                                    _CCPTMRS0bits 000F49  
                             _temp_alarme_intro 00EB                                    vfprintf@cfmt 00BD  
          __size_of_ADC_DefaultInterruptHandler 0002                __size_of_ADC_SetInterruptHandler 000A  
                                     ??___aodiv 0076                                       ??___fladd 0030  
                                     ??___aomod 0076                                          ___wmul 2F60  
                                     ??___fldiv 0040                                  __CFG_STVREN$ON 000000  
                                     ??___flmul 0017                                       ??___fltol 0055  
                      ?_EUSART1_SetErrorHandler 0066                                ?_TMR0_Initialize 0001  
                                        clear_0 2BB0                                          clear_1 2BBC  
                                        _printf 2F38                                          pad@buf 007A  
              ??_EUSART1_SetOverrunErrorHandler 0068                 ?_EUSART1_SetOverrunErrorHandler 0066  
                               ??_INT0_CallBack 0001                                  ?_WriteDataXLCD 0001  
                                        dtoa@fp 0083                                          _strlen 2D64  
                                        fputc@c 0068            __end_of_INT2_DefaultInterruptHandler 3170  
         __size_of_INT2_DefaultInterruptHandler 0002                    _INT2_DefaultInterruptHandler 316E  
                                        fputs@c 0075                                          fputs@i 0076  
                                        fputs@s 0071                                       ??_isdigit 0068  
                               ??_INT1_CallBack 0001                                    __mediumconst 0000  
                                     ??_isspace 0068                                          tblptrh 000FF7  
                                        tblptrl 000FF6                                          tblptru 000FF8  
                              __end_of_putsXLCD 2842                                 ??_INT2_CallBack 0001  
                              __end_of_vfprintf 2A42                                 ??_EUSART1_Write 0066  
       ADC_SetInterruptHandler@InterruptHandler 0066        INT2_SetInterruptHandler@InterruptHandler 0066  
      INT1_SetInterruptHandler@InterruptHandler 0066        INT0_SetInterruptHandler@InterruptHandler 0066  
      TMR0_SetInterruptHandler@InterruptHandler 0066                                       ??_sprintf 00C5  
                                     ??_strncat 0070                                 _eusart1RxBuffer 0108  
                 __size_of_INTERRUPT_Initialize 000E                               __end_of_DelayXLCD 3086  
                                  ___xxtofl@arg 000B                                    ___xxtofl@exp 000A  
               ?_INTERRUPT_InterruptManagerHigh 0001                ??_INTERRUPT_InterruptManagerHigh 0060  
                             _SYSTEM_Initialize 2FB0                                    ___xxtofl@val 0001  
                                    __accesstop 0060                         __end_of__initialization 2BC2  
                                     ?_INT0_ISR 0001                                       ?_INT1_ISR 0001  
                                     ?_INT2_ISR 0001                              ?_SYSTEM_Initialize 0001  
                                 ___rparam_used 000001                                      ___fltol@f1 0051  
                __size_of_EUSART1_RxDataHandler 002C                   __end_of_EUSART1_RxDataHandler 2F38  
                             ?_EPWM1_Initialize 0001                    __size_of_ADC_StartConversion 0004  
                                __pcstackCOMRAM 0001                                    __pidataBANK0 3156  
                           ??_SYSTEM_Initialize 006A                                       ?_TMR0_ISR 0001  
                            ??_EPWM1_Initialize 0066                                   __end_of_fputc 254C  
                                 __end_of_fputs 2B8A                                   __end_of_putch 30C8  
                              ?_TMR2_Initialize 0001                        __end_of_LCD_inicio_teste 28AC  
                          __end_of_EUSART1_Read 2B42                         _ADC_GetConversionResult 3086  
                   __size_of_EXT_INT_Initialize 003E                                    _alarme_ativo 00D3  
              __end_of_INT2_SetInterruptHandler 30F8                     __end_of_EUSART1_Receive_ISR 26DE  
               fp__INT2_DefaultInterruptHandler 0000                   ?_INT2_DefaultInterruptHandler 0001  
                                       ??_fputc 006C                       __end_of_SYSTEM_Initialize 2FD6  
                                       ??_fputs 0075                          __size_of_DelayFor18TCY 0010  
                                       ??_putch 0067                                   _eusart1RxHead 00EA  
                                 _eusart1RxTail 00E9                                      __pbssBANK0 00CB  
                                    __pbssBANK1 0100                                       ?_BusyXLCD 0001  
               ??_EUSART1_SetRxInterruptHandler 0068                                 __CFG_PLLCFG$OFF 000000  
                               WriteCmdXLCD@cmd 0066                           _INT0_InterruptHandler 015A  
                                    ??_INT0_ISR 0001                                      ??_INT1_ISR 0001  
                                    ??_INT2_ISR 0001                                       ?_OpenXLCD 0001  
               __end_of_EUSART1_SetErrorHandler 3134                              __CFG_CCP2MX$PORTC1 000000  
                             WriteDataXLCD@data 0066                __end_of_TMR0_SetInterruptHandler 30EE  
                                       ?___wmul 0066                                      ??_TMR0_ISR 0002  
                            __CFG_CCP3MX$PORTB5 000000                                         _CCP1CON 000FBD  
                               ??_WriteDataXLCD 0066                                         _ECCP1AS 000FB6  
                                       _ADC_ISR 2E4A                                         ?_printf 00BF  
                       __size_of_ADC_Initialize 0026                                         ?_strlen 0066  
        __end_of_EUSART1_SetFramingErrorHandler 312A         __size_of_EUSART1_SetFramingErrorHandler 000A  
                _EUSART1_SetFramingErrorHandler 3120                      ??_INT1_SetInterruptHandler 0068  
                                     ?___xxtofl 0001                    ?_EUSART1_DefaultErrorHandler 0001  
                                       _OSCCON2 000FD2                              __size_of_vfpfcnvrt 01B8  
                                       _OSCTUNE 000F9B                                         _PWM1CON 000FB7  
                                       _SPBRGH1 000FB0                        __size_of_ADC_temperatura 010C  
                            fp__ADC_temperatura 0000                                      ??_BusyXLCD 0066  
             __size_of_INT0_SetInterruptHandler 000A                       __size_of_teclado_coluna_1 0068  
                     __size_of_teclado_coluna_2 0068                       __size_of_teclado_coluna_3 0078  
                     ?_INT0_SetInterruptHandler 0066                                      ??_OpenXLCD 0067  
                               __CFG_PWRTEN$OFF 000000                            _ADC_InterruptHandler 0152  
                                       __Hparam 0000                         _ADC_SetInterruptHandler 3134  
                                       __Lparam 0000                                         _Timer_0 2F88  
                                       ___aodiv 1E74                                         ___fladd 06BA  
                                       ___aomod 1FFE                                         ___fldiv 0FA4  
                                 _DelayFor18TCY 30AA                                         ___flmul 0B7A  
                                       ___fltol 237A                                 __size_of___wmul 0028  
                            _temp_alarme_string 0144                                       ?_putsXLCD 0067  
                                     ?_vfprintf 00B7                                    __psmallconst 0600  
                           _EUSART1_is_rx_ready 305A                       ??_ADC_GetConversionResult 0003  
                                       __pcinit 2B8A                                         __ramtop 0600  
                                       __ptext0 133E                                         __ptext1 26DE  
                                       __ptext2 2A42                                         __ptext3 27CE  
                                       __ptext4 2C5C                                         __ptext5 2F38  
                                       __ptext6 29E0                                         __ptext7 197A  
                                       __ptext8 1696                                         __ptext9 254C  
                               __size_of_printf 0028                                       _T0CONbits 000FD5  
                               __size_of_strlen 003A                           _OSCILLATOR_Initialize 30C8  
                                     _T2CONbits 000FBA                                    __size_of_abs 0042  
                                  __size_of_pad 00CA                                         _isdigit 2D9E  
                                    ??___xxtofl 0005                                         _tecla_n 00E5  
                            _EUSART1_Initialize 297C                        ??_PIN_MANAGER_Initialize 0066  
                                       _isspace 2A9C                   ??_EUSART1_DefaultErrorHandler 0001  
                                       atoi@neg 0073                      __size_of_SYSTEM_Initialize 0026  
                                       _sprintf 2A42                                         _strncat 26DE  
                          end_of_initialization 2BC2                            ?_EUSART1_is_rx_ready 0001  
                      _INT2_SetInterruptHandler 30EE                             ?_EUSART1_Initialize 0001  
                ??_INT2_DefaultInterruptHandler 0001                                         fputc@fp 006A  
                                 __Lmediumconst 0000                     _EUSART1_OverrunErrorHandler 014E  
                                       fputs@fp 0073           __end_of_EUSART1_SetRxInterruptHandler 3116  
        __size_of_EUSART1_SetRxInterruptHandler 000A                   _EUSART1_SetRxInterruptHandler 310C  
                             __end_of_vfpfcnvrt 1B32                            _ADC_temperatura$2715 005B  
                                ?_DelayFor18TCY 0001                                         postdec1 000FE5  
                                       postdec2 000FDD                                         postinc0 000FEE  
                                       postinc1 000FE6                                         postinc2 000FDE  
                         __size_of_EUSART1_Read 0052                                      _temp_mudou 00DB  
                                    ??_putsXLCD 0069                                      ??_vfprintf 00BD  
                                    fp__Timer_0 0000                            ??_EUSART1_Initialize 0068  
                                       strlen@a 0068                                         strlen@s 0066  
                      _TMR0_SetInterruptHandler 30E4                           _INT1_InterruptHandler 0158  
                                     _PORTBbits 000F81                                     ___fladd@grs 0037  
           __end_of_ADC_DefaultInterruptHandler 3178                     _ADC_DefaultInterruptHandler 3176  
                                 ___xxtofl@sign 0009                                       _TRISDbits 000F95  
                           _ADC_StartConversion 3168                                     ___fldiv@grs 004B  
                                   ___fldiv@rem 0044                __size_of_EUSART1_SetErrorHandler 000A  
                           EUSART1_Write@txData 0066                           ??_EUSART1_is_rx_ready 0066  
                                   ___flmul@grs 001C                   ??_ADC_DefaultInterruptHandler 0001  
                     ??_ADC_SetInterruptHandler 0068                                     _CCP1CONbits 000FBD  
                             ??_ADC_temperatura 005B                                    _EUSART1_Read 2AF0  
                                     _DelayXLCD 3072                                      main@rxData 00CA  
                             __size_of_INT0_ISR 0008                               __size_of_INT1_ISR 0008  
                             __size_of_INT2_ISR 0008            __size_of_EUSART1_DefaultErrorHandler 0006  
                          ?_ADC_StartConversion 0001                    __end_of_INTERRUPT_Initialize 30E4  
          __end_of_INT0_DefaultInterruptHandler 3174           __size_of_INT0_DefaultInterruptHandler 0002  
                  _INT0_DefaultInterruptHandler 3172                                     vfpfcnvrt@ap 00AB  
                                   vfpfcnvrt@fp 00A7                                     vfpfcnvrt@ll 00AF  
                                __end_of___wmul 2F88                               __size_of_TMR0_ISR 003A  
                                _ADC_Initialize 2FD6                               ?_LCD_inicio_teste 0001  
                        ?_OSCILLATOR_Initialize 0001                                  __end_of_printf 2F60  
                         __end_of_INT0_CallBack 2F0C                              ??_LCD_inicio_teste 0067  
                                __end_of_strlen 2D9E                             start_initialization 2B8A  
                     __size_of_EPWM1_Initialize 0020                        __size_of_TMR0_Initialize 0038  
               __size_of_PIN_MANAGER_Initialize 0046                                     __end_of_abs 2D26  
                         __end_of_INT1_CallBack 2EDC                                     __end_of_pad 2616  
 EUSART1_SetRxInterruptHandler@interruptHandler 0066                                   _tecla_premida 00EC  
                                _codigo_digital 00D9                                     putch@txData 0067  
                         __end_of_INT2_CallBack 2EAC                           __end_of_EUSART1_Write 305A  
                        fp__EUSART1_Receive_ISR 0000                                _teclado_coluna_1 2914  
                              _teclado_coluna_2 28AC                                _teclado_coluna_3 2756  
                             __size_of_BusyXLCD 0046                                      ?_DelayXLCD 0001  
                               ??_DelayFor18TCY 0066                           ??_ADC_StartConversion 0001  
                                   vfprintf@fmt 00B9                               __size_of_OpenXLCD 010A  
                                      ??___wmul 006A                           _EUSART1_RxDataHandler 2F0C  
                                 ?_WriteCmdXLCD 0001                  ?_EUSART1_SetRxInterruptHandler 0066  
                        __end_of_ADC_Initialize 2FFC                                     __pdataBANK0 00ED  
                                      ?_ADC_ISR 0001                      __end_of_EXT_INT_Initialize 2D64  
               fp__INT0_DefaultInterruptHandler 0000                   ?_INT0_DefaultInterruptHandler 0001  
                                      ??_printf 00C3                                        ??_strlen 0068  
                                _eusart1RxCount 00E8                                       ___fladd@a 002C  
                                     ___fladd@b 0028                                       ___fldiv@a 003C  
                                     ___fldiv@b 0038                                       ___flmul@a 0013  
                                     ___flmul@b 000F               _EUSART1_RxDefaultInterruptHandler 0154  
              __end_of_INT0_SetInterruptHandler 310C                                   __pcstackBANK0 0060  
                                 __pcstackBANK1 015C                                ___aodiv@dividend 0066  
                      __size_of_TMR2_Initialize 0010                               __size_of___xxtofl 01B4  
              ??_EUSART1_SetFramingErrorHandler 0068                 ?_EUSART1_SetFramingErrorHandler 0066  
                  __size_of_EUSART1_Receive_ISR 00C8                           _INT2_InterruptHandler 0156  
                                     _atoi$2310 0079                                       _atoi$2311 0077  
                                     _atoi$2309 0075                           _TMR0_InterruptHandler 00F5  
                                     __pnvBANK0 00F3                                       __pnvBANK1 014C  
                                putsXLCD@buffer 0067                          _PIN_MANAGER_Initialize 2BD0  
                                     _dtoa$1834 0095                                        ?_Timer_0 0001  
                                     __pintcode 0008                                  ??_WriteCmdXLCD 0066  
                                      ?___aodiv 0066                                        ?___fladd 0028  
                                      ?___aomod 0066                                        ?___fldiv 0038  
                              ___aodiv@quotient 0078                                        ?___flmul 000F  
                                      ?___fltol 0051                                 ?_ADC_Initialize 0001  
                              __CFG_PRICLKEN$ON 000000                               __size_of_putsXLCD 0074  
                         __end_of_WriteDataXLCD 2CA0                               __size_of_vfprintf 0062  
                                   __smallconst 0600                      ??_INT2_SetInterruptHandler 0068  
                                      _BAUDCON1 000FB8           fp__EUSART1_DefaultOverrunErrorHandler 0000  
    __end_of_EUSART1_DefaultOverrunErrorHandler 3162     __size_of_EUSART1_DefaultOverrunErrorHandler 0006  
          ??_EUSART1_DefaultOverrunErrorHandler 0001             ?_EUSART1_DefaultOverrunErrorHandler 0001  
            _EUSART1_DefaultOverrunErrorHandler 315C                                        ?_isdigit 0066  
                          _EUSART1_ErrorHandler 014C                                        ?_isspace 0066  
                       _EUSART1_SetErrorHandler 312A                                        ?_sprintf 00BF  
                                __size_of_fputc 00CC                                  __size_of_fputs 0048  
                                      ?_strncat 006A                                  __size_of_putch 000E  
                          _INTERRUPT_Initialize 30D6                               ??_TMR0_Initialize 0068  
                                      _INT0_ISR 314E                                        _INT1_ISR 3146  
                                      _INT2_ISR 313E                                  ___wmul@product 006A  
                                      _LATAbits 000F89         EUSART1_SetErrorHandler@interruptHandler 0066  
                                      _LATBbits 000F8A                                        _LATDbits 000F8C  
             __size_of_INT1_SetInterruptHandler 000A                       ?_INT1_SetInterruptHandler 0066  
                                   ??_DelayXLCD 0066                                        _IPR1bits 000F9F  
                                      _PIE1bits 000F9D                                   ?_DelayPORXLCD 0001  
                                      i2u300_40 06E6                                        i2u300_41 06E2  
                                      i2u301_40 06F6                                        i2u301_41 06F2  
                                      i2u310_40 0842                                        i2u302_40 0738  
                                      i2u302_41 0734                                        i2u311_40 086A  
                                      i2u303_40 074E                                        i2u311_41 0866  
                                      i2u303_41 074A                                        i2u320_40 09A2  
                                      i2u312_40 0888                                        i2u304_40 0760  
                                      i2u320_41 099E                                        i2u312_41 0884  
                                      i2u304_41 075C                                        i2u321_40 09D8  
                                      i2u313_40 08A8                                        i2u305_40 0770  
                                      i2u400_48 2EC6                                        i2u401_40 2E90  
                                      i2u321_41 09D4                                        i2u313_41 08A4  
                                      i2u305_41 076C                                        i2u400_49 2EDA  
                                      i2u401_41 2E8C                                        i2u330_40 0AA2  
                                      i2u322_40 09E8                                        i2u314_40 08B6  
                                      i2u306_40 07AC                                        i2u330_41 0A9E  
                                      i2u322_41 09E4                                        i2u314_41 08B2  
                                      i2u306_41 07A8                                        i2u331_40 0ABC  
                                      i2u323_40 0A14                                        i2u315_40 08C6  
                                      i2u307_40 07BA                                        i2u402_48 2E96  
                                      i2u403_40 2F98                                        i2u331_41 0AB8  
                                      i2u323_41 0A10                                        i2u315_41 08C2  
                                      i2u307_41 07B6                                        i2u402_49 2EAA  
                                      i2u403_41 2F92                                        i2u403_46 2F9A  
                                      i2u332_40 0AF6                                        i2u324_40 0A24  
                                      i2u316_40 08F8                                        i2u308_40 0828  
                                      i2u340_40 0FE0                                        i2u404_40 225E  
                                      i2u332_41 0AF2                                        i2u324_41 0A20  
                                      i2u316_41 08F4                                        i2u308_41 0824  
                                      i2u340_41 0FDC                                        i2u404_41 225A  
                                      i2u333_40 0B08                                        i2u325_40 0A40  
                                      i2u317_40 0906                                        i2u309_40 0840  
                                      i2u341_40 1024                      ??_TMR0_SetInterruptHandler 0068  
                                      i2u333_41 0B04                                        i2u325_41 0A3C  
                                      i2u317_41 0902                                        i2u309_41 083A  
                                      i2u341_41 1020                                        i2u334_40 0B18  
                                      i2u326_40 0A50                                        i2u318_40 0924  
                                      i2u350_40 11C2                                        i2u342_40 1036  
                                      i2u334_41 0B14                                        i2u326_41 0A4C  
                                      i2u318_41 0920                                        i2u350_41 11BE  
                                      i2u342_41 1032                                        i2u335_40 0B38  
                                      i2u327_40 0A62                                        i2u319_40 095C  
                                      i2u351_40 11E0                                        i2u343_40 1046  
                                      i2u335_41 0B34                                        i2u327_41 0A5E  
                                      i2u319_41 0958                                        i2u351_41 11DC  
                                      i2u343_41 1042                                        i2u336_40 0B4A  
                                      i2u328_40 0A78                                        i2u360_40 132A  
                                      i2u352_40 1200                                        i2u344_40 1086  
                                      i2u424_40 2636                                        i2u416_40 2DF6  
                                      i2u336_41 0B46                                        i2u328_41 0A74  
                                      i2u360_41 1326                                        i2u352_41 11FC  
                                      i2u344_41 1082                                        i2u424_41 2632  
                                      i2u416_41 2DF2                                        i2u337_40 0B66  
                                      i2u329_40 0A8E                                        i2u353_40 1212  
                                      i2u345_40 10C6                                        i2u361_40 0B94  
                                      i2u281_40 2F30                                        i2u337_41 0B62  
                                      i2u329_41 0A8A                                        i2u353_41 120E  
                                      i2u345_41 10C2                                        i2u361_41 0B90  
                                      i2u281_41 2F2C                                        _PIR1bits 000F9E  
                               OpenXLCD@lcdtype 0001                                        i2u354_40 1240  
                                      i2u346_40 113C                                        i2u338_40 0FBE  
                                      i2u370_40 0E32                                        i2u362_40 0BA6  
                                      i2u418_40 2E5E                                        i2u426_40 266E  
                                      i2u425_48 264C                                        i2u290_40 2902  
                                      i2u417_48 2DFC                                        i2u450_40 0062  
                                      i2u354_41 123C                                        i2u346_41 1138  
                                      i2u338_41 0FBA                                        i2u370_41 0E2E  
                                      i2u362_41 0BA2                                        i2u418_41 2E5A  
                                      i2u426_41 266A                                        i2u425_49 2660  
                                      i2u290_41 28FE                                        i2u417_49 2E10  
                                      i2u450_41 005E                                        i2u355_40 1256  
                                      i2u347_40 115E                                        i2u339_40 0FD0  
                                      i2u371_40 0E52                                        i2u363_40 0BB6  
                                      i2u283_40 2922                                        i2u291_40 276E  
                                      i2u355_41 1252                                        i2u347_41 115A  
                                      i2u339_41 0FCC                                        i2u371_41 0E4E  
                                      i2u363_41 0BB2                                        i2u283_41 291E  
                                      i2u291_41 276A                                        i2u356_40 126A  
                                      i2u348_40 1188                                        i2u372_40 0E64  
                                      i2u364_40 0BF6                                        i2u380_40 2390  
                                      i2u419_48 2E64                                        i2u428_40 26B8  
                                      i2u427_48 2686                                        i2u284_40 293A  
                                      i2u292_40 2784                                        i2u452_40 0090  
                                      i2u451_48 0068                                        i2u356_41 1266  
                                      i2u348_41 1184                                        i2u372_41 0E60  
                                      i2u364_41 0BF2                                        i2u380_41 238C  
                                      i2u419_49 2E78                                        i2u428_41 26B4  
                                      i2u427_49 269A                                        i2u284_41 2936  
                                      i2u292_41 2780                                        i2u452_41 008C  
                                      i2u451_49 007E                                        i2u357_40 1284  
                                      i2u349_40 11AC                                        i2u373_40 0E92  
                                      i2u365_40 0C08                                        i2u381_40 23C4  
                                      i2u285_40 2952                                        i2u293_40 279A  
                                      i2u453_40 009E                                        i2u357_41 1280  
                                      i2u349_41 11A8                                        i2u373_41 0E8E  
                                      i2u365_41 0C04                                        i2u285_41 294E  
                                      i2u293_41 2796                                        i2u453_41 009A  
                                      i2u381_45 23BA                                        i2u358_40 12CC  
                                      i2u374_40 0EA8                                        i2u366_40 0C18  
                                      i2u382_40 23F2                                        i2u390_40 1C04  
                                      i2u429_48 26BE                                        i2u286_40 296A  
                                      i2u294_40 27B0                                        i2u454_40 00B4  
                                      i2u358_41 12C8                                        i2u374_41 0EA4  
                                      i2u366_41 0C14                                        i2u382_41 23EE  
                                      i2u390_41 1C00                                        i2u429_49 26D4  
                                      i2u286_41 2966                                        i2u294_41 27AC  
                                      i2u454_41 00B0                                        i2u359_40 12FC  
                                      i2u375_40 0EBC                                        i2u367_40 0C4E  
                                      i2u383_40 2406                                        i2u391_40 1C4E  
                                      i2u287_40 28BA                                        i2u455_40 00C2  
                                      i2u447_40 0030                                        i2u359_41 12F8  
                                      i2u375_41 0EB8                                        i2u367_41 0C4A  
                                      i2u383_41 2402                                        i2u391_41 1C4A  
                                      i2u287_41 28B6                                        i2u455_41 00BE  
                                      i2u447_41 002C                                        i2u376_40 0ED6  
                                      i2u368_40 0C5E                                        i2u384_40 242E  
                                      i2u392_40 1C6C                                        i2u288_40 28D2  
                                      i2u456_40 00D8                                        i2u448_40 003E  
                                      i2u376_41 0ED2                                        i2u368_41 0C5A  
                                      i2u384_41 242A                                        i2u392_41 1C68  
                                      i2u288_41 28CE                                        i2u456_41 00D4  
                                      i2u448_41 003A                                        i2u377_40 0F1E  
                                      i2u369_40 0DD8                                        i2u385_40 244E  
                                      i2u393_40 1C7C                                        i2u289_40 28EA  
                                      i2u457_40 00E6                                        i2u449_40 0054  
                                      i2u377_41 0F1A                                        i2u385_41 244A  
                                      i2u393_41 1C78                                        i2u289_41 28E6  
                                      i2u457_41 00E2                                        i2u449_41 0050  
                                      i2u369_45 0DCE                                        i2u378_40 0F4C  
                                      i2u386_40 245E                                        i2u394_40 1C8A  
                                      i2u458_40 00FC                                        i2u378_41 0F48  
                                      i2u386_41 245A                                        i2u394_41 1C86  
                                      i2u458_41 00F8                                        i2u299_40 06D4  
                                      i2u379_40 0F86                                        i2u395_40 1CC4  
                                      i2u387_40 1B44                                        i2u459_40 010A  
                                      i2u299_41 06D0                                        i2u379_41 0F82  
                                      i2u395_41 1CC0                                        i2u387_41 1B40  
                                      i2u459_41 0106                                        i2u396_40 1CD2  
                                      i2u388_40 1B52                                        i2u396_41 1CCE  
                                      i2u388_41 1B4E                                        i2u389_40 1BAE  
                                      i2u397_40 2EF0                                        i2u389_41 1BAA  
                                      i2u397_41 2EEC                                        i2u398_48 2EF6  
                                      i2u399_40 2EC0                                        i2u398_49 2F0A  
                                      i2u399_41 2EBC                          ?_EUSART1_RxDataHandler 0001  
                                      _RCONbits 000FD0                                __CFG_WDTPS$32768 000000  
                fp__ADC_DefaultInterruptHandler 0000                                        _TMR0_ISR 2DD8  
                                      _PSTR1CON 000FB9                                       _vfpfcnvrt 197A  
                              __size_of_ADC_ISR 0032                                      _ADCON0bits 000FC2  
                             ___wmul@multiplier 0066                                   _temp_ambiente 00D7  
                              _EPWM1_Initialize 3022                  ??_INT0_DefaultInterruptHandler 0001  
                               _ADC_temperatura 2164                                    _isspace$2327 006C  
                                   _INTCON2bits 000FF1                                     _INTCON3bits 000FF0  
                                     copy_data0 2B9E                           ?_INTERRUPT_Initialize 0001  
                      _INT0_SetInterruptHandler 3102                                        _BusyXLCD 2C16  
                                   _LCD_linha_1 00EF                                     _LCD_linha_2 00ED  
                                  _tecla_limpar 00E3                               ??_TMR2_Initialize 0066  
                         EUSART1_Read@readValue 0066                                  ??_DelayPORXLCD 0066  
                                      _OpenXLCD 2270                                        __Hrparam 0000  
                                    vfprintf@ap 00BB                                        __Lrparam 0000  
                                    vfprintf@fp 00B7                        ?_ADC_GetConversionResult 0001  
                           fp__teclado_coluna_1 0000                             fp__teclado_coluna_2 0000  
                           fp__teclado_coluna_3 0000                              __CFG_BOREN$SBORDIS 000000  
                              __size_of_Timer_0 0028                               __CFG_P2BMX$PORTD2 000000  
                       ??_OSCILLATOR_Initialize 0066                                __size_of___aodiv 018A  
                              __size_of___fladd 04C0                                __size_of___aomod 0166  
                              __size_of___fldiv 039A                                __size_of___flmul 042A  
                              __size_of___fltol 0106                     __size_of_EUSART1_Initialize 0064  
                                    ?_vfpfcnvrt 00A7                                 ___aodiv@divisor 006E  
                               ___aodiv@counter 0076                        __end_of_teclado_coluna_1 297C  
                      __end_of_teclado_coluna_2 2914                        __end_of_teclado_coluna_3 27CE  
                     ??_EUSART1_SetErrorHandler 0068             __end_of_EUSART1_DefaultErrorHandler 3168  
                   _EUSART1_DefaultErrorHandler 3162                                      sprintf@fmt 00C1  
                   __end_of_EUSART1_is_rx_ready 3072                                        ___xxtofl 1B32  
                              __size_of_isdigit 003A                                __size_of_isspace 0054  
                                      __ptext10 2D64                                        __ptext11 2B42  
                                      __ptext20 2D9E                                        __ptext12 2480  
                                      __ptext21 2F60                                        __ptext13 30BA  
                                      __ptext30 30EE                                        __ptext22 2FB0  
                                      __ptext14 3042                                        __ptext31 30F8  
                                      __ptext23 309A                                        __ptext15 2CE4  
                                      __ptext40 3134                                        __ptext32 3102  
                                      __ptext24 2E12                                        __ptext16 1FFE  
                                      __ptext41 2842                                        __ptext33 297C  
                                      __ptext25 30E4                                        __ptext17 1E74  
                                      __ptext42 2270                                        __ptext34 310C  
                                      __ptext26 2BD0                                        __ptext18 1CE6  
                                      __ptext51 2DD8                                        __ptext43 2CA0  
                                      __ptext35 3116                                        __ptext27 30C8  
                                      __ptext19 2A9C                                        __ptext60 2EAC  
                                      __ptext52 316C                                        __ptext44 3072  
                                      __ptext36 3120                                        __ptext28 30D6  
                                      __ptext61 3170                                        __ptext53 2F88  
                                      __ptext45 2FFC                                        __ptext37 312A  
                                      __ptext29 2D26                                        __ptext70 3162  
                                      __ptext62 28AC                                        __ptext54 3168  
                                      __ptext46 2C16                                        __ptext38 3022  
                                      __ptext71 2F0C                                        __ptext63 314E  
                                      __ptext55 313E                                        __ptext47 30AA  
                                      __ptext39 2FD6                                        __ptext80 3086  
                                      __ptext72 2E4A                                        __ptext64 2EDC  
                                      __ptext56 2E7C                                        __ptext48 305A  
                                      __ptext81 0000                                        __ptext73 3176  
                                      __ptext65 3172                                        __ptext57 316E  
                                      __ptext49 2AF0                                        __ptext74 2164  
                                      __ptext66 2914                                        __ptext58 2756  
                                      __ptext75 1B32                                        __ptext67 2616  
                                      __ptext59 3146                                        __ptext76 237A  
                                      __ptext68 315C                                        __ptext77 0B7A  
                                      __ptext69 3174                                        __ptext78 0FA4  
                                      __ptext79 06BA                            __end_of_WriteCmdXLCD 2CE4  
                              __size_of_sprintf 005A                                __size_of_strncat 0078  
                     __size_of_LCD_inicio_teste 006A                                   __size_of_atoi 018E  
                                 __size_of_main 0358                                   __size_of_dtoa 02E4  
          __end_of_TMR0_DefaultInterruptHandler 316E           __size_of_TMR0_DefaultInterruptHandler 0002  
                  _TMR0_DefaultInterruptHandler 316C                                        _pin_real 00DF  
                                      _pin_intr 00E1  EUSART1_SetOverrunErrorHandler@interruptHandler 0066  
                                      int$flags 005F                                        _putsXLCD 27CE  
                                      _vfprintf 29E0                                       printf@fmt 00BF  
                       __end_of_ADC_temperatura 2270                     _EUSART1_FramingErrorHandler 0150  
                           _EUSART1_Receive_ISR 2616            __end_of_INT1_DefaultInterruptHandler 3172  
         __size_of_INT1_DefaultInterruptHandler 0002                    _INT1_DefaultInterruptHandler 3170  
                              ___aomod@dividend 0066                                      _INTCONbits 000FF2  
                          _contador_colunas_LCD 00F1                                        isdigit@c 0066  
                        ??_INTERRUPT_Initialize 0066                              _EXT_INT_Initialize 2D26  
                      ?_ADC_SetInterruptHandler 0066                                        intlevel2 0000  
                                     sprintf@ap 015E                            ?_EUSART1_Receive_ISR 0001  
                   __end_of_ADC_StartConversion 316C                                        isspace@c 0066  
                       ?_PIN_MANAGER_Initialize 0001                 __end_of_ADC_GetConversionResult 309A  
                           ?_EXT_INT_Initialize 0001          __end_of_EUSART1_SetOverrunErrorHandler 3120  
       __size_of_EUSART1_SetOverrunErrorHandler 000A                  _EUSART1_SetOverrunErrorHandler 3116  
                                    _RCSTA1bits 000FAB                                ??_ADC_Initialize 0068  
                        __size_of_INT0_CallBack 0030                 fp__TMR0_DefaultInterruptHandler 0000  
                 ?_TMR0_DefaultInterruptHandler 0001                           __end_of_DelayFor18TCY 30BA  
                                      printf@ap 00C5                          __size_of_INT1_CallBack 0030  
                                   _temp_alarme 00DD  EUSART1_SetFramingErrorHandler@interruptHandler 0066  
                               ___aomod@divisor 006E                                     ??_vfpfcnvrt 00AD  
                               ___aomod@counter 0076                          __size_of_INT2_CallBack 0030  
                        __size_of_EUSART1_Write 0018                              _eusart1RxLastError 00E7  
        __end_of_INTERRUPT_InterruptManagerHigh 012E         __size_of_INTERRUPT_InterruptManagerHigh 0126  
                _INTERRUPT_InterruptManagerHigh 0008                            ??_EXT_INT_Initialize 0068  
                                      sprintf@f 0160                                        sprintf@s 00BF  
               fp__INT1_DefaultInterruptHandler 0000                   ?_INT1_DefaultInterruptHandler 0001  
                          __end_of_DelayPORXLCD 3022                                 _TMR0_Initialize 2E12  
                                      strncat@d 006A                                        strncat@n 006E  
                                      strncat@s 006C                __end_of_INT1_SetInterruptHandler 3102  
                             __CFG_T3CMX$PORTC0 000000                                   ___fladd@signs 0034  
                             __CFG_FOSC$ECMPIO6 000000                                    ___aodiv@sign 0077  
                         ??_EUSART1_Receive_ISR 0001                  __end_of_PIN_MANAGER_Initialize 2C16  
                                  ___fladd@aexp 0035                                    ___fladd@bexp 0036  
                       ??_EUSART1_RxDataHandler 0001                                    ___aomod@sign 0077  
                      __end_of_EPWM1_Initialize 3042  
