

Microchip MPLAB XC8 Assembler V2.10 build 88905656 
                                                                                               Sat Mar 21 15:44:02 2020

Microchip MPLAB XC8 C Compiler v2.10 (Free license) build 20190730164152 Og1 
     1                           	processor	18F44K22
     2                           	fnconf	rparam,??,?,0
     3                           	opt	pw 120
     4                           	opt	flic
     5                           	psect	smallconst,global,reloc=2,class=SMALLCONST,delta=1,noexec
     6                           	psect	cinit,global,reloc=2,class=CODE,delta=1
     7                           	psect	cstackCOMRAM,global,class=COMRAM,space=1,delta=1,noexec
     8                           	psect	text0,global,reloc=2,class=CODE,delta=1
     9                           	psect	text1,global,reloc=2,class=CODE,delta=1
    10                           	psect	text2,global,reloc=2,class=CODE,delta=1
    11                           	psect	text3,global,reloc=2,class=CODE,delta=1
    12                           	psect	text4,global,reloc=2,class=CODE,delta=1
    13                           	psect	text5,global,reloc=2,class=CODE,delta=1
    14                           	psect	text6,global,reloc=2,class=CODE,delta=1
    15                           	psect	text7,global,reloc=2,class=CODE,delta=1
    16                           	psect	text8,global,reloc=2,class=CODE,delta=1
    17                           	psect	intcode,global,reloc=2,class=CODE,delta=1
    18                           	psect	text10,global,reloc=2,class=CODE,delta=1
    19                           	psect	text11,global,reloc=2,class=CODE,delta=1
    20                           	psect	text12,global,reloc=2,class=CODE,delta=1
    21                           	psect	text13,global,reloc=2,class=CODE,delta=1
    22                           	psect	text14,global,reloc=2,class=CODE,delta=1
    23                           	psect	intsave_regs,global,class=BIGRAM,space=1,delta=1,noexec
    24                           	psect	rparam,global,class=COMRAM,space=1,delta=1,noexec
    25                           	psect	temp,global,ovrld,common,class=COMRAM,space=1,delta=1
    26  0000                     
    27                           ; Version 2.10
    28                           ; Generated 31/07/2019 GMT
    29                           ; 
    30                           ; Copyright © 2019, Microchip Technology Inc. and its subsidiaries ("Microchip")
    31                           ; All rights reserved.
    32                           ; 
    33                           ; This software is developed by Microchip Technology Inc. and its subsidiaries ("Microch
      +                          ip").
    34                           ; 
    35                           ; Redistribution and use in source and binary forms, with or without modification, are
    36                           ; permitted provided that the following conditions are met:
    37                           ; 
    38                           ;     1. Redistributions of source code must retain the above copyright notice, this lis
      +                          t of
    39                           ;        conditions and the following disclaimer.
    40                           ; 
    41                           ;     2. Redistributions in binary form must reproduce the above copyright notice, this 
      +                          list
    42                           ;        of conditions and the following disclaimer in the documentation and/or other
    43                           ;        materials provided with the distribution.
    44                           ; 
    45                           ;     3. Microchip's name may not be used to endorse or promote products derived from th
      +                          is
    46                           ;        software without specific prior written permission.
    47                           ; 
    48                           ; THIS SOFTWARE IS PROVIDED BY MICROCHIP "AS IS" AND ANY EXPRESS OR IMPLIED WARRANTIES,
    49                           ; INCLUDING, BUT NOT LIMITED TO, THE IMPLIED WARRANTIES OF MERCHANTABILITY AND FITNESS F
      +                          OR
    50                           ; PURPOSE ARE DISCLAIMED.  IN NO EVENT SHALL MICROCHIP BE LIABLE FOR ANY DIRECT, INDIREC
      +                          T,
    51                           ; INCIDENTAL, SPECIAL, EXEMPLARY, OR CONSEQUENTIAL DAMAGES (INCLUDING BUT NOT LIMITED TO
    52                           ; PROCUREMENT OF SUBSTITUTE GOODS OR SERVICES; LOSS OF USE, DATA OR PROFITS; OR BUSINESS
    53                           ; INTERRUPTION) HOWSOEVER CAUSED AND ON ANY THEORY OF LIABILITY, WHETHER IN CONTRACT, ST
      +                          RICT
    54                           ; LIABILITY, OR TORT (INCLUDING NEGLIGENCE OR OTHERWISE) ARISING IN ANY WAY OUT OF THE U
      +                          SE OF
    55                           ; THIS SOFTWARE, EVEN IF ADVISED OF THE POSSIBILITY OF SUCH DAMAGE.
    56                           ; 
    57                           ; 
    58                           ; Code-generator required, PIC18F44K22 Definitions
    59                           ; 
    60                           ; SFR Addresses
    61  0000                     _ANSELE	set	3900
    62  0000                     _ANSELD	set	3899
    63  0000                     _ANSELC	set	3898
    64  0000                     _ANSELB	set	3897
    65  0000                     _ANSELA	set	3896
    66  0000                     _LATDbits	set	3980
    67  0000                     _TRISDbits	set	3989
    68  0000                     _PORTD	set	3971
    69  0000                     _LATB	set	3978
    70  0000                     _RCONbits	set	4048
    71  0000                     _WPUB	set	3937
    72  0000                     _INTCON2bits	set	4081
    73  0000                     _INTCON3	set	4080
    74  0000                     _INTCON2	set	4081
    75  0000                     _INTCON	set	4082
    76  0000                     _TRISE	set	3990
    77  0000                     _TRISC	set	3988
    78  0000                     _TRISB	set	3987
    79  0000                     _TRISA	set	3986
    80  0000                     _TRISD	set	3989
    81  0000                     _INTCON3bits	set	4080
    82  0000                     _PORTBbits	set	3969
    83  0000                     _INTCONbits	set	4082
    84                           
    85                           	psect	smallconst
    86  000300                     __psmallconst:
    87                           	opt callstack 0
    88  000300  00                 	db	0
    89  000301                     STR_5:
    90  000301  54                 	db	84	;'T'
    91  000302  65                 	db	101	;'e'
    92  000303  73                 	db	115	;'s'
    93  000304  74                 	db	116	;'t'
    94  000305  65                 	db	101	;'e'
    95  000306  20                 	db	32
    96  000307  2D                 	db	45
    97  000308  20                 	db	32
    98  000309  54                 	db	84	;'T'
    99  00030A  65                 	db	101	;'e'
   100  00030B  63                 	db	99	;'c'
   101  00030C  6C                 	db	108	;'l'
   102  00030D  61                 	db	97	;'a'
   103  00030E  64                 	db	100	;'d'
   104  00030F  6F                 	db	111	;'o'
   105  000310  00                 	db	0
   106  000311                     STR_4:
   107  000311  4D                 	db	77	;'M'
   108  000312  61                 	db	97	;'a'
   109  000313  72                 	db	114	;'r'
   110  000314  73                 	db	115	;'s'
   111  000315  20                 	db	32
   112  000316  52                 	db	82	;'R'
   113  000317  4F                 	db	79	;'O'
   114  000318  43                 	db	67	;'C'
   115  000319  4B                 	db	75	;'K'
   116  00031A  27                 	db	39
   117  00031B  53                 	db	83	;'S'
   118  00031C  21                 	db	33
   119  00031D  00                 	db	0
   120  00031E                     STR_1:
   121  00031E  31                 	db	49	;'1'
   122  00031F  00                 	db	0
   123  000320                     STR_2:
   124  000320  32                 	db	50	;'2'
   125  000321  00                 	db	0
   126  000322                     STR_3:
   127  000322  34                 	db	52	;'4'
   128  000323  00                 	db	0
   129                           
   130                           ; #config settings
   131  000324  00                 	db	0	; dummy byte at the end
   132  0000                     
   133                           	psect	cinit
   134  000856                     __pcinit:
   135                           	opt callstack 0
   136  000856                     start_initialization:
   137                           	opt callstack 0
   138  000856                     __initialization:
   139                           	opt callstack 0
   140  000856                     end_of_initialization:
   141                           	opt callstack 0
   142  000856                     __end_of__initialization:
   143                           	opt callstack 0
   144  000856  900D               	bcf	int$flags,0,c	;clear compiler interrupt flag (level 1)
   145  000858  920D               	bcf	int$flags,1,c	;clear compiler interrupt flag (level 2)
   146  00085A  0E00               	movlw	low (__Lsmallconst shr (0+16))
   147  00085C  6EF8               	movwf	tblptru,c
   148  00085E  0E03               	movlw	high __Lsmallconst
   149  000860  6EF7               	movwf	tblptrh,c
   150  000862  0100               	movlb	0
   151  000864  EF93  F001         	goto	_main	;jump to C main() function
   152                           
   153                           	psect	cstackCOMRAM
   154  000001                     __pcstackCOMRAM:
   155                           	opt callstack 0
   156  000001                     i2WriteCmdXLCD@cmd:
   157                           	opt callstack 0
   158  000001                     i2WriteDataXLCD@data:
   159                           	opt callstack 0
   160                           
   161                           ; 1 bytes @ 0x0
   162  000001                     	ds	1
   163  000002                     i2putsXLCD@buffer:
   164                           	opt callstack 0
   165                           
   166                           ; 2 bytes @ 0x1
   167  000002                     	ds	2
   168  000004                     ??_highISR:
   169  000004                     
   170                           ; 1 bytes @ 0x3
   171  000004                     	ds	4
   172  000008                     ??_DelayPORXLCD:
   173  000008                     ??_DelayXLCD:
   174  000008                     WriteCmdXLCD@cmd:
   175                           	opt callstack 0
   176  000008                     WriteDataXLCD@data:
   177                           	opt callstack 0
   178                           
   179                           ; 1 bytes @ 0x7
   180  000008                     	ds	1
   181  000009                     putsXLCD@buffer:
   182                           	opt callstack 0
   183                           
   184                           ; 2 bytes @ 0x8
   185  000009                     	ds	2
   186  00000B                     ??_main:
   187                           
   188                           ; 1 bytes @ 0xA
   189  00000B                     	ds	2
   190                           
   191 ;;
   192 ;;Main: autosize = 0, tempsize = 2, incstack = 0, save=0
   193 ;;
   194 ;; *************** function _main *****************
   195 ;; Defined at:
   196 ;;		line 103 in file "main_project.c"
   197 ;; Parameters:    Size  Location     Type
   198 ;;		None
   199 ;; Auto vars:     Size  Location     Type
   200 ;;		None
   201 ;; Return value:  Size  Location     Type
   202 ;;                  1    wreg      void 
   203 ;; Registers used:
   204 ;;		wreg, status,2, status,0, tblptrl, tblptrh, tblptru, cstack
   205 ;; Tracked objects:
   206 ;;		On entry : 0/0
   207 ;;		On exit  : 0/0
   208 ;;		Unchanged: 0/0
   209 ;; Data sizes:     COMRAM   BANK0   BANK1   BANK2
   210 ;;      Params:         0       0       0       0
   211 ;;      Locals:         0       0       0       0
   212 ;;      Temps:          2       0       0       0
   213 ;;      Totals:         2       0       0       0
   214 ;;Total ram usage:        2 bytes
   215 ;; Hardware stack levels required when called:    7
   216 ;; This function calls:
   217 ;;		_BusyXLCD
   218 ;;		_OpenXLCD
   219 ;;		_WriteCmdXLCD
   220 ;;		_putsXLCD
   221 ;; This function is called by:
   222 ;;		Startup code after reset
   223 ;; This function uses a non-reentrant model
   224 ;;
   225                           
   226                           	psect	text0
   227  000326                     __ptext0:
   228                           	opt callstack 0
   229  000326                     _main:
   230                           	opt callstack 24
   231  000326  0E00               	movlw	0
   232  000328  010F               	movlb	15	; () banked
   233  00032A  6F38               	movwf	56,b	;volatile
   234  00032C  0E00               	movlw	0
   235  00032E  6F39               	movwf	57,b	;volatile
   236  000330  0E00               	movlw	0
   237  000332  6F3A               	movwf	58,b	;volatile
   238  000334  0E00               	movlw	0
   239  000336  6F3B               	movwf	59,b	;volatile
   240  000338  0E00               	movlw	0
   241  00033A  6F3C               	movwf	60,b	;volatile
   242  00033C  0E00               	movlw	0
   243  00033E  6E95               	movwf	149,c	;volatile
   244  000340  0E01               	movlw	1
   245  000342  6E92               	movwf	146,c	;volatile
   246  000344  0E07               	movlw	7
   247  000346  6E93               	movwf	147,c	;volatile
   248                           
   249                           ;main_project.c: 145:  TRISC = 0x10000000;
   250  000348  0E00               	movlw	0
   251  00034A  6E94               	movwf	148,c	;volatile
   252                           
   253                           ;main_project.c: 148:  TRISE = 0x10000000;
   254  00034C  0E00               	movlw	0
   255  00034E  6E96               	movwf	150,c	;volatile
   256                           
   257                           ;main_project.c: 153:  INTCON = 0;
   258  000350  0E00               	movlw	0
   259  000352  6EF2               	movwf	242,c	;volatile
   260                           
   261                           ;main_project.c: 154:  INTCON2 = 0;
   262  000354  0E00               	movlw	0
   263  000356  6EF1               	movwf	241,c	;volatile
   264                           
   265                           ;main_project.c: 155:  INTCON3 = 0;
   266  000358  0E00               	movlw	0
   267  00035A  6EF0               	movwf	240,c	;volatile
   268  00035C                     
   269                           ; BSR set to: 15
   270                           ;main_project.c: 158:     INTCON2bits.RBPU = 0;
   271  00035C  9EF1               	bcf	241,7,c	;volatile
   272                           
   273                           ;main_project.c: 160:     WPUB = 0b00000111;
   274  00035E  0E07               	movlw	7
   275  000360  6E61               	movwf	97,c	;volatile
   276  000362                     
   277                           ; BSR set to: 15
   278                           ;main_project.c: 165:     RCONbits.IPEN = 0;
   279  000362  9ED0               	bcf	208,7,c	;volatile
   280  000364                     
   281                           ; BSR set to: 15
   282                           ;main_project.c: 170:     INTCONbits.RBIF = 0;
   283  000364  90F2               	bcf	242,0,c	;volatile
   284  000366                     
   285                           ; BSR set to: 15
   286                           ;main_project.c: 173:     INTCONbits.GIE = 1;
   287  000366  8EF2               	bsf	242,7,c	;volatile
   288  000368                     
   289                           ; BSR set to: 15
   290                           ;main_project.c: 180:  INTCON2bits.INTEDG0 = 0;
   291  000368  9CF1               	bcf	241,6,c	;volatile
   292  00036A                     
   293                           ; BSR set to: 15
   294                           ;main_project.c: 181:  INTCONbits.INT0IE = 1;
   295  00036A  88F2               	bsf	242,4,c	;volatile
   296  00036C                     
   297                           ; BSR set to: 15
   298                           ;main_project.c: 187:  INTCON2bits.INTEDG1 = 0;
   299  00036C  9AF1               	bcf	241,5,c	;volatile
   300  00036E                     
   301                           ; BSR set to: 15
   302                           ;main_project.c: 188:  INTCON3bits.INT1IE = 1;
   303  00036E  86F0               	bsf	240,3,c	;volatile
   304  000370                     
   305                           ; BSR set to: 15
   306                           ;main_project.c: 195:  INTCON2bits.INTEDG2 = 0;
   307  000370  98F1               	bcf	241,4,c	;volatile
   308  000372                     
   309                           ; BSR set to: 15
   310                           ;main_project.c: 196:  INTCON3bits.INT2IE = 1;
   311  000372  88F0               	bsf	240,4,c	;volatile
   312  000374                     
   313                           ; BSR set to: 15
   314                           ;main_project.c: 208:  OpenXLCD(0b00101011);
   315  000374  0E2B               	movlw	43
   316  000376  EC75  F002         	call	_OpenXLCD
   317  00037A                     l1552:
   318  00037A  EC44  F003         	call	_BusyXLCD	;wreg free
   319  00037E  0900               	iorlw	0
   320  000380  A4D8               	btfss	status,2,c
   321  000382  EFC5  F001         	goto	u661
   322  000386  EFC7  F001         	goto	u660
   323  00038A                     u661:
   324  00038A  EFBD  F001         	goto	l1552
   325  00038E                     u660:
   326  00038E                     
   327                           ;main_project.c: 218:  WriteCmdXLCD(0b00001100);
   328  00038E  0E0C               	movlw	12
   329  000390  ECA9  F003         	call	_WriteCmdXLCD
   330  000394                     l1556:
   331  000394  EC44  F003         	call	_BusyXLCD	;wreg free
   332  000398  0900               	iorlw	0
   333  00039A  A4D8               	btfss	status,2,c
   334  00039C  EFD2  F001         	goto	u671
   335  0003A0  EFD4  F001         	goto	u670
   336  0003A4                     u671:
   337  0003A4  EFCA  F001         	goto	l1556
   338  0003A8                     u670:
   339  0003A8                     
   340                           ;main_project.c: 226:  WriteCmdXLCD(0b00010111);
   341  0003A8  0E17               	movlw	23
   342  0003AA  ECA9  F003         	call	_WriteCmdXLCD
   343  0003AE                     l1560:
   344  0003AE  EC44  F003         	call	_BusyXLCD	;wreg free
   345  0003B2  0900               	iorlw	0
   346  0003B4  A4D8               	btfss	status,2,c
   347  0003B6  EFDF  F001         	goto	u681
   348  0003BA  EFE1  F001         	goto	u680
   349  0003BE                     u681:
   350  0003BE  EFD7  F001         	goto	l1560
   351  0003C2                     u680:
   352  0003C2                     
   353                           ;main_project.c: 232:  WriteCmdXLCD(0b00000001);
   354  0003C2  0E01               	movlw	1
   355  0003C4  ECA9  F003         	call	_WriteCmdXLCD
   356  0003C8                     l1564:
   357  0003C8  EC44  F003         	call	_BusyXLCD	;wreg free
   358  0003CC  0900               	iorlw	0
   359  0003CE  A4D8               	btfss	status,2,c
   360  0003D0  EFEC  F001         	goto	u691
   361  0003D4  EFEE  F001         	goto	u690
   362  0003D8                     u691:
   363  0003D8  EFE4  F001         	goto	l1564
   364  0003DC                     u690:
   365  0003DC                     
   366                           ;main_project.c: 239:  WriteCmdXLCD(0b10000000);
   367  0003DC  0E80               	movlw	128
   368  0003DE  ECA9  F003         	call	_WriteCmdXLCD
   369  0003E2                     l1568:
   370  0003E2  EC44  F003         	call	_BusyXLCD	;wreg free
   371  0003E6  0900               	iorlw	0
   372  0003E8  A4D8               	btfss	status,2,c
   373  0003EA  EFF9  F001         	goto	u701
   374  0003EE  EFFB  F001         	goto	u700
   375  0003F2                     u701:
   376  0003F2  EFF1  F001         	goto	l1568
   377  0003F6                     u700:
   378  0003F6                     
   379                           ;main_project.c: 246:     putsXLCD("Mars ROCK'S!");
   380  0003F6  0E11               	movlw	low STR_4
   381  0003F8  6E09               	movwf	putsXLCD@buffer^0,c
   382  0003FA  0E03               	movlw	high STR_4
   383  0003FC  6E0A               	movwf	(putsXLCD@buffer+1)^0,c
   384  0003FE  ECFA  F002         	call	_putsXLCD	;wreg free
   385  000402                     l1572:
   386  000402  EC44  F003         	call	_BusyXLCD	;wreg free
   387  000406  0900               	iorlw	0
   388  000408  A4D8               	btfss	status,2,c
   389  00040A  EF09  F002         	goto	u711
   390  00040E  EF0B  F002         	goto	u710
   391  000412                     u711:
   392  000412  EF01  F002         	goto	l1572
   393  000416                     u710:
   394  000416                     
   395                           ;main_project.c: 249:     _delay((unsigned long)((1000)*(4000000/4000.0)));
   396  000416  0E06               	movlw	6
   397  000418  6E0C               	movwf	(??_main+1)^0,c
   398  00041A  0E13               	movlw	19
   399  00041C  6E0B               	movwf	??_main^0,c
   400  00041E  0EAE               	movlw	174
   401  000420                     u767:
   402  000420  2EE8               	decfsz	wreg,f,c
   403  000422  D7FE               	bra	u767
   404  000424  2E0B               	decfsz	??_main^0,f,c
   405  000426  D7FC               	bra	u767
   406  000428  2E0C               	decfsz	(??_main+1)^0,f,c
   407  00042A  D7FA               	bra	u767
   408  00042C                     
   409                           ;main_project.c: 251:      WriteCmdXLCD(0b00010111);
   410  00042C  0E17               	movlw	23
   411  00042E  ECA9  F003         	call	_WriteCmdXLCD
   412  000432                     l1578:
   413  000432  EC44  F003         	call	_BusyXLCD	;wreg free
   414  000436  0900               	iorlw	0
   415  000438  A4D8               	btfss	status,2,c
   416  00043A  EF21  F002         	goto	u721
   417  00043E  EF23  F002         	goto	u720
   418  000442                     u721:
   419  000442  EF19  F002         	goto	l1578
   420  000446                     u720:
   421  000446                     
   422                           ;main_project.c: 257:  WriteCmdXLCD(0b00000001);
   423  000446  0E01               	movlw	1
   424  000448  ECA9  F003         	call	_WriteCmdXLCD
   425  00044C                     l1582:
   426  00044C  EC44  F003         	call	_BusyXLCD	;wreg free
   427  000450  0900               	iorlw	0
   428  000452  A4D8               	btfss	status,2,c
   429  000454  EF2E  F002         	goto	u731
   430  000458  EF30  F002         	goto	u730
   431  00045C                     u731:
   432  00045C  EF26  F002         	goto	l1582
   433  000460                     u730:
   434  000460                     
   435                           ;main_project.c: 264:  WriteCmdXLCD(0b10000000);
   436  000460  0E80               	movlw	128
   437  000462  ECA9  F003         	call	_WriteCmdXLCD
   438  000466                     l1586:
   439  000466  EC44  F003         	call	_BusyXLCD	;wreg free
   440  00046A  0900               	iorlw	0
   441  00046C  A4D8               	btfss	status,2,c
   442  00046E  EF3B  F002         	goto	u741
   443  000472  EF3D  F002         	goto	u740
   444  000476                     u741:
   445  000476  EF33  F002         	goto	l1586
   446  00047A                     u740:
   447  00047A                     
   448                           ;main_project.c: 271:     putsXLCD("Teste - Teclado");
   449  00047A  0E01               	movlw	low STR_5
   450  00047C  6E09               	movwf	putsXLCD@buffer^0,c
   451  00047E  0E03               	movlw	high STR_5
   452  000480  6E0A               	movwf	(putsXLCD@buffer+1)^0,c
   453  000482  ECFA  F002         	call	_putsXLCD	;wreg free
   454  000486                     l1590:
   455  000486  EC44  F003         	call	_BusyXLCD	;wreg free
   456  00048A  0900               	iorlw	0
   457  00048C  A4D8               	btfss	status,2,c
   458  00048E  EF4B  F002         	goto	u751
   459  000492  EF4D  F002         	goto	u750
   460  000496                     u751:
   461  000496  EF43  F002         	goto	l1590
   462  00049A                     u750:
   463  00049A                     l1592:
   464                           
   465                           ;main_project.c: 309:         LATB = 0b111110111;
   466  00049A  0EF7               	movlw	247
   467  00049C  6E8A               	movwf	138,c	;volatile
   468  00049E                     
   469                           ;main_project.c: 310:     _delay((unsigned long)((10)*(4000000/4000.0)));
   470  00049E  0E0D               	movlw	13
   471  0004A0  6E0B               	movwf	??_main^0,c
   472  0004A2  0EFC               	movlw	252
   473  0004A4                     u777:
   474  0004A4  2EE8               	decfsz	wreg,f,c
   475  0004A6  D7FE               	bra	u777
   476  0004A8  2E0B               	decfsz	??_main^0,f,c
   477  0004AA  D7FC               	bra	u777
   478  0004AC                     
   479                           ;main_project.c: 311:         LATB = 0b111101111;
   480  0004AC  0EEF               	movlw	239
   481  0004AE  6E8A               	movwf	138,c	;volatile
   482                           
   483                           ;main_project.c: 312:     _delay((unsigned long)((10)*(4000000/4000.0)));
   484  0004B0  0E0D               	movlw	13
   485  0004B2  6E0B               	movwf	??_main^0,c
   486  0004B4  0EFC               	movlw	252
   487  0004B6                     u787:
   488  0004B6  2EE8               	decfsz	wreg,f,c
   489  0004B8  D7FE               	bra	u787
   490  0004BA  2E0B               	decfsz	??_main^0,f,c
   491  0004BC  D7FC               	bra	u787
   492  0004BE                     
   493                           ;main_project.c: 313:         LATB = 0b111011111;
   494  0004BE  0EDF               	movlw	223
   495  0004C0  6E8A               	movwf	138,c	;volatile
   496  0004C2                     
   497                           ;main_project.c: 314:     _delay((unsigned long)((10)*(4000000/4000.0)));
   498  0004C2  0E0D               	movlw	13
   499  0004C4  6E0B               	movwf	??_main^0,c
   500  0004C6  0EFC               	movlw	252
   501  0004C8                     u797:
   502  0004C8  2EE8               	decfsz	wreg,f,c
   503  0004CA  D7FE               	bra	u797
   504  0004CC  2E0B               	decfsz	??_main^0,f,c
   505  0004CE  D7FC               	bra	u797
   506                           
   507                           ;main_project.c: 315:         LATB = 0b110111111;
   508  0004D0  0EBF               	movlw	191
   509  0004D2  6E8A               	movwf	138,c	;volatile
   510  0004D4                     
   511                           ;main_project.c: 316:     _delay((unsigned long)((10)*(4000000/4000.0)));
   512  0004D4  0E0D               	movlw	13
   513  0004D6  6E0B               	movwf	??_main^0,c
   514  0004D8  0EFC               	movlw	252
   515  0004DA                     u807:
   516  0004DA  2EE8               	decfsz	wreg,f,c
   517  0004DC  D7FE               	bra	u807
   518  0004DE  2E0B               	decfsz	??_main^0,f,c
   519  0004E0  D7FC               	bra	u807
   520  0004E2  EF4D  F002         	goto	l1592
   521  0004E6  EFC5  F000         	goto	start
   522  0004EA                     __end_of_main:
   523                           	opt callstack 0
   524                           
   525 ;; *************** function _putsXLCD *****************
   526 ;; Defined at:
   527 ;;		line 302 in file "xlcd.c"
   528 ;; Parameters:    Size  Location     Type
   529 ;;  buffer          2    8[COMRAM] PTR unsigned char 
   530 ;;		 -> STR_5(16), STR_4(13), STR_3(2), STR_2(2), 
   531 ;;		 -> STR_1(2), 
   532 ;; Auto vars:     Size  Location     Type
   533 ;;		None
   534 ;; Return value:  Size  Location     Type
   535 ;;                  1    wreg      void 
   536 ;; Registers used:
   537 ;;		wreg, status,2, status,0, tblptrl, tblptrh, tblptru, cstack
   538 ;; Tracked objects:
   539 ;;		On entry : 0/0
   540 ;;		On exit  : 0/0
   541 ;;		Unchanged: 0/0
   542 ;; Data sizes:     COMRAM   BANK0   BANK1   BANK2
   543 ;;      Params:         2       0       0       0
   544 ;;      Locals:         0       0       0       0
   545 ;;      Temps:          0       0       0       0
   546 ;;      Totals:         2       0       0       0
   547 ;;Total ram usage:        2 bytes
   548 ;; Hardware stack levels used:    1
   549 ;; Hardware stack levels required when called:    6
   550 ;; This function calls:
   551 ;;		_BusyXLCD
   552 ;;		_WriteDataXLCD
   553 ;; This function is called by:
   554 ;;		_main
   555 ;; This function uses a non-reentrant model
   556 ;;
   557                           
   558                           	psect	text1
   559  0005F4                     __ptext1:
   560                           	opt callstack 0
   561  0005F4                     _putsXLCD:
   562                           	opt callstack 24
   563  0005F4                     
   564                           ;xlcd.c: 303:     while (*buffer)
   565  0005F4  EF10  F003         	goto	l1448
   566  0005F8                     l1442:
   567  0005F8  EC44  F003         	call	_BusyXLCD	;wreg free
   568  0005FC  0900               	iorlw	0
   569  0005FE  A4D8               	btfss	status,2,c
   570  000600  EF04  F003         	goto	u441
   571  000604  EF06  F003         	goto	u440
   572  000608                     u441:
   573  000608  EFFC  F002         	goto	l1442
   574  00060C                     u440:
   575  00060C                     
   576                           ;xlcd.c: 306:         WriteDataXLCD(*buffer);
   577  00060C  C009  FFF6         	movff	putsXLCD@buffer,tblptrl
   578  000610  C00A  FFF7         	movff	putsXLCD@buffer+1,tblptrh
   579  000614                     	if	0	;tblptru may be non-zero
   580  000614                     	endif
   581  000614                     	if	0	;tblptru may be non-zero
   582  000614                     	endif
   583  000614  0008               	tblrd		*
   584  000616  50F5               	movf	tablat,w,c
   585  000618  EC8A  F003         	call	_WriteDataXLCD
   586  00061C                     
   587                           ;xlcd.c: 307:         buffer++;
   588  00061C  4A09               	infsnz	putsXLCD@buffer^0,f,c
   589  00061E  2A0A               	incf	(putsXLCD@buffer+1)^0,f,c
   590  000620                     l1448:
   591                           
   592                           ;xlcd.c: 303:     while (*buffer)
   593  000620  C009  FFF6         	movff	putsXLCD@buffer,tblptrl
   594  000624  C00A  FFF7         	movff	putsXLCD@buffer+1,tblptrh
   595  000628                     	if	0	;tblptru may be non-zero
   596  000628                     	endif
   597  000628                     	if	0	;tblptru may be non-zero
   598  000628                     	endif
   599  000628  0008               	tblrd		*
   600  00062A  50F5               	movf	tablat,w,c
   601  00062C  0900               	iorlw	0
   602  00062E  A4D8               	btfss	status,2,c
   603  000630  EF1C  F003         	goto	u451
   604  000634  EF1E  F003         	goto	u450
   605  000638                     u451:
   606  000638  EFFC  F002         	goto	l1442
   607  00063C                     u450:
   608  00063C  0012               	return		;funcret
   609  00063E                     __end_of_putsXLCD:
   610                           	opt callstack 0
   611                           
   612 ;; *************** function _WriteDataXLCD *****************
   613 ;; Defined at:
   614 ;;		line 598 in file "xlcd.c"
   615 ;; Parameters:    Size  Location     Type
   616 ;;  data            1    wreg     unsigned char 
   617 ;; Auto vars:     Size  Location     Type
   618 ;;  data            1    7[COMRAM] unsigned char 
   619 ;; Return value:  Size  Location     Type
   620 ;;                  1    wreg      void 
   621 ;; Registers used:
   622 ;;		wreg, status,2, status,0, cstack
   623 ;; Tracked objects:
   624 ;;		On entry : 0/0
   625 ;;		On exit  : 0/0
   626 ;;		Unchanged: 0/0
   627 ;; Data sizes:     COMRAM   BANK0   BANK1   BANK2
   628 ;;      Params:         0       0       0       0
   629 ;;      Locals:         1       0       0       0
   630 ;;      Temps:          0       0       0       0
   631 ;;      Totals:         1       0       0       0
   632 ;;Total ram usage:        1 bytes
   633 ;; Hardware stack levels used:    1
   634 ;; Hardware stack levels required when called:    5
   635 ;; This function calls:
   636 ;;		_DelayFor18TCY
   637 ;; This function is called by:
   638 ;;		_putsXLCD
   639 ;; This function uses a non-reentrant model
   640 ;;
   641                           
   642                           	psect	text2
   643  000714                     __ptext2:
   644                           	opt callstack 0
   645  000714                     _WriteDataXLCD:
   646                           	opt callstack 24
   647                           
   648                           ;incstack = 0
   649                           ;WriteDataXLCD@data stored from wreg
   650  000714  6E08               	movwf	WriteDataXLCD@data^0,c
   651  000716                     
   652                           ;xlcd.c: 616:     TRISD &= 0xf0;
   653  000716  0EF0               	movlw	240
   654  000718  1695               	andwf	149,f,c	;volatile
   655                           
   656                           ;xlcd.c: 617:     PORTD &= 0xf0;
   657  00071A  0EF0               	movlw	240
   658  00071C  1683               	andwf	131,f,c	;volatile
   659                           
   660                           ;xlcd.c: 618:     PORTD |= ((data >> 4)&0x0f);
   661  00071E  3808               	swapf	WriteDataXLCD@data^0,w,c
   662  000720  0B0F               	andlw	15
   663  000722  0B0F               	andlw	15
   664  000724  1283               	iorwf	131,f,c	;volatile
   665  000726                     
   666                           ;xlcd.c: 620:     LATDbits.LATD4 = 1;
   667  000726  888C               	bsf	140,4,c	;volatile
   668  000728                     
   669                           ;xlcd.c: 621:     LATDbits.LATD5 = 0;
   670  000728  9A8C               	bcf	140,5,c	;volatile
   671  00072A                     
   672                           ;xlcd.c: 622:     DelayFor18TCY();
   673  00072A  EC17  F004         	call	_DelayFor18TCY	;wreg free
   674  00072E                     
   675                           ;xlcd.c: 623:     LATDbits.LATD6 = 1;
   676  00072E  8C8C               	bsf	140,6,c	;volatile
   677  000730                     
   678                           ;xlcd.c: 624:     DelayFor18TCY();
   679  000730  EC17  F004         	call	_DelayFor18TCY	;wreg free
   680  000734                     
   681                           ;xlcd.c: 625:     LATDbits.LATD6 = 0;
   682  000734  9C8C               	bcf	140,6,c	;volatile
   683                           
   684                           ;xlcd.c: 630:     PORTD &= 0xf0;
   685  000736  0EF0               	movlw	240
   686  000738  1683               	andwf	131,f,c	;volatile
   687                           
   688                           ;xlcd.c: 631:     PORTD |= (data & 0x0f);
   689  00073A  5008               	movf	WriteDataXLCD@data^0,w,c
   690  00073C  0B0F               	andlw	15
   691  00073E  1283               	iorwf	131,f,c	;volatile
   692  000740                     
   693                           ;xlcd.c: 633:     DelayFor18TCY();
   694  000740  EC17  F004         	call	_DelayFor18TCY	;wreg free
   695  000744                     
   696                           ;xlcd.c: 634:     LATDbits.LATD6 = 1;
   697  000744  8C8C               	bsf	140,6,c	;volatile
   698  000746                     
   699                           ;xlcd.c: 635:     DelayFor18TCY();
   700  000746  EC17  F004         	call	_DelayFor18TCY	;wreg free
   701  00074A                     
   702                           ;xlcd.c: 636:     LATDbits.LATD6 = 0;
   703  00074A  9C8C               	bcf	140,6,c	;volatile
   704                           
   705                           ;xlcd.c: 640:     TRISD |= 0x0f;
   706  00074C  0E0F               	movlw	15
   707  00074E  1295               	iorwf	149,f,c	;volatile
   708  000750  0012               	return		;funcret
   709  000752                     __end_of_WriteDataXLCD:
   710                           	opt callstack 0
   711                           
   712 ;; *************** function _OpenXLCD *****************
   713 ;; Defined at:
   714 ;;		line 56 in file "xlcd.c"
   715 ;; Parameters:    Size  Location     Type
   716 ;;  lcdtype         1    wreg     unsigned char 
   717 ;; Auto vars:     Size  Location     Type
   718 ;;  lcdtype         1    0[COMRAM] unsigned char 
   719 ;; Return value:  Size  Location     Type
   720 ;;                  1    wreg      void 
   721 ;; Registers used:
   722 ;;		wreg, status,2, status,0, cstack
   723 ;; Tracked objects:
   724 ;;		On entry : 0/0
   725 ;;		On exit  : 0/0
   726 ;;		Unchanged: 0/0
   727 ;; Data sizes:     COMRAM   BANK0   BANK1   BANK2
   728 ;;      Params:         0       0       0       0
   729 ;;      Locals:         0       0       0       0
   730 ;;      Temps:          0       0       0       0
   731 ;;      Totals:         0       0       0       0
   732 ;;Total ram usage:        0 bytes
   733 ;; Hardware stack levels used:    1
   734 ;; Hardware stack levels required when called:    6
   735 ;; This function calls:
   736 ;;		_BusyXLCD
   737 ;;		_DelayFor18TCY
   738 ;;		_DelayPORXLCD
   739 ;;		_DelayXLCD
   740 ;;		_WriteCmdXLCD
   741 ;; This function is called by:
   742 ;;		_main
   743 ;; This function uses a non-reentrant model
   744 ;;
   745                           
   746                           	psect	text3
   747  0004EA                     __ptext3:
   748                           	opt callstack 0
   749  0004EA                     _OpenXLCD:
   750                           	opt callstack 24
   751  0004EA                     
   752                           ;xlcd.c: 60:     DelayPORXLCD();
   753  0004EA  EC06  F004         	call	_DelayPORXLCD	;wreg free
   754  0004EE                     
   755                           ;xlcd.c: 72:     PORTD &= 0xf0;
   756  0004EE  0EF0               	movlw	240
   757  0004F0  1683               	andwf	131,f,c	;volatile
   758  0004F2                     
   759                           ;xlcd.c: 73:     TRISD |= 0x0f;
   760  0004F2  0E0F               	movlw	15
   761  0004F4  1295               	iorwf	149,f,c	;volatile
   762  0004F6                     
   763                           ;xlcd.c: 76:     TRISDbits.TRISD5 = 0;
   764  0004F6  9A95               	bcf	149,5,c	;volatile
   765  0004F8                     
   766                           ;xlcd.c: 77:     TRISDbits.TRISD4 = 0;
   767  0004F8  9895               	bcf	149,4,c	;volatile
   768  0004FA                     
   769                           ;xlcd.c: 78:     TRISDbits.TRISD6 = 0;
   770  0004FA  9C95               	bcf	149,6,c	;volatile
   771  0004FC                     
   772                           ;xlcd.c: 79:     LATDbits.LATD5 = 0;
   773  0004FC  9A8C               	bcf	140,5,c	;volatile
   774  0004FE                     
   775                           ;xlcd.c: 80:     LATDbits.LATD4 = 0;
   776  0004FE  988C               	bcf	140,4,c	;volatile
   777  000500                     
   778                           ;xlcd.c: 81:     LATDbits.LATD6 = 0;
   779  000500  9C8C               	bcf	140,6,c	;volatile
   780                           
   781                           ;xlcd.c: 84:     DelayPORXLCD();
   782  000502  EC06  F004         	call	_DelayPORXLCD	;wreg free
   783  000506                     
   784                           ;xlcd.c: 97:     TRISD &= 0xf0;
   785  000506  0EF0               	movlw	240
   786  000508  1695               	andwf	149,f,c	;volatile
   787  00050A                     
   788                           ;xlcd.c: 98:     PORTD &= 0xf0;
   789  00050A  0EF0               	movlw	240
   790  00050C  1683               	andwf	131,f,c	;volatile
   791  00050E                     
   792                           ;xlcd.c: 99:     PORTD |= 0b00000011;
   793  00050E  0E03               	movlw	3
   794  000510  1283               	iorwf	131,f,c	;volatile
   795  000512                     
   796                           ;xlcd.c: 102:     LATDbits.LATD6 = 1;
   797  000512  8C8C               	bsf	140,6,c	;volatile
   798  000514                     
   799                           ;xlcd.c: 103:     DelayFor18TCY();
   800  000514  EC17  F004         	call	_DelayFor18TCY	;wreg free
   801  000518                     
   802                           ;xlcd.c: 104:     LATDbits.LATD6 = 0;
   803  000518  9C8C               	bcf	140,6,c	;volatile
   804  00051A                     
   805                           ;xlcd.c: 107:     DelayXLCD();
   806  00051A  EC34  F004         	call	_DelayXLCD	;wreg free
   807  00051E                     
   808                           ;xlcd.c: 118:     TRISD &= 0xf0;
   809  00051E  0EF0               	movlw	240
   810  000520  1695               	andwf	149,f,c	;volatile
   811  000522                     
   812                           ;xlcd.c: 119:     PORTD &= 0xf0;
   813  000522  0EF0               	movlw	240
   814  000524  1683               	andwf	131,f,c	;volatile
   815  000526                     
   816                           ;xlcd.c: 120:     PORTD |= 0b00000011;
   817  000526  0E03               	movlw	3
   818  000528  1283               	iorwf	131,f,c	;volatile
   819  00052A                     
   820                           ;xlcd.c: 123:     LATDbits.LATD6 = 1;
   821  00052A  8C8C               	bsf	140,6,c	;volatile
   822                           
   823                           ;xlcd.c: 124:     DelayFor18TCY();
   824  00052C  EC17  F004         	call	_DelayFor18TCY	;wreg free
   825  000530                     
   826                           ;xlcd.c: 125:     LATDbits.LATD6 = 0;
   827  000530  9C8C               	bcf	140,6,c	;volatile
   828                           
   829                           ;xlcd.c: 128:     DelayXLCD();
   830  000532  EC34  F004         	call	_DelayXLCD	;wreg free
   831  000536                     
   832                           ;xlcd.c: 138:     PORTD &= 0xf0;
   833  000536  0EF0               	movlw	240
   834  000538  1683               	andwf	131,f,c	;volatile
   835  00053A                     
   836                           ;xlcd.c: 139:     PORTD |= 0b00000011;
   837  00053A  0E03               	movlw	3
   838  00053C  1283               	iorwf	131,f,c	;volatile
   839  00053E                     
   840                           ;xlcd.c: 142:     LATDbits.LATD6 = 1;
   841  00053E  8C8C               	bsf	140,6,c	;volatile
   842                           
   843                           ;xlcd.c: 143:     DelayFor18TCY();
   844  000540  EC17  F004         	call	_DelayFor18TCY	;wreg free
   845  000544                     
   846                           ;xlcd.c: 144:     LATDbits.LATD6 = 0;
   847  000544  9C8C               	bcf	140,6,c	;volatile
   848                           
   849                           ;xlcd.c: 147:     DelayXLCD();
   850  000546  EC34  F004         	call	_DelayXLCD	;wreg free
   851  00054A                     
   852                           ;xlcd.c: 159:     PORTD &= 0xf0;
   853  00054A  0EF0               	movlw	240
   854  00054C  1683               	andwf	131,f,c	;volatile
   855  00054E                     
   856                           ;xlcd.c: 160:     PORTD |= 0b00000010;
   857  00054E  8283               	bsf	131,1,c	;volatile
   858  000550                     
   859                           ;xlcd.c: 163:     LATDbits.LATD6 = 1;
   860  000550  8C8C               	bsf	140,6,c	;volatile
   861  000552                     
   862                           ;xlcd.c: 164:     DelayFor18TCY();
   863  000552  EC17  F004         	call	_DelayFor18TCY	;wreg free
   864  000556                     
   865                           ;xlcd.c: 165:     LATDbits.LATD6 = 0;
   866  000556  9C8C               	bcf	140,6,c	;volatile
   867  000558                     
   868                           ;xlcd.c: 174:     TRISD |= 0x0f;
   869  000558  0E0F               	movlw	15
   870  00055A  1295               	iorwf	149,f,c	;volatile
   871  00055C                     l1100:
   872  00055C  EC44  F003         	call	_BusyXLCD	;wreg free
   873  000560  0900               	iorlw	0
   874  000562  A4D8               	btfss	status,2,c
   875  000564  EFB6  F002         	goto	u51
   876  000568  EFB8  F002         	goto	u50
   877  00056C                     u51:
   878  00056C  EFAE  F002         	goto	l1100
   879  000570                     u50:
   880  000570                     
   881                           ;xlcd.c: 182:     WriteCmdXLCD(0x28);
   882  000570  0E28               	movlw	40
   883  000572  ECA9  F003         	call	_WriteCmdXLCD
   884  000576                     l1104:
   885  000576  EC44  F003         	call	_BusyXLCD	;wreg free
   886  00057A  0900               	iorlw	0
   887  00057C  A4D8               	btfss	status,2,c
   888  00057E  EFC3  F002         	goto	u61
   889  000582  EFC5  F002         	goto	u60
   890  000586                     u61:
   891  000586  EFBB  F002         	goto	l1104
   892  00058A                     u60:
   893  00058A                     
   894                           ;xlcd.c: 188:     WriteCmdXLCD(0x0D);
   895  00058A  0E0D               	movlw	13
   896  00058C  ECA9  F003         	call	_WriteCmdXLCD
   897  000590                     l1108:
   898  000590  EC44  F003         	call	_BusyXLCD	;wreg free
   899  000594  0900               	iorlw	0
   900  000596  A4D8               	btfss	status,2,c
   901  000598  EFD0  F002         	goto	u71
   902  00059C  EFD2  F002         	goto	u70
   903  0005A0                     u71:
   904  0005A0  EFC8  F002         	goto	l1108
   905  0005A4                     u70:
   906  0005A4                     l1110:
   907  0005A4  EC44  F003         	call	_BusyXLCD	;wreg free
   908  0005A8  0900               	iorlw	0
   909  0005AA  A4D8               	btfss	status,2,c
   910  0005AC  EFDA  F002         	goto	u81
   911  0005B0  EFDC  F002         	goto	u80
   912  0005B4                     u81:
   913  0005B4  EFD2  F002         	goto	l1110
   914  0005B8                     u80:
   915  0005B8                     
   916                           ;xlcd.c: 196:     WriteCmdXLCD(0x01);
   917  0005B8  0E01               	movlw	1
   918  0005BA  ECA9  F003         	call	_WriteCmdXLCD
   919  0005BE                     l1114:
   920  0005BE  EC44  F003         	call	_BusyXLCD	;wreg free
   921  0005C2  0900               	iorlw	0
   922  0005C4  A4D8               	btfss	status,2,c
   923  0005C6  EFE7  F002         	goto	u91
   924  0005CA  EFE9  F002         	goto	u90
   925  0005CE                     u91:
   926  0005CE  EFDF  F002         	goto	l1114
   927  0005D2                     u90:
   928  0005D2                     
   929                           ;xlcd.c: 201:     WriteCmdXLCD(0x06);
   930  0005D2  0E06               	movlw	6
   931  0005D4  ECA9  F003         	call	_WriteCmdXLCD
   932  0005D8                     l1118:
   933  0005D8  EC44  F003         	call	_BusyXLCD	;wreg free
   934  0005DC  0900               	iorlw	0
   935  0005DE  A4D8               	btfss	status,2,c
   936  0005E0  EFF4  F002         	goto	u101
   937  0005E4  EFF6  F002         	goto	u100
   938  0005E8                     u101:
   939  0005E8  EFEC  F002         	goto	l1118
   940  0005EC                     u100:
   941  0005EC                     
   942                           ;xlcd.c: 207:     WriteCmdXLCD(0x80);
   943  0005EC  0E80               	movlw	128
   944  0005EE  ECA9  F003         	call	_WriteCmdXLCD
   945  0005F2  0012               	return		;funcret
   946  0005F4                     __end_of_OpenXLCD:
   947                           	opt callstack 0
   948                           
   949 ;; *************** function _WriteCmdXLCD *****************
   950 ;; Defined at:
   951 ;;		line 538 in file "xlcd.c"
   952 ;; Parameters:    Size  Location     Type
   953 ;;  cmd             1    wreg     unsigned char 
   954 ;; Auto vars:     Size  Location     Type
   955 ;;  cmd             1    7[COMRAM] unsigned char 
   956 ;; Return value:  Size  Location     Type
   957 ;;                  1    wreg      void 
   958 ;; Registers used:
   959 ;;		wreg, status,2, status,0, cstack
   960 ;; Tracked objects:
   961 ;;		On entry : 0/0
   962 ;;		On exit  : 0/0
   963 ;;		Unchanged: 0/0
   964 ;; Data sizes:     COMRAM   BANK0   BANK1   BANK2
   965 ;;      Params:         0       0       0       0
   966 ;;      Locals:         1       0       0       0
   967 ;;      Temps:          0       0       0       0
   968 ;;      Totals:         1       0       0       0
   969 ;;Total ram usage:        1 bytes
   970 ;; Hardware stack levels used:    1
   971 ;; Hardware stack levels required when called:    5
   972 ;; This function calls:
   973 ;;		_DelayFor18TCY
   974 ;; This function is called by:
   975 ;;		_main
   976 ;;		_OpenXLCD
   977 ;; This function uses a non-reentrant model
   978 ;;
   979                           
   980                           	psect	text4
   981  000752                     __ptext4:
   982                           	opt callstack 0
   983  000752                     _WriteCmdXLCD:
   984                           	opt callstack 25
   985                           
   986                           ;incstack = 0
   987                           ;WriteCmdXLCD@cmd stored from wreg
   988  000752  6E08               	movwf	WriteCmdXLCD@cmd^0,c
   989  000754                     
   990                           ;xlcd.c: 556:     TRISD &= 0xf0;
   991  000754  0EF0               	movlw	240
   992  000756  1695               	andwf	149,f,c	;volatile
   993                           
   994                           ;xlcd.c: 557:     PORTD &= 0xf0;
   995  000758  0EF0               	movlw	240
   996  00075A  1683               	andwf	131,f,c	;volatile
   997                           
   998                           ;xlcd.c: 558:     PORTD |= (cmd >> 4)&0x0f;
   999  00075C  3808               	swapf	WriteCmdXLCD@cmd^0,w,c
  1000  00075E  0B0F               	andlw	15
  1001  000760  0B0F               	andlw	15
  1002  000762  1283               	iorwf	131,f,c	;volatile
  1003  000764                     
  1004                           ;xlcd.c: 560:     LATDbits.LATD5 = 0;
  1005  000764  9A8C               	bcf	140,5,c	;volatile
  1006  000766                     
  1007                           ;xlcd.c: 561:     LATDbits.LATD4 = 0;
  1008  000766  988C               	bcf	140,4,c	;volatile
  1009  000768                     
  1010                           ;xlcd.c: 562:     DelayFor18TCY();
  1011  000768  EC17  F004         	call	_DelayFor18TCY	;wreg free
  1012  00076C                     
  1013                           ;xlcd.c: 563:     LATDbits.LATD6 = 1;
  1014  00076C  8C8C               	bsf	140,6,c	;volatile
  1015  00076E                     
  1016                           ;xlcd.c: 564:     DelayFor18TCY();
  1017  00076E  EC17  F004         	call	_DelayFor18TCY	;wreg free
  1018  000772                     
  1019                           ;xlcd.c: 565:     LATDbits.LATD6 = 0;
  1020  000772  9C8C               	bcf	140,6,c	;volatile
  1021                           
  1022                           ;xlcd.c: 570:     PORTD &= 0xf0;
  1023  000774  0EF0               	movlw	240
  1024  000776  1683               	andwf	131,f,c	;volatile
  1025                           
  1026                           ;xlcd.c: 571:     PORTD |= cmd & 0x0f;
  1027  000778  5008               	movf	WriteCmdXLCD@cmd^0,w,c
  1028  00077A  0B0F               	andlw	15
  1029  00077C  1283               	iorwf	131,f,c	;volatile
  1030  00077E                     
  1031                           ;xlcd.c: 573:     DelayFor18TCY();
  1032  00077E  EC17  F004         	call	_DelayFor18TCY	;wreg free
  1033  000782                     
  1034                           ;xlcd.c: 574:     LATDbits.LATD6 = 1;
  1035  000782  8C8C               	bsf	140,6,c	;volatile
  1036  000784                     
  1037                           ;xlcd.c: 575:     DelayFor18TCY();
  1038  000784  EC17  F004         	call	_DelayFor18TCY	;wreg free
  1039  000788                     
  1040                           ;xlcd.c: 576:     LATDbits.LATD6 = 0;
  1041  000788  9C8C               	bcf	140,6,c	;volatile
  1042                           
  1043                           ;xlcd.c: 580:     TRISD |= 0x0f;
  1044  00078A  0E0F               	movlw	15
  1045  00078C  1295               	iorwf	149,f,c	;volatile
  1046  00078E  0012               	return		;funcret
  1047  000790                     __end_of_WriteCmdXLCD:
  1048                           	opt callstack 0
  1049                           
  1050 ;; *************** function _DelayXLCD *****************
  1051 ;; Defined at:
  1052 ;;		line 33 in file "xlcd.c"
  1053 ;; Parameters:    Size  Location     Type
  1054 ;;		None
  1055 ;; Auto vars:     Size  Location     Type
  1056 ;;		None
  1057 ;; Return value:  Size  Location     Type
  1058 ;;                  1    wreg      void 
  1059 ;; Registers used:
  1060 ;;		wreg
  1061 ;; Tracked objects:
  1062 ;;		On entry : 0/0
  1063 ;;		On exit  : 0/0
  1064 ;;		Unchanged: 0/0
  1065 ;; Data sizes:     COMRAM   BANK0   BANK1   BANK2
  1066 ;;      Params:         0       0       0       0
  1067 ;;      Locals:         0       0       0       0
  1068 ;;      Temps:          1       0       0       0
  1069 ;;      Totals:         1       0       0       0
  1070 ;;Total ram usage:        1 bytes
  1071 ;; Hardware stack levels used:    1
  1072 ;; Hardware stack levels required when called:    4
  1073 ;; This function calls:
  1074 ;;		Nothing
  1075 ;; This function is called by:
  1076 ;;		_OpenXLCD
  1077 ;; This function uses a non-reentrant model
  1078 ;;
  1079                           
  1080                           	psect	text5
  1081  000868                     __ptext5:
  1082                           	opt callstack 0
  1083  000868                     _DelayXLCD:
  1084                           	opt callstack 25
  1085  000868                     
  1086                           ;xlcd.c: 36:     _delay((unsigned long)((15)*(6000000/4000.0)));
  1087  000868  0E1E               	movlw	30
  1088  00086A  6E08               	movwf	??_DelayXLCD^0,c
  1089  00086C  0E37               	movlw	55
  1090  00086E                     u817:
  1091  00086E  2EE8               	decfsz	wreg,f,c
  1092  000870  D7FE               	bra	u817
  1093  000872  2E08               	decfsz	??_DelayXLCD^0,f,c
  1094  000874  D7FC               	bra	u817
  1095  000876  F000               	nop	
  1096  000878  0012               	return		;funcret
  1097  00087A                     __end_of_DelayXLCD:
  1098                           	opt callstack 0
  1099                           
  1100 ;; *************** function _DelayPORXLCD *****************
  1101 ;; Defined at:
  1102 ;;		line 25 in file "xlcd.c"
  1103 ;; Parameters:    Size  Location     Type
  1104 ;;		None
  1105 ;; Auto vars:     Size  Location     Type
  1106 ;;		None
  1107 ;; Return value:  Size  Location     Type
  1108 ;;                  1    wreg      void 
  1109 ;; Registers used:
  1110 ;;		wreg
  1111 ;; Tracked objects:
  1112 ;;		On entry : 0/0
  1113 ;;		On exit  : 0/0
  1114 ;;		Unchanged: 0/0
  1115 ;; Data sizes:     COMRAM   BANK0   BANK1   BANK2
  1116 ;;      Params:         0       0       0       0
  1117 ;;      Locals:         0       0       0       0
  1118 ;;      Temps:          1       0       0       0
  1119 ;;      Totals:         1       0       0       0
  1120 ;;Total ram usage:        1 bytes
  1121 ;; Hardware stack levels used:    1
  1122 ;; Hardware stack levels required when called:    4
  1123 ;; This function calls:
  1124 ;;		Nothing
  1125 ;; This function is called by:
  1126 ;;		_OpenXLCD
  1127 ;; This function uses a non-reentrant model
  1128 ;;
  1129                           
  1130                           	psect	text6
  1131  00080C                     __ptext6:
  1132                           	opt callstack 0
  1133  00080C                     _DelayPORXLCD:
  1134                           	opt callstack 25
  1135  00080C                     
  1136                           ;xlcd.c: 28:     _delay((unsigned long)((15)*(6000000/4000.0)));
  1137  00080C  0E1E               	movlw	30
  1138  00080E  6E08               	movwf	??_DelayPORXLCD^0,c
  1139  000810  0E37               	movlw	55
  1140  000812                     u827:
  1141  000812  2EE8               	decfsz	wreg,f,c
  1142  000814  D7FE               	bra	u827
  1143  000816  2E08               	decfsz	??_DelayPORXLCD^0,f,c
  1144  000818  D7FC               	bra	u827
  1145  00081A  F000               	nop	
  1146                           
  1147                           ;xlcd.c: 29:     _delay((unsigned long)((15)*(6000000/4000.0)));
  1148  00081C  0E1E               	movlw	30
  1149  00081E  6E08               	movwf	??_DelayPORXLCD^0,c
  1150  000820  0E37               	movlw	55
  1151  000822                     u837:
  1152  000822  2EE8               	decfsz	wreg,f,c
  1153  000824  D7FE               	bra	u837
  1154  000826  2E08               	decfsz	??_DelayPORXLCD^0,f,c
  1155  000828  D7FC               	bra	u837
  1156  00082A  F000               	nop	
  1157  00082C  0012               	return		;funcret
  1158  00082E                     __end_of_DelayPORXLCD:
  1159                           	opt callstack 0
  1160                           
  1161 ;; *************** function _BusyXLCD *****************
  1162 ;; Defined at:
  1163 ;;		line 218 in file "xlcd.c"
  1164 ;; Parameters:    Size  Location     Type
  1165 ;;		None
  1166 ;; Auto vars:     Size  Location     Type
  1167 ;;		None
  1168 ;; Return value:  Size  Location     Type
  1169 ;;                  1    wreg      unsigned char 
  1170 ;; Registers used:
  1171 ;;		wreg, cstack
  1172 ;; Tracked objects:
  1173 ;;		On entry : 0/0
  1174 ;;		On exit  : 0/0
  1175 ;;		Unchanged: 0/0
  1176 ;; Data sizes:     COMRAM   BANK0   BANK1   BANK2
  1177 ;;      Params:         0       0       0       0
  1178 ;;      Locals:         0       0       0       0
  1179 ;;      Temps:          0       0       0       0
  1180 ;;      Totals:         0       0       0       0
  1181 ;;Total ram usage:        0 bytes
  1182 ;; Hardware stack levels used:    1
  1183 ;; Hardware stack levels required when called:    5
  1184 ;; This function calls:
  1185 ;;		_DelayFor18TCY
  1186 ;; This function is called by:
  1187 ;;		_main
  1188 ;;		_OpenXLCD
  1189 ;;		_putsXLCD
  1190 ;; This function uses a non-reentrant model
  1191 ;;
  1192                           
  1193                           	psect	text7
  1194  000688                     __ptext7:
  1195                           	opt callstack 0
  1196  000688                     _BusyXLCD:
  1197                           	opt callstack 24
  1198  000688                     
  1199                           ;xlcd.c: 219:     LATDbits.LATD5 = 1;
  1200  000688  8A8C               	bsf	140,5,c	;volatile
  1201                           
  1202                           ;xlcd.c: 220:     LATDbits.LATD4 = 0;
  1203  00068A  988C               	bcf	140,4,c	;volatile
  1204  00068C                     
  1205                           ;xlcd.c: 221:     DelayFor18TCY();
  1206  00068C  EC17  F004         	call	_DelayFor18TCY	;wreg free
  1207  000690                     
  1208                           ;xlcd.c: 222:     LATDbits.LATD6 = 1;
  1209  000690  8C8C               	bsf	140,6,c	;volatile
  1210                           
  1211                           ;xlcd.c: 223:     DelayFor18TCY();
  1212  000692  EC17  F004         	call	_DelayFor18TCY	;wreg free
  1213  000696                     
  1214                           ;xlcd.c: 240:     if (PORTD & 0x08)
  1215  000696  A683               	btfss	131,3,c	;volatile
  1216  000698  EF50  F003         	goto	u11
  1217  00069C  EF52  F003         	goto	u10
  1218  0006A0                     u11:
  1219  0006A0  EF5D  F003         	goto	l163
  1220  0006A4                     u10:
  1221  0006A4                     
  1222                           ;xlcd.c: 242:     {;xlcd.c: 243:         LATDbits.LATD6 = 0;
  1223  0006A4  9C8C               	bcf	140,6,c	;volatile
  1224  0006A6                     
  1225                           ;xlcd.c: 244:         DelayFor18TCY();
  1226  0006A6  EC17  F004         	call	_DelayFor18TCY	;wreg free
  1227  0006AA                     
  1228                           ;xlcd.c: 245:         LATDbits.LATD6 = 1;
  1229  0006AA  8C8C               	bsf	140,6,c	;volatile
  1230                           
  1231                           ;xlcd.c: 246:         DelayFor18TCY();
  1232  0006AC  EC17  F004         	call	_DelayFor18TCY	;wreg free
  1233  0006B0                     
  1234                           ;xlcd.c: 247:         LATDbits.LATD6 = 0;
  1235  0006B0  9C8C               	bcf	140,6,c	;volatile
  1236  0006B2                     
  1237                           ;xlcd.c: 248:         LATDbits.LATD5 = 0;
  1238  0006B2  9A8C               	bcf	140,5,c	;volatile
  1239  0006B4                     
  1240                           ;xlcd.c: 249:         return 1;
  1241  0006B4  0E01               	movlw	1
  1242  0006B6  EF66  F003         	goto	l164
  1243  0006BA                     l163:
  1244                           
  1245                           ;xlcd.c: 251:     {;xlcd.c: 252:         LATDbits.LATD6 = 0;
  1246  0006BA  9C8C               	bcf	140,6,c	;volatile
  1247  0006BC                     
  1248                           ;xlcd.c: 253:         DelayFor18TCY();
  1249  0006BC  EC17  F004         	call	_DelayFor18TCY	;wreg free
  1250  0006C0                     
  1251                           ;xlcd.c: 254:         LATDbits.LATD6 = 1;
  1252  0006C0  8C8C               	bsf	140,6,c	;volatile
  1253                           
  1254                           ;xlcd.c: 255:         DelayFor18TCY();
  1255  0006C2  EC17  F004         	call	_DelayFor18TCY	;wreg free
  1256  0006C6                     
  1257                           ;xlcd.c: 256:         LATDbits.LATD6 = 0;
  1258  0006C6  9C8C               	bcf	140,6,c	;volatile
  1259  0006C8                     
  1260                           ;xlcd.c: 257:         LATDbits.LATD5 = 0;
  1261  0006C8  9A8C               	bcf	140,5,c	;volatile
  1262  0006CA                     
  1263                           ;xlcd.c: 258:         return 0;
  1264  0006CA  0E00               	movlw	0
  1265  0006CC                     l164:
  1266  0006CC  0012               	return		;funcret
  1267  0006CE                     __end_of_BusyXLCD:
  1268                           	opt callstack 0
  1269                           
  1270 ;; *************** function _DelayFor18TCY *****************
  1271 ;; Defined at:
  1272 ;;		line 18 in file "xlcd.c"
  1273 ;; Parameters:    Size  Location     Type
  1274 ;;		None
  1275 ;; Auto vars:     Size  Location     Type
  1276 ;;		None
  1277 ;; Return value:  Size  Location     Type
  1278 ;;                  1    wreg      void 
  1279 ;; Registers used:
  1280 ;;		wreg
  1281 ;; Tracked objects:
  1282 ;;		On entry : 0/0
  1283 ;;		On exit  : 0/0
  1284 ;;		Unchanged: 0/0
  1285 ;; Data sizes:     COMRAM   BANK0   BANK1   BANK2
  1286 ;;      Params:         0       0       0       0
  1287 ;;      Locals:         0       0       0       0
  1288 ;;      Temps:          0       0       0       0
  1289 ;;      Totals:         0       0       0       0
  1290 ;;Total ram usage:        0 bytes
  1291 ;; Hardware stack levels used:    1
  1292 ;; Hardware stack levels required when called:    4
  1293 ;; This function calls:
  1294 ;;		Nothing
  1295 ;; This function is called by:
  1296 ;;		_OpenXLCD
  1297 ;;		_BusyXLCD
  1298 ;;		_WriteCmdXLCD
  1299 ;;		_WriteDataXLCD
  1300 ;;		_ReadAddrXLCD
  1301 ;;		_ReadDataXLCD
  1302 ;;		_SetCGRamAddr
  1303 ;;		_SetDDRamAddr
  1304 ;; This function uses a non-reentrant model
  1305 ;;
  1306                           
  1307                           	psect	text8
  1308  00082E                     __ptext8:
  1309                           	opt callstack 0
  1310  00082E                     _DelayFor18TCY:
  1311                           	opt callstack 24
  1312  00082E                     
  1313                           ;xlcd.c: 20:     _delay((unsigned long)((18)*(6000000/4000000.0)));
  1314  00082E  0E09               	movlw	9
  1315  000830                     u847:
  1316  000830  2EE8               	decfsz	wreg,f,c
  1317  000832  D7FE               	bra	u847
  1318                           
  1319                           ;xlcd.c: 21:     _delay((unsigned long)((1)*(6000000/4000.0)));
  1320  000834  0ED6               	movlw	214
  1321  000836                     u857:
  1322  000836  D000               	nop2	
  1323  000838  D000               	nop2	
  1324  00083A  2EE8               	decfsz	wreg,f,c
  1325  00083C  D7FC               	bra	u857
  1326  00083E  D000               	nop2	
  1327  000840  0012               	return		;funcret
  1328  000842                     __end_of_DelayFor18TCY:
  1329                           	opt callstack 0
  1330                           
  1331 ;; *************** function _highISR *****************
  1332 ;; Defined at:
  1333 ;;		line 40 in file "main_project.c"
  1334 ;; Parameters:    Size  Location     Type
  1335 ;;		None
  1336 ;; Auto vars:     Size  Location     Type
  1337 ;;		None
  1338 ;; Return value:  Size  Location     Type
  1339 ;;                  1    wreg      void 
  1340 ;; Registers used:
  1341 ;;		wreg, status,2, status,0, tblptrl, tblptrh, tblptru, cstack
  1342 ;; Tracked objects:
  1343 ;;		On entry : 0/0
  1344 ;;		On exit  : 0/0
  1345 ;;		Unchanged: 0/0
  1346 ;; Data sizes:     COMRAM   BANK0   BANK1   BANK2
  1347 ;;      Params:         0       0       0       0
  1348 ;;      Locals:         0       0       0       0
  1349 ;;      Temps:          4       0       0       0
  1350 ;;      Totals:         4       0       0       0
  1351 ;;Total ram usage:        4 bytes
  1352 ;; Hardware stack levels used:    1
  1353 ;; Hardware stack levels required when called:    3
  1354 ;; This function calls:
  1355 ;;		i2_BusyXLCD
  1356 ;;		i2_WriteCmdXLCD
  1357 ;;		i2_putsXLCD
  1358 ;; This function is called by:
  1359 ;;		Interrupt level 2
  1360 ;; This function uses a non-reentrant model
  1361 ;;
  1362                           
  1363                           	psect	intcode
  1364  000008                     __pintcode:
  1365                           	opt callstack 0
  1366  000008                     _highISR:
  1367                           	opt callstack 24
  1368                           
  1369                           ;incstack = 0
  1370  000008  820D               	bsf	int$flags,1,c	;set compiler interrupt flag (level 2)
  1371  00000A  CFF6 F004          	movff	tblptrl,??_highISR
  1372  00000E  CFF7 F005          	movff	tblptrh,??_highISR+1
  1373  000012  CFF8 F006          	movff	tblptru,??_highISR+2
  1374  000016  CFF5 F007          	movff	tablat,??_highISR+3
  1375  00001A                     
  1376                           ;main_project.c: 42:     }
  1377  00001A  A8F2               	btfss	242,4,c	;volatile
  1378  00001C  EF12  F000         	goto	i2u48_41
  1379  000020  EF14  F000         	goto	i2u48_40
  1380  000024                     i2u48_41:
  1381  000024  EF47  F000         	goto	i2l55
  1382  000028                     i2u48_40:
  1383  000028  A2F2               	btfss	242,1,c	;volatile
  1384  00002A  EF19  F000         	goto	i2u49_41
  1385  00002E  EF1B  F000         	goto	i2u49_40
  1386  000032                     i2u49_41:
  1387  000032  EF47  F000         	goto	i2l55
  1388  000036                     i2u49_40:
  1389  000036  B081               	btfsc	129,0,c	;volatile
  1390  000038  EF20  F000         	goto	i2u50_41
  1391  00003C  EF22  F000         	goto	i2u50_40
  1392  000040                     i2u50_41:
  1393  000040  EF47  F000         	goto	i2l55
  1394  000044                     i2u50_40:
  1395  000044  B681               	btfsc	129,3,c	;volatile
  1396  000046  EF27  F000         	goto	i2u51_41
  1397  00004A  EF29  F000         	goto	i2u51_40
  1398  00004E                     i2u51_41:
  1399  00004E  EF47  F000         	goto	i2l55
  1400  000052                     i2u51_40:
  1401  000052                     
  1402                           ;main_project.c: 47: 
  1403  000052  0EC0               	movlw	192
  1404  000054  ECE7  F003         	call	i2_WriteCmdXLCD
  1405  000058                     i2l1494:
  1406  000058  EC67  F003         	call	i2_BusyXLCD	;wreg free
  1407  00005C  0900               	iorlw	0
  1408  00005E  A4D8               	btfss	status,2,c
  1409  000060  EF34  F000         	goto	i2u52_41
  1410  000064  EF36  F000         	goto	i2u52_40
  1411  000068                     i2u52_41:
  1412  000068  EF2C  F000         	goto	i2l1494
  1413  00006C                     i2u52_40:
  1414  00006C                     
  1415                           ;main_project.c: 54: 
  1416  00006C  0E1E               	movlw	low STR_1
  1417  00006E  6E02               	movwf	i2putsXLCD@buffer^0,c
  1418  000070  0E03               	movlw	high STR_1
  1419  000072  6E03               	movwf	(i2putsXLCD@buffer+1)^0,c
  1420  000074  EC1F  F003         	call	i2_putsXLCD	;wreg free
  1421  000078                     i2l1498:
  1422  000078  EC67  F003         	call	i2_BusyXLCD	;wreg free
  1423  00007C  0900               	iorlw	0
  1424  00007E  A4D8               	btfss	status,2,c
  1425  000080  EF44  F000         	goto	i2u53_41
  1426  000084  EF46  F000         	goto	i2u53_40
  1427  000088                     i2u53_41:
  1428  000088  EF3C  F000         	goto	i2l1498
  1429  00008C                     i2u53_40:
  1430  00008C                     
  1431                           ;main_project.c: 57:         while (BusyXLCD());
  1432  00008C  92F2               	bcf	242,1,c	;volatile
  1433  00008E                     i2l55:
  1434                           
  1435                           ;main_project.c: 60:     }
  1436  00008E  A6F0               	btfss	240,3,c	;volatile
  1437  000090  EF4C  F000         	goto	i2u54_41
  1438  000094  EF4E  F000         	goto	i2u54_40
  1439  000098                     i2u54_41:
  1440  000098  EF81  F000         	goto	i2l62
  1441  00009C                     i2u54_40:
  1442  00009C  A0F0               	btfss	240,0,c	;volatile
  1443  00009E  EF53  F000         	goto	i2u55_41
  1444  0000A2  EF55  F000         	goto	i2u55_40
  1445  0000A6                     i2u55_41:
  1446  0000A6  EF81  F000         	goto	i2l62
  1447  0000AA                     i2u55_40:
  1448  0000AA  B281               	btfsc	129,1,c	;volatile
  1449  0000AC  EF5A  F000         	goto	i2u56_41
  1450  0000B0  EF5C  F000         	goto	i2u56_40
  1451  0000B4                     i2u56_41:
  1452  0000B4  EF81  F000         	goto	i2l62
  1453  0000B8                     i2u56_40:
  1454  0000B8  B681               	btfsc	129,3,c	;volatile
  1455  0000BA  EF61  F000         	goto	i2u57_41
  1456  0000BE  EF63  F000         	goto	i2u57_40
  1457  0000C2                     i2u57_41:
  1458  0000C2  EF81  F000         	goto	i2l62
  1459  0000C6                     i2u57_40:
  1460  0000C6                     
  1461                           ;main_project.c: 65: 
  1462  0000C6  0EC1               	movlw	193
  1463  0000C8  ECE7  F003         	call	i2_WriteCmdXLCD
  1464  0000CC                     i2l1508:
  1465  0000CC  EC67  F003         	call	i2_BusyXLCD	;wreg free
  1466  0000D0  0900               	iorlw	0
  1467  0000D2  A4D8               	btfss	status,2,c
  1468  0000D4  EF6E  F000         	goto	i2u58_41
  1469  0000D8  EF70  F000         	goto	i2u58_40
  1470  0000DC                     i2u58_41:
  1471  0000DC  EF66  F000         	goto	i2l1508
  1472  0000E0                     i2u58_40:
  1473  0000E0                     
  1474                           ;main_project.c: 72: 
  1475  0000E0  0E20               	movlw	low STR_2
  1476  0000E2  6E02               	movwf	i2putsXLCD@buffer^0,c
  1477  0000E4  0E03               	movlw	high STR_2
  1478  0000E6  6E03               	movwf	(i2putsXLCD@buffer+1)^0,c
  1479  0000E8  EC1F  F003         	call	i2_putsXLCD	;wreg free
  1480  0000EC                     i2l1512:
  1481  0000EC  EC67  F003         	call	i2_BusyXLCD	;wreg free
  1482  0000F0  0900               	iorlw	0
  1483  0000F2  A4D8               	btfss	status,2,c
  1484  0000F4  EF7E  F000         	goto	i2u59_41
  1485  0000F8  EF80  F000         	goto	i2u59_40
  1486  0000FC                     i2u59_41:
  1487  0000FC  EF76  F000         	goto	i2l1512
  1488  000100                     i2u59_40:
  1489  000100                     
  1490                           ;main_project.c: 75:     ANSELA=0;
  1491  000100  90F0               	bcf	240,0,c	;volatile
  1492  000102                     i2l62:
  1493                           
  1494                           ;main_project.c: 78:     ANSELD=0;
  1495  000102  A8F2               	btfss	242,4,c	;volatile
  1496  000104  EF86  F000         	goto	i2u60_41
  1497  000108  EF88  F000         	goto	i2u60_40
  1498  00010C                     i2u60_41:
  1499  00010C  EFBB  F000         	goto	i2l76
  1500  000110                     i2u60_40:
  1501  000110  A2F2               	btfss	242,1,c	;volatile
  1502  000112  EF8D  F000         	goto	i2u61_41
  1503  000116  EF8F  F000         	goto	i2u61_40
  1504  00011A                     i2u61_41:
  1505  00011A  EFBB  F000         	goto	i2l76
  1506  00011E                     i2u61_40:
  1507  00011E  B081               	btfsc	129,0,c	;volatile
  1508  000120  EF94  F000         	goto	i2u62_41
  1509  000124  EF96  F000         	goto	i2u62_40
  1510  000128                     i2u62_41:
  1511  000128  EFBB  F000         	goto	i2l76
  1512  00012C                     i2u62_40:
  1513  00012C  B881               	btfsc	129,4,c	;volatile
  1514  00012E  EF9B  F000         	goto	i2u63_41
  1515  000132  EF9D  F000         	goto	i2u63_40
  1516  000136                     i2u63_41:
  1517  000136  EFBB  F000         	goto	i2l76
  1518  00013A                     i2u63_40:
  1519  00013A                     
  1520                           ;main_project.c: 83: 
  1521  00013A  0EC2               	movlw	194
  1522  00013C  ECE7  F003         	call	i2_WriteCmdXLCD
  1523  000140                     i2l1522:
  1524  000140  EC67  F003         	call	i2_BusyXLCD	;wreg free
  1525  000144  0900               	iorlw	0
  1526  000146  A4D8               	btfss	status,2,c
  1527  000148  EFA8  F000         	goto	i2u64_41
  1528  00014C  EFAA  F000         	goto	i2u64_40
  1529  000150                     i2u64_41:
  1530  000150  EFA0  F000         	goto	i2l1522
  1531  000154                     i2u64_40:
  1532  000154                     
  1533                           ;main_project.c: 90: 
  1534  000154  0E22               	movlw	low STR_3
  1535  000156  6E02               	movwf	i2putsXLCD@buffer^0,c
  1536  000158  0E03               	movlw	high STR_3
  1537  00015A  6E03               	movwf	(i2putsXLCD@buffer+1)^0,c
  1538  00015C  EC1F  F003         	call	i2_putsXLCD	;wreg free
  1539  000160                     i2l1526:
  1540  000160  EC67  F003         	call	i2_BusyXLCD	;wreg free
  1541  000164  0900               	iorlw	0
  1542  000166  A4D8               	btfss	status,2,c
  1543  000168  EFB8  F000         	goto	i2u65_41
  1544  00016C  EFBA  F000         	goto	i2u65_40
  1545  000170                     i2u65_41:
  1546  000170  EFB0  F000         	goto	i2l1526
  1547  000174                     i2u65_40:
  1548  000174                     
  1549                           ;main_project.c: 93: 
  1550  000174  92F2               	bcf	242,1,c	;volatile
  1551  000176                     i2l76:
  1552  000176  C007  FFF5         	movff	??_highISR+3,tablat
  1553  00017A  C006  FFF8         	movff	??_highISR+2,tblptru
  1554  00017E  C005  FFF7         	movff	??_highISR+1,tblptrh
  1555  000182  C004  FFF6         	movff	??_highISR,tblptrl
  1556  000186  920D               	bcf	int$flags,1,c	;clear compiler interrupt flag (level 2)
  1557  000188  0011               	retfie		f
  1558  00018A                     __end_of_highISR:
  1559                           	opt callstack 0
  1560                           
  1561 ;; *************** function i2_putsXLCD *****************
  1562 ;; Defined at:
  1563 ;;		line 302 in file "xlcd.c"
  1564 ;; Parameters:    Size  Location     Type
  1565 ;;  buffer          2    1[COMRAM] PTR unsigned char 
  1566 ;;		 -> STR_5(16), STR_4(13), STR_3(2), STR_2(2), 
  1567 ;;		 -> STR_1(2), 
  1568 ;; Auto vars:     Size  Location     Type
  1569 ;;		None
  1570 ;; Return value:  Size  Location     Type
  1571 ;;                  1    wreg      void 
  1572 ;; Registers used:
  1573 ;;		wreg, status,2, status,0, tblptrl, tblptrh, tblptru, cstack
  1574 ;; Tracked objects:
  1575 ;;		On entry : 0/0
  1576 ;;		On exit  : 0/0
  1577 ;;		Unchanged: 0/0
  1578 ;; Data sizes:     COMRAM   BANK0   BANK1   BANK2
  1579 ;;      Params:         2       0       0       0
  1580 ;;      Locals:         0       0       0       0
  1581 ;;      Temps:          0       0       0       0
  1582 ;;      Totals:         2       0       0       0
  1583 ;;Total ram usage:        2 bytes
  1584 ;; Hardware stack levels used:    1
  1585 ;; Hardware stack levels required when called:    2
  1586 ;; This function calls:
  1587 ;;		i2_BusyXLCD
  1588 ;;		i2_WriteDataXLCD
  1589 ;; This function is called by:
  1590 ;;		_highISR
  1591 ;; This function uses a non-reentrant model
  1592 ;;
  1593                           
  1594                           	psect	text10
  1595  00063E                     __ptext10:
  1596                           	opt callstack 0
  1597  00063E                     i2_putsXLCD:
  1598                           	opt callstack 24
  1599  00063E                     
  1600                           ;xlcd.c: 303:     while (*buffer)
  1601  00063E  EF35  F003         	goto	i2l1458
  1602  000642                     i2l1452:
  1603  000642  EC67  F003         	call	i2_BusyXLCD	;wreg free
  1604  000646  0900               	iorlw	0
  1605  000648  A4D8               	btfss	status,2,c
  1606  00064A  EF29  F003         	goto	i2u46_41
  1607  00064E  EF2B  F003         	goto	i2u46_40
  1608  000652                     i2u46_41:
  1609  000652  EF21  F003         	goto	i2l1452
  1610  000656                     i2u46_40:
  1611  000656                     
  1612                           ;xlcd.c: 306:         WriteDataXLCD(*buffer);
  1613  000656  C002  FFF6         	movff	i2putsXLCD@buffer,tblptrl
  1614  00065A  C003  FFF7         	movff	i2putsXLCD@buffer+1,tblptrh
  1615  00065E                     	if	0	;tblptru may be non-zero
  1616  00065E                     	endif
  1617  00065E                     	if	0	;tblptru may be non-zero
  1618  00065E                     	endif
  1619  00065E  0008               	tblrd		*
  1620  000660  50F5               	movf	tablat,w,c
  1621  000662  ECC8  F003         	call	i2_WriteDataXLCD
  1622  000666                     
  1623                           ;xlcd.c: 307:         buffer++;
  1624  000666  4A02               	infsnz	i2putsXLCD@buffer^0,f,c
  1625  000668  2A03               	incf	(i2putsXLCD@buffer+1)^0,f,c
  1626  00066A                     i2l1458:
  1627                           
  1628                           ;xlcd.c: 303:     while (*buffer)
  1629  00066A  C002  FFF6         	movff	i2putsXLCD@buffer,tblptrl
  1630  00066E  C003  FFF7         	movff	i2putsXLCD@buffer+1,tblptrh
  1631  000672                     	if	0	;tblptru may be non-zero
  1632  000672                     	endif
  1633  000672                     	if	0	;tblptru may be non-zero
  1634  000672                     	endif
  1635  000672  0008               	tblrd		*
  1636  000674  50F5               	movf	tablat,w,c
  1637  000676  0900               	iorlw	0
  1638  000678  A4D8               	btfss	status,2,c
  1639  00067A  EF41  F003         	goto	i2u47_41
  1640  00067E  EF43  F003         	goto	i2u47_40
  1641  000682                     i2u47_41:
  1642  000682  EF21  F003         	goto	i2l1452
  1643  000686                     i2u47_40:
  1644  000686  0012               	return		;funcret
  1645  000688                     __end_ofi2_putsXLCD:
  1646                           	opt callstack 0
  1647                           
  1648 ;; *************** function i2_WriteDataXLCD *****************
  1649 ;; Defined at:
  1650 ;;		line 598 in file "xlcd.c"
  1651 ;; Parameters:    Size  Location     Type
  1652 ;;  data            1    wreg     unsigned char 
  1653 ;; Auto vars:     Size  Location     Type
  1654 ;;  data            1    0[COMRAM] unsigned char 
  1655 ;; Return value:  Size  Location     Type
  1656 ;;                  1    wreg      void 
  1657 ;; Registers used:
  1658 ;;		wreg, status,2, status,0, cstack
  1659 ;; Tracked objects:
  1660 ;;		On entry : 0/0
  1661 ;;		On exit  : 0/0
  1662 ;;		Unchanged: 0/0
  1663 ;; Data sizes:     COMRAM   BANK0   BANK1   BANK2
  1664 ;;      Params:         0       0       0       0
  1665 ;;      Locals:         1       0       0       0
  1666 ;;      Temps:          0       0       0       0
  1667 ;;      Totals:         1       0       0       0
  1668 ;;Total ram usage:        1 bytes
  1669 ;; Hardware stack levels used:    1
  1670 ;; Hardware stack levels required when called:    1
  1671 ;; This function calls:
  1672 ;;		i2_DelayFor18TCY
  1673 ;; This function is called by:
  1674 ;;		i2_putsXLCD
  1675 ;; This function uses a non-reentrant model
  1676 ;;
  1677                           
  1678                           	psect	text11
  1679  000790                     __ptext11:
  1680                           	opt callstack 0
  1681  000790                     i2_WriteDataXLCD:
  1682                           	opt callstack 24
  1683                           
  1684                           ;incstack = 0
  1685                           ;i2WriteDataXLCD@data stored from wreg
  1686  000790  6E01               	movwf	i2WriteDataXLCD@data^0,c
  1687  000792                     
  1688                           ;xlcd.c: 616:     TRISD &= 0xf0;
  1689  000792  0EF0               	movlw	240
  1690  000794  1695               	andwf	149,f,c	;volatile
  1691                           
  1692                           ;xlcd.c: 617:     PORTD &= 0xf0;
  1693  000796  0EF0               	movlw	240
  1694  000798  1683               	andwf	131,f,c	;volatile
  1695                           
  1696                           ;xlcd.c: 618:     PORTD |= ((data >> 4)&0x0f);
  1697  00079A  3801               	swapf	i2WriteDataXLCD@data^0,w,c
  1698  00079C  0B0F               	andlw	15
  1699  00079E  0B0F               	andlw	15
  1700  0007A0  1283               	iorwf	131,f,c	;volatile
  1701  0007A2                     
  1702                           ;xlcd.c: 620:     LATDbits.LATD4 = 1;
  1703  0007A2  888C               	bsf	140,4,c	;volatile
  1704  0007A4                     
  1705                           ;xlcd.c: 621:     LATDbits.LATD5 = 0;
  1706  0007A4  9A8C               	bcf	140,5,c	;volatile
  1707  0007A6                     
  1708                           ;xlcd.c: 622:     DelayFor18TCY();
  1709  0007A6  EC21  F004         	call	i2_DelayFor18TCY	;wreg free
  1710  0007AA                     
  1711                           ;xlcd.c: 623:     LATDbits.LATD6 = 1;
  1712  0007AA  8C8C               	bsf	140,6,c	;volatile
  1713  0007AC                     
  1714                           ;xlcd.c: 624:     DelayFor18TCY();
  1715  0007AC  EC21  F004         	call	i2_DelayFor18TCY	;wreg free
  1716  0007B0                     
  1717                           ;xlcd.c: 625:     LATDbits.LATD6 = 0;
  1718  0007B0  9C8C               	bcf	140,6,c	;volatile
  1719                           
  1720                           ;xlcd.c: 630:     PORTD &= 0xf0;
  1721  0007B2  0EF0               	movlw	240
  1722  0007B4  1683               	andwf	131,f,c	;volatile
  1723                           
  1724                           ;xlcd.c: 631:     PORTD |= (data & 0x0f);
  1725  0007B6  5001               	movf	i2WriteDataXLCD@data^0,w,c
  1726  0007B8  0B0F               	andlw	15
  1727  0007BA  1283               	iorwf	131,f,c	;volatile
  1728  0007BC                     
  1729                           ;xlcd.c: 633:     DelayFor18TCY();
  1730  0007BC  EC21  F004         	call	i2_DelayFor18TCY	;wreg free
  1731  0007C0                     
  1732                           ;xlcd.c: 634:     LATDbits.LATD6 = 1;
  1733  0007C0  8C8C               	bsf	140,6,c	;volatile
  1734  0007C2                     
  1735                           ;xlcd.c: 635:     DelayFor18TCY();
  1736  0007C2  EC21  F004         	call	i2_DelayFor18TCY	;wreg free
  1737  0007C6                     
  1738                           ;xlcd.c: 636:     LATDbits.LATD6 = 0;
  1739  0007C6  9C8C               	bcf	140,6,c	;volatile
  1740                           
  1741                           ;xlcd.c: 640:     TRISD |= 0x0f;
  1742  0007C8  0E0F               	movlw	15
  1743  0007CA  1295               	iorwf	149,f,c	;volatile
  1744  0007CC  0012               	return		;funcret
  1745  0007CE                     __end_ofi2_WriteDataXLCD:
  1746                           	opt callstack 0
  1747                           
  1748 ;; *************** function i2_BusyXLCD *****************
  1749 ;; Defined at:
  1750 ;;		line 218 in file "xlcd.c"
  1751 ;; Parameters:    Size  Location     Type
  1752 ;;		None
  1753 ;; Auto vars:     Size  Location     Type
  1754 ;;		None
  1755 ;; Return value:  Size  Location     Type
  1756 ;;                  1    wreg      unsigned char 
  1757 ;; Registers used:
  1758 ;;		wreg, cstack
  1759 ;; Tracked objects:
  1760 ;;		On entry : 0/0
  1761 ;;		On exit  : 0/0
  1762 ;;		Unchanged: 0/0
  1763 ;; Data sizes:     COMRAM   BANK0   BANK1   BANK2
  1764 ;;      Params:         0       0       0       0
  1765 ;;      Locals:         0       0       0       0
  1766 ;;      Temps:          0       0       0       0
  1767 ;;      Totals:         0       0       0       0
  1768 ;;Total ram usage:        0 bytes
  1769 ;; Hardware stack levels used:    1
  1770 ;; Hardware stack levels required when called:    1
  1771 ;; This function calls:
  1772 ;;		i2_DelayFor18TCY
  1773 ;; This function is called by:
  1774 ;;		_highISR
  1775 ;;		i2_putsXLCD
  1776 ;; This function uses a non-reentrant model
  1777 ;;
  1778                           
  1779                           	psect	text12
  1780  0006CE                     __ptext12:
  1781                           	opt callstack 0
  1782  0006CE                     i2_BusyXLCD:
  1783                           	opt callstack 24
  1784  0006CE                     
  1785                           ;xlcd.c: 219:     LATDbits.LATD5 = 1;
  1786  0006CE  8A8C               	bsf	140,5,c	;volatile
  1787                           
  1788                           ;xlcd.c: 220:     LATDbits.LATD4 = 0;
  1789  0006D0  988C               	bcf	140,4,c	;volatile
  1790  0006D2                     
  1791                           ;xlcd.c: 221:     DelayFor18TCY();
  1792  0006D2  EC21  F004         	call	i2_DelayFor18TCY	;wreg free
  1793  0006D6                     
  1794                           ;xlcd.c: 222:     LATDbits.LATD6 = 1;
  1795  0006D6  8C8C               	bsf	140,6,c	;volatile
  1796                           
  1797                           ;xlcd.c: 223:     DelayFor18TCY();
  1798  0006D8  EC21  F004         	call	i2_DelayFor18TCY	;wreg free
  1799  0006DC                     
  1800                           ;xlcd.c: 240:     if (PORTD & 0x08)
  1801  0006DC  A683               	btfss	131,3,c	;volatile
  1802  0006DE  EF73  F003         	goto	i2u43_41
  1803  0006E2  EF75  F003         	goto	i2u43_40
  1804  0006E6                     i2u43_41:
  1805  0006E6  EF80  F003         	goto	i2l163
  1806  0006EA                     i2u43_40:
  1807  0006EA                     
  1808                           ;xlcd.c: 242:     {;xlcd.c: 243:         LATDbits.LATD6 = 0;
  1809  0006EA  9C8C               	bcf	140,6,c	;volatile
  1810  0006EC                     
  1811                           ;xlcd.c: 244:         DelayFor18TCY();
  1812  0006EC  EC21  F004         	call	i2_DelayFor18TCY	;wreg free
  1813  0006F0                     
  1814                           ;xlcd.c: 245:         LATDbits.LATD6 = 1;
  1815  0006F0  8C8C               	bsf	140,6,c	;volatile
  1816                           
  1817                           ;xlcd.c: 246:         DelayFor18TCY();
  1818  0006F2  EC21  F004         	call	i2_DelayFor18TCY	;wreg free
  1819  0006F6                     
  1820                           ;xlcd.c: 247:         LATDbits.LATD6 = 0;
  1821  0006F6  9C8C               	bcf	140,6,c	;volatile
  1822  0006F8                     
  1823                           ;xlcd.c: 248:         LATDbits.LATD5 = 0;
  1824  0006F8  9A8C               	bcf	140,5,c	;volatile
  1825  0006FA                     
  1826                           ;xlcd.c: 249:         return 1;
  1827  0006FA  0E01               	movlw	1
  1828  0006FC  EF89  F003         	goto	i2l164
  1829  000700                     i2l163:
  1830                           
  1831                           ;xlcd.c: 251:     {;xlcd.c: 252:         LATDbits.LATD6 = 0;
  1832  000700  9C8C               	bcf	140,6,c	;volatile
  1833  000702                     
  1834                           ;xlcd.c: 253:         DelayFor18TCY();
  1835  000702  EC21  F004         	call	i2_DelayFor18TCY	;wreg free
  1836  000706                     
  1837                           ;xlcd.c: 254:         LATDbits.LATD6 = 1;
  1838  000706  8C8C               	bsf	140,6,c	;volatile
  1839                           
  1840                           ;xlcd.c: 255:         DelayFor18TCY();
  1841  000708  EC21  F004         	call	i2_DelayFor18TCY	;wreg free
  1842  00070C                     
  1843                           ;xlcd.c: 256:         LATDbits.LATD6 = 0;
  1844  00070C  9C8C               	bcf	140,6,c	;volatile
  1845  00070E                     
  1846                           ;xlcd.c: 257:         LATDbits.LATD5 = 0;
  1847  00070E  9A8C               	bcf	140,5,c	;volatile
  1848  000710                     
  1849                           ;xlcd.c: 258:         return 0;
  1850  000710  0E00               	movlw	0
  1851  000712                     i2l164:
  1852  000712  0012               	return		;funcret
  1853  000714                     __end_ofi2_BusyXLCD:
  1854                           	opt callstack 0
  1855                           
  1856 ;; *************** function i2_WriteCmdXLCD *****************
  1857 ;; Defined at:
  1858 ;;		line 538 in file "xlcd.c"
  1859 ;; Parameters:    Size  Location     Type
  1860 ;;  cmd             1    wreg     unsigned char 
  1861 ;; Auto vars:     Size  Location     Type
  1862 ;;  cmd             1    0[COMRAM] unsigned char 
  1863 ;; Return value:  Size  Location     Type
  1864 ;;                  1    wreg      void 
  1865 ;; Registers used:
  1866 ;;		wreg, status,2, status,0, cstack
  1867 ;; Tracked objects:
  1868 ;;		On entry : 0/0
  1869 ;;		On exit  : 0/0
  1870 ;;		Unchanged: 0/0
  1871 ;; Data sizes:     COMRAM   BANK0   BANK1   BANK2
  1872 ;;      Params:         0       0       0       0
  1873 ;;      Locals:         1       0       0       0
  1874 ;;      Temps:          0       0       0       0
  1875 ;;      Totals:         1       0       0       0
  1876 ;;Total ram usage:        1 bytes
  1877 ;; Hardware stack levels used:    1
  1878 ;; Hardware stack levels required when called:    1
  1879 ;; This function calls:
  1880 ;;		i2_DelayFor18TCY
  1881 ;; This function is called by:
  1882 ;;		_highISR
  1883 ;; This function uses a non-reentrant model
  1884 ;;
  1885                           
  1886                           	psect	text13
  1887  0007CE                     __ptext13:
  1888                           	opt callstack 0
  1889  0007CE                     i2_WriteCmdXLCD:
  1890                           	opt callstack 25
  1891                           
  1892                           ;incstack = 0
  1893                           ;i2WriteCmdXLCD@cmd stored from wreg
  1894  0007CE  6E01               	movwf	i2WriteCmdXLCD@cmd^0,c
  1895  0007D0                     
  1896                           ;xlcd.c: 556:     TRISD &= 0xf0;
  1897  0007D0  0EF0               	movlw	240
  1898  0007D2  1695               	andwf	149,f,c	;volatile
  1899                           
  1900                           ;xlcd.c: 557:     PORTD &= 0xf0;
  1901  0007D4  0EF0               	movlw	240
  1902  0007D6  1683               	andwf	131,f,c	;volatile
  1903                           
  1904                           ;xlcd.c: 558:     PORTD |= (cmd >> 4)&0x0f;
  1905  0007D8  3801               	swapf	i2WriteCmdXLCD@cmd^0,w,c
  1906  0007DA  0B0F               	andlw	15
  1907  0007DC  0B0F               	andlw	15
  1908  0007DE  1283               	iorwf	131,f,c	;volatile
  1909  0007E0                     
  1910                           ;xlcd.c: 560:     LATDbits.LATD5 = 0;
  1911  0007E0  9A8C               	bcf	140,5,c	;volatile
  1912  0007E2                     
  1913                           ;xlcd.c: 561:     LATDbits.LATD4 = 0;
  1914  0007E2  988C               	bcf	140,4,c	;volatile
  1915  0007E4                     
  1916                           ;xlcd.c: 562:     DelayFor18TCY();
  1917  0007E4  EC21  F004         	call	i2_DelayFor18TCY	;wreg free
  1918  0007E8                     
  1919                           ;xlcd.c: 563:     LATDbits.LATD6 = 1;
  1920  0007E8  8C8C               	bsf	140,6,c	;volatile
  1921  0007EA                     
  1922                           ;xlcd.c: 564:     DelayFor18TCY();
  1923  0007EA  EC21  F004         	call	i2_DelayFor18TCY	;wreg free
  1924  0007EE                     
  1925                           ;xlcd.c: 565:     LATDbits.LATD6 = 0;
  1926  0007EE  9C8C               	bcf	140,6,c	;volatile
  1927                           
  1928                           ;xlcd.c: 570:     PORTD &= 0xf0;
  1929  0007F0  0EF0               	movlw	240
  1930  0007F2  1683               	andwf	131,f,c	;volatile
  1931                           
  1932                           ;xlcd.c: 571:     PORTD |= cmd & 0x0f;
  1933  0007F4  5001               	movf	i2WriteCmdXLCD@cmd^0,w,c
  1934  0007F6  0B0F               	andlw	15
  1935  0007F8  1283               	iorwf	131,f,c	;volatile
  1936  0007FA                     
  1937                           ;xlcd.c: 573:     DelayFor18TCY();
  1938  0007FA  EC21  F004         	call	i2_DelayFor18TCY	;wreg free
  1939  0007FE                     
  1940                           ;xlcd.c: 574:     LATDbits.LATD6 = 1;
  1941  0007FE  8C8C               	bsf	140,6,c	;volatile
  1942  000800                     
  1943                           ;xlcd.c: 575:     DelayFor18TCY();
  1944  000800  EC21  F004         	call	i2_DelayFor18TCY	;wreg free
  1945  000804                     
  1946                           ;xlcd.c: 576:     LATDbits.LATD6 = 0;
  1947  000804  9C8C               	bcf	140,6,c	;volatile
  1948                           
  1949                           ;xlcd.c: 580:     TRISD |= 0x0f;
  1950  000806  0E0F               	movlw	15
  1951  000808  1295               	iorwf	149,f,c	;volatile
  1952  00080A  0012               	return		;funcret
  1953  00080C                     __end_ofi2_WriteCmdXLCD:
  1954                           	opt callstack 0
  1955                           
  1956 ;; *************** function i2_DelayFor18TCY *****************
  1957 ;; Defined at:
  1958 ;;		line 18 in file "xlcd.c"
  1959 ;; Parameters:    Size  Location     Type
  1960 ;;		None
  1961 ;; Auto vars:     Size  Location     Type
  1962 ;;		None
  1963 ;; Return value:  Size  Location     Type
  1964 ;;                  1    wreg      void 
  1965 ;; Registers used:
  1966 ;;		wreg
  1967 ;; Tracked objects:
  1968 ;;		On entry : 0/0
  1969 ;;		On exit  : 0/0
  1970 ;;		Unchanged: 0/0
  1971 ;; Data sizes:     COMRAM   BANK0   BANK1   BANK2
  1972 ;;      Params:         0       0       0       0
  1973 ;;      Locals:         0       0       0       0
  1974 ;;      Temps:          0       0       0       0
  1975 ;;      Totals:         0       0       0       0
  1976 ;;Total ram usage:        0 bytes
  1977 ;; Hardware stack levels used:    1
  1978 ;; This function calls:
  1979 ;;		Nothing
  1980 ;; This function is called by:
  1981 ;;		i2_BusyXLCD
  1982 ;;		i2_WriteCmdXLCD
  1983 ;;		i2_WriteDataXLCD
  1984 ;; This function uses a non-reentrant model
  1985 ;;
  1986                           
  1987                           	psect	text14
  1988  000842                     __ptext14:
  1989                           	opt callstack 0
  1990  000842                     i2_DelayFor18TCY:
  1991                           	opt callstack 24
  1992  000842                     
  1993                           ;xlcd.c: 20:     _delay((unsigned long)((18)*(6000000/4000000.0)));
  1994  000842  0E09               	movlw	9
  1995  000844                     i2u86_47:
  1996  000844  2EE8               	decfsz	wreg,f,c
  1997  000846  D7FE               	bra	i2u86_47
  1998                           
  1999                           ;xlcd.c: 21:     _delay((unsigned long)((1)*(6000000/4000.0)));
  2000  000848  0ED6               	movlw	214
  2001  00084A                     i2u87_47:
  2002  00084A  D000               	nop2	
  2003  00084C  D000               	nop2	
  2004  00084E  2EE8               	decfsz	wreg,f,c
  2005  000850  D7FC               	bra	i2u87_47
  2006  000852  D000               	nop2	
  2007  000854  0012               	return		;funcret
  2008  000856                     __end_ofi2_DelayFor18TCY:
  2009                           	opt callstack 0
  2010                           
  2011                           	psect	rparam
  2012  0000                     
  2013                           	psect	temp
  2014  00000D                     btemp:
  2015                           	opt callstack 0
  2016  00000D                     	ds	1
  2017  0000                     int$flags	set	btemp
  2018  0000                     wtemp8	set	btemp+1
  2019  0000                     ttemp5	set	btemp+1
  2020  0000                     ttemp6	set	btemp+4
  2021  0000                     ttemp7	set	btemp+8
  2022                           tosu	equ	0xFFF
  2023                           tosh	equ	0xFFE
  2024                           tosl	equ	0xFFD
  2025                           stkptr	equ	0xFFC
  2026                           pclatu	equ	0xFFB
  2027                           pclath	equ	0xFFA
  2028                           pcl	equ	0xFF9
  2029                           tblptru	equ	0xFF8
  2030                           tblptrh	equ	0xFF7
  2031                           tblptrl	equ	0xFF6
  2032                           tablat	equ	0xFF5
  2033                           prodh	equ	0xFF4
  2034                           prodl	equ	0xFF3
  2035                           indf0	equ	0xFEF
  2036                           postinc0	equ	0xFEE
  2037                           postdec0	equ	0xFED
  2038                           preinc0	equ	0xFEC
  2039                           plusw0	equ	0xFEB
  2040                           fsr0h	equ	0xFEA
  2041                           fsr0l	equ	0xFE9
  2042                           wreg	equ	0xFE8
  2043                           indf1	equ	0xFE7
  2044                           postinc1	equ	0xFE6
  2045                           postdec1	equ	0xFE5
  2046                           preinc1	equ	0xFE4
  2047                           plusw1	equ	0xFE3
  2048                           fsr1h	equ	0xFE2
  2049                           fsr1l	equ	0xFE1
  2050                           bsr	equ	0xFE0
  2051                           indf2	equ	0xFDF
  2052                           postinc2	equ	0xFDE
  2053                           postdec2	equ	0xFDD
  2054                           preinc2	equ	0xFDC
  2055                           plusw2	equ	0xFDB
  2056                           fsr2h	equ	0xFDA
  2057                           fsr2l	equ	0xFD9
  2058                           status	equ	0xFD8


Data Sizes:
    Strings     35
    Constant    0
    Data        0
    BSS         0
    Persistent  0
    Stack       0

Auto Spaces:
    Space          Size  Autos    Used
    COMRAM           94     12      12
    BANK0           160      0       0
    BANK1           256      0       0
    BANK2           256      0       0

Pointer List with Targets:

    putsXLCD@buffer	PTR unsigned char  size(2) Largest target is 16
		 -> STR_5(CODE[16]), STR_4(CODE[13]), STR_3(CODE[2]), STR_2(CODE[2]), 
		 -> STR_1(CODE[2]), 


Critical Paths under _main in COMRAM

    _main->_putsXLCD
    _putsXLCD->_WriteDataXLCD
    _OpenXLCD->_DelayPORXLCD
    _OpenXLCD->_DelayXLCD
    _OpenXLCD->_WriteCmdXLCD

Critical Paths under _highISR in COMRAM

    _highISR->i2_putsXLCD
    i2_putsXLCD->i2_WriteDataXLCD

Critical Paths under _main in BANK0

    None.

Critical Paths under _highISR in BANK0

    None.

Critical Paths under _main in BANK1

    None.

Critical Paths under _highISR in BANK1

    None.

Critical Paths under _main in BANK2

    None.

Critical Paths under _highISR in BANK2

    None.

Call Graph Tables:

 ---------------------------------------------------------------------------------
 (Depth) Function   	        Calls       Base Space   Used Autos Params    Refs
 ---------------------------------------------------------------------------------
 (0) _main                                                 2     2      0     437
                                             10 COMRAM     2     2      0
                           _BusyXLCD
                           _OpenXLCD
                       _WriteCmdXLCD
                           _putsXLCD
 ---------------------------------------------------------------------------------
 (1) _putsXLCD                                             2     0      2     377
                                              8 COMRAM     2     0      2
                           _BusyXLCD
                      _WriteDataXLCD
 ---------------------------------------------------------------------------------
 (2) _WriteDataXLCD                                        1     1      0      30
                                              7 COMRAM     1     1      0
                      _DelayFor18TCY
 ---------------------------------------------------------------------------------
 (1) _OpenXLCD                                             1     1      0      30
                           _BusyXLCD
                      _DelayFor18TCY
                       _DelayPORXLCD
                          _DelayXLCD
                       _WriteCmdXLCD
 ---------------------------------------------------------------------------------
 (1) _WriteCmdXLCD                                         1     1      0      30
                                              7 COMRAM     1     1      0
                      _DelayFor18TCY
 ---------------------------------------------------------------------------------
 (2) _DelayXLCD                                            1     1      0       0
                                              7 COMRAM     1     1      0
 ---------------------------------------------------------------------------------
 (2) _DelayPORXLCD                                         1     1      0       0
                                              7 COMRAM     1     1      0
 ---------------------------------------------------------------------------------
 (2) _BusyXLCD                                             0     0      0       0
                      _DelayFor18TCY
 ---------------------------------------------------------------------------------
 (3) _DelayFor18TCY                                        0     0      0       0
 ---------------------------------------------------------------------------------
 Estimated maximum stack depth 3
 ---------------------------------------------------------------------------------
 (Depth) Function   	        Calls       Base Space   Used Autos Params    Refs
 ---------------------------------------------------------------------------------
 (4) _highISR                                              4     4      0     211
                                              3 COMRAM     4     4      0
                         i2_BusyXLCD
                     i2_WriteCmdXLCD
                         i2_putsXLCD
 ---------------------------------------------------------------------------------
 (5) i2_putsXLCD                                           2     0      2     167
                                              1 COMRAM     2     0      2
                         i2_BusyXLCD
                    i2_WriteDataXLCD
 ---------------------------------------------------------------------------------
 (6) i2_WriteDataXLCD                                      1     1      0      44
                                              0 COMRAM     1     1      0
                    i2_DelayFor18TCY
 ---------------------------------------------------------------------------------
 (6) i2_BusyXLCD                                           0     0      0       0
                    i2_DelayFor18TCY
 ---------------------------------------------------------------------------------
 (5) i2_WriteCmdXLCD                                       1     1      0      44
                                              0 COMRAM     1     1      0
                    i2_DelayFor18TCY
 ---------------------------------------------------------------------------------
 (7) i2_DelayFor18TCY                                      0     0      0       0
 ---------------------------------------------------------------------------------
 Estimated maximum stack depth 7
 ---------------------------------------------------------------------------------

 Call Graph Graphs:

 _main (ROOT)
   _BusyXLCD
     _DelayFor18TCY
   _OpenXLCD
     _BusyXLCD
       _DelayFor18TCY
     _DelayFor18TCY
     _DelayPORXLCD
     _DelayXLCD
     _WriteCmdXLCD
       _DelayFor18TCY
   _WriteCmdXLCD
     _DelayFor18TCY
   _putsXLCD
     _BusyXLCD
       _DelayFor18TCY
     _WriteDataXLCD
       _DelayFor18TCY

 _highISR (ROOT)
   i2_BusyXLCD
     i2_DelayFor18TCY
   i2_WriteCmdXLCD
     i2_DelayFor18TCY
   i2_putsXLCD
     i2_BusyXLCD
       i2_DelayFor18TCY
     i2_WriteDataXLCD
       i2_DelayFor18TCY

 Address spaces:
Name               Size   Autos  Total    Cost      Usage
BITCOMRAM           5E      0       0       0        0.0%
EEDATA             100      0       0       0        0.0%
NULL                 0      0       0       0        0.0%
CODE                 0      0       0       0        0.0%
COMRAM              5E      C       C       1       12.8%
STACK                0      0       0       2        0.0%
BITBANK0            A0      0       0       3        0.0%
BANK0               A0      0       0       4        0.0%
BANK1              100      0       0       5        0.0%
BITBANK2           100      0       0       6        0.0%
BANK2              100      0       0       7        0.0%
ABS                  0      0       0       8        0.0%
BITBANK1           100      0       0       9        0.0%
BIGRAM             2FF      0       0      10        0.0%
DATA                 0      0       0      11        0.0%
BITSFR_1             0      0       0     200        0.0%
SFR_1                0      0       0     200        0.0%
BITSFR               0      0       0     200        0.0%
SFR                  0      0       0     200        0.0%


Microchip Technology PIC18 Macro Assembler V2.10 build 88905656 
Symbol Table                                                                                   Sat Mar 21 15:44:02 2020

                      u10 06A4                        u11 06A0                        u50 0570  
                      u51 056C                        u60 058A                        u61 0586  
                      u70 05A4                        u71 05A0                        u80 05B8  
                      u81 05B4                        u90 05D2                        u91 05CE  
             __CFG_LVP$ON 000000                       l133 0840                       l136 082C  
                     l160 05F2                       l163 06BA                       l139 0878  
                     l164 06CC                       l174 063C                       l192 0750  
                     l189 078E                       l900 0688                       l910 06A6  
                     l902 068C                       l912 06AA                       l904 0690  
                     l930 06C8                       l914 06B0                       l906 0696  
                     l932 06CA                       l924 06BC                       l916 06B2  
                     l908 06A4                       l940 0868                       l926 06C0  
                     l918 06B4                       l950 072A                       l928 06C6  
                     l936 080C                       l880 0766                       l960 0744  
                     l952 072E                       l944 0716                       l890 077E  
                     l882 0768                       l962 0746                       l954 0730  
                     l946 0726                       l868 082E                       l892 0782  
                     l884 076C                       l876 0754                       l964 074A  
                     l956 0734                       l948 0728                       l894 0784  
                     l886 076E                       l878 0764                       l958 0740  
                     l896 0788                       l888 0772                       u100 05EC  
                     u101 05E8                       u440 060C                       u441 0608  
                     u450 063C                       u451 0638                       u700 03F6  
                     u701 03F2                       u710 0416                       u711 0412  
                     u720 0446                       u721 0442                       u730 0460  
                     u731 045C                       u740 047A                       u660 038E  
                     u741 0476                       u661 038A                       u750 049A  
                     u670 03A8                       u807 04DA                       u751 0496  
                     u671 03A4                       u680 03C2                       u817 086E  
                     u681 03BE                       u690 03DC                       u827 0812  
                     u691 03D8                       u837 0822                       u847 0830  
                     u767 0420                       u857 0836                       u777 04A4  
                     u787 04B6                       u797 04C8     __size_of_WriteCmdXLCD 003E  
                     wreg 000FE8       i2WriteDataXLCD@data 0001                      l1100 055C  
                    l1110 05A4                      l1102 0570                      l1120 05EC  
                    l1112 05B8                      l1104 0576                      l1040 04EE  
                    l1114 05BE                      l1106 058A                      l1050 04FC  
                    l1042 04F2                      l1116 05D2                      l1108 0590  
                    l1060 050E                      l1052 04FE                      l1044 04F6  
                    l1118 05D8                      l1070 051E                      l1062 0512  
                    l1054 0500                      l1046 04F8                      l1038 04EA  
                    l1080 0536                      l1072 0522                      l1064 0514  
                    l1056 0506                      l1048 04FA                      l1090 054E  
                    l1082 053A                      l1074 0526                      l1066 0518  
                    l1058 050A                      l1092 0550                      l1084 053E  
                    l1076 052A                      l1068 051A                      l1094 0552  
                    l1086 0544                      l1078 0530                      l1096 0556  
                    l1088 054A                      l1440 05F4                      l1600 04C2  
                    l1098 0558                      l1442 05F8                      l1602 04D4  
                    l1530 035C                      l1444 060C                      l1540 036A  
                    l1532 0362                      l1446 061C                      l1550 0374  
                    l1542 036C                      l1534 0364                      l1448 0620  
                    l1560 03AE                      l1552 037A                      l1544 036E  
                    l1536 0366                      l1528 0326                      l1570 03F6  
                    l1562 03C2                      l1554 038E                      l1546 0370  
                    l1538 0368                      l1580 0446                      l1572 0402  
                    l1564 03C8                      l1556 0394                      l1548 0372  
                    l1590 0486                      l1582 044C                      l1574 0416  
                    l1566 03DC                      l1558 03A8                      l1592 049A  
                    l1584 0460                      l1576 042C                      l1568 03E2  
                    l1594 049E                      l1586 0466                      l1578 0432  
                    l1596 04AC                      l1588 047A                      l1598 04BE  
                    STR_1 031E                      STR_2 0320                      STR_3 0322  
                    STR_4 0311                      STR_5 0301                      _LATB 000F8A  
                    i2l61 008C                      i2l62 0102                      i2l55 008E  
                    i2l75 0174                      i2l76 0176                      i2l68 0100  
                    _WPUB 000F61                      _main 0326                      btemp 000D  
  __size_of_WriteDataXLCD 003E                      start 018A              ___param_bank 000000  
              i2_putsXLCD 063E              _WriteCmdXLCD 0752          ?i2_DelayFor18TCY 0001  
                   ?_main 0001   __size_ofi2_WriteCmdXLCD 003E                     i2l133 0854  
                   i2l163 0700                     i2l164 0712                     i2l174 0686  
                   i2l192 07CC                     i2l189 080A                     _PORTD 000F83  
                   _TRISA 000F92                     _TRISB 000F93                     _TRISC 000F94  
                   _TRISD 000F95                     _TRISE 000F96           __end_of_highISR 018A  
             ?i2_BusyXLCD 0001                     tablat 000FF5                     ttemp5 000E  
                   ttemp6 0011                     ttemp7 0015                     status 000FD8  
                   wtemp8 000E            __CFG_FOSC$ECMP 000000           __initialization 0856  
            __end_of_main 04EA          __end_of_BusyXLCD 06CE        __size_of_DelayXLCD 0012  
   __size_of_DelayPORXLCD 0022          __end_of_OpenXLCD 05F4                    ??_main 000B  
           __activetblptr 000001             _WriteDataXLCD 0714                    _ANSELA 000F38  
                  _ANSELB 000F39                    _ANSELC 000F3A                    _ANSELD 000F3B  
                  _ANSELE 000F3C                    i2l1410 070E                    i2l1412 0710  
                  i2l1404 0702                    i2l1420 07A4                    i2l1500 009C  
                  i2l1406 0706                    i2l1430 07BC                    i2l1422 07A6  
                  i2l1510 00E0                    i2l1502 00AA                    i2l1408 070C  
                  i2l1432 07C0                    i2l1424 07AA                    i2l1416 0792  
                  i2l1520 013A                    i2l1512 00EC                    i2l1504 00B8  
                  i2l1434 07C2                    i2l1426 07AC                    i2l1418 07A2  
                  i2l1450 063E                    i2l1522 0140                    i2l1514 0110  
                  i2l1506 00C6                    i2l1460 07D0                    i2l1380 06CE  
                  i2l1436 07C6                    i2l1428 07B0                    i2l1452 0642  
                  i2l1524 0154                    i2l1516 011E                    i2l1508 00CC  
                  i2l1470 07EA                    i2l1462 07E0                    i2l1390 06EC  
                  i2l1382 06D2                    i2l1454 0656                    i2l1526 0160  
                  i2l1518 012C                    i2l1376 0842                    i2l1480 0804  
                  i2l1472 07EE                    i2l1464 07E2                    i2l1392 06F0  
                  i2l1384 06D6                    i2l1456 0666                    i2l1474 07FA  
                  i2l1466 07E4                    i2l1394 06F6                    i2l1386 06DC  
                  i2l1458 066A                    i2l1490 0044                    i2l1476 07FE  
                  i2l1468 07E8                    i2l1396 06F8                    i2l1388 06EA  
                  i2l1492 0052                    i2l1484 001A                    i2l1478 0800  
                  i2l1398 06FA                    i2l1494 0058                    i2l1486 0028  
          __CFG_WDTEN$OFF 000000                    i2l1496 006C                    i2l1488 0036  
                  i2l1498 0078                    _INTCON 000FF2  __size_ofi2_WriteDataXLCD 003E  
            _DelayPORXLCD 080C               ?i2_putsXLCD 0002                 ??_highISR 0004  
     __size_ofi2_BusyXLCD 0046            ?_WriteDataXLCD 0001              __mediumconst 0000  
                  tblptrh 000FF7                    tblptrl 000FF6                    tblptru 000FF8  
        __end_of_putsXLCD 063E         __end_of_DelayXLCD 087A                __accesstop 0060  
 __end_of__initialization 0856             ___rparam_used 000001            __pcstackCOMRAM 0001  
          i2_WriteCmdXLCD 07CE    __size_of_DelayFor18TCY 0014                 ?_BusyXLCD 0001  
     __size_ofi2_putsXLCD 004A           WriteCmdXLCD@cmd 0008                 ?_OpenXLCD 0001  
       ??i2_WriteDataXLCD 0001         WriteDataXLCD@data 0008    __end_ofi2_WriteCmdXLCD 080C  
         ??_WriteDataXLCD 0008                   _INTCON2 000FF1                   _INTCON3 000FF0  
                 i2u50_40 0044                   i2u50_41 0040                   i2u43_40 06EA  
                 i2u51_40 0052                   i2u43_41 06E6                   i2u51_41 004E  
                 i2u60_40 0110                   i2u52_40 006C                   i2u60_41 010C  
                 i2u52_41 0068                   i2u61_40 011E                   i2u53_40 008C  
                 i2u61_41 011A                   i2u53_41 0088                   i2u46_40 0656  
                 i2u62_40 012C                   i2u54_40 009C                   i2u46_41 0652  
                 i2u62_41 0128                   i2u54_41 0098                   i2u47_40 0686  
                 i2u63_40 013A                   i2u55_40 00AA                   i2u47_41 0682  
                 i2u63_41 0136                   i2u55_41 00A6                   i2u64_40 0154  
                 i2u56_40 00B8                   i2u48_40 0028                   i2u64_41 0150  
                 i2u56_41 00B4                   i2u48_41 0024                   i2u65_40 0174  
                 i2u57_40 00C6                   i2u49_40 0036                   i2u65_41 0170  
                 i2u57_41 00C2                   i2u49_41 0032                   i2u58_40 00E0  
                 i2u58_41 00DC                   i2u59_40 0100                   i2u59_41 00FC  
                 i2u86_47 0844                   i2u87_47 084A              ??i2_BusyXLCD 0001  
              ??_BusyXLCD 0008                ??_OpenXLCD 0009                   __Hparam 0000  
                 __Lparam 0000             _DelayFor18TCY 082E                 ?_putsXLCD 0009  
            __psmallconst 0300           ?i2_WriteCmdXLCD 0001                   __pcinit 0856  
                 __ramtop 0300                   _highISR 0008                   __ptext0 0326  
                 __ptext1 05F4                   __ptext2 0714                   __ptext3 04EA  
                 __ptext4 0752                   __ptext5 0868                   __ptext6 080C  
                 __ptext7 0688                   __ptext8 082E        __end_ofi2_BusyXLCD 0714  
__size_ofi2_DelayFor18TCY 0014      end_of_initialization 0856            ?_DelayFor18TCY 0001  
            ??i2_putsXLCD 0004                ??_putsXLCD 000B                 _PORTBbits 000F81  
               _TRISDbits 000F95          i2putsXLCD@buffer 0002        __end_ofi2_putsXLCD 0688  
               _DelayXLCD 0868       start_initialization 0856           i2_WriteDataXLCD 0790  
       ??i2_DelayFor18TCY 0001         __size_of_BusyXLCD 0046                ?_DelayXLCD 0001  
         ??_DelayFor18TCY 0008         __size_of_OpenXLCD 010A             ?_WriteCmdXLCD 0001  
          putsXLCD@buffer 0009          ??i2_WriteCmdXLCD 0001                 __pintcode 0008  
          ??_WriteCmdXLCD 0008                  ?_highISR 0001         __size_of_putsXLCD 004A  
   __end_of_WriteDataXLCD 0752               __smallconst 0300   __end_ofi2_WriteDataXLCD 07CE  
                _LATDbits 000F8C               ??_DelayXLCD 0008             ?_DelayPORXLCD 0001  
         OpenXLCD@lcdtype 0001                  _RCONbits 000FD0               _INTCON2bits 000FF1  
             _INTCON3bits 000FF0                  _BusyXLCD 0688            ??_DelayPORXLCD 0008  
                _OpenXLCD 04EA                  __Hrparam 0000                  __Lrparam 0000  
            __Lsmallconst 0300          __size_of_highISR 0182           i2_DelayFor18TCY 0842  
        ?i2_WriteDataXLCD 0001                  __ptext10 063E                  __ptext11 0790  
                __ptext12 06CE                  __ptext13 07CE                  __ptext14 0842  
    __end_of_WriteCmdXLCD 0790             __size_of_main 01C4                  int$flags 000D  
                _putsXLCD 05F4                _INTCONbits 000FF2                  intlevel2 0000  
   __end_of_DelayFor18TCY 0842   __end_ofi2_DelayFor18TCY 0856      __end_of_DelayPORXLCD 082E  
              i2_BusyXLCD 06CE         i2WriteCmdXLCD@cmd 0001  
